LIBRARY	Half
EXPORTS
	?setBits@half@@QAEXG@Z
	?boolalpha@?$_Iosb@H@std@@2W4_Fmtflags@12@B
	?hex@?$_Iosb@H@std@@2W4_Fmtflags@12@B
	?hexfloat@?$_Iosb@H@std@@2W4_Fmtflags@12@B
	??0half@@QAE@XZ
	?isNormalized@half@@QBE_NXZ
	?qNan@half@@SA?AV1@XZ
	?showbase@?$_Iosb@H@std@@2W4_Fmtflags@12@B
	??1_Sentry_base@?$basic_ostream@DU?$char_traits@D@std@@@std@@QAE@XZ
	??Zhalf@@QAEAAV0@V0@@Z
	?printBits@@YAXQADVhalf@@@Z
	??1sentry@?$basic_ostream@DU?$char_traits@D@std@@@std@@QAE@XZ
	?sNan@half@@SA?AV1@XZ
	?bits@half@@QBEGXZ
	?printBits@@YAXAAV?$basic_ostream@DU?$char_traits@D@std@@@std@@Vhalf@@@Z
	?internal@?$_Iosb@H@std@@2W4_Fmtflags@12@B
	?fixed@?$_Iosb@H@std@@2W4_Fmtflags@12@B
	?isFinite@half@@QBE_NXZ
	?scientific@?$_Iosb@H@std@@2W4_Fmtflags@12@B
	?_toFloat@half@@0PATuif@1@A
	?monetary@?$_Locbase@H@std@@2HB
	?end@?$_Iosb@H@std@@2W4_Seekdir@12@B
	?trunc@?$_Iosb@H@std@@2W4_Openmode@12@B
	?showpoint@?$_Iosb@H@std@@2W4_Fmtflags@12@B
	?goodbit@?$_Iosb@H@std@@2W4_Iostate@12@B
	?printBits@@YAXQADM@Z
	?floatfield@?$_Iosb@H@std@@2W4_Fmtflags@12@B
	?none@?$_Locbase@H@std@@2HB
	?convert@half@@CAFH@Z
	?isNegative@half@@QBE_NXZ
	?out@?$_Iosb@H@std@@2W4_Openmode@12@B
	?_Noreplace@?$_Iosb@H@std@@2W4_Openmode@12@B
	?printBits@@YAXAAV?$basic_ostream@DU?$char_traits@D@std@@@std@@M@Z
	?unitbuf@?$_Iosb@H@std@@2W4_Fmtflags@12@B
	?binary@?$_Iosb@H@std@@2W4_Openmode@12@B
	?showpos@?$_Iosb@H@std@@2W4_Fmtflags@12@B
	?beg@?$_Iosb@H@std@@2W4_Seekdir@12@B
	?basefield@?$_Iosb@H@std@@2W4_Fmtflags@12@B
	?posInf@half@@SA?AV1@XZ
	??0half@@QAE@M@Z
	?cur@?$_Iosb@H@std@@2W4_Seekdir@12@B
	??Xhalf@@QAEAAV0@V0@@Z
	?all@?$_Locbase@H@std@@2HB
	?isDenormalized@half@@QBE_NXZ
	?round@half@@QBE?AV1@I@Z
	?_Stdio@?$_Iosb@H@std@@2W4_Fmtflags@12@B
	?_eLut@half@@0PAGA
	?ate@?$_Iosb@H@std@@2W4_Openmode@12@B
	?isNan@half@@QBE_NXZ
	?time@?$_Locbase@H@std@@2HB
	??0sentry@?$basic_ostream@DU?$char_traits@D@std@@@std@@QAE@AAV12@@Z
	?badbit@?$_Iosb@H@std@@2W4_Iostate@12@B
	??4half@@QAEAAV0@M@Z
	??0_Sentry_base@?$basic_ostream@DU?$char_traits@D@std@@@std@@QAE@AAV12@@Z
	??Bhalf@@QBEMXZ
	??Bsentry@?$basic_ostream@DU?$char_traits@D@std@@@std@@QBE_NXZ
	?app@?$_Iosb@H@std@@2W4_Openmode@12@B
	?overflow@half@@CAMXZ
	??Xhalf@@QAEAAV0@M@Z
	?messages@?$_Locbase@H@std@@2HB
	?_Hardfail@?$_Iosb@H@std@@2W4_Iostate@12@B
	?skipws@?$_Iosb@H@std@@2W4_Fmtflags@12@B
	??5@YAAAV?$basic_istream@DU?$char_traits@D@std@@@std@@AAV01@AAVhalf@@@Z
	?eofbit@?$_Iosb@H@std@@2W4_Iostate@12@B
	??Yhalf@@QAEAAV0@M@Z
	?isInfinity@half@@QBE_NXZ
	?collate@?$_Locbase@H@std@@2HB
	??Ghalf@@QBE?AV0@XZ
	?_Nocreate@?$_Iosb@H@std@@2W4_Openmode@12@B
	?right@?$_Iosb@H@std@@2W4_Fmtflags@12@B
	?adjustfield@?$_Iosb@H@std@@2W4_Fmtflags@12@B
	?isZero@half@@QBE_NXZ
	?uppercase@?$_Iosb@H@std@@2W4_Fmtflags@12@B
	??$?6U?$char_traits@D@std@@@std@@YAAAV?$basic_ostream@DU?$char_traits@D@std@@@0@AAV10@D@Z
	?dec@?$_Iosb@H@std@@2W4_Fmtflags@12@B
	??4half@@QAEAAV0@V0@@Z
	??6@YAAAV?$basic_ostream@DU?$char_traits@D@std@@@std@@AAV01@Vhalf@@@Z
	?ctype@?$_Locbase@H@std@@2HB
	??Zhalf@@QAEAAV0@M@Z
	?failbit@?$_Iosb@H@std@@2W4_Iostate@12@B
	?left@?$_Iosb@H@std@@2W4_Fmtflags@12@B
	?negInf@half@@SA?AV1@XZ
	?_Value@?$_Is_swap_move@U_Swap_move_tag@std@@@std@@2_NB
	?oct@?$_Iosb@H@std@@2W4_Fmtflags@12@B
	??Yhalf@@QAEAAV0@V0@@Z
	?in@?$_Iosb@H@std@@2W4_Openmode@12@B
	?numeric@?$_Locbase@H@std@@2HB
