LIBRARY	Iex
EXPORTS
	??0BaseExc@Iex@@QAE@ABV01@@Z
	??0EdeadlkExc@Iex@@QAE@ABV?$basic_string@DU?$char_traits@D@std@@V?$allocator@D@2@@std@@@Z
	??0EnoexecExc@Iex@@QAE@ABV01@@Z
	??0EnxioExc@Iex@@QAE@ABV?$basic_string@DU?$char_traits@D@std@@V?$allocator@D@2@@std@@@Z
	??1EnametoolongExc@Iex@@UAE@XZ
	??1EnoexecExc@Iex@@UAE@XZ
	__CTA7?AVErrnoExc@Iex@@
	__CTA8?AVEnxioExc@Iex@@
	__TI8?AVEbadfExc@Iex@@
	??0EioExc@Iex@@QAE@ABV?$basic_string@DU?$char_traits@D@std@@V?$allocator@D@2@@std@@@Z
	??0EnametoolongExc@Iex@@QAE@ABV?$basic_string@DU?$char_traits@D@std@@V?$allocator@D@2@@std@@@Z
	?boolalpha@?$_Iosb@H@std@@2W4_Fmtflags@12@B
	__TI8?AVEintrExc@Iex@@
	??0EsrchExc@Iex@@QAE@ABV?$basic_string@DU?$char_traits@D@std@@V?$allocator@D@2@@std@@@Z
	__TI8?AVEisdirExc@Iex@@
	??0EmfileExc@Iex@@QAE@ABV?$basic_string@DU?$char_traits@D@std@@V?$allocator@D@2@@std@@@Z
	?hex@?$_Iosb@H@std@@2W4_Fmtflags@12@B
	?hexfloat@?$_Iosb@H@std@@2W4_Fmtflags@12@B
	__CTA8?AVEmlinkExc@Iex@@
	??0EinvalExc@Iex@@QAE@ABV?$basic_string@DU?$char_traits@D@std@@V?$allocator@D@2@@std@@@Z
	??0EnomemExc@Iex@@QAE@ABV01@@Z
	??0EnosysExc@Iex@@QAE@ABV?$basic_string@DU?$char_traits@D@std@@V?$allocator@D@2@@std@@@Z
	??1EexistExc@Iex@@UAE@XZ
	?showbase@?$_Iosb@H@std@@2W4_Fmtflags@12@B
	__CTA8?AVEintrExc@Iex@@
	??0EdomExc@Iex@@QAE@ABV?$basic_string@DU?$char_traits@D@std@@V?$allocator@D@2@@std@@@Z
	??0EilseqExc@Iex@@QAE@ABV01@@Z
	?throwErrnoExc@Iex@@YAXABV?$basic_string@DU?$char_traits@D@std@@V?$allocator@D@2@@std@@H@Z
	__CTA8?AVEagainExc@Iex@@
	??1EbusyExc@Iex@@UAE@XZ
	__CTA8?AVEnodevExc@Iex@@
	__TI8?AVEpipeExc@Iex@@
	__CTA8?AVEfbigExc@Iex@@
	__CTA8?AVEilseqExc@Iex@@
	__CTA8?AVEnotdirExc@Iex@@
	??0ErrnoExc@Iex@@QAE@ABV01@@Z
	__CTA8?AVEchildExc@Iex@@
	??1EilseqExc@Iex@@UAE@XZ
	??1EnomemExc@Iex@@UAE@XZ
	?internal@?$_Iosb@H@std@@2W4_Fmtflags@12@B
	__TI8?AVEinvalExc@Iex@@
	__TI8?AVEnotdirExc@Iex@@
	??0EfbigExc@Iex@@QAE@ABV01@@Z
	??0EnotdirExc@Iex@@QAE@ABV?$basic_string@DU?$char_traits@D@std@@V?$allocator@D@2@@std@@@Z
	??0EpermExc@Iex@@QAE@ABV01@@Z
	?fixed@?$_Iosb@H@std@@2W4_Fmtflags@12@B
	?scientific@?$_Iosb@H@std@@2W4_Fmtflags@12@B
	__CTA8?AVErangeExc@Iex@@
	__TI8?AVEnfileExc@Iex@@
	__TI8?AVEnxioExc@Iex@@
	??1EagainExc@Iex@@UAE@XZ
	?monetary@?$_Locbase@H@std@@2HB
	??0EfaultExc@Iex@@QAE@ABV01@@Z
	?end@?$_Iosb@H@std@@2W4_Seekdir@12@B
	__TI8?AVErangeExc@Iex@@
	??0EintrExc@Iex@@QAE@ABV?$basic_string@DU?$char_traits@D@std@@V?$allocator@D@2@@std@@@Z
	??1EnxioExc@Iex@@UAE@XZ
	?trunc@?$_Iosb@H@std@@2W4_Openmode@12@B
	__CTA8?AVEpipeExc@Iex@@
	??0EfaultExc@Iex@@QAE@ABV?$basic_string@DU?$char_traits@D@std@@V?$allocator@D@2@@std@@@Z
	??1EdomExc@Iex@@UAE@XZ
	??1EioExc@Iex@@UAE@XZ
	?showpoint@?$_Iosb@H@std@@2W4_Fmtflags@12@B
	__CTA8?AVEnosysExc@Iex@@
	__TI8?AVEdeadlkExc@Iex@@
	__TI8?AVEmlinkExc@Iex@@
	__TI8?AVEnoexecExc@Iex@@
	__TI8?AVEnotemptyExc@Iex@@
	??1EaccesExc@Iex@@UAE@XZ
	??1EnosysExc@Iex@@UAE@XZ
	??1ExdevExc@Iex@@UAE@XZ
	?assign@BaseExc@Iex@@QAEAAV12@AAV?$basic_stringstream@DU?$char_traits@D@std@@V?$allocator@D@2@@std@@@Z
	__CTA8?AVEinvalExc@Iex@@
	__TI8?AVEnottyExc@Iex@@
	??0EnolckExc@Iex@@QAE@ABV01@@Z
	??1EnottyExc@Iex@@UAE@XZ
	__CTA8?AVEspipeExc@Iex@@
	??1ErangeExc@Iex@@UAE@XZ
	?goodbit@?$_Iosb@H@std@@2W4_Iostate@12@B
	?stackTracer@Iex@@YAP6A?AV?$basic_string@DU?$char_traits@D@std@@V?$allocator@D@2@@std@@XZXZ
	__CTA8?AVEnoentExc@Iex@@
	__CTA8?AVExdevExc@Iex@@
	__TI8?AVEnomemExc@Iex@@
	??0EbusyExc@Iex@@QAE@ABV?$basic_string@DU?$char_traits@D@std@@V?$allocator@D@2@@std@@@Z
	??0EdeadlkExc@Iex@@QAE@ABV01@@Z
	??0EpermExc@Iex@@QAE@ABV?$basic_string@DU?$char_traits@D@std@@V?$allocator@D@2@@std@@@Z
	??0EspipeExc@Iex@@QAE@ABV01@@Z
	??1EnodevExc@Iex@@UAE@XZ
	?floatfield@?$_Iosb@H@std@@2W4_Fmtflags@12@B
	?none@?$_Locbase@H@std@@2HB
	__TI8?AVEnametoolongExc@Iex@@
	__TI8?AVEnoentExc@Iex@@
	??0EdomExc@Iex@@QAE@ABV01@@Z
	??0EilseqExc@Iex@@QAE@ABV?$basic_string@DU?$char_traits@D@std@@V?$allocator@D@2@@std@@@Z
	??1EsrchExc@Iex@@UAE@XZ
	??0E2bigExc@Iex@@QAE@ABV01@@Z
	??0EinvalExc@Iex@@QAE@ABV01@@Z
	??1EmfileExc@Iex@@UAE@XZ
	??1EnfileExc@Iex@@UAE@XZ
	??1EnolckExc@Iex@@UAE@XZ
	??1EspipeExc@Iex@@UAE@XZ
	?out@?$_Iosb@H@std@@2W4_Openmode@12@B
	?setStackTracer@Iex@@YAXP6A?AV?$basic_string@DU?$char_traits@D@std@@V?$allocator@D@2@@std@@XZ@Z
	__CTA8?AVEnoexecExc@Iex@@
	__TI8?AVEpermExc@Iex@@
	??0EaccesExc@Iex@@QAE@ABV?$basic_string@DU?$char_traits@D@std@@V?$allocator@D@2@@std@@@Z
	??0E2bigExc@Iex@@QAE@ABV?$basic_string@DU?$char_traits@D@std@@V?$allocator@D@2@@std@@@Z
	??1ErrnoExc@Iex@@UAE@XZ
	?_Noreplace@?$_Iosb@H@std@@2W4_Openmode@12@B
	?unitbuf@?$_Iosb@H@std@@2W4_Fmtflags@12@B
	__CTA8?AVEbadfExc@Iex@@
	__TI8?AVE2bigExc@Iex@@
	??0EchildExc@Iex@@QAE@ABV?$basic_string@DU?$char_traits@D@std@@V?$allocator@D@2@@std@@@Z
	??1EintrExc@Iex@@UAE@XZ
	?binary@?$_Iosb@H@std@@2W4_Openmode@12@B
	?showpos@?$_Iosb@H@std@@2W4_Fmtflags@12@B
	__TI8?AVEnolckExc@Iex@@
	??0EexistExc@Iex@@QAE@ABV?$basic_string@DU?$char_traits@D@std@@V?$allocator@D@2@@std@@@Z
	?currentStackTracer@?A0xb1640017@Iex@@3P6A?AV?$basic_string@DU?$char_traits@D@std@@V?$allocator@D@2@@std@@XZA
	__CTA8?AVEioExc@Iex@@
	__TI8?AVEagainExc@Iex@@
	__TI8?AVEchildExc@Iex@@
	??0EbadfExc@Iex@@QAE@ABV?$basic_string@DU?$char_traits@D@std@@V?$allocator@D@2@@std@@@Z
	??0ErofsExc@Iex@@QAE@ABV?$basic_string@DU?$char_traits@D@std@@V?$allocator@D@2@@std@@@Z
	??1EnospcExc@Iex@@UAE@XZ
	?beg@?$_Iosb@H@std@@2W4_Seekdir@12@B
	__CTA8?AVEaccesExc@Iex@@
	__CTA8?AVEdeadlkExc@Iex@@
	__TI8?AVEilseqExc@Iex@@
	??0EaccesExc@Iex@@QAE@ABV01@@Z
	??1EbadfExc@Iex@@UAE@XZ
	?basefield@?$_Iosb@H@std@@2W4_Fmtflags@12@B
	??0EmfileExc@Iex@@QAE@ABV01@@Z
	??0EnoentExc@Iex@@QAE@ABV?$basic_string@DU?$char_traits@D@std@@V?$allocator@D@2@@std@@@Z
	??0EnomemExc@Iex@@QAE@ABV?$basic_string@DU?$char_traits@D@std@@V?$allocator@D@2@@std@@@Z
	??0EnottyExc@Iex@@QAE@ABV01@@Z
	??0EsrchExc@Iex@@QAE@ABV01@@Z
	?append@BaseExc@Iex@@QAEAAV12@AAV?$basic_stringstream@DU?$char_traits@D@std@@V?$allocator@D@2@@std@@@Z
	?cur@?$_Iosb@H@std@@2W4_Seekdir@12@B
	__CTA8?AVEsrchExc@Iex@@
	__TI8?AVEioExc@Iex@@
	??1EfaultExc@Iex@@UAE@XZ
	?all@?$_Locbase@H@std@@2HB
	??0EagainExc@Iex@@QAE@ABV?$basic_string@DU?$char_traits@D@std@@V?$allocator@D@2@@std@@@Z
	??0EnoentExc@Iex@@QAE@ABV01@@Z
	?_Stdio@?$_Iosb@H@std@@2W4_Fmtflags@12@B
	?ate@?$_Iosb@H@std@@2W4_Openmode@12@B
	?time@?$_Locbase@H@std@@2HB
	__TI8?AVEspipeExc@Iex@@
	??0EbadfExc@Iex@@QAE@ABV01@@Z
	??1EinvalExc@Iex@@UAE@XZ
	?badbit@?$_Iosb@H@std@@2W4_Iostate@12@B
	__CTA8?AVEnospcExc@Iex@@
	__TI8?AVEfaultExc@Iex@@
	??0EagainExc@Iex@@QAE@ABV01@@Z
	??0EnolckExc@Iex@@QAE@ABV?$basic_string@DU?$char_traits@D@std@@V?$allocator@D@2@@std@@@Z
	??0EbusyExc@Iex@@QAE@ABV01@@Z
	??0EnfileExc@Iex@@QAE@ABV01@@Z
	??0EspipeExc@Iex@@QAE@ABV?$basic_string@DU?$char_traits@D@std@@V?$allocator@D@2@@std@@@Z
	??1E2bigExc@Iex@@UAE@XZ
	??1EmlinkExc@Iex@@UAE@XZ
	__CTA8?AVEnametoolongExc@Iex@@
	__CTA8?AVEnotemptyExc@Iex@@
	__CTA8?AVEnottyExc@Iex@@
	??0EnotdirExc@Iex@@QAE@ABV01@@Z
	??0EnospcExc@Iex@@QAE@ABV01@@Z
	??0EpipeExc@Iex@@QAE@ABV?$basic_string@DU?$char_traits@D@std@@V?$allocator@D@2@@std@@@Z
	??1EisdirExc@Iex@@UAE@XZ
	__CTA8?AVEnolckExc@Iex@@
	??1EnotdirExc@Iex@@UAE@XZ
	?app@?$_Iosb@H@std@@2W4_Openmode@12@B
	__TI8?AVEexistExc@Iex@@
	??0ErangeExc@Iex@@QAE@ABV?$basic_string@DU?$char_traits@D@std@@V?$allocator@D@2@@std@@@Z
	??1EfbigExc@Iex@@UAE@XZ
	?messages@?$_Locbase@H@std@@2HB
	__CTA8?AVEdomExc@Iex@@
	??0EnxioExc@Iex@@QAE@ABV01@@Z
	??0ErrnoExc@Iex@@QAE@ABV?$basic_string@DU?$char_traits@D@std@@V?$allocator@D@2@@std@@@Z
	?_Hardfail@?$_Iosb@H@std@@2W4_Iostate@12@B
	__TI7?AVErrnoExc@Iex@@
	??0EchildExc@Iex@@QAE@ABV01@@Z
	??0EnodevExc@Iex@@QAE@ABV01@@Z
	??0EnoexecExc@Iex@@QAE@ABV?$basic_string@DU?$char_traits@D@std@@V?$allocator@D@2@@std@@@Z
	??0ErofsExc@Iex@@QAE@ABV01@@Z
	?skipws@?$_Iosb@H@std@@2W4_Fmtflags@12@B
	__CTA8?AVEexistExc@Iex@@
	__TI8?AVEnosysExc@Iex@@
	?eofbit@?$_Iosb@H@std@@2W4_Iostate@12@B
	__TI8?AVErofsExc@Iex@@
	__CTA8?AVEnomemExc@Iex@@
	__TI8?AVEfbigExc@Iex@@
	??0BaseExc@Iex@@QAE@PBD@Z
	??0EnodevExc@Iex@@QAE@ABV?$basic_string@DU?$char_traits@D@std@@V?$allocator@D@2@@std@@@Z
	?collate@?$_Locbase@H@std@@2HB
	??0EmlinkExc@Iex@@QAE@ABV?$basic_string@DU?$char_traits@D@std@@V?$allocator@D@2@@std@@@Z
	__CTA8?AVEbusyExc@Iex@@
	__TI8?AVEaccesExc@Iex@@
	__TI8?AVEmfileExc@Iex@@
	__TI8?AVEnodevExc@Iex@@
	??0EnospcExc@Iex@@QAE@ABV?$basic_string@DU?$char_traits@D@std@@V?$allocator@D@2@@std@@@Z
	??0EnosysExc@Iex@@QAE@ABV01@@Z
	??1EpipeExc@Iex@@UAE@XZ
	?throwErrnoExc@Iex@@YAXABV?$basic_string@DU?$char_traits@D@std@@V?$allocator@D@2@@std@@@Z
	??1EdeadlkExc@Iex@@UAE@XZ
	??1EnotemptyExc@Iex@@UAE@XZ
	?_Nocreate@?$_Iosb@H@std@@2W4_Openmode@12@B
	??0EmlinkExc@Iex@@QAE@ABV01@@Z
	__CTA8?AVEmfileExc@Iex@@
	__CTA8?AVEnfileExc@Iex@@
	__TI8?AVEsrchExc@Iex@@
	??0EexistExc@Iex@@QAE@ABV01@@Z
	??0EpipeExc@Iex@@QAE@ABV01@@Z
	?right@?$_Iosb@H@std@@2W4_Fmtflags@12@B
	??0BaseExc@Iex@@QAE@ABV?$basic_string@DU?$char_traits@D@std@@V?$allocator@D@2@@std@@@Z
	??0EnametoolongExc@Iex@@QAE@ABV01@@Z
	??1EnoentExc@Iex@@UAE@XZ
	?adjustfield@?$_Iosb@H@std@@2W4_Fmtflags@12@B
	?uppercase@?$_Iosb@H@std@@2W4_Fmtflags@12@B
	__CTA8?AVEfaultExc@Iex@@
	__TI8?AVEbusyExc@Iex@@
	??0EnfileExc@Iex@@QAE@ABV?$basic_string@DU?$char_traits@D@std@@V?$allocator@D@2@@std@@@Z
	?dec@?$_Iosb@H@std@@2W4_Fmtflags@12@B
	__CTA8?AVEpermExc@Iex@@
	??0BaseExc@Iex@@QAE@AAV?$basic_stringstream@DU?$char_traits@D@std@@V?$allocator@D@2@@std@@@Z
	??0EisdirExc@Iex@@QAE@ABV01@@Z
	??0ExdevExc@Iex@@QAE@ABV?$basic_string@DU?$char_traits@D@std@@V?$allocator@D@2@@std@@@Z
	?ctype@?$_Locbase@H@std@@2HB
	__CTA8?AVE2bigExc@Iex@@
	??1BaseExc@Iex@@UAE@XZ
	??1ErofsExc@Iex@@UAE@XZ
	?failbit@?$_Iosb@H@std@@2W4_Iostate@12@B
	?left@?$_Iosb@H@std@@2W4_Fmtflags@12@B
	__TI8?AVEdomExc@Iex@@
	??1EchildExc@Iex@@UAE@XZ
	?_Value@?$_Is_swap_move@U_Swap_move_tag@std@@@std@@2_NB
	?what@BaseExc@Iex@@UBEPBDXZ
	??0EioExc@Iex@@QAE@ABV01@@Z
	??0ErangeExc@Iex@@QAE@ABV01@@Z
	??0ExdevExc@Iex@@QAE@ABV01@@Z
	?oct@?$_Iosb@H@std@@2W4_Fmtflags@12@B
	__CTA8?AVEisdirExc@Iex@@
	??0EfbigExc@Iex@@QAE@ABV?$basic_string@DU?$char_traits@D@std@@V?$allocator@D@2@@std@@@Z
	??0EintrExc@Iex@@QAE@ABV01@@Z
	??1EpermExc@Iex@@UAE@XZ
	__CTA8?AVErofsExc@Iex@@
	??0EisdirExc@Iex@@QAE@ABV?$basic_string@DU?$char_traits@D@std@@V?$allocator@D@2@@std@@@Z
	??0EnottyExc@Iex@@QAE@ABV?$basic_string@DU?$char_traits@D@std@@V?$allocator@D@2@@std@@@Z
	?in@?$_Iosb@H@std@@2W4_Openmode@12@B
	?numeric@?$_Locbase@H@std@@2HB
	__TI8?AVEnospcExc@Iex@@
	??0EnotemptyExc@Iex@@QAE@ABV01@@Z
	??0EnotemptyExc@Iex@@QAE@ABV?$basic_string@DU?$char_traits@D@std@@V?$allocator@D@2@@std@@@Z
	__TI8?AVExdevExc@Iex@@
