 IlmThread

 Timestamp is 50fd52f5 (Mon Jan 21 22:38:45 2013)

 Preferred load address is 10000000

 Start         Length     Name                   Class
 0001:00000000 00010000H .textbss                DATA
 0002:00000000 0000ce17H .text                   CODE
 0002:0000ce20 00001cb2H .text$x                 CODE
 0002:0000eae0 0000104bH .text$yd                CODE
 0003:00000000 00000104H .CRT$XCA                DATA
 0003:00000104 00000104H .CRT$XCZ                DATA
 0003:00000208 00000104H .CRT$XIA                DATA
 0003:0000030c 00000104H .CRT$XIAA               DATA
 0003:00000410 00000104H .CRT$XIZ                DATA
 0003:00000520 00001a44H .rdata                  DATA
 0003:00001f64 00000187H .rdata$debug            DATA
 0003:000020ec 000007d6H .rdata$r                DATA
 0003:000028c4 00000104H .rtc$IAA                DATA
 0003:000029c8 00000113H .rtc$IMZ                DATA
 0003:00002adc 00000104H .rtc$IZZ                DATA
 0003:00002be0 00000104H .rtc$TAA                DATA
 0003:00002ce4 00000113H .rtc$TMZ                DATA
 0003:00002df8 00000104H .rtc$TZZ                DATA
 0003:00002f00 00001025H .xdata$x                DATA
 0003:00003f30 0000022fH .edata                  DATA
 0004:00000000 00000460H .data                   DATA
 0004:00000460 00000448H .bss                    DATA
 0005:00000000 00000050H .idata$2                DATA
 0005:00000050 00000014H .idata$3                DATA
 0005:00000064 000002d4H .idata$4                DATA
 0005:00000338 000002d4H .idata$5                DATA
 0005:0000060c 000011f2H .idata$6                DATA
 0006:00000000 00000169H .rsrc$01                DATA
 0006:00000170 00000a99H .rsrc$02                DATA

  Address         Publics by Value              Rva+Base       Lib:Object

 0000:00000000       ___safe_se_handler_table   00000000     <absolute>
 0000:00000000       ___safe_se_handler_count   00000000     <absolute>
 0000:00000000       ___ImageBase               10000000     <linker-defined>
 0001:00000000       __enc$textbss$begin        10001000     <linker-defined>
 0001:00010000       __enc$textbss$end          10011000     <linker-defined>
 0002:00000e90       ??0Mutex@IlmThread@@QAE@XZ 10011e90 f   IlmThreadMutexWin32.obj
 0002:00000f00       ??_EMutex@IlmThread@@UAEPAXI@Z 10011f00 f i IlmThreadMutexWin32.obj
 0002:00000f00       ??_GMutex@IlmThread@@UAEPAXI@Z 10011f00 f i IlmThreadMutexWin32.obj
 0002:00000f70       ??1Mutex@IlmThread@@UAE@XZ 10011f70 f   IlmThreadMutexWin32.obj
 0002:00000fe0       ?lock@Mutex@IlmThread@@ABEXXZ 10011fe0 f   IlmThreadMutexWin32.obj
 0002:00001040       ?unlock@Mutex@IlmThread@@ABEXXZ 10012040 f   IlmThreadMutexWin32.obj
 0002:000010a0       ??0WorkerThread@?A0xb0a473bd@IlmThread@@QAE@PAUData@ThreadPool@2@@Z 100120a0 f   IlmThreadPool.obj
 0002:00001160       ??_GWorkerThread@?A0xb0a473bd@IlmThread@@UAEPAXI@Z 10012160 f i IlmThreadPool.obj
 0002:00001160       ??_EWorkerThread@?A0xb0a473bd@IlmThread@@UAEPAXI@Z 10012160 f i IlmThreadPool.obj
 0002:000011d0       ??1WorkerThread@?A0xb0a473bd@IlmThread@@UAE@XZ 100121d0 f i IlmThreadPool.obj
 0002:00001220       ?run@WorkerThread@?A0xb0a473bd@IlmThread@@UAEXXZ 10012220 f   IlmThreadPool.obj
 0002:00001470       ??0Lock@IlmThread@@QAE@ABVMutex@1@_N@Z 10012470 f i IlmThreadPool.obj
 0002:000014f0       ??1Lock@IlmThread@@QAE@XZ  100124f0 f i IlmThreadPool.obj
 0002:00001550       ?acquire@Lock@IlmThread@@QAEXXZ 10012550 f i IlmThreadPool.obj
 0002:000015b0       ?release@Lock@IlmThread@@QAEXXZ 100125b0 f i IlmThreadPool.obj
 0002:00001610       ??0Data@TaskGroup@IlmThread@@QAE@XZ 10012610 f   IlmThreadPool.obj
 0002:00001680       ??1Data@TaskGroup@IlmThread@@QAE@XZ 10012680 f   IlmThreadPool.obj
 0002:00001720       ?addTask@Data@TaskGroup@IlmThread@@QAEXXZ 10012720 f   IlmThreadPool.obj
 0002:000017c0       ?removeTask@Data@TaskGroup@IlmThread@@QAEXXZ 100127c0 f   IlmThreadPool.obj
 0002:00001830       ??0Data@ThreadPool@IlmThread@@QAE@XZ 10012830 f   IlmThreadPool.obj
 0002:00001970       ??1Data@ThreadPool@IlmThread@@QAE@XZ 10012970 f   IlmThreadPool.obj
 0002:00001af0       ?finish@Data@ThreadPool@IlmThread@@QAEXXZ 10012af0 f   IlmThreadPool.obj
 0002:00001dd0       ??1?$_Iterator@$00@?$list@PAVWorkerThread@?A0xb0a473bd@IlmThread@@V?$allocator@PAVWorkerThread@?A0xb0a473bd@IlmThread@@@std@@@std@@QAE@XZ 10012dd0 f i IlmThreadPool.obj
 0002:00001e20       ??1?$_Const_iterator@$00@?$list@PAVWorkerThread@?A0xb0a473bd@IlmThread@@V?$allocator@PAVWorkerThread@?A0xb0a473bd@IlmThread@@@std@@@std@@QAE@XZ 10012e20 f i IlmThreadPool.obj
 0002:00001e70       ??1?$_Bidit@PAVWorkerThread@?A0xb0a473bd@IlmThread@@HPBQAV123@ABQAV123@@std@@QAE@XZ 10012e70 f i IlmThreadPool.obj
 0002:00001ec0       ??1?$_Iterator_with_base@Ubidirectional_iterator_tag@std@@PAVWorkerThread@?A0xb0a473bd@IlmThread@@HPBQAV345@ABQAV345@V_Iterator_base@2@@std@@QAE@XZ 10012ec0 f i IlmThreadPool.obj
 0002:00001f10       ??1_Iterator_base@std@@QAE@XZ 10012f10 f i IlmThreadPool.obj
 0002:00002010       ?_Orphan_me@_Iterator_base@std@@QAEXXZ 10013010 f i IlmThreadPool.obj
 0002:000020f0       ?stopped@Data@ThreadPool@IlmThread@@QBE_NXZ 100130f0 f   IlmThreadPool.obj
 0002:000021b0       ?stop@Data@ThreadPool@IlmThread@@QAEXXZ 100131b0 f   IlmThreadPool.obj
 0002:00002260       ??0Task@IlmThread@@QAE@PAVTaskGroup@1@@Z 10013260 f   IlmThreadPool.obj
 0002:000022c0       ??_ETask@IlmThread@@UAEPAXI@Z 100132c0 f i IlmThreadPool.obj
 0002:000022c0       ??_GTask@IlmThread@@UAEPAXI@Z 100132c0 f i IlmThreadPool.obj
 0002:00002330       ??1Task@IlmThread@@UAE@XZ  10013330 f   IlmThreadPool.obj
 0002:00002370       ?group@Task@IlmThread@@QAEPAVTaskGroup@2@XZ 10013370 f   IlmThreadPool.obj
 0002:000023b0       ??0TaskGroup@IlmThread@@QAE@XZ 100133b0 f   IlmThreadPool.obj
 0002:000024a0       ??1TaskGroup@IlmThread@@QAE@XZ 100134a0 f   IlmThreadPool.obj
 0002:00002540       ??_GData@TaskGroup@IlmThread@@QAEPAXI@Z 10013540 f i IlmThreadPool.obj
 0002:000025b0       ??0ThreadPool@IlmThread@@QAE@I@Z 100135b0 f   IlmThreadPool.obj
 0002:000026c0       ??_EThreadPool@IlmThread@@UAEPAXI@Z 100136c0 f i IlmThreadPool.obj
 0002:000026c0       ??_GThreadPool@IlmThread@@UAEPAXI@Z 100136c0 f i IlmThreadPool.obj
 0002:00002730       ??1ThreadPool@IlmThread@@UAE@XZ 10013730 f   IlmThreadPool.obj
 0002:000027d0       ??_GData@ThreadPool@IlmThread@@QAEPAXI@Z 100137d0 f i IlmThreadPool.obj
 0002:00002840       ?numThreads@ThreadPool@IlmThread@@QBEHXZ 10013840 f   IlmThreadPool.obj
 0002:00002900       ?setNumThreads@ThreadPool@IlmThread@@QAEXH@Z 10013900 f   IlmThreadPool.obj
 0002:00002bf0       ??0ArgExc@Iex@@QAE@PBD@Z   10013bf0 f i IlmThreadPool.obj
 0002:00002c60       ??_EArgExc@Iex@@UAEPAXI@Z  10013c60 f i IlmThreadPool.obj
 0002:00002c60       ??_GArgExc@Iex@@UAEPAXI@Z  10013c60 f i IlmThreadPool.obj
 0002:00002cd0       ??1ArgExc@Iex@@UAE@XZ      10013cd0 f i IlmThreadPool.obj
 0002:00002d20       ??0ArgExc@Iex@@QAE@ABV01@@Z 10013d20 f i IlmThreadPool.obj
 0002:00002d90       ?addTask@ThreadPool@IlmThread@@QAEXPAVTask@2@@Z 10013d90 f   IlmThreadPool.obj
 0002:00002fa0       ?globalThreadPool@ThreadPool@IlmThread@@SAAAV12@XZ 10013fa0 f   IlmThreadPool.obj
 0002:00003070       ?addGlobalTask@ThreadPool@IlmThread@@SAXPAVTask@2@@Z 10014070 f   IlmThreadPool.obj
 0002:000030d0       ??0?$list@PAVTask@IlmThread@@V?$allocator@PAVTask@IlmThread@@@std@@@std@@QAE@XZ 100140d0 f i IlmThreadPool.obj
 0002:000031a0       ??1?$list@PAVTask@IlmThread@@V?$allocator@PAVTask@IlmThread@@@std@@@std@@QAE@XZ 100141a0 f i IlmThreadPool.obj
 0002:00003240       ?front@?$list@PAVTask@IlmThread@@V?$allocator@PAVTask@IlmThread@@@std@@@std@@QAEAAPAVTask@IlmThread@@XZ 10014240 f i IlmThreadPool.obj
 0002:00003320       ?pop_front@?$list@PAVTask@IlmThread@@V?$allocator@PAVTask@IlmThread@@@std@@@std@@QAEXXZ 10014320 f i IlmThreadPool.obj
 0002:00003430       ?push_back@?$list@PAVTask@IlmThread@@V?$allocator@PAVTask@IlmThread@@@std@@@std@@QAEXABQAVTask@IlmThread@@@Z 10014430 f i IlmThreadPool.obj
 0002:00003530       ?clear@?$list@PAVTask@IlmThread@@V?$allocator@PAVTask@IlmThread@@@std@@@std@@QAEXXZ 10014530 f i IlmThreadPool.obj
 0002:00003640       ??0?$list@PAVWorkerThread@?A0xb0a473bd@IlmThread@@V?$allocator@PAVWorkerThread@?A0xb0a473bd@IlmThread@@@std@@@std@@QAE@XZ 10014640 f i IlmThreadPool.obj
 0002:00003710       ??1?$list@PAVWorkerThread@?A0xb0a473bd@IlmThread@@V?$allocator@PAVWorkerThread@?A0xb0a473bd@IlmThread@@@std@@@std@@QAE@XZ 10014710 f i IlmThreadPool.obj
 0002:000037b0       ?begin@?$list@PAVWorkerThread@?A0xb0a473bd@IlmThread@@V?$allocator@PAVWorkerThread@?A0xb0a473bd@IlmThread@@@std@@@std@@QAE?AV?$_Iterator@$00@12@XZ 100147b0 f i IlmThreadPool.obj
 0002:00003840       ?end@?$list@PAVWorkerThread@?A0xb0a473bd@IlmThread@@V?$allocator@PAVWorkerThread@?A0xb0a473bd@IlmThread@@@std@@@std@@QAE?AV?$_Iterator@$00@12@XZ 10014840 f i IlmThreadPool.obj
 0002:000038d0       ?push_back@?$list@PAVWorkerThread@?A0xb0a473bd@IlmThread@@V?$allocator@PAVWorkerThread@?A0xb0a473bd@IlmThread@@@std@@@std@@QAEXABQAVWorkerThread@?A0xb0a473bd@IlmThread@@@Z 100148d0 f i IlmThreadPool.obj
 0002:000039d0       ?clear@?$list@PAVWorkerThread@?A0xb0a473bd@IlmThread@@V?$allocator@PAVWorkerThread@?A0xb0a473bd@IlmThread@@@std@@@std@@QAEXXZ 100149d0 f i IlmThreadPool.obj
 0002:00003ae0       ??D?$_Iterator@$00@?$list@PAVWorkerThread@?A0xb0a473bd@IlmThread@@V?$allocator@PAVWorkerThread@?A0xb0a473bd@IlmThread@@@std@@@std@@QBEAAPAVWorkerThread@?A0xb0a473bd@IlmThread@@XZ 10014ae0 f i IlmThreadPool.obj
 0002:00003b30       ??E?$_Iterator@$00@?$list@PAVWorkerThread@?A0xb0a473bd@IlmThread@@V?$allocator@PAVWorkerThread@?A0xb0a473bd@IlmThread@@@std@@@std@@QAEAAV012@XZ 10014b30 f i IlmThreadPool.obj
 0002:00003b90       ??9?$_Const_iterator@$00@?$list@PAVWorkerThread@?A0xb0a473bd@IlmThread@@V?$allocator@PAVWorkerThread@?A0xb0a473bd@IlmThread@@@std@@@std@@QBE_NABV012@@Z 10014b90 f i IlmThreadPool.obj
 0002:00003c00       ??1?$_List_val@PAVTask@IlmThread@@V?$allocator@PAVTask@IlmThread@@@std@@@std@@QAE@XZ 10014c00 f i IlmThreadPool.obj
 0002:00003c50       ??1?$_Iterator@$00@?$list@PAVTask@IlmThread@@V?$allocator@PAVTask@IlmThread@@@std@@@std@@QAE@XZ 10014c50 f i IlmThreadPool.obj
 0002:00003ca0       ??0?$_Const_iterator@$00@?$list@PAVTask@IlmThread@@V?$allocator@PAVTask@IlmThread@@@std@@@std@@QAE@ABV012@@Z 10014ca0 f i IlmThreadPool.obj
 0002:00003d10       ??1?$_Const_iterator@$00@?$list@PAVTask@IlmThread@@V?$allocator@PAVTask@IlmThread@@@std@@@std@@QAE@XZ 10014d10 f i IlmThreadPool.obj
 0002:00003d60       ??1?$_List_val@PAVWorkerThread@?A0xb0a473bd@IlmThread@@V?$allocator@PAVWorkerThread@?A0xb0a473bd@IlmThread@@@std@@@std@@QAE@XZ 10014d60 f i IlmThreadPool.obj
 0002:00003db0       ??0?$_Const_iterator@$00@?$list@PAVWorkerThread@?A0xb0a473bd@IlmThread@@V?$allocator@PAVWorkerThread@?A0xb0a473bd@IlmThread@@@std@@@std@@QAE@ABV012@@Z 10014db0 f i IlmThreadPool.obj
 0002:00003e20       ??1?$_List_ptr@PAVTask@IlmThread@@V?$allocator@PAVTask@IlmThread@@@std@@@std@@QAE@XZ 10014e20 f i IlmThreadPool.obj
 0002:00003e70       ??0?$_Bidit@PAVTask@IlmThread@@HPBQAV12@ABQAV12@@std@@QAE@ABU01@@Z 10014e70 f i IlmThreadPool.obj
 0002:00003ed0       ??1?$_Bidit@PAVTask@IlmThread@@HPBQAV12@ABQAV12@@std@@QAE@XZ 10014ed0 f i IlmThreadPool.obj
 0002:00003f20       ??1?$_List_ptr@PAVWorkerThread@?A0xb0a473bd@IlmThread@@V?$allocator@PAVWorkerThread@?A0xb0a473bd@IlmThread@@@std@@@std@@QAE@XZ 10014f20 f i IlmThreadPool.obj
 0002:00003f70       ??0?$_Bidit@PAVWorkerThread@?A0xb0a473bd@IlmThread@@HPBQAV123@ABQAV123@@std@@QAE@ABU01@@Z 10014f70 f i IlmThreadPool.obj
 0002:00003fd0       ??1?$_List_nod@PAVTask@IlmThread@@V?$allocator@PAVTask@IlmThread@@@std@@@std@@QAE@XZ 10014fd0 f i IlmThreadPool.obj
 0002:00004020       ??0?$_Iterator_with_base@Ubidirectional_iterator_tag@std@@PAVTask@IlmThread@@HPBQAV34@ABQAV34@V_Iterator_base@2@@std@@QAE@ABU01@@Z 10015020 f i IlmThreadPool.obj
 0002:00004080       ??0_Iterator_base@std@@QAE@ABV01@@Z 10015080 f i IlmThreadPool.obj
 0002:00004100       ??4_Iterator_base@std@@QAEAAV01@ABV01@@Z 10015100 f i IlmThreadPool.obj
 0002:00004230       ?_Adopt@_Iterator_base@std@@QAEXPBV_Container_base_secure@2@@Z 10015230 f i IlmThreadPool.obj
 0002:00004370       ??1?$_Iterator_with_base@Ubidirectional_iterator_tag@std@@PAVTask@IlmThread@@HPBQAV34@ABQAV34@V_Iterator_base@2@@std@@QAE@XZ 10015370 f i IlmThreadPool.obj
 0002:000043c0       ??1?$_List_nod@PAVWorkerThread@?A0xb0a473bd@IlmThread@@V?$allocator@PAVWorkerThread@?A0xb0a473bd@IlmThread@@@std@@@std@@QAE@XZ 100153c0 f i IlmThreadPool.obj
 0002:00004410       ??0?$_Iterator_with_base@Ubidirectional_iterator_tag@std@@PAVWorkerThread@?A0xb0a473bd@IlmThread@@HPBQAV345@ABQAV345@V_Iterator_base@2@@std@@QAE@ABU01@@Z 10015410 f i IlmThreadPool.obj
 0002:00004470       ?_Nextnode@?$list@PAVTask@IlmThread@@V?$allocator@PAVTask@IlmThread@@@std@@@std@@KAAAPAU_Node@?$_List_nod@PAVTask@IlmThread@@V?$allocator@PAVTask@IlmThread@@@std@@@2@PAU342@@Z 10015470 f i IlmThreadPool.obj
 0002:000044b0       ?_Prevnode@?$list@PAVTask@IlmThread@@V?$allocator@PAVTask@IlmThread@@@std@@@std@@KAAAPAU_Node@?$_List_nod@PAVTask@IlmThread@@V?$allocator@PAVTask@IlmThread@@@std@@@2@PAU342@@Z 100154b0 f i IlmThreadPool.obj
 0002:000044f0       ?begin@?$list@PAVTask@IlmThread@@V?$allocator@PAVTask@IlmThread@@@std@@@std@@QAE?AV?$_Iterator@$00@12@XZ 100154f0 f i IlmThreadPool.obj
 0002:00004580       ?end@?$list@PAVTask@IlmThread@@V?$allocator@PAVTask@IlmThread@@@std@@@std@@QAE?AV?$_Iterator@$00@12@XZ 10015580 f i IlmThreadPool.obj
 0002:00004610       ?_Insert@?$list@PAVTask@IlmThread@@V?$allocator@PAVTask@IlmThread@@@std@@@std@@QAEXV?$_Const_iterator@$00@12@ABQAVTask@IlmThread@@@Z 10015610 f i IlmThreadPool.obj
 0002:00004760       ?erase@?$list@PAVTask@IlmThread@@V?$allocator@PAVTask@IlmThread@@@std@@@std@@QAE?AV?$_Iterator@$00@12@V?$_Const_iterator@$00@12@@Z 10015760 f i IlmThreadPool.obj
 0002:000049b0       ?_Buynode@?$list@PAVTask@IlmThread@@V?$allocator@PAVTask@IlmThread@@@std@@@std@@IAEPAU_Node@?$_List_nod@PAVTask@IlmThread@@V?$allocator@PAVTask@IlmThread@@@std@@@2@XZ 100159b0 f i IlmThreadPool.obj
 0002:00004b70       ?_Tidy@?$list@PAVTask@IlmThread@@V?$allocator@PAVTask@IlmThread@@@std@@@std@@IAEXXZ 10015b70 f i IlmThreadPool.obj
 0002:00004c30       ?_Orphan_ptr@?$list@PAVTask@IlmThread@@V?$allocator@PAVTask@IlmThread@@@std@@@std@@IBEXAAV12@PAU_Node@?$_List_nod@PAVTask@IlmThread@@V?$allocator@PAVTask@IlmThread@@@std@@@2@@Z 10015c30 f i IlmThreadPool.obj
 0002:00004d50       ??0?$_List_val@PAVTask@IlmThread@@V?$allocator@PAVTask@IlmThread@@@std@@@std@@QAE@V?$allocator@PAVTask@IlmThread@@@1@@Z 10015d50 f i IlmThreadPool.obj
 0002:00004dd0       ??1?$_Container_base_aux_alloc_empty@V?$allocator@PAVTask@IlmThread@@@std@@@std@@IAE@XZ 10015dd0 f i IlmThreadPool.obj
 0002:00004e30       ??0?$allocator@PAVTask@IlmThread@@@std@@QAE@XZ 10015e30 f i IlmThreadPool.obj
 0002:00004e70       ?deallocate@?$allocator@U_Node@?$_List_nod@PAVTask@IlmThread@@V?$allocator@PAVTask@IlmThread@@@std@@@std@@@std@@QAEXPAU_Node@?$_List_nod@PAVTask@IlmThread@@V?$allocator@PAVTask@IlmThread@@@std@@@2@I@Z 10015e70 f i IlmThreadPool.obj
 0002:00004ed0       ?destroy@?$allocator@U_Node@?$_List_nod@PAVTask@IlmThread@@V?$allocator@PAVTask@IlmThread@@@std@@@std@@@std@@QAEXPAU_Node@?$_List_nod@PAVTask@IlmThread@@V?$allocator@PAVTask@IlmThread@@@std@@@2@@Z 10015ed0 f i IlmThreadPool.obj
 0002:00004f30       ?_Nextnode@?$list@PAVWorkerThread@?A0xb0a473bd@IlmThread@@V?$allocator@PAVWorkerThread@?A0xb0a473bd@IlmThread@@@std@@@std@@KAAAPAU_Node@?$_List_nod@PAVWorkerThread@?A0xb0a473bd@IlmThread@@V?$allocator@PAVWorkerThread@?A0xb0a473bd@IlmThread@@@std@@@2@PAU342@@Z 10015f30 f i IlmThreadPool.obj
 0002:00004f70       ?_Prevnode@?$list@PAVWorkerThread@?A0xb0a473bd@IlmThread@@V?$allocator@PAVWorkerThread@?A0xb0a473bd@IlmThread@@@std@@@std@@KAAAPAU_Node@?$_List_nod@PAVWorkerThread@?A0xb0a473bd@IlmThread@@V?$allocator@PAVWorkerThread@?A0xb0a473bd@IlmThread@@@std@@@2@PAU342@@Z 10015f70 f i IlmThreadPool.obj
 0002:00004fb0       ?_Insert@?$list@PAVWorkerThread@?A0xb0a473bd@IlmThread@@V?$allocator@PAVWorkerThread@?A0xb0a473bd@IlmThread@@@std@@@std@@QAEXV?$_Const_iterator@$00@12@ABQAVWorkerThread@?A0xb0a473bd@IlmThread@@@Z 10015fb0 f i IlmThreadPool.obj
 0002:00005100       ?_Buynode@?$list@PAVWorkerThread@?A0xb0a473bd@IlmThread@@V?$allocator@PAVWorkerThread@?A0xb0a473bd@IlmThread@@@std@@@std@@IAEPAU_Node@?$_List_nod@PAVWorkerThread@?A0xb0a473bd@IlmThread@@V?$allocator@PAVWorkerThread@?A0xb0a473bd@IlmThread@@@std@@@2@XZ 10016100 f i IlmThreadPool.obj
 0002:000052c0       ?_Tidy@?$list@PAVWorkerThread@?A0xb0a473bd@IlmThread@@V?$allocator@PAVWorkerThread@?A0xb0a473bd@IlmThread@@@std@@@std@@IAEXXZ 100162c0 f i IlmThreadPool.obj
 0002:00005380       ?_Orphan_ptr@?$list@PAVWorkerThread@?A0xb0a473bd@IlmThread@@V?$allocator@PAVWorkerThread@?A0xb0a473bd@IlmThread@@@std@@@std@@IBEXAAV12@PAU_Node@?$_List_nod@PAVWorkerThread@?A0xb0a473bd@IlmThread@@V?$allocator@PAVWorkerThread@?A0xb0a473bd@IlmThread@@@std@@@2@@Z 10016380 f i IlmThreadPool.obj
 0002:000054a0       ??0?$_List_val@PAVWorkerThread@?A0xb0a473bd@IlmThread@@V?$allocator@PAVWorkerThread@?A0xb0a473bd@IlmThread@@@std@@@std@@QAE@V?$allocator@PAVWorkerThread@?A0xb0a473bd@IlmThread@@@1@@Z 100164a0 f i IlmThreadPool.obj
 0002:00005520       ??1?$_Container_base_aux_alloc_empty@V?$allocator@PAVWorkerThread@?A0xb0a473bd@IlmThread@@@std@@@std@@IAE@XZ 10016520 f i IlmThreadPool.obj
 0002:00005580       ??0?$allocator@PAVWorkerThread@?A0xb0a473bd@IlmThread@@@std@@QAE@XZ 10016580 f i IlmThreadPool.obj
 0002:000055c0       ?deallocate@?$allocator@U_Node@?$_List_nod@PAVWorkerThread@?A0xb0a473bd@IlmThread@@V?$allocator@PAVWorkerThread@?A0xb0a473bd@IlmThread@@@std@@@std@@@std@@QAEXPAU_Node@?$_List_nod@PAVWorkerThread@?A0xb0a473bd@IlmThread@@V?$allocator@PAVWorkerThread@?A0xb0a473bd@IlmThread@@@std@@@2@I@Z 100165c0 f i IlmThreadPool.obj
 0002:00005620       ?destroy@?$allocator@U_Node@?$_List_nod@PAVWorkerThread@?A0xb0a473bd@IlmThread@@V?$allocator@PAVWorkerThread@?A0xb0a473bd@IlmThread@@@std@@@std@@@std@@QAEXPAU_Node@?$_List_nod@PAVWorkerThread@?A0xb0a473bd@IlmThread@@V?$allocator@PAVWorkerThread@?A0xb0a473bd@IlmThread@@@std@@@2@@Z 10016620 f i IlmThreadPool.obj
 0002:00005680       ??0?$_Iterator@$00@?$list@PAVWorkerThread@?A0xb0a473bd@IlmThread@@V?$allocator@PAVWorkerThread@?A0xb0a473bd@IlmThread@@@std@@@std@@QAE@PAU_Node@?$_List_nod@PAVWorkerThread@?A0xb0a473bd@IlmThread@@V?$allocator@PAVWorkerThread@?A0xb0a473bd@IlmThread@@@std@@@2@PBV12@@Z 10016680 f i IlmThreadPool.obj
 0002:000056e0       ??D?$_Const_iterator@$00@?$list@PAVWorkerThread@?A0xb0a473bd@IlmThread@@V?$allocator@PAVWorkerThread@?A0xb0a473bd@IlmThread@@@std@@@std@@QBEABQAVWorkerThread@?A0xb0a473bd@IlmThread@@XZ 100166e0 f i IlmThreadPool.obj
 0002:00005810       ??E?$_Const_iterator@$00@?$list@PAVWorkerThread@?A0xb0a473bd@IlmThread@@V?$allocator@PAVWorkerThread@?A0xb0a473bd@IlmThread@@@std@@@std@@QAEAAV012@XZ 10016810 f i IlmThreadPool.obj
 0002:00005950       ??8?$_Const_iterator@$00@?$list@PAVWorkerThread@?A0xb0a473bd@IlmThread@@V?$allocator@PAVWorkerThread@?A0xb0a473bd@IlmThread@@@std@@@std@@QBE_NABV012@@Z 10016950 f i IlmThreadPool.obj
 0002:000059c0       ??D?$_Iterator@$00@?$list@PAVTask@IlmThread@@V?$allocator@PAVTask@IlmThread@@@std@@@std@@QBEAAPAVTask@IlmThread@@XZ 100169c0 f i IlmThreadPool.obj
 0002:00005a10       ?_Make_iter@?$list@PAVTask@IlmThread@@V?$allocator@PAVTask@IlmThread@@@std@@@std@@QBE?AV?$_Iterator@$00@12@V?$_Const_iterator@$00@12@@Z 10016a10 f i IlmThreadPool.obj
 0002:00005ae0       ?_Buynode@?$list@PAVTask@IlmThread@@V?$allocator@PAVTask@IlmThread@@@std@@@std@@IAEPAU_Node@?$_List_nod@PAVTask@IlmThread@@V?$allocator@PAVTask@IlmThread@@@std@@@2@PAU342@0ABQAVTask@IlmThread@@@Z 10016ae0 f i IlmThreadPool.obj
 0002:00005cc0       ?_Incsize@?$list@PAVTask@IlmThread@@V?$allocator@PAVTask@IlmThread@@@std@@@std@@IAEXI@Z 10016cc0 f i IlmThreadPool.obj
 0002:00005de0       ??0length_error@std@@QAE@ABV?$basic_string@DU?$char_traits@D@std@@V?$allocator@D@2@@1@@Z 10016de0 f i IlmThreadPool.obj
 0002:00005e50       ??0logic_error@std@@QAE@ABV?$basic_string@DU?$char_traits@D@std@@V?$allocator@D@2@@1@@Z 10016e50 f i IlmThreadPool.obj
 0002:00005f30       ?what@logic_error@std@@UBEPBDXZ 10016f30 f i IlmThreadPool.obj
 0002:00005f90       ??_Elogic_error@std@@UAEPAXI@Z 10016f90 f i IlmThreadPool.obj
 0002:00005f90       ??_Glogic_error@std@@UAEPAXI@Z 10016f90 f i IlmThreadPool.obj
 0002:00006000       ??1logic_error@std@@UAE@XZ 10017000 f i IlmThreadPool.obj
 0002:00006080       ??1length_error@std@@UAE@XZ 10017080 f i IlmThreadPool.obj
 0002:000060e0       ??_Glength_error@std@@UAEPAXI@Z 100170e0 f i IlmThreadPool.obj
 0002:000060e0       ??_Elength_error@std@@UAEPAXI@Z 100170e0 f i IlmThreadPool.obj
 0002:00006150       ??0logic_error@std@@QAE@ABV01@@Z 10017150 f i IlmThreadPool.obj
 0002:00006230       ??0?$_List_ptr@PAVTask@IlmThread@@V?$allocator@PAVTask@IlmThread@@@std@@@std@@IAE@V?$allocator@PAVTask@IlmThread@@@1@@Z 10017230 f i IlmThreadPool.obj
 0002:000062b0       ??0?$allocator@PAVTask@IlmThread@@@std@@QAE@ABV01@@Z 100172b0 f i IlmThreadPool.obj
 0002:000062f0       ?allocate@?$allocator@U_Node@?$_List_nod@PAVTask@IlmThread@@V?$allocator@PAVTask@IlmThread@@@std@@@std@@@std@@QAEPAU_Node@?$_List_nod@PAVTask@IlmThread@@V?$allocator@PAVTask@IlmThread@@@std@@@2@I@Z 100172f0 f i IlmThreadPool.obj
 0002:00006350       ?construct@?$allocator@PAU_Node@?$_List_nod@PAVTask@IlmThread@@V?$allocator@PAVTask@IlmThread@@@std@@@std@@@std@@QAEXPAPAU_Node@?$_List_nod@PAVTask@IlmThread@@V?$allocator@PAVTask@IlmThread@@@std@@@2@ABQAU342@@Z 10017350 f i IlmThreadPool.obj
 0002:000063b0       ?destroy@?$allocator@PAU_Node@?$_List_nod@PAVTask@IlmThread@@V?$allocator@PAVTask@IlmThread@@@std@@@std@@@std@@QAEXPAPAU_Node@?$_List_nod@PAVTask@IlmThread@@V?$allocator@PAVTask@IlmThread@@@std@@@2@@Z 100173b0 f i IlmThreadPool.obj
 0002:00006410       ?_Myval@?$list@PAVWorkerThread@?A0xb0a473bd@IlmThread@@V?$allocator@PAVWorkerThread@?A0xb0a473bd@IlmThread@@@std@@@std@@KAAAPAVWorkerThread@?A0xb0a473bd@IlmThread@@PAU_Node@?$_List_nod@PAVWorkerThread@?A0xb0a473bd@IlmThread@@V?$allocator@PAVWorkerThread@?A0xb0a473bd@IlmThread@@@std@@@2@@Z 10017410 f i IlmThreadPool.obj
 0002:00006450       ?_Buynode@?$list@PAVWorkerThread@?A0xb0a473bd@IlmThread@@V?$allocator@PAVWorkerThread@?A0xb0a473bd@IlmThread@@@std@@@std@@IAEPAU_Node@?$_List_nod@PAVWorkerThread@?A0xb0a473bd@IlmThread@@V?$allocator@PAVWorkerThread@?A0xb0a473bd@IlmThread@@@std@@@2@PAU342@0ABQAVWorkerThread@?A0xb0a473bd@IlmThread@@@Z 10017450 f i IlmThreadPool.obj
 0002:00006630       ?_Incsize@?$list@PAVWorkerThread@?A0xb0a473bd@IlmThread@@V?$allocator@PAVWorkerThread@?A0xb0a473bd@IlmThread@@@std@@@std@@IAEXI@Z 10017630 f i IlmThreadPool.obj
 0002:00006750       ??0?$_List_ptr@PAVWorkerThread@?A0xb0a473bd@IlmThread@@V?$allocator@PAVWorkerThread@?A0xb0a473bd@IlmThread@@@std@@@std@@IAE@V?$allocator@PAVWorkerThread@?A0xb0a473bd@IlmThread@@@1@@Z 10017750 f i IlmThreadPool.obj
 0002:000067d0       ??0?$allocator@PAVWorkerThread@?A0xb0a473bd@IlmThread@@@std@@QAE@ABV01@@Z 100177d0 f i IlmThreadPool.obj
 0002:00006810       ?allocate@?$allocator@U_Node@?$_List_nod@PAVWorkerThread@?A0xb0a473bd@IlmThread@@V?$allocator@PAVWorkerThread@?A0xb0a473bd@IlmThread@@@std@@@std@@@std@@QAEPAU_Node@?$_List_nod@PAVWorkerThread@?A0xb0a473bd@IlmThread@@V?$allocator@PAVWorkerThread@?A0xb0a473bd@IlmThread@@@std@@@2@I@Z 10017810 f i IlmThreadPool.obj
 0002:00006870       ?construct@?$allocator@PAU_Node@?$_List_nod@PAVWorkerThread@?A0xb0a473bd@IlmThread@@V?$allocator@PAVWorkerThread@?A0xb0a473bd@IlmThread@@@std@@@std@@@std@@QAEXPAPAU_Node@?$_List_nod@PAVWorkerThread@?A0xb0a473bd@IlmThread@@V?$allocator@PAVWorkerThread@?A0xb0a473bd@IlmThread@@@std@@@2@ABQAU342@@Z 10017870 f i IlmThreadPool.obj
 0002:000068d0       ?destroy@?$allocator@PAU_Node@?$_List_nod@PAVWorkerThread@?A0xb0a473bd@IlmThread@@V?$allocator@PAVWorkerThread@?A0xb0a473bd@IlmThread@@@std@@@std@@@std@@QAEXPAPAU_Node@?$_List_nod@PAVWorkerThread@?A0xb0a473bd@IlmThread@@V?$allocator@PAVWorkerThread@?A0xb0a473bd@IlmThread@@@std@@@2@@Z 100178d0 f i IlmThreadPool.obj
 0002:00006930       ??0?$_Const_iterator@$00@?$list@PAVWorkerThread@?A0xb0a473bd@IlmThread@@V?$allocator@PAVWorkerThread@?A0xb0a473bd@IlmThread@@@std@@@std@@QAE@PAU_Node@?$_List_nod@PAVWorkerThread@?A0xb0a473bd@IlmThread@@V?$allocator@PAVWorkerThread@?A0xb0a473bd@IlmThread@@@std@@@2@PBV12@@Z 10017930 f i IlmThreadPool.obj
 0002:000069f0       ?_Mynode@?$_Const_iterator@$00@?$list@PAVWorkerThread@?A0xb0a473bd@IlmThread@@V?$allocator@PAVWorkerThread@?A0xb0a473bd@IlmThread@@@std@@@std@@QBEPAU_Node@?$_List_nod@PAVWorkerThread@?A0xb0a473bd@IlmThread@@V?$allocator@PAVWorkerThread@?A0xb0a473bd@IlmThread@@@std@@@3@XZ 100179f0 f i IlmThreadPool.obj
 0002:00006a30       ?_Compat@?$_Const_iterator@$00@?$list@PAVWorkerThread@?A0xb0a473bd@IlmThread@@V?$allocator@PAVWorkerThread@?A0xb0a473bd@IlmThread@@@std@@@std@@QBEXABV123@@Z 10017a30 f i IlmThreadPool.obj
 0002:00006b40       ??0?$_Iterator@$00@?$list@PAVTask@IlmThread@@V?$allocator@PAVTask@IlmThread@@@std@@@std@@QAE@PAU_Node@?$_List_nod@PAVTask@IlmThread@@V?$allocator@PAVTask@IlmThread@@@std@@@2@PBV12@@Z 10017b40 f i IlmThreadPool.obj
 0002:00006ba0       ??D?$_Const_iterator@$00@?$list@PAVTask@IlmThread@@V?$allocator@PAVTask@IlmThread@@@std@@@std@@QBEABQAVTask@IlmThread@@XZ 10017ba0 f i IlmThreadPool.obj
 0002:00006cd0       ??E?$_Const_iterator@$00@?$list@PAVTask@IlmThread@@V?$allocator@PAVTask@IlmThread@@@std@@@std@@QAE?AV012@H@Z 10017cd0 f i IlmThreadPool.obj
 0002:00006df0       ?_Mynode@?$_Const_iterator@$00@?$list@PAVTask@IlmThread@@V?$allocator@PAVTask@IlmThread@@@std@@@std@@QBEPAU_Node@?$_List_nod@PAVTask@IlmThread@@V?$allocator@PAVTask@IlmThread@@@std@@@3@XZ 10017df0 f i IlmThreadPool.obj
 0002:00006e30       ??0length_error@std@@QAE@ABV01@@Z 10017e30 f i IlmThreadPool.obj
 0002:00006ea0       ??0?$_Bidit@PAVWorkerThread@?A0xb0a473bd@IlmThread@@HPBQAV123@ABQAV123@@std@@QAE@XZ 10017ea0 f i IlmThreadPool.obj
 0002:00006f00       ??0?$_Iterator_with_base@Ubidirectional_iterator_tag@std@@PAVWorkerThread@?A0xb0a473bd@IlmThread@@HPBQAV345@ABQAV345@V_Iterator_base@2@@std@@QAE@XZ 10017f00 f i IlmThreadPool.obj
 0002:00006f60       ??0_Iterator_base@std@@QAE@XZ 10017f60 f i IlmThreadPool.obj
 0002:00006fb0       ?_Myval@?$list@PAVTask@IlmThread@@V?$allocator@PAVTask@IlmThread@@@std@@@std@@KAAAPAVTask@IlmThread@@PAU_Node@?$_List_nod@PAVTask@IlmThread@@V?$allocator@PAVTask@IlmThread@@@std@@@2@@Z 10017fb0 f i IlmThreadPool.obj
 0002:00006ff0       ?max_size@?$list@PAVTask@IlmThread@@V?$allocator@PAVTask@IlmThread@@@std@@@std@@QBEIXZ 10017ff0 f i IlmThreadPool.obj
 0002:00007050       ??0?$_List_nod@PAVTask@IlmThread@@V?$allocator@PAVTask@IlmThread@@@std@@@std@@IAE@V?$allocator@PAVTask@IlmThread@@@1@@Z 10018050 f i IlmThreadPool.obj
 0002:000070d0       ?construct@?$allocator@PAVTask@IlmThread@@@std@@QAEXPAPAVTask@IlmThread@@ABQAV34@@Z 100180d0 f i IlmThreadPool.obj
 0002:00007130       ?max_size@?$list@PAVWorkerThread@?A0xb0a473bd@IlmThread@@V?$allocator@PAVWorkerThread@?A0xb0a473bd@IlmThread@@@std@@@std@@QBEIXZ 10018130 f i IlmThreadPool.obj
 0002:00007190       ??0?$_List_nod@PAVWorkerThread@?A0xb0a473bd@IlmThread@@V?$allocator@PAVWorkerThread@?A0xb0a473bd@IlmThread@@@std@@@std@@IAE@V?$allocator@PAVWorkerThread@?A0xb0a473bd@IlmThread@@@1@@Z 10018190 f i IlmThreadPool.obj
 0002:00007210       ?construct@?$allocator@PAVWorkerThread@?A0xb0a473bd@IlmThread@@@std@@QAEXPAPAVWorkerThread@?A0xb0a473bd@IlmThread@@ABQAV345@@Z 10018210 f i IlmThreadPool.obj
 0002:00007270       ??0?$_Const_iterator@$00@?$list@PAVTask@IlmThread@@V?$allocator@PAVTask@IlmThread@@@std@@@std@@QAE@PAU_Node@?$_List_nod@PAVTask@IlmThread@@V?$allocator@PAVTask@IlmThread@@@std@@@2@PBV12@@Z 10018270 f i IlmThreadPool.obj
 0002:00007330       ??E?$_Const_iterator@$00@?$list@PAVTask@IlmThread@@V?$allocator@PAVTask@IlmThread@@@std@@@std@@QAEAAV012@XZ 10018330 f i IlmThreadPool.obj
 0002:00007470       ??0?$_Bidit@PAVTask@IlmThread@@HPBQAV12@ABQAV12@@std@@QAE@XZ 10018470 f i IlmThreadPool.obj
 0002:000074d0       ??0?$_Iterator_with_base@Ubidirectional_iterator_tag@std@@PAVTask@IlmThread@@HPBQAV34@ABQAV34@V_Iterator_base@2@@std@@QAE@XZ 100184d0 f i IlmThreadPool.obj
 0002:00007530       ??0?$_Container_base_aux_alloc_empty@V?$allocator@PAVTask@IlmThread@@@std@@@std@@IAE@V?$allocator@PAVTask@IlmThread@@@1@@Z 10018530 f i IlmThreadPool.obj
 0002:000075a0       ?max_size@?$allocator@PAVTask@IlmThread@@@std@@QBEIXZ 100185a0 f i IlmThreadPool.obj
 0002:00007610       ??0?$_Container_base_aux_alloc_empty@V?$allocator@PAVWorkerThread@?A0xb0a473bd@IlmThread@@@std@@@std@@IAE@V?$allocator@PAVWorkerThread@?A0xb0a473bd@IlmThread@@@1@@Z 10018610 f i IlmThreadPool.obj
 0002:00007680       ?max_size@?$allocator@PAVWorkerThread@?A0xb0a473bd@IlmThread@@@std@@QBEIXZ 10018680 f i IlmThreadPool.obj
 0002:000076f0       ??$_Destroy@U_Node@?$_List_nod@PAVTask@IlmThread@@V?$allocator@PAVTask@IlmThread@@@std@@@std@@@std@@YAXPAU_Node@?$_List_nod@PAVTask@IlmThread@@V?$allocator@PAVTask@IlmThread@@@std@@@0@@Z 100186f0 f i IlmThreadPool.obj
 0002:00007720       ??$_Destroy@U_Node@?$_List_nod@PAVWorkerThread@?A0xb0a473bd@IlmThread@@V?$allocator@PAVWorkerThread@?A0xb0a473bd@IlmThread@@@std@@@std@@@std@@YAXPAU_Node@?$_List_nod@PAVWorkerThread@?A0xb0a473bd@IlmThread@@V?$allocator@PAVWorkerThread@?A0xb0a473bd@IlmThread@@@std@@@0@@Z 10018720 f i IlmThreadPool.obj
 0002:00007750       ??$?0PAVTask@IlmThread@@@?$allocator@PAU_Node@?$_List_nod@PAVTask@IlmThread@@V?$allocator@PAVTask@IlmThread@@@std@@@std@@@std@@QAE@ABV?$allocator@PAVTask@IlmThread@@@1@@Z 10018750 f i IlmThreadPool.obj
 0002:00007790       ??$_Allocate@U_Node@?$_List_nod@PAVTask@IlmThread@@V?$allocator@PAVTask@IlmThread@@@std@@@std@@@std@@YAPAU_Node@?$_List_nod@PAVTask@IlmThread@@V?$allocator@PAVTask@IlmThread@@@std@@@0@IPAU120@@Z 10018790 f i IlmThreadPool.obj
 0002:00007830       ??0bad_alloc@std@@QAE@PBD@Z 10018830 f i IlmThreadPool.obj
 0002:000078b0       ??1bad_alloc@std@@UAE@XZ   100188b0 f i IlmThreadPool.obj
 0002:00007920       ??_Gbad_alloc@std@@UAEPAXI@Z 10018920 f i IlmThreadPool.obj
 0002:00007920       ??_Ebad_alloc@std@@UAEPAXI@Z 10018920 f i IlmThreadPool.obj
 0002:00007990       ??0bad_alloc@std@@QAE@ABV01@@Z 10018990 f i IlmThreadPool.obj
 0002:00007a10       ??$_Construct@PAU_Node@?$_List_nod@PAVTask@IlmThread@@V?$allocator@PAVTask@IlmThread@@@std@@@std@@PAU123@@std@@YAXPAPAU_Node@?$_List_nod@PAVTask@IlmThread@@V?$allocator@PAVTask@IlmThread@@@std@@@0@ABQAU120@@Z 10018a10 f i IlmThreadPool.obj
 0002:00007ab0       ??2@YAPAXIPAX@Z            10018ab0 f i IlmThreadPool.obj
 0002:00007af0       ??$_Destroy@PAU_Node@?$_List_nod@PAVTask@IlmThread@@V?$allocator@PAVTask@IlmThread@@@std@@@std@@@std@@YAXPAPAU_Node@?$_List_nod@PAVTask@IlmThread@@V?$allocator@PAVTask@IlmThread@@@std@@@0@@Z 10018af0 f i IlmThreadPool.obj
 0002:00007b20       ??$?0PAVWorkerThread@?A0xb0a473bd@IlmThread@@@?$allocator@PAU_Node@?$_List_nod@PAVWorkerThread@?A0xb0a473bd@IlmThread@@V?$allocator@PAVWorkerThread@?A0xb0a473bd@IlmThread@@@std@@@std@@@std@@QAE@ABV?$allocator@PAVWorkerThread@?A0xb0a473bd@IlmThread@@@1@@Z 10018b20 f i IlmThreadPool.obj
 0002:00007b60       ??$_Allocate@U_Node@?$_List_nod@PAVWorkerThread@?A0xb0a473bd@IlmThread@@V?$allocator@PAVWorkerThread@?A0xb0a473bd@IlmThread@@@std@@@std@@@std@@YAPAU_Node@?$_List_nod@PAVWorkerThread@?A0xb0a473bd@IlmThread@@V?$allocator@PAVWorkerThread@?A0xb0a473bd@IlmThread@@@std@@@0@IPAU120@@Z 10018b60 f i IlmThreadPool.obj
 0002:00007c00       ??$_Construct@PAU_Node@?$_List_nod@PAVWorkerThread@?A0xb0a473bd@IlmThread@@V?$allocator@PAVWorkerThread@?A0xb0a473bd@IlmThread@@@std@@@std@@PAU123@@std@@YAXPAPAU_Node@?$_List_nod@PAVWorkerThread@?A0xb0a473bd@IlmThread@@V?$allocator@PAVWorkerThread@?A0xb0a473bd@IlmThread@@@std@@@0@ABQAU120@@Z 10018c00 f i IlmThreadPool.obj
 0002:00007ca0       ??$_Destroy@PAU_Node@?$_List_nod@PAVWorkerThread@?A0xb0a473bd@IlmThread@@V?$allocator@PAVWorkerThread@?A0xb0a473bd@IlmThread@@@std@@@std@@@std@@YAXPAPAU_Node@?$_List_nod@PAVWorkerThread@?A0xb0a473bd@IlmThread@@V?$allocator@PAVWorkerThread@?A0xb0a473bd@IlmThread@@@std@@@0@@Z 10018ca0 f i IlmThreadPool.obj
 0002:00007cd0       ??$?0PAVTask@IlmThread@@@?$allocator@U_Node@?$_List_nod@PAVTask@IlmThread@@V?$allocator@PAVTask@IlmThread@@@std@@@std@@@std@@QAE@ABV?$allocator@PAVTask@IlmThread@@@1@@Z 10018cd0 f i IlmThreadPool.obj
 0002:00007d10       ??$_Construct@PAVTask@IlmThread@@PAV12@@std@@YAXPAPAVTask@IlmThread@@ABQAV12@@Z 10018d10 f i IlmThreadPool.obj
 0002:00007db0       ??$?0PAVWorkerThread@?A0xb0a473bd@IlmThread@@@?$allocator@U_Node@?$_List_nod@PAVWorkerThread@?A0xb0a473bd@IlmThread@@V?$allocator@PAVWorkerThread@?A0xb0a473bd@IlmThread@@@std@@@std@@@std@@QAE@ABV?$allocator@PAVWorkerThread@?A0xb0a473bd@IlmThread@@@1@@Z 10018db0 f i IlmThreadPool.obj
 0002:00007df0       ??$_Construct@PAVWorkerThread@?A0xb0a473bd@IlmThread@@PAV123@@std@@YAXPAPAVWorkerThread@?A0xb0a473bd@IlmThread@@ABQAV123@@Z 10018df0 f i IlmThreadPool.obj
 0002:00007e90       ?errorString@?A0x7f4d0287@IlmThread@@YA?AV?$basic_string@DU?$char_traits@D@std@@V?$allocator@D@2@@std@@XZ 10018e90 f   IlmThreadSemaphoreWin32.obj
 0002:00008080       ??0Semaphore@IlmThread@@QAE@I@Z 10019080 f   IlmThreadSemaphoreWin32.obj
 0002:000082d0       ??0LogicExc@Iex@@QAE@AAV?$basic_stringstream@DU?$char_traits@D@std@@V?$allocator@D@2@@std@@@Z 100192d0 f i IlmThreadSemaphoreWin32.obj
 0002:00008340       ??_GLogicExc@Iex@@UAEPAXI@Z 10019340 f i IlmThreadSemaphoreWin32.obj
 0002:00008340       ??_ELogicExc@Iex@@UAEPAXI@Z 10019340 f i IlmThreadSemaphoreWin32.obj
 0002:000083b0       ??1LogicExc@Iex@@UAE@XZ    100193b0 f i IlmThreadSemaphoreWin32.obj
 0002:00008400       ??_ESemaphore@IlmThread@@UAEPAXI@Z 10019400 f i IlmThreadSemaphoreWin32.obj
 0002:00008400       ??_GSemaphore@IlmThread@@UAEPAXI@Z 10019400 f i IlmThreadSemaphoreWin32.obj
 0002:00008470       ??0LogicExc@Iex@@QAE@ABV01@@Z 10019470 f i IlmThreadSemaphoreWin32.obj
 0002:000084e0       ??1Semaphore@IlmThread@@UAE@XZ 100194e0 f   IlmThreadSemaphoreWin32.obj
 0002:00008590       ?wait@Semaphore@IlmThread@@QAEXXZ 10019590 f   IlmThreadSemaphoreWin32.obj
 0002:000087b0       ?tryWait@Semaphore@IlmThread@@QAE_NXZ 100197b0 f   IlmThreadSemaphoreWin32.obj
 0002:00008820       ?post@Semaphore@IlmThread@@QAEXXZ 10019820 f   IlmThreadSemaphoreWin32.obj
 0002:00008a40       ?value@Semaphore@IlmThread@@QBEHXZ 10019a40 f   IlmThreadSemaphoreWin32.obj
 0002:00008c90       ??0_Has_debug_it@?$basic_string@DU?$char_traits@D@std@@V?$allocator@D@2@@std@@QAE@_N@Z 10019c90 f i IlmThreadSemaphoreWin32.obj
 0002:00008ce0       ??$?6U?$char_traits@D@std@@@std@@YAAAV?$basic_ostream@DU?$char_traits@D@std@@@0@AAV10@PBD@Z 10019ce0 f i IlmThreadSemaphoreWin32.obj
 0002:00009260       ??0sentry@?$basic_ostream@DU?$char_traits@D@std@@@std@@QAE@AAV12@@Z 1001a260 f i IlmThreadSemaphoreWin32.obj
 0002:000093c0       ??1sentry@?$basic_ostream@DU?$char_traits@D@std@@@std@@QAE@XZ 1001a3c0 f i IlmThreadSemaphoreWin32.obj
 0002:00009490       ??Bsentry@?$basic_ostream@DU?$char_traits@D@std@@@std@@QBE_NXZ 1001a490 f i IlmThreadSemaphoreWin32.obj
 0002:000094d0       ??0_Sentry_base@?$basic_ostream@DU?$char_traits@D@std@@@std@@QAE@AAV12@@Z 1001a4d0 f i IlmThreadSemaphoreWin32.obj
 0002:00009590       ??1_Sentry_base@?$basic_ostream@DU?$char_traits@D@std@@@std@@QAE@XZ 1001a590 f i IlmThreadSemaphoreWin32.obj
 0002:00009640       ??_GThread@IlmThread@@UAEPAXI@Z 1001a640 f i IlmThreadWin32.obj
 0002:000096b0       ??_EThread@IlmThread@@UAEPAXI@Z 1001a6b0 f i IlmThreadWin32.obj
 0002:00009770       ?supportsThreads@IlmThread@@YA_NXZ 1001a770 f   IlmThreadWin32.obj
 0002:000097a0       ?threadLoop@?A0x84754fee@IlmThread@@YGIPAX@Z 1001a7a0 f   IlmThreadWin32.obj
 0002:00009820       ??0Thread@IlmThread@@QAE@XZ 1001a820 f   IlmThreadWin32.obj
 0002:00009870       ??1Thread@IlmThread@@UAE@XZ 1001a870 f   IlmThreadWin32.obj
 0002:00009980       ?start@Thread@IlmThread@@QAEXXZ 1001a980 f   IlmThreadWin32.obj
 0002:00009ace       _InitializeCriticalSection@4 1001aace f   kernel32:KERNEL32.dll
 0002:00009ad4       _DeleteCriticalSection@4   1001aad4 f   kernel32:KERNEL32.dll
 0002:00009ada       _EnterCriticalSection@4    1001aada f   kernel32:KERNEL32.dll
 0002:00009ae0       _LeaveCriticalSection@4    1001aae0 f   kernel32:KERNEL32.dll
 0002:00009ae6       _LocalFree@4               1001aae6 f   kernel32:KERNEL32.dll
 0002:00009aec       _FormatMessageA@28         1001aaec f   kernel32:KERNEL32.dll
 0002:00009af2       _GetLastError@0            1001aaf2 f   kernel32:KERNEL32.dll
 0002:00009af8       _CreateSemaphoreA@16       1001aaf8 f   kernel32:KERNEL32.dll
 0002:00009afe       _CloseHandle@4             1001aafe f   kernel32:KERNEL32.dll
 0002:00009b04       _WaitForSingleObject@8     1001ab04 f   kernel32:KERNEL32.dll
 0002:00009b0a       _ReleaseSemaphore@12       1001ab0a f   kernel32:KERNEL32.dll
 0002:00009b10       ??0BaseExc@Iex@@QAE@ABV01@@Z 1001ab10 f   iex:Iex.dll
 0002:00009b16       ??0BaseExc@Iex@@QAE@PBD@Z  1001ab16 f   iex:Iex.dll
 0002:00009b1c       ?what@BaseExc@Iex@@UBEPBDXZ 1001ab1c f   iex:Iex.dll
 0002:00009b22       ??1BaseExc@Iex@@UAE@XZ     1001ab22 f   iex:Iex.dll
 0002:00009b28       ??0BaseExc@Iex@@QAE@AAV?$basic_stringstream@DU?$char_traits@D@std@@V?$allocator@D@2@@std@@@Z 1001ab28 f   iex:Iex.dll
 0002:00009b2e       ?throwErrnoExc@Iex@@YAXABV?$basic_string@DU?$char_traits@D@std@@V?$allocator@D@2@@std@@@Z 1001ab2e f   iex:Iex.dll
 0002:00009b40       __RTC_CheckEsp             1001ab40 f   MSVCRTD:_stack_.obj
 0002:00009b70       @_RTC_CheckStackVars@8     1001ab70 f   MSVCRTD:_stack_.obj
 0002:00009bf0       @_RTC_AllocaHelper@12      1001abf0 f   MSVCRTD:_stack_.obj
 0002:00009c30       @_RTC_CheckStackVars2@12   1001ac30 f   MSVCRTD:_stack_.obj
 0002:00009d40       __RTC_InitBase             1001ad40 f   MSVCRTD:_init_.obj
 0002:00009d80       __RTC_Shutdown             1001ad80 f   MSVCRTD:_init_.obj
 0002:00009da0       ??0type_info@@AAE@ABV0@@Z  1001ada0 f   MSVCRTD:ti_inst.obj
 0002:00009dd0       ??_Etype_info@@UAEPAXI@Z   1001add0 f i MSVCRTD:ti_inst.obj
 0002:00009e60       ??4type_info@@AAEAAV0@ABV0@@Z 1001ae60 f   MSVCRTD:ti_inst.obj
 0002:00009e76       ??3@YAXPAX@Z               1001ae76 f   MSVCRTD:MSVCR90D.dll
 0002:00009e7c       ___CxxFrameHandler3        1001ae7c f   MSVCRTD:MSVCR90D.dll
 0002:00009e90       @__security_check_cookie@4 1001ae90 f   MSVCRTD:secchk.obj
 0002:00009ea2       __purecall                 1001aea2 f   MSVCRTD:MSVCR90D.dll
 0002:00009ea8       ??2@YAPAXI@Z               1001aea8 f   MSVCRTD:MSVCR90D.dll
 0002:00009eae       __CxxThrowException@8      1001aeae f   MSVCRTD:MSVCR90D.dll
 0002:00009eb4       ??0exception@std@@QAE@ABV01@@Z 1001aeb4 f   MSVCRTD:MSVCR90D.dll
 0002:00009ec0       __onexit                   1001aec0 f   MSVCRTD:atonexit.obj
 0002:0000a010       _atexit                    1001b010 f   MSVCRTD:atonexit.obj
 0002:0000a034       __invalid_parameter        1001b034 f   MSVCRTD:MSVCR90D.dll
 0002:0000a03a       __CrtDbgReportW            1001b03a f   MSVCRTD:MSVCR90D.dll
 0002:0000a040       ??1exception@std@@UAE@XZ   1001b040 f   MSVCRTD:MSVCR90D.dll
 0002:0000a046       ??0exception@std@@QAE@XZ   1001b046 f   MSVCRTD:MSVCR90D.dll
 0002:0000a04c       ??0exception@std@@QAE@ABQBD@Z 1001b04c f   MSVCRTD:MSVCR90D.dll
 0002:0000a052       ?what@exception@std@@UBEPBDXZ 1001b052 f   MSVCRTD:MSVCR90D.dll
 0002:0000a058       __wassert                  1001b058 f   MSVCRTD:MSVCR90D.dll
 0002:0000a060       ??_M@YGXPAXIHP6EX0@Z@Z     1001b060 f   MSVCRTD:ehvecdtr.obj
 0002:0000a140       ?__ArrayUnwind@@YGXPAXIHP6EX0@Z@Z 1001b140 f   MSVCRTD:ehvecdtr.obj
 0002:0000a22a       __endthreadex              1001b22a f   MSVCRTD:MSVCR90D.dll
 0002:0000a230       __beginthreadex            1001b230 f   MSVCRTD:MSVCR90D.dll
 0002:0000a2e0       __CRT_INIT@12              1001b2e0 f   MSVCRTD:crtdll.obj
 0002:0000a6b0       _NtCurrentTeb              1001b6b0 f i MSVCRTD:crtdll.obj
 0002:0000a6c0       __DllMainCRTStartup@12     1001b6c0 f   MSVCRTD:crtdll.obj
 0002:0000a940       _DebuggerKnownHandle       1001b940 f   MSVCRTD:_error_.obj
 0002:0000aa20       ?_RTC_Failure@@YAXPAXH@Z   1001ba20 f   MSVCRTD:_error_.obj
 0002:0000adf0       ?_RTC_StackFailure@@YAXPAXPBD@Z 1001bdf0 f   MSVCRTD:_error_.obj
 0002:0000af30       ?_RTC_AllocaFailure@@YAXPAXPAU_RTC_ALLOCA_NODE@@H@Z 1001bf30 f   MSVCRTD:_error_.obj
 0002:0000b140       __RTC_UninitUse            1001c140 f   MSVCRTD:_error_.obj
 0002:0000b270       __RTC_NumErrors            1001c270 f   MSVCRTD:_userapi_.obj
 0002:0000b280       __RTC_GetErrDesc           1001c280 f   MSVCRTD:_userapi_.obj
 0002:0000b2a0       __RTC_SetErrorType         1001c2a0 f   MSVCRTD:_userapi_.obj
 0002:0000b2d0       __RTC_SetErrorFunc         1001c2d0 f   MSVCRTD:_userapi_.obj
 0002:0000b300       __RTC_SetErrorFuncW        1001c300 f   MSVCRTD:_userapi_.obj
 0002:0000b330       ?_RTC_GetErrorFunc@@YAP6AHHPBDH00ZZPBX@Z 1001c330 f   MSVCRTD:_userapi_.obj
 0002:0000b340       ?_RTC_GetErrorFuncW@@YAP6AHHPB_WH00ZZPBX@Z 1001c340 f   MSVCRTD:_userapi_.obj
 0002:0000b346       __CRT_RTC_INITW            1001c346 f   MSVCRTD:MSVCR90D.dll
 0002:0000b350       ___report_gsfailure        1001c350 f   MSVCRTD:gs_report.obj
 0002:0000b4a2       __unlock                   1001c4a2 f   MSVCRTD:MSVCR90D.dll
 0002:0000b4a8       ___dllonexit               1001c4a8 f   MSVCRTD:MSVCR90D.dll
 0002:0000b4ae       __encode_pointer           1001c4ae f   MSVCRTD:MSVCR90D.dll
 0002:0000b4b4       __lock                     1001c4b4 f   MSVCRTD:MSVCR90D.dll
 0002:0000b4ba       __decode_pointer           1001c4ba f   MSVCRTD:MSVCR90D.dll
 0002:0000b4c0       __except_handler4          1001c4c0 f   MSVCRTD:chandler4gs.obj
 0002:0000b4f4       ?terminate@@YAXXZ          1001c4f4 f   MSVCRTD:MSVCR90D.dll
 0002:0000b500       ___clean_type_info_names   1001c500 f   MSVCRTD:tncleanup.obj
 0002:0000b520       __RTC_Initialize           1001c520 f   MSVCRTD:_initsect_.obj
 0002:0000b550       __RTC_Terminate            1001c550 f   MSVCRTD:_initsect_.obj
 0002:0000b580       __malloc_dbg               1001c580 f   MSVCRTD:MSVCR90D.dll
 0002:0000b586       __free_dbg                 1001c586 f   MSVCRTD:MSVCR90D.dll
 0002:0000b58c       __encoded_null             1001c58c f   MSVCRTD:MSVCR90D.dll
 0002:0000b592       __CrtSetCheckCount         1001c592 f   MSVCRTD:MSVCR90D.dll
 0002:0000b5a0       __ValidateImageBase        1001c5a0 f   MSVCRTD:pesect.obj
 0002:0000b620       __FindPESection            1001c620 f   MSVCRTD:pesect.obj
 0002:0000b6c0       __IsNonwritableInCurrentImage 1001c6c0 f   MSVCRTD:pesect.obj
 0002:0000b816       __initterm                 1001c816 f   MSVCRTD:MSVCR90D.dll
 0002:0000b81c       __initterm_e               1001c81c f   MSVCRTD:MSVCR90D.dll
 0002:0000b822       __amsg_exit                1001c822 f   MSVCRTD:MSVCR90D.dll
 0002:0000b830       ___security_init_cookie    1001c830 f   MSVCRTD:gs_support.obj
 0002:0000b942       ___CppXcptFilter           1001c942 f   MSVCRTD:MSVCR90D.dll
 0002:0000b950       _DllMain@12                1001c950 f   MSVCRTD:dllmain.obj
 0002:0000b980       ?_RTC_GetSrcLine@@YAHPAEPA_WKPAH1K@Z 1001c980 f   MSVCRTD:_pdblkup_.obj
 0002:0000bf3c       ??1type_info@@UAE@XZ       1001cf3c f   MSVCRTD:MSVCR90D.dll
 0002:0000bf3c       ?_type_info_dtor_internal_method@type_info@@QAEXXZ 1001cf3c f   MSVCRTD:MSVCR90D.dll
 0002:0000bf42       __crt_debugger_hook        1001cf42 f   MSVCRTD:MSVCR90D.dll
 0002:0000bf48       __except_handler4_common   1001cf48 f   MSVCRTD:MSVCR90D.dll
 0002:0000bf4e       ___clean_type_info_names_internal 1001cf4e f   MSVCRTD:MSVCR90D.dll
 0002:0000bf54       ??1_Lockit@std@@QAE@XZ     1001cf54 f   msvcprtd:MSVCP90D.dll
 0002:0000bf5a       ??0_Lockit@std@@QAE@H@Z    1001cf5a f   msvcprtd:MSVCP90D.dll
 0002:0000bf60       ?_Debug_message@std@@YAXPB_W0I@Z 1001cf60 f   msvcprtd:MSVCP90D.dll
 0002:0000bf66       ??0?$basic_string@DU?$char_traits@D@std@@V?$allocator@D@2@@std@@QAE@ABV01@@Z 1001cf66 f   msvcprtd:MSVCP90D.dll
 0002:0000bf6c       ??0?$_String_val@DV?$allocator@D@std@@@std@@QAE@ABV01@@Z 1001cf6c f   msvcprtd:MSVCP90D.dll
 0002:0000bf72       ??0_String_base@std@@QAE@ABV01@@Z 1001cf72 f   msvcprtd:MSVCP90D.dll
 0002:0000bf78       ??0_Container_base_secure@std@@QAE@ABV01@@Z 1001cf78 f   msvcprtd:MSVCP90D.dll
 0002:0000bf7e       ??1_Container_base_secure@std@@QAE@XZ 1001cf7e f   msvcprtd:MSVCP90D.dll
 0002:0000bf84       ??1?$basic_string@DU?$char_traits@D@std@@V?$allocator@D@2@@std@@QAE@XZ 1001cf84 f   msvcprtd:MSVCP90D.dll
 0002:0000bf8a       ??0?$basic_string@DU?$char_traits@D@std@@V?$allocator@D@2@@std@@QAE@PBD@Z 1001cf8a f   msvcprtd:MSVCP90D.dll
 0002:0000bf90       ?c_str@?$basic_string@DU?$char_traits@D@std@@V?$allocator@D@2@@std@@QBEPBDXZ 1001cf90 f   msvcprtd:MSVCP90D.dll
 0002:0000bf96       ??0_Container_base_secure@std@@QAE@XZ 1001cf96 f   msvcprtd:MSVCP90D.dll
 0002:0000bf9c       ??4?$basic_string@DU?$char_traits@D@std@@V?$allocator@D@2@@std@@QAEAAV01@PBD@Z 1001cf9c f   msvcprtd:MSVCP90D.dll
 0002:0000bfa2       ??0?$basic_string@DU?$char_traits@D@std@@V?$allocator@D@2@@std@@QAE@U_Has_debug_it@01@@Z 1001cfa2 f   msvcprtd:MSVCP90D.dll
 0002:0000bfa8       ??_D?$basic_stringstream@DU?$char_traits@D@std@@V?$allocator@D@2@@std@@QAEXXZ 1001cfa8 f   msvcprtd:MSVCP90D.dll
 0002:0000bfae       ??$?6DU?$char_traits@D@std@@V?$allocator@D@1@@std@@YAAAV?$basic_ostream@DU?$char_traits@D@std@@@0@AAV10@ABV?$basic_string@DU?$char_traits@D@std@@V?$allocator@D@2@@0@@Z 1001cfae f   msvcprtd:MSVCP90D.dll
 0002:0000bfb4       ??0?$basic_stringstream@DU?$char_traits@D@std@@V?$allocator@D@2@@std@@QAE@H@Z 1001cfb4 f   msvcprtd:MSVCP90D.dll
 0002:0000bfba       ?setstate@?$basic_ios@DU?$char_traits@D@std@@@std@@QAEXH_N@Z 1001cfba f   msvcprtd:MSVCP90D.dll
 0002:0000bfc0       ?width@ios_base@std@@QAEHH@Z 1001cfc0 f   msvcprtd:MSVCP90D.dll
 0002:0000bfc6       ?sputn@?$basic_streambuf@DU?$char_traits@D@std@@@std@@QAEHPBDH@Z 1001cfc6 f   msvcprtd:MSVCP90D.dll
 0002:0000bfcc       ?eq_int_type@?$char_traits@D@std@@SA_NABH0@Z 1001cfcc f   msvcprtd:MSVCP90D.dll
 0002:0000bfd2       ?eof@?$char_traits@D@std@@SAHXZ 1001cfd2 f   msvcprtd:MSVCP90D.dll
 0002:0000bfd8       ?sputc@?$basic_streambuf@DU?$char_traits@D@std@@@std@@QAEHD@Z 1001cfd8 f   msvcprtd:MSVCP90D.dll
 0002:0000bfde       ?rdbuf@?$basic_ios@DU?$char_traits@D@std@@@std@@QBEPAV?$basic_streambuf@DU?$char_traits@D@std@@@2@XZ 1001cfde f   msvcprtd:MSVCP90D.dll
 0002:0000bfe4       ?fill@?$basic_ios@DU?$char_traits@D@std@@@std@@QBEDXZ 1001cfe4 f   msvcprtd:MSVCP90D.dll
 0002:0000bfea       ?flags@ios_base@std@@QBEHXZ 1001cfea f   msvcprtd:MSVCP90D.dll
 0002:0000bff0       ?width@ios_base@std@@QBEHXZ 1001cff0 f   msvcprtd:MSVCP90D.dll
 0002:0000bff6       ?length@?$char_traits@D@std@@SAIPBD@Z 1001cff6 f   msvcprtd:MSVCP90D.dll
 0002:0000bffc       ?flush@?$basic_ostream@DU?$char_traits@D@std@@@std@@QAEAAV12@XZ 1001cffc f   msvcprtd:MSVCP90D.dll
 0002:0000c002       ?tie@?$basic_ios@DU?$char_traits@D@std@@@std@@QBEPAV?$basic_ostream@DU?$char_traits@D@std@@@2@XZ 1001d002 f   msvcprtd:MSVCP90D.dll
 0002:0000c008       ?good@ios_base@std@@QBE_NXZ 1001d008 f   msvcprtd:MSVCP90D.dll
 0002:0000c00e       ?_Osfx@?$basic_ostream@DU?$char_traits@D@std@@@std@@QAEXXZ 1001d00e f   msvcprtd:MSVCP90D.dll
 0002:0000c014       ?uncaught_exception@std@@YA_NXZ 1001d014 f   msvcprtd:MSVCP90D.dll
 0002:0000c01a       ?_Lock@?$basic_streambuf@DU?$char_traits@D@std@@@std@@QAEXXZ 1001d01a f   msvcprtd:MSVCP90D.dll
 0002:0000c020       ?_Unlock@?$basic_streambuf@DU?$char_traits@D@std@@@std@@QAEXXZ 1001d020 f   msvcprtd:MSVCP90D.dll
 0002:0000c026       _InterlockedExchange@8     1001d026 f   kernel32:KERNEL32.dll
 0002:0000c02c       _Sleep@4                   1001d02c f   kernel32:KERNEL32.dll
 0002:0000c032       _InterlockedCompareExchange@12 1001d032 f   kernel32:KERNEL32.dll
 0002:0000c038       _IsDebuggerPresent@0       1001d038 f   kernel32:KERNEL32.dll
 0002:0000c03e       _RaiseException@16         1001d03e f   kernel32:KERNEL32.dll
 0002:0000c044       _DebugBreak@0              1001d044 f   kernel32:KERNEL32.dll
 0002:0000c04a       _WideCharToMultiByte@32    1001d04a f   kernel32:KERNEL32.dll
 0002:0000c050       _MultiByteToWideChar@24    1001d050 f   kernel32:KERNEL32.dll
 0002:0000c056       _lstrlenA@4                1001d056 f   kernel32:KERNEL32.dll
 0002:0000c05c       _GetProcAddress@8          1001d05c f   kernel32:KERNEL32.dll
 0002:0000c062       _LoadLibraryA@4            1001d062 f   kernel32:KERNEL32.dll
 0002:0000c068       _TerminateProcess@8        1001d068 f   kernel32:KERNEL32.dll
 0002:0000c06e       _GetCurrentProcess@0       1001d06e f   kernel32:KERNEL32.dll
 0002:0000c074       _UnhandledExceptionFilter@4 1001d074 f   kernel32:KERNEL32.dll
 0002:0000c07a       _SetUnhandledExceptionFilter@4 1001d07a f   kernel32:KERNEL32.dll
 0002:0000c080       _QueryPerformanceCounter@4 1001d080 f   kernel32:KERNEL32.dll
 0002:0000c086       _GetTickCount@0            1001d086 f   kernel32:KERNEL32.dll
 0002:0000c08c       _GetCurrentThreadId@0      1001d08c f   kernel32:KERNEL32.dll
 0002:0000c092       _GetCurrentProcessId@0     1001d092 f   kernel32:KERNEL32.dll
 0002:0000c098       _GetSystemTimeAsFileTime@4 1001d098 f   kernel32:KERNEL32.dll
 0002:0000c09e       _DisableThreadLibraryCalls@4 1001d09e f   kernel32:KERNEL32.dll
 0002:0000c0a4       _HeapFree@12               1001d0a4 f   kernel32:KERNEL32.dll
 0002:0000c0aa       _HeapAlloc@12              1001d0aa f   kernel32:KERNEL32.dll
 0002:0000c0b0       _GetProcessHeap@0          1001d0b0 f   kernel32:KERNEL32.dll
 0002:0000c0b6       _GetModuleFileNameW@12     1001d0b6 f   kernel32:KERNEL32.dll
 0002:0000c0bc       _VirtualQuery@12           1001d0bc f   kernel32:KERNEL32.dll
 0002:0000c0c2       _FreeLibrary@4             1001d0c2 f   kernel32:KERNEL32.dll
 0003:00000000       ___xc_a                    10021000     MSVCRTD:cinitexe.obj
 0003:00000104       ___xc_z                    10021104     MSVCRTD:cinitexe.obj
 0003:00000208       ___xi_a                    10021208     MSVCRTD:cinitexe.obj
 0003:00000410       ___xi_z                    10021410     MSVCRTD:cinitexe.obj
 0003:0000053c       ??_C@_0P@GHFPNOJB@bad?5allocation?$AA@ 1002153c     IlmThreadMutexWin32.obj
 0003:0000054e       ?_Value@?$_Is_swap_move@U_Swap_move_tag@std@@@std@@2_NB 1002154e     IlmThreadMutexWin32.obj
 0003:00000550       ?collate@?$_Locbase@H@std@@2HB 10021550     IlmThreadMutexWin32.obj
 0003:00000554       ?ctype@?$_Locbase@H@std@@2HB 10021554     IlmThreadMutexWin32.obj
 0003:00000558       ?monetary@?$_Locbase@H@std@@2HB 10021558     IlmThreadMutexWin32.obj
 0003:0000055c       ?numeric@?$_Locbase@H@std@@2HB 1002155c     IlmThreadMutexWin32.obj
 0003:00000560       ?time@?$_Locbase@H@std@@2HB 10021560     IlmThreadMutexWin32.obj
 0003:00000564       ?messages@?$_Locbase@H@std@@2HB 10021564     IlmThreadMutexWin32.obj
 0003:00000568       ?all@?$_Locbase@H@std@@2HB 10021568     IlmThreadMutexWin32.obj
 0003:0000056c       ?none@?$_Locbase@H@std@@2HB 1002156c     IlmThreadMutexWin32.obj
 0003:00000570       ?skipws@?$_Iosb@H@std@@2W4_Fmtflags@12@B 10021570     IlmThreadMutexWin32.obj
 0003:00000574       ?unitbuf@?$_Iosb@H@std@@2W4_Fmtflags@12@B 10021574     IlmThreadMutexWin32.obj
 0003:00000578       ?uppercase@?$_Iosb@H@std@@2W4_Fmtflags@12@B 10021578     IlmThreadMutexWin32.obj
 0003:0000057c       ?showbase@?$_Iosb@H@std@@2W4_Fmtflags@12@B 1002157c     IlmThreadMutexWin32.obj
 0003:00000580       ?showpoint@?$_Iosb@H@std@@2W4_Fmtflags@12@B 10021580     IlmThreadMutexWin32.obj
 0003:00000584       ?showpos@?$_Iosb@H@std@@2W4_Fmtflags@12@B 10021584     IlmThreadMutexWin32.obj
 0003:00000588       ?left@?$_Iosb@H@std@@2W4_Fmtflags@12@B 10021588     IlmThreadMutexWin32.obj
 0003:0000058c       ?right@?$_Iosb@H@std@@2W4_Fmtflags@12@B 1002158c     IlmThreadMutexWin32.obj
 0003:00000590       ?internal@?$_Iosb@H@std@@2W4_Fmtflags@12@B 10021590     IlmThreadMutexWin32.obj
 0003:00000594       ?dec@?$_Iosb@H@std@@2W4_Fmtflags@12@B 10021594     IlmThreadMutexWin32.obj
 0003:00000598       ?oct@?$_Iosb@H@std@@2W4_Fmtflags@12@B 10021598     IlmThreadMutexWin32.obj
 0003:0000059c       ?hex@?$_Iosb@H@std@@2W4_Fmtflags@12@B 1002159c     IlmThreadMutexWin32.obj
 0003:000005a0       ?scientific@?$_Iosb@H@std@@2W4_Fmtflags@12@B 100215a0     IlmThreadMutexWin32.obj
 0003:000005a4       ?fixed@?$_Iosb@H@std@@2W4_Fmtflags@12@B 100215a4     IlmThreadMutexWin32.obj
 0003:000005a8       ?hexfloat@?$_Iosb@H@std@@2W4_Fmtflags@12@B 100215a8     IlmThreadMutexWin32.obj
 0003:000005ac       ?boolalpha@?$_Iosb@H@std@@2W4_Fmtflags@12@B 100215ac     IlmThreadMutexWin32.obj
 0003:000005b0       ?_Stdio@?$_Iosb@H@std@@2W4_Fmtflags@12@B 100215b0     IlmThreadMutexWin32.obj
 0003:000005b4       ?adjustfield@?$_Iosb@H@std@@2W4_Fmtflags@12@B 100215b4     IlmThreadMutexWin32.obj
 0003:000005b8       ?basefield@?$_Iosb@H@std@@2W4_Fmtflags@12@B 100215b8     IlmThreadMutexWin32.obj
 0003:000005bc       ?floatfield@?$_Iosb@H@std@@2W4_Fmtflags@12@B 100215bc     IlmThreadMutexWin32.obj
 0003:000005c0       ?goodbit@?$_Iosb@H@std@@2W4_Iostate@12@B 100215c0     IlmThreadMutexWin32.obj
 0003:000005c4       ?eofbit@?$_Iosb@H@std@@2W4_Iostate@12@B 100215c4     IlmThreadMutexWin32.obj
 0003:000005c8       ?failbit@?$_Iosb@H@std@@2W4_Iostate@12@B 100215c8     IlmThreadMutexWin32.obj
 0003:000005cc       ?badbit@?$_Iosb@H@std@@2W4_Iostate@12@B 100215cc     IlmThreadMutexWin32.obj
 0003:000005d0       ?_Hardfail@?$_Iosb@H@std@@2W4_Iostate@12@B 100215d0     IlmThreadMutexWin32.obj
 0003:000005d4       ?in@?$_Iosb@H@std@@2W4_Openmode@12@B 100215d4     IlmThreadMutexWin32.obj
 0003:000005d8       ?out@?$_Iosb@H@std@@2W4_Openmode@12@B 100215d8     IlmThreadMutexWin32.obj
 0003:000005dc       ?ate@?$_Iosb@H@std@@2W4_Openmode@12@B 100215dc     IlmThreadMutexWin32.obj
 0003:000005e0       ?app@?$_Iosb@H@std@@2W4_Openmode@12@B 100215e0     IlmThreadMutexWin32.obj
 0003:000005e4       ?trunc@?$_Iosb@H@std@@2W4_Openmode@12@B 100215e4     IlmThreadMutexWin32.obj
 0003:000005e8       ?_Nocreate@?$_Iosb@H@std@@2W4_Openmode@12@B 100215e8     IlmThreadMutexWin32.obj
 0003:000005ec       ?_Noreplace@?$_Iosb@H@std@@2W4_Openmode@12@B 100215ec     IlmThreadMutexWin32.obj
 0003:000005f0       ?binary@?$_Iosb@H@std@@2W4_Openmode@12@B 100215f0     IlmThreadMutexWin32.obj
 0003:000005f4       ?beg@?$_Iosb@H@std@@2W4_Seekdir@12@B 100215f4     IlmThreadMutexWin32.obj
 0003:000005f8       ?cur@?$_Iosb@H@std@@2W4_Seekdir@12@B 100215f8     IlmThreadMutexWin32.obj
 0003:000005fc       ?end@?$_Iosb@H@std@@2W4_Seekdir@12@B 100215fc     IlmThreadMutexWin32.obj
 0003:00000604       ??_7Mutex@IlmThread@@6B@   10021604     IlmThreadMutexWin32.obj
 0003:00000609       ?value@?$integral_constant@_N$0A@@tr1@std@@2_NB 10021609     IlmThreadPool.obj
 0003:0000060a       ?value@?$integral_constant@_N$00@tr1@std@@2_NB 1002160a     IlmThreadPool.obj
 0003:00000610       ??_7WorkerThread@?A0xb0a473bd@IlmThread@@6B@ 10021610     IlmThreadPool.obj
 0003:0000061c       ??_C@_1DC@POOIKBAO@?$AAI?$AAT?$AAE?$AAR?$AAA?$AAT?$AAO?$AAR?$AA?5?$AAL?$AAI?$AAS?$AAT?$AA?5?$AAC?$AAO?$AAR?$AAR?$AAU?$AAP?$AAT?$AAE?$AAD?$AA?$CB?$AA?$AA@ 1002161c     IlmThreadPool.obj
 0003:00000658       ??_C@_1IO@PFHNEOGE@?$AAc?$AA?3?$AA?2?$AAp?$AAr?$AAo?$AAg?$AAr?$AAa?$AAm?$AA?5?$AAf?$AAi?$AAl?$AAe?$AAs?$AA?5?$AA?$CI?$AAx?$AA8?$AA6?$AA?$CJ?$AA?2?$AAm?$AAi?$AAc?$AAr?$AAo?$AAs?$AAo?$AAf?$AAt@ 10021658     IlmThreadPool.obj
 0003:00000708       ??_7Task@IlmThread@@6B@    10021708     IlmThreadPool.obj
 0003:00000718       ??_7ThreadPool@IlmThread@@6B@ 10021718     IlmThreadPool.obj
 0003:00000720       ??_C@_0EL@DLLOMFBF@Attempt?5to?5set?5the?5number?5of?5thr@ 10021720     IlmThreadPool.obj
 0003:00000780       ??_7ArgExc@Iex@@6B@        10021780     IlmThreadPool.obj
 0003:00000790       ??_C@_1EG@BPNHNPIG@?$AAl?$AAi?$AAs?$AAt?$AA?5?$AAi?$AAn?$AAs?$AAe?$AAr?$AAt?$AA?5?$AAi?$AAt?$AAe?$AAr?$AAa?$AAt?$AAo?$AAr?$AA?5?$AAo?$AAu?$AAt?$AAs?$AAi?$AAd?$AAe?$AA?5?$AAr?$AAa?$AAn@ 10021790     IlmThreadPool.obj
 0003:000007e8       ??_C@_1IG@PLPOLFFI@?$AAc?$AA?3?$AA?2?$AAp?$AAr?$AAo?$AAg?$AAr?$AAa?$AAm?$AA?5?$AAf?$AAi?$AAl?$AAe?$AAs?$AA?5?$AA?$CI?$AAx?$AA8?$AA6?$AA?$CJ?$AA?2?$AAm?$AAi?$AAc?$AAr?$AAo?$AAs?$AAo?$AAf?$AAt@ 100217e8     IlmThreadPool.obj
 0003:00000888       ??_C@_1EE@BBMFLDOC@?$AAl?$AAi?$AAs?$AAt?$AA?5?$AAe?$AAr?$AAa?$AAs?$AAe?$AA?5?$AAi?$AAt?$AAe?$AAr?$AAa?$AAt?$AAo?$AAr?$AA?5?$AAo?$AAu?$AAt?$AAs?$AAi?$AAd?$AAe?$AA?5?$AAr?$AAa?$AAn?$AAg@ 10021888     IlmThreadPool.obj
 0003:000008dc       ??_C@_1BO@MEPPHOO@?$AA?$CC?$AAo?$AAu?$AAt?$AA?5?$AAo?$AAf?$AA?5?$AAr?$AAa?$AAn?$AAg?$AAe?$AA?$CC?$AA?$AA@ 100218dc     IlmThreadPool.obj
 0003:00000900       ??_C@_1BGA@MDDEBJGE@?$AAs?$AAt?$AAd?$AA?3?$AA?3?$AAl?$AAi?$AAs?$AAt?$AA?$DM?$AAc?$AAl?$AAa?$AAs?$AAs?$AA?5?$AAI?$AAl?$AAm?$AAT?$AAh?$AAr?$AAe?$AAa?$AAd?$AA?3?$AA?3?$AA?$GA?$AAa?$AAn?$AAo?$AAn@ 10021900     IlmThreadPool.obj
 0003:00000aa8       ??_C@_1FG@CMLDHNON@?$AA?$CI?$AA?$CC?$AAS?$AAt?$AAa?$AAn?$AAd?$AAa?$AAr?$AAd?$AA?5?$AAC?$AA?$CL?$AA?$CL?$AA?5?$AAL?$AAi?$AAb?$AAr?$AAa?$AAr?$AAi?$AAe?$AAs?$AA?5?$AAO?$AAu?$AAt?$AA?5?$AAo?$AAf?$AA?5@ 10021aa8     IlmThreadPool.obj
 0003:00000b10       ??_C@_1EC@HILJLMMC@?$AAl?$AAi?$AAs?$AAt?$AA?5?$AAi?$AAt?$AAe?$AAr?$AAa?$AAt?$AAo?$AAr?$AA?5?$AAn?$AAo?$AAt?$AA?5?$AAd?$AAe?$AAr?$AAe?$AAf?$AAe?$AAr?$AAe?$AAn?$AAc?$AAa?$AAb?$AAl?$AAe@ 10021b10     IlmThreadPool.obj
 0003:00000b60       ??_C@_1BGC@NJJFDOMN@?$AAs?$AAt?$AAd?$AA?3?$AA?3?$AAl?$AAi?$AAs?$AAt?$AA?$DM?$AAc?$AAl?$AAa?$AAs?$AAs?$AA?5?$AAI?$AAl?$AAm?$AAT?$AAh?$AAr?$AAe?$AAa?$AAd?$AA?3?$AA?3?$AA?$GA?$AAa?$AAn?$AAo?$AAn@ 10021b60     IlmThreadPool.obj
 0003:00000d08       ??_C@_1EA@DOGAGKDH@?$AAl?$AAi?$AAs?$AAt?$AA?5?$AAi?$AAt?$AAe?$AAr?$AAa?$AAt?$AAo?$AAr?$AA?5?$AAn?$AAo?$AAt?$AA?5?$AAi?$AAn?$AAc?$AAr?$AAe?$AAm?$AAe?$AAn?$AAt?$AAa?$AAb?$AAl?$AAe?$AA?$AA@ 10021d08     IlmThreadPool.obj
 0003:00000d54       ??_C@_0BB@MOGOBHAF@list?$DMT?$DO?5too?5long?$AA@ 10021d54     IlmThreadPool.obj
 0003:00000d6c       ??_7length_error@std@@6B@  10021d6c     IlmThreadPool.obj
 0003:00000d7c       ??_7logic_error@std@@6B@   10021d7c     IlmThreadPool.obj
 0003:00000d88       ??_C@_1CG@JNLFBNGN@?$AA?$CC?$AAi?$AAn?$AAv?$AAa?$AAl?$AAi?$AAd?$AA?5?$AAa?$AAr?$AAg?$AAu?$AAm?$AAe?$AAn?$AAt?$AA?$CC?$AA?$AA@ 10021d88     IlmThreadPool.obj
 0003:00000db8       ??_C@_1BFK@MOMEKLDO@?$AAs?$AAt?$AAd?$AA?3?$AA?3?$AAl?$AAi?$AAs?$AAt?$AA?$DM?$AAc?$AAl?$AAa?$AAs?$AAs?$AA?5?$AAI?$AAl?$AAm?$AAT?$AAh?$AAr?$AAe?$AAa?$AAd?$AA?3?$AA?3?$AA?$GA?$AAa?$AAn?$AAo?$AAn@ 10021db8     IlmThreadPool.obj
 0003:00000f58       ??_C@_1FO@OCPOOAIA@?$AA?$CI?$AA?$CC?$AAS?$AAt?$AAa?$AAn?$AAd?$AAa?$AAr?$AAd?$AA?5?$AAC?$AA?$CL?$AA?$CL?$AA?5?$AAL?$AAi?$AAb?$AAr?$AAa?$AAr?$AAi?$AAe?$AAs?$AA?5?$AAI?$AAn?$AAv?$AAa?$AAl?$AAi?$AAd@ 10021f58     IlmThreadPool.obj
 0003:00000fc8       ??_C@_1DI@MDELDGPI@?$AAl?$AAi?$AAs?$AAt?$AA?5?$AAi?$AAt?$AAe?$AAr?$AAa?$AAt?$AAo?$AAr?$AAs?$AA?5?$AAi?$AAn?$AAc?$AAo?$AAm?$AAp?$AAa?$AAt?$AAi?$AAb?$AAl?$AAe?$AA?$AA@ 10021fc8     IlmThreadPool.obj
 0003:00001010       ??_C@_1OE@HEKEMKEF@?$AAs?$AAt?$AAd?$AA?3?$AA?3?$AAl?$AAi?$AAs?$AAt?$AA?$DM?$AAc?$AAl?$AAa?$AAs?$AAs?$AA?5?$AAI?$AAl?$AAm?$AAT?$AAh?$AAr?$AAe?$AAa?$AAd?$AA?3?$AA?3?$AAT?$AAa?$AAs?$AAk?$AA?5@ 10022010     IlmThreadPool.obj
 0003:00001128       ??_C@_1OG@EKNABPNA@?$AAs?$AAt?$AAd?$AA?3?$AA?3?$AAl?$AAi?$AAs?$AAt?$AA?$DM?$AAc?$AAl?$AAa?$AAs?$AAs?$AA?5?$AAI?$AAl?$AAm?$AAT?$AAh?$AAr?$AAe?$AAa?$AAd?$AA?3?$AA?3?$AAT?$AAa?$AAs?$AAk?$AA?5@ 10022128     IlmThreadPool.obj
 0003:00001240       ??_7bad_alloc@std@@6B@     10022240     IlmThreadPool.obj
 0003:0000124c       ??_C@_0BN@GNKBEIOC@Could?5not?5create?5semaphore?5?$CI?$AA@ 1002224c     IlmThreadSemaphoreWin32.obj
 0003:00001270       ??_C@_02DMCFFCKO@?$CJ?4?$AA@ 10022270     IlmThreadSemaphoreWin32.obj
 0003:00001278       ??_7Semaphore@IlmThread@@6B@ 10022278     IlmThreadSemaphoreWin32.obj
 0003:00001284       ??_7LogicExc@Iex@@6B@      10022284     IlmThreadSemaphoreWin32.obj
 0003:00001290       ??_C@_15FLLIJDNB@?$AAo?$AAk?$AA?$AA@ 10022290     IlmThreadSemaphoreWin32.obj
 0003:00001298       ??_C@_1KM@HGEMPNHL@?$AAd?$AA?3?$AA?2?$AAl?$AAi?$AAb?$AAr?$AAa?$AAr?$AAi?$AAe?$AAs?$AA?2?$AAp?$AAv?$AAr?$AA?2?$AA3?$AAr?$AAd?$AAp?$AAa?$AAr?$AAt?$AAy?$AA?2?$AAo?$AAp?$AAe?$AAn?$AAe?$AAx@ 10022298     IlmThreadSemaphoreWin32.obj
 0003:00001368       ??_C@_0BO@OKMBNFDM@Could?5not?5wait?5on?5semaphore?5?$CI?$AA@ 10022368     IlmThreadSemaphoreWin32.obj
 0003:0000138c       ??_C@_0BO@KDNOPMKO@Could?5not?5post?5on?5semaphore?5?$CI?$AA@ 1002238c     IlmThreadSemaphoreWin32.obj
 0003:000013b0       ??_C@_0CD@LHHALIDH@Could?5not?5get?5value?5of?5semaphore@ 100223b0     IlmThreadSemaphoreWin32.obj
 0003:000013e0       ??_7Thread@IlmThread@@6B@  100223e0     IlmThreadWin32.obj
 0003:000013ec       ??_C@_1DA@PBLJNLHP@?$AAs?$AAt?$AAa?$AAt?$AAu?$AAs?$AA?5?$AA?$DN?$AA?$DN?$AA?5?$AAW?$AAA?$AAI?$AAT?$AA_?$AAO?$AAB?$AAJ?$AAE?$AAC?$AAT?$AA_?$AA0?$AA?$AA@ 100223ec     IlmThreadWin32.obj
 0003:00001428       ??_C@_1JK@HHNBJKID@?$AAd?$AA?3?$AA?2?$AAl?$AAi?$AAb?$AAr?$AAa?$AAr?$AAi?$AAe?$AAs?$AA?2?$AAp?$AAv?$AAr?$AA?2?$AA3?$AAr?$AAd?$AAp?$AAa?$AAr?$AAt?$AAy?$AA?2?$AAo?$AAp?$AAe?$AAn?$AAe?$AAx@ 10022428     IlmThreadWin32.obj
 0003:000014e0       ??_C@_0BP@EPDMNPGJ@Cannot?5create?5new?5thread?5?$CI?$CFT?$CJ?4?$AA@ 100224e0     IlmThreadWin32.obj
 0003:0000150c       ??_7type_info@@6B@         1002250c     MSVCRTD:ti_inst.obj
 0003:00001514       __pRawDllMain              10022514     MSVCRTD:crtdll.obj
 0003:00001514       __pDefaultRawDllMain       10022514     MSVCRTD:crtdll.obj
 0003:00001518       ??_C@_0DA@FJPPCPEH@f?3?2dd?2vctools?2crt_bld?2self_x86?2c@ 10022518     MSVCRTD:crtdll.obj
 0003:00001554       ??_C@_0BO@GNIAFIKK@Unknown?5Runtime?5Check?5Error?6?$AN?$AA@ 10022554     MSVCRTD:_error_.obj
 0003:00001578       ??_C@_0CM@NGINOKPC@Stack?5memory?5around?5_alloca?5was?5@ 10022578     MSVCRTD:_error_.obj
 0003:000015ac       ??_C@_0DG@HKJMLLLP@A?5local?5variable?5was?5used?5before@ 100225ac     MSVCRTD:_error_.obj
 0003:000015ec       ??_C@_0BN@FFOINMNJ@Stack?5memory?5was?5corrupted?6?$AN?$AA@ 100225ec     MSVCRTD:_error_.obj
 0003:00001610       ??_C@_0BBN@GPMLNJCF@A?5cast?5to?5a?5smaller?5data?5type?5ha@ 10022610     MSVCRTD:_error_.obj
 0003:00001768       ??_C@_0NN@NGPKDKPD@The?5value?5of?5ESP?5was?5not?5properl@ 10022768     MSVCRTD:_error_.obj
 0003:00001930       ??_C@_0CA@IODNCDPG@Run?9Time?5Check?5Failure?5?$CD?$CFd?5?9?5?$CFs?$AA@ 10022930     MSVCRTD:_error_.obj
 0003:00001958       ??_C@_0BE@GNBOBNCK@Unknown?5Module?5Name?$AA@ 10022958     MSVCRTD:_error_.obj
 0003:00001970       ??_C@_0BB@PFFGGCJP@Unknown?5Filename?$AA@ 10022970     MSVCRTD:_error_.obj
 0003:00001988       ??_C@_1EA@NFKNIFJP@?$AAR?$AAu?$AAn?$AA?9?$AAT?$AAi?$AAm?$AAe?$AA?5?$AAC?$AAh?$AAe?$AAc?$AAk?$AA?5?$AAF?$AAa?$AAi?$AAl?$AAu?$AAr?$AAe?$AA?5?$AA?$CD?$AA?$CF?$AAd?$AA?5?$AA?9?$AA?5?$AA?$CF?$AAs?$AA?$AA@ 10022988     MSVCRTD:_error_.obj
 0003:000019d8       ??_C@_1GM@OLMCBDMB@?$AAR?$AAu?$AAn?$AAt?$AAi?$AAm?$AAe?$AA?5?$AAC?$AAh?$AAe?$AAc?$AAk?$AA?5?$AAE?$AAr?$AAr?$AAo?$AAr?$AA?4?$AA?6?$AA?$AN?$AA?5?$AAU?$AAn?$AAa?$AAb?$AAl?$AAe?$AA?5?$AAt?$AAo@ 100229d8     MSVCRTD:_error_.obj
 0003:00001a5c       ??_C@_0CG@IAFNJNEE@Stack?5corrupted?5near?5unknown?5var@ 10022a5c     MSVCRTD:_error_.obj
 0003:00001a90       ??_C@_0EJ@LJKNEOLN@Stack?5area?5around?5_alloca?5memory@ 10022a90     MSVCRTD:_error_.obj
 0003:00001ae8       ??_C@_08KJEDNCKC@?$CFs?$CFs?$CFs?$CFs?$AA@ 10022ae8     MSVCRTD:_error_.obj
 0003:00001af4       ??_C@_02LLMPMKNF@?$DO?5?$AA@ 10022af4     MSVCRTD:_error_.obj
 0003:00001af8       ??_C@_01EEMJAFIK@?6?$AA@   10022af8     MSVCRTD:_error_.obj
 0003:00001afc       ??_C@_0BC@KIBAILCI@?$CFs?$CFs?$CFp?$CFs?$CFld?$CFs?$CFd?$CFs?$AA@ 10022afc     MSVCRTD:_error_.obj
 0003:00001b18       ??_C@_0EI@CLEPFNGI@Stack?5area?5around?5_alloca?5memory@ 10022b18     MSVCRTD:_error_.obj
 0003:00001b70       ??_C@_0N@MHFFIMFG@?6Address?3?50x?$AA@ 10022b70     MSVCRTD:_error_.obj
 0003:00001b80       ??_C@_07DFDJCKFN@?6Size?3?5?$AA@ 10022b80     MSVCRTD:_error_.obj
 0003:00001b8c       ??_C@_0CK@DKGBICFE@?6Allocation?5number?5within?5this?5f@ 10022b8c     MSVCRTD:_error_.obj
 0003:00001bc0       ??_C@_08OMAHNMHJ@?6Data?3?5?$DM?$AA@ 10022bc0     MSVCRTD:_error_.obj
 0003:00001bcc       ??_C@_09FOPFMPEJ@wsprintfA?$AA@ 10022bcc     MSVCRTD:_error_.obj
 0003:00001bd8       ??_C@_0L@GMPLCCII@user32?4dll?$AA@ 10022bd8     MSVCRTD:_error_.obj
 0003:00001be8       ??_C@_05MKKEDADM@?$CF?42X?5?$AA@ 10022be8     MSVCRTD:_error_.obj
 0003:00001bf0       ??_C@_0DE@OHJBPMBP@A?5variable?5is?5being?5used?5without@ 10022bf0     MSVCRTD:_error_.obj
 0003:00001c30       ??_C@_0BP@OGBCLIBO@Stack?5around?5_alloca?5corrupted?$AA@ 10022c30     MSVCRTD:_userapi_.obj
 0003:00001c58       ??_C@_0CK@CNLNOEPB@Local?5variable?5used?5before?5initi@ 10022c58     MSVCRTD:_userapi_.obj
 0003:00001c8c       ??_C@_0BI@CIGMDCBH@Stack?5memory?5corruption?$AA@ 10022c8c     MSVCRTD:_userapi_.obj
 0003:00001ca8       ??_C@_0CK@FEGOIOPB@Cast?5to?5smaller?5type?5causing?5los@ 10022ca8     MSVCRTD:_userapi_.obj
 0003:00001cdc       ??_C@_0BJ@HEGAHDFO@Stack?5pointer?5corruption?$AA@ 10022cdc     MSVCRTD:_userapi_.obj
 0003:00001d20       ?ProcessDetach@NativeDll@<CrtImplementationDetails>@@0IB 10022d20     MSVCRTD:tncleanup.obj
 0003:00001d24       ?ProcessAttach@NativeDll@<CrtImplementationDetails>@@0IB 10022d24     MSVCRTD:tncleanup.obj
 0003:00001d28       ?ThreadAttach@NativeDll@<CrtImplementationDetails>@@0IB 10022d28     MSVCRTD:tncleanup.obj
 0003:00001d2c       ?ThreadDetach@NativeDll@<CrtImplementationDetails>@@0IB 10022d2c     MSVCRTD:tncleanup.obj
 0003:00001d30       ?ProcessVerifier@NativeDll@<CrtImplementationDetails>@@0IB 10022d30     MSVCRTD:tncleanup.obj
 0003:00001d34       ??_C@_0M@EKFFODEC@MSPDB80?4DLL?$AA@ 10022d34     MSVCRTD:_pdblkup_.obj
 0003:00001d44       ??_C@_01KDCPPGHE@r?$AA@    10022d44     MSVCRTD:_pdblkup_.obj
 0003:00001d48       ??_C@_0BB@KCIACLNC@PDBOpenValidate5?$AA@ 10022d48     MSVCRTD:_pdblkup_.obj
 0003:00001d5c       ??_C@_0BF@BMIHBHCA@EnvironmentDirectory?$AA@ 10022d5c     MSVCRTD:_pdblkup_.obj
 0003:00001d78       ??_C@_0CN@JNNIHDGH@SOFTWARE?2Microsoft?2VisualStudio?2@ 10022d78     MSVCRTD:_pdblkup_.obj
 0003:00001db0       ??_C@_0M@HLOHPNFA@RegCloseKey?$AA@ 10022db0     MSVCRTD:_pdblkup_.obj
 0003:00001dc0       ??_C@_0BB@HHEIPGME@RegQueryValueExA?$AA@ 10022dc0     MSVCRTD:_pdblkup_.obj
 0003:00001dd4       ??_C@_0O@DCOGKJGG@RegOpenKeyExA?$AA@ 10022dd4     MSVCRTD:_pdblkup_.obj
 0003:00001de4       ??_C@_0N@JJPEKNFO@ADVAPI32?4DLL?$AA@ 10022de4     MSVCRTD:_pdblkup_.obj
 0003:000020ec       ??_R4Mutex@IlmThread@@6B@  100230ec     IlmThreadMutexWin32.obj
 0003:00002104       ??_R3Mutex@IlmThread@@8    10023104     IlmThreadMutexWin32.obj
 0003:00002118       ??_R2Mutex@IlmThread@@8    10023118     IlmThreadMutexWin32.obj
 0003:00002120       ??_R1A@?0A@EA@Mutex@IlmThread@@8 10023120     IlmThreadMutexWin32.obj
 0003:00002144       ??_R4WorkerThread@?A0xb0a473bd@IlmThread@@6B@ 10023144     IlmThreadPool.obj
 0003:0000215c       ??_R3WorkerThread@?A0xb0a473bd@IlmThread@@8 1002315c     IlmThreadPool.obj
 0003:00002170       ??_R2WorkerThread@?A0xb0a473bd@IlmThread@@8 10023170     IlmThreadPool.obj
 0003:0000217c       ??_R1A@?0A@EA@WorkerThread@?A0xb0a473bd@IlmThread@@8 1002317c     IlmThreadPool.obj
 0003:000021a0       ??_R1A@?0A@EA@Thread@IlmThread@@8 100231a0     IlmThreadPool.obj
 0003:000021c4       ??_R3Thread@IlmThread@@8   100231c4     IlmThreadPool.obj
 0003:000021d8       ??_R2Thread@IlmThread@@8   100231d8     IlmThreadPool.obj
 0003:000021e0       ??_R4Task@IlmThread@@6B@   100231e0     IlmThreadPool.obj
 0003:000021f8       ??_R3Task@IlmThread@@8     100231f8     IlmThreadPool.obj
 0003:0000220c       ??_R2Task@IlmThread@@8     1002320c     IlmThreadPool.obj
 0003:00002214       ??_R1A@?0A@EA@Task@IlmThread@@8 10023214     IlmThreadPool.obj
 0003:00002238       ??_R4ThreadPool@IlmThread@@6B@ 10023238     IlmThreadPool.obj
 0003:00002250       ??_R3ThreadPool@IlmThread@@8 10023250     IlmThreadPool.obj
 0003:00002264       ??_R2ThreadPool@IlmThread@@8 10023264     IlmThreadPool.obj
 0003:0000226c       ??_R1A@?0A@EA@ThreadPool@IlmThread@@8 1002326c     IlmThreadPool.obj
 0003:00002290       ??_R4ArgExc@Iex@@6B@       10023290     IlmThreadPool.obj
 0003:000022a8       ??_R3ArgExc@Iex@@8         100232a8     IlmThreadPool.obj
 0003:000022bc       ??_R2ArgExc@Iex@@8         100232bc     IlmThreadPool.obj
 0003:000022e0       ??_R1A@?0A@EA@ArgExc@Iex@@8 100232e0     IlmThreadPool.obj
 0003:00002304       ??_R1A@?0A@EA@BaseExc@Iex@@8 10023304     IlmThreadPool.obj
 0003:00002328       ??_R3BaseExc@Iex@@8        10023328     IlmThreadPool.obj
 0003:0000233c       ??_R2BaseExc@Iex@@8        1002333c     IlmThreadPool.obj
 0003:0000235c       ??_R1M@?0A@EA@?$basic_string@DU?$char_traits@D@std@@V?$allocator@D@2@@std@@8 1002335c     IlmThreadPool.obj
 0003:00002380       ??_R3?$basic_string@DU?$char_traits@D@std@@V?$allocator@D@2@@std@@8 10023380     IlmThreadPool.obj
 0003:00002394       ??_R2?$basic_string@DU?$char_traits@D@std@@V?$allocator@D@2@@std@@8 10023394     IlmThreadPool.obj
 0003:000023a8       ??_R1A@?0A@EA@?$basic_string@DU?$char_traits@D@std@@V?$allocator@D@2@@std@@8 100233a8     IlmThreadPool.obj
 0003:000023cc       ??_R1A@?0A@EA@?$_String_val@DV?$allocator@D@std@@@std@@8 100233cc     IlmThreadPool.obj
 0003:000023f0       ??_R3?$_String_val@DV?$allocator@D@std@@@std@@8 100233f0     IlmThreadPool.obj
 0003:00002404       ??_R2?$_String_val@DV?$allocator@D@std@@@std@@8 10023404     IlmThreadPool.obj
 0003:00002414       ??_R1A@?0A@EA@_String_base@std@@8 10023414     IlmThreadPool.obj
 0003:00002438       ??_R3_String_base@std@@8   10023438     IlmThreadPool.obj
 0003:0000244c       ??_R2_String_base@std@@8   1002344c     IlmThreadPool.obj
 0003:00002458       ??_R1A@?0A@EA@_Container_base_secure@std@@8 10023458     IlmThreadPool.obj
 0003:0000247c       ??_R3_Container_base_secure@std@@8 1002347c     IlmThreadPool.obj
 0003:00002490       ??_R2_Container_base_secure@std@@8 10023490     IlmThreadPool.obj
 0003:00002498       ??_R1M@?0A@EA@?$_String_val@DV?$allocator@D@std@@@std@@8 10023498     IlmThreadPool.obj
 0003:000024bc       ??_R1M@?0A@EA@_String_base@std@@8 100234bc     IlmThreadPool.obj
 0003:000024e0       ??_R1M@?0A@EA@_Container_base_secure@std@@8 100234e0     IlmThreadPool.obj
 0003:00002504       ??_R1A@?0A@EA@exception@std@@8 10023504     IlmThreadPool.obj
 0003:00002528       ??_R3exception@std@@8      10023528     IlmThreadPool.obj
 0003:0000253c       ??_R2exception@std@@8      1002353c     IlmThreadPool.obj
 0003:00002544       ??_R4length_error@std@@6B@ 10023544     IlmThreadPool.obj
 0003:0000255c       ??_R3length_error@std@@8   1002355c     IlmThreadPool.obj
 0003:00002570       ??_R2length_error@std@@8   10023570     IlmThreadPool.obj
 0003:00002580       ??_R1A@?0A@EA@length_error@std@@8 10023580     IlmThreadPool.obj
 0003:000025a4       ??_R1A@?0A@EA@logic_error@std@@8 100235a4     IlmThreadPool.obj
 0003:000025c8       ??_R3logic_error@std@@8    100235c8     IlmThreadPool.obj
 0003:000025dc       ??_R2logic_error@std@@8    100235dc     IlmThreadPool.obj
 0003:000025e8       ??_R4logic_error@std@@6B@  100235e8     IlmThreadPool.obj
 0003:00002600       ??_R4bad_alloc@std@@6B@    10023600     IlmThreadPool.obj
 0003:00002618       ??_R3bad_alloc@std@@8      10023618     IlmThreadPool.obj
 0003:0000262c       ??_R2bad_alloc@std@@8      1002362c     IlmThreadPool.obj
 0003:00002638       ??_R1A@?0A@EA@bad_alloc@std@@8 10023638     IlmThreadPool.obj
 0003:0000265c       ??_R4Semaphore@IlmThread@@6B@ 1002365c     IlmThreadSemaphoreWin32.obj
 0003:00002674       ??_R3Semaphore@IlmThread@@8 10023674     IlmThreadSemaphoreWin32.obj
 0003:00002688       ??_R2Semaphore@IlmThread@@8 10023688     IlmThreadSemaphoreWin32.obj
 0003:00002690       ??_R1A@?0A@EA@Semaphore@IlmThread@@8 10023690     IlmThreadSemaphoreWin32.obj
 0003:000026b4       ??_R4LogicExc@Iex@@6B@     100236b4     IlmThreadSemaphoreWin32.obj
 0003:000026cc       ??_R3LogicExc@Iex@@8       100236cc     IlmThreadSemaphoreWin32.obj
 0003:000026e0       ??_R2LogicExc@Iex@@8       100236e0     IlmThreadSemaphoreWin32.obj
 0003:00002704       ??_R1A@?0A@EA@LogicExc@Iex@@8 10023704     IlmThreadSemaphoreWin32.obj
 0003:00002728       ??_R4Thread@IlmThread@@6B@ 10023728     IlmThreadWin32.obj
 0003:00002740       ??_R4type_info@@6B@        10023740     MSVCRTD:ti_inst.obj
 0003:00002758       ??_R3type_info@@8          10023758     MSVCRTD:ti_inst.obj
 0003:0000276c       ??_R2type_info@@8          1002376c     MSVCRTD:ti_inst.obj
 0003:00002774       ??_R1A@?0A@EA@type_info@@8 10023774     MSVCRTD:ti_inst.obj
 0003:000028c4       ___rtc_iaa                 100238c4     MSVCRTD:_initsect_.obj
 0003:00002adc       ___rtc_izz                 10023adc     MSVCRTD:_initsect_.obj
 0003:00002be0       ___rtc_taa                 10023be0     MSVCRTD:_initsect_.obj
 0003:00002df8       ___rtc_tzz                 10023df8     MSVCRTD:_initsect_.obj
 0003:00003138       __TI7?AVArgExc@Iex@@       10024138     IlmThreadPool.obj
 0003:00003190       __CTA7?AVArgExc@Iex@@      10024190     IlmThreadPool.obj
 0003:000031b4       __CT??_R0?AVArgExc@Iex@@@8??0ArgExc@Iex@@QAE@ABV01@@Z76 100241b4     IlmThreadPool.obj
 0003:000031d4       __CT??_R0?AVBaseExc@Iex@@@8??0BaseExc@Iex@@QAE@ABV01@@Z76 100241d4     IlmThreadPool.obj
 0003:000031f4       __CT??_R0?AV?$basic_string@DU?$char_traits@D@std@@V?$allocator@D@2@@std@@@8??0?$basic_string@DU?$char_traits@D@std@@V?$allocator@D@2@@std@@QAE@ABV01@@Z3212 100241f4     IlmThreadPool.obj
 0003:00003214       __CT??_R0?AV?$_String_val@DV?$allocator@D@std@@@std@@@8??0?$_String_val@DV?$allocator@D@std@@@std@@QAE@ABV01@@Z812 10024214     IlmThreadPool.obj
 0003:00003234       __CT??_R0?AV_String_base@std@@@8??0_String_base@std@@QAE@ABV01@@Z412 10024234     IlmThreadPool.obj
 0003:00003254       __CT??_R0?AV_Container_base_secure@std@@@8??0_Container_base_secure@std@@QAE@ABV01@@Z412 10024254     IlmThreadPool.obj
 0003:00003274       __CT??_R0?AVexception@std@@@8??0exception@std@@QAE@ABV01@@Z12 10024274     IlmThreadPool.obj
 0003:000036e0       __TI3?AVlength_error@std@@ 100246e0     IlmThreadPool.obj
 0003:00003724       __CTA3?AVlength_error@std@@ 10024724     IlmThreadPool.obj
 0003:00003738       __CT??_R0?AVlength_error@std@@@8??0length_error@std@@QAE@ABV01@@Z44 10024738     IlmThreadPool.obj
 0003:00003758       __CT??_R0?AVlogic_error@std@@@8??0logic_error@std@@QAE@ABV01@@Z44 10024758     IlmThreadPool.obj
 0003:00003904       __TI2?AVbad_alloc@std@@    10024904     IlmThreadPool.obj
 0003:00003918       __CTA2?AVbad_alloc@std@@   10024918     IlmThreadPool.obj
 0003:00003928       __CT??_R0?AVbad_alloc@std@@@8??0bad_alloc@std@@QAE@ABV01@@Z12 10024928     IlmThreadPool.obj
 0003:00003984       __TI7?AVLogicExc@Iex@@     10024984     IlmThreadSemaphoreWin32.obj
 0003:000039d4       __CTA7?AVLogicExc@Iex@@    100249d4     IlmThreadSemaphoreWin32.obj
 0003:000039f8       __CT??_R0?AVLogicExc@Iex@@@8??0LogicExc@Iex@@QAE@ABV01@@Z76 100249f8     IlmThreadSemaphoreWin32.obj
 0004:00000004       ??_R0?AVMutex@IlmThread@@@8 10026004     IlmThreadMutexWin32.obj
 0004:0000002c       ??_R0?AVWorkerThread@?A0xb0a473bd@IlmThread@@@8 1002602c     IlmThreadPool.obj
 0004:00000068       ??_R0?AVThread@IlmThread@@@8 10026068     IlmThreadPool.obj
 0004:00000090       ??_R0?AVTask@IlmThread@@@8 10026090     IlmThreadPool.obj
 0004:000000b4       ??_R0?AVThreadPool@IlmThread@@@8 100260b4     IlmThreadPool.obj
 0004:000000e0       ??_R0?AVArgExc@Iex@@@8     100260e0     IlmThreadPool.obj
 0004:00000100       ??_R0?AVBaseExc@Iex@@@8    10026100     IlmThreadPool.obj
 0004:00000120       ??_R0?AV?$basic_string@DU?$char_traits@D@std@@V?$allocator@D@2@@std@@@8 10026120     IlmThreadPool.obj
 0004:00000178       ??_R0?AV?$_String_val@DV?$allocator@D@std@@@std@@@8 10026178     IlmThreadPool.obj
 0004:000001b8       ??_R0?AV_String_base@std@@@8 100261b8     IlmThreadPool.obj
 0004:000001e0       ??_R0?AV_Container_base_secure@std@@@8 100261e0     IlmThreadPool.obj
 0004:00000214       ??_R0?AVexception@std@@@8  10026214     IlmThreadPool.obj
 0004:00000238       ??_R0?AVlength_error@std@@@8 10026238     IlmThreadPool.obj
 0004:00000260       ??_R0?AVlogic_error@std@@@8 10026260     IlmThreadPool.obj
 0004:00000284       ??_R0?AVbad_alloc@std@@@8  10026284     IlmThreadPool.obj
 0004:000002ac       ??_R0?AVSemaphore@IlmThread@@@8 100262ac     IlmThreadSemaphoreWin32.obj
 0004:000002d4       ??_R0?AVLogicExc@Iex@@@8   100262d4     IlmThreadSemaphoreWin32.obj
 0004:000002f4       ?__LINE__Var@?1???1Semaphore@IlmThread@@UAE@XZ@4JA 100262f4     IlmThreadSemaphoreWin32.obj
 0004:000002fc       ?__LINE__Var@?1???1Thread@IlmThread@@UAE@XZ@4JA 100262fc     IlmThreadWin32.obj
 0004:00000300       ??_R0?AVtype_info@@@8      10026300     MSVCRTD:ti_inst.obj
 0004:0000031c       ___security_cookie         1002631c     MSVCRTD:gs_cookie.obj
 0004:00000320       ___security_cookie_complement 10026320     MSVCRTD:gs_cookie.obj
 0004:00000324       ?_RTC_ErrorLevels@@3PAHA   10026324     MSVCRTD:_error_.obj
 0004:0000033c       ___native_dllmain_reason   1002633c     MSVCRTD:natstart.obj
 0004:00000340       ___native_vcclrit_reason   10026340     MSVCRTD:natstart.obj
 0004:00000474       ?wsprintffp@@3P6AHPADPBDZZA 10026474     MSVCRTD:_error_.obj
 0004:0000084c       __forceCRTManifestRTM      1002684c     MSVCRTD:crtmanifestrtm.obj
 0004:00000850       ?__type_info_root_node@@3U__type_info_node@@A 10026850     MSVCRTD:tncleanup.obj
 0004:00000868       __adjust_fdiv              10026868     <common>
 0004:00000874       ___native_startup_state    10026874     <common>
 0004:00000884       ___native_startup_lock     10026884     <common>
 0004:00000888       ___dyn_tls_init_callback   10026888     <common>
 0004:00000894       ___onexitend               10026894     <common>
 0004:000008a4       ___onexitbegin             100268a4     <common>
 0005:00000000       __IMPORT_DESCRIPTOR_KERNEL32 10027000     kernel32:KERNEL32.dll
 0005:00000014       __IMPORT_DESCRIPTOR_Iex    10027014     iex:Iex.dll
 0005:00000028       __IMPORT_DESCRIPTOR_MSVCR90D 10027028     MSVCRTD:MSVCR90D.dll
 0005:0000003c       __IMPORT_DESCRIPTOR_MSVCP90D 1002703c     msvcprtd:MSVCP90D.dll
 0005:00000050       __NULL_IMPORT_DESCRIPTOR   10027050     kernel32:KERNEL32.dll
 0005:00000338       __imp_??0BaseExc@Iex@@QAE@AAV?$basic_stringstream@DU?$char_traits@D@std@@V?$allocator@D@2@@std@@@Z 10027338     iex:Iex.dll
 0005:0000033c       __imp_??1BaseExc@Iex@@UAE@XZ 1002733c     iex:Iex.dll
 0005:00000340       __imp_?what@BaseExc@Iex@@UBEPBDXZ 10027340     iex:Iex.dll
 0005:00000344       __imp_??0BaseExc@Iex@@QAE@PBD@Z 10027344     iex:Iex.dll
 0005:00000348       __imp_??0BaseExc@Iex@@QAE@ABV01@@Z 10027348     iex:Iex.dll
 0005:0000034c       __imp_?throwErrnoExc@Iex@@YAXABV?$basic_string@DU?$char_traits@D@std@@V?$allocator@D@2@@std@@@Z 1002734c     iex:Iex.dll
 0005:00000350       \177Iex_NULL_THUNK_DATA    10027350     iex:Iex.dll
 0005:00000380       __imp__CreateSemaphoreA@16 10027380     kernel32:KERNEL32.dll
 0005:00000384       __imp__CloseHandle@4       10027384     kernel32:KERNEL32.dll
 0005:00000388       __imp__GetLastError@0      10027388     kernel32:KERNEL32.dll
 0005:0000038c       __imp__ReleaseSemaphore@12 1002738c     kernel32:KERNEL32.dll
 0005:00000390       __imp__FormatMessageA@28   10027390     kernel32:KERNEL32.dll
 0005:00000394       __imp__LocalFree@4         10027394     kernel32:KERNEL32.dll
 0005:00000398       __imp__LeaveCriticalSection@4 10027398     kernel32:KERNEL32.dll
 0005:0000039c       __imp__EnterCriticalSection@4 1002739c     kernel32:KERNEL32.dll
 0005:000003a0       __imp__DeleteCriticalSection@4 100273a0     kernel32:KERNEL32.dll
 0005:000003a4       __imp__WaitForSingleObject@8 100273a4     kernel32:KERNEL32.dll
 0005:000003a8       __imp__InitializeCriticalSection@4 100273a8     kernel32:KERNEL32.dll
 0005:000003ac       __imp__VirtualQuery@12     100273ac     kernel32:KERNEL32.dll
 0005:000003b0       __imp__GetModuleFileNameW@12 100273b0     kernel32:KERNEL32.dll
 0005:000003b4       __imp__GetProcessHeap@0    100273b4     kernel32:KERNEL32.dll
 0005:000003b8       __imp__HeapAlloc@12        100273b8     kernel32:KERNEL32.dll
 0005:000003bc       __imp__HeapFree@12         100273bc     kernel32:KERNEL32.dll
 0005:000003c0       __imp__DisableThreadLibraryCalls@4 100273c0     kernel32:KERNEL32.dll
 0005:000003c4       __imp__GetSystemTimeAsFileTime@4 100273c4     kernel32:KERNEL32.dll
 0005:000003c8       __imp__GetCurrentProcessId@0 100273c8     kernel32:KERNEL32.dll
 0005:000003cc       __imp__GetCurrentThreadId@0 100273cc     kernel32:KERNEL32.dll
 0005:000003d0       __imp__GetTickCount@0      100273d0     kernel32:KERNEL32.dll
 0005:000003d4       __imp__QueryPerformanceCounter@4 100273d4     kernel32:KERNEL32.dll
 0005:000003d8       __imp__SetUnhandledExceptionFilter@4 100273d8     kernel32:KERNEL32.dll
 0005:000003dc       __imp__UnhandledExceptionFilter@4 100273dc     kernel32:KERNEL32.dll
 0005:000003e0       __imp__GetCurrentProcess@0 100273e0     kernel32:KERNEL32.dll
 0005:000003e4       __imp__TerminateProcess@8  100273e4     kernel32:KERNEL32.dll
 0005:000003e8       __imp__LoadLibraryA@4      100273e8     kernel32:KERNEL32.dll
 0005:000003ec       __imp__GetProcAddress@8    100273ec     kernel32:KERNEL32.dll
 0005:000003f0       __imp__lstrlenA@4          100273f0     kernel32:KERNEL32.dll
 0005:000003f4       __imp__MultiByteToWideChar@24 100273f4     kernel32:KERNEL32.dll
 0005:000003f8       __imp__WideCharToMultiByte@32 100273f8     kernel32:KERNEL32.dll
 0005:000003fc       __imp__DebugBreak@0        100273fc     kernel32:KERNEL32.dll
 0005:00000400       __imp__RaiseException@16   10027400     kernel32:KERNEL32.dll
 0005:00000404       __imp__IsDebuggerPresent@0 10027404     kernel32:KERNEL32.dll
 0005:00000408       __imp__InterlockedCompareExchange@12 10027408     kernel32:KERNEL32.dll
 0005:0000040c       __imp__Sleep@4             1002740c     kernel32:KERNEL32.dll
 0005:00000410       __imp__InterlockedExchange@8 10027410     kernel32:KERNEL32.dll
 0005:00000414       __imp__FreeLibrary@4       10027414     kernel32:KERNEL32.dll
 0005:00000418       \177KERNEL32_NULL_THUNK_DATA 10027418     kernel32:KERNEL32.dll
 0005:00000460       __imp_?width@ios_base@std@@QBEHXZ 10027460     msvcprtd:MSVCP90D.dll
 0005:00000464       __imp_?_Unlock@?$basic_streambuf@DU?$char_traits@D@std@@@std@@QAEXXZ 10027464     msvcprtd:MSVCP90D.dll
 0005:00000468       __imp_?_Lock@?$basic_streambuf@DU?$char_traits@D@std@@@std@@QAEXXZ 10027468     msvcprtd:MSVCP90D.dll
 0005:0000046c       __imp_?uncaught_exception@std@@YA_NXZ 1002746c     msvcprtd:MSVCP90D.dll
 0005:00000470       __imp_?_Osfx@?$basic_ostream@DU?$char_traits@D@std@@@std@@QAEXXZ 10027470     msvcprtd:MSVCP90D.dll
 0005:00000474       __imp_?good@ios_base@std@@QBE_NXZ 10027474     msvcprtd:MSVCP90D.dll
 0005:00000478       __imp_?tie@?$basic_ios@DU?$char_traits@D@std@@@std@@QBEPAV?$basic_ostream@DU?$char_traits@D@std@@@2@XZ 10027478     msvcprtd:MSVCP90D.dll
 0005:0000047c       __imp_?flush@?$basic_ostream@DU?$char_traits@D@std@@@std@@QAEAAV12@XZ 1002747c     msvcprtd:MSVCP90D.dll
 0005:00000480       __imp_?length@?$char_traits@D@std@@SAIPBD@Z 10027480     msvcprtd:MSVCP90D.dll
 0005:00000484       __imp_??1_Lockit@std@@QAE@XZ 10027484     msvcprtd:MSVCP90D.dll
 0005:00000488       __imp_??0_Lockit@std@@QAE@H@Z 10027488     msvcprtd:MSVCP90D.dll
 0005:0000048c       __imp_?_Debug_message@std@@YAXPB_W0I@Z 1002748c     msvcprtd:MSVCP90D.dll
 0005:00000490       __imp_??0?$basic_string@DU?$char_traits@D@std@@V?$allocator@D@2@@std@@QAE@ABV01@@Z 10027490     msvcprtd:MSVCP90D.dll
 0005:00000494       __imp_??0?$_String_val@DV?$allocator@D@std@@@std@@QAE@ABV01@@Z 10027494     msvcprtd:MSVCP90D.dll
 0005:00000498       __imp_??0_String_base@std@@QAE@ABV01@@Z 10027498     msvcprtd:MSVCP90D.dll
 0005:0000049c       __imp_??0_Container_base_secure@std@@QAE@ABV01@@Z 1002749c     msvcprtd:MSVCP90D.dll
 0005:000004a0       __imp_??1_Container_base_secure@std@@QAE@XZ 100274a0     msvcprtd:MSVCP90D.dll
 0005:000004a4       __imp_??1?$basic_string@DU?$char_traits@D@std@@V?$allocator@D@2@@std@@QAE@XZ 100274a4     msvcprtd:MSVCP90D.dll
 0005:000004a8       __imp_??0?$basic_string@DU?$char_traits@D@std@@V?$allocator@D@2@@std@@QAE@PBD@Z 100274a8     msvcprtd:MSVCP90D.dll
 0005:000004ac       __imp_?c_str@?$basic_string@DU?$char_traits@D@std@@V?$allocator@D@2@@std@@QBEPBDXZ 100274ac     msvcprtd:MSVCP90D.dll
 0005:000004b0       __imp_??0_Container_base_secure@std@@QAE@XZ 100274b0     msvcprtd:MSVCP90D.dll
 0005:000004b4       __imp_??4?$basic_string@DU?$char_traits@D@std@@V?$allocator@D@2@@std@@QAEAAV01@PBD@Z 100274b4     msvcprtd:MSVCP90D.dll
 0005:000004b8       __imp_??0?$basic_string@DU?$char_traits@D@std@@V?$allocator@D@2@@std@@QAE@U_Has_debug_it@01@@Z 100274b8     msvcprtd:MSVCP90D.dll
 0005:000004bc       __imp_??_D?$basic_stringstream@DU?$char_traits@D@std@@V?$allocator@D@2@@std@@QAEXXZ 100274bc     msvcprtd:MSVCP90D.dll
 0005:000004c0       __imp_??$?6DU?$char_traits@D@std@@V?$allocator@D@1@@std@@YAAAV?$basic_ostream@DU?$char_traits@D@std@@@0@AAV10@ABV?$basic_string@DU?$char_traits@D@std@@V?$allocator@D@2@@0@@Z 100274c0     msvcprtd:MSVCP90D.dll
 0005:000004c4       __imp_??0?$basic_stringstream@DU?$char_traits@D@std@@V?$allocator@D@2@@std@@QAE@H@Z 100274c4     msvcprtd:MSVCP90D.dll
 0005:000004c8       __imp_?setstate@?$basic_ios@DU?$char_traits@D@std@@@std@@QAEXH_N@Z 100274c8     msvcprtd:MSVCP90D.dll
 0005:000004cc       __imp_?width@ios_base@std@@QAEHH@Z 100274cc     msvcprtd:MSVCP90D.dll
 0005:000004d0       __imp_?sputn@?$basic_streambuf@DU?$char_traits@D@std@@@std@@QAEHPBDH@Z 100274d0     msvcprtd:MSVCP90D.dll
 0005:000004d4       __imp_?eq_int_type@?$char_traits@D@std@@SA_NABH0@Z 100274d4     msvcprtd:MSVCP90D.dll
 0005:000004d8       __imp_?eof@?$char_traits@D@std@@SAHXZ 100274d8     msvcprtd:MSVCP90D.dll
 0005:000004dc       __imp_?sputc@?$basic_streambuf@DU?$char_traits@D@std@@@std@@QAEHD@Z 100274dc     msvcprtd:MSVCP90D.dll
 0005:000004e0       __imp_?rdbuf@?$basic_ios@DU?$char_traits@D@std@@@std@@QBEPAV?$basic_streambuf@DU?$char_traits@D@std@@@2@XZ 100274e0     msvcprtd:MSVCP90D.dll
 0005:000004e4       __imp_?fill@?$basic_ios@DU?$char_traits@D@std@@@std@@QBEDXZ 100274e4     msvcprtd:MSVCP90D.dll
 0005:000004e8       __imp_?flags@ios_base@std@@QBEHXZ 100274e8     msvcprtd:MSVCP90D.dll
 0005:000004ec       \177MSVCP90D_NULL_THUNK_DATA 100274ec     msvcprtd:MSVCP90D.dll
 0005:00000534       __imp___CrtSetCheckCount   10027534     MSVCRTD:MSVCR90D.dll
 0005:00000538       __imp____clean_type_info_names_internal 10027538     MSVCRTD:MSVCR90D.dll
 0005:0000053c       __imp___except_handler4_common 1002753c     MSVCRTD:MSVCR90D.dll
 0005:00000540       __imp___crt_debugger_hook  10027540     MSVCRTD:MSVCR90D.dll
 0005:00000544       __imp_?_type_info_dtor_internal_method@type_info@@QAEXXZ 10027544     MSVCRTD:MSVCR90D.dll
 0005:00000548       __imp____CppXcptFilter     10027548     MSVCRTD:MSVCR90D.dll
 0005:0000054c       __imp___adjust_fdiv        1002754c     MSVCRTD:MSVCR90D.dll
 0005:00000550       __imp___amsg_exit          10027550     MSVCRTD:MSVCR90D.dll
 0005:00000554       __imp___initterm_e         10027554     MSVCRTD:MSVCR90D.dll
 0005:00000558       __imp___encoded_null       10027558     MSVCRTD:MSVCR90D.dll
 0005:0000055c       __imp___free_dbg           1002755c     MSVCRTD:MSVCR90D.dll
 0005:00000560       __imp___malloc_dbg         10027560     MSVCRTD:MSVCR90D.dll
 0005:00000564       __imp_?terminate@@YAXXZ    10027564     MSVCRTD:MSVCR90D.dll
 0005:00000568       __imp___decode_pointer     10027568     MSVCRTD:MSVCR90D.dll
 0005:0000056c       __imp___onexit             1002756c     MSVCRTD:MSVCR90D.dll
 0005:00000570       __imp___lock               10027570     MSVCRTD:MSVCR90D.dll
 0005:00000574       __imp___encode_pointer     10027574     MSVCRTD:MSVCR90D.dll
 0005:00000578       __imp____dllonexit         10027578     MSVCRTD:MSVCR90D.dll
 0005:0000057c       __imp___unlock             1002757c     MSVCRTD:MSVCR90D.dll
 0005:00000580       __imp___CRT_RTC_INITW      10027580     MSVCRTD:MSVCR90D.dll
 0005:00000584       __imp___beginthreadex      10027584     MSVCRTD:MSVCR90D.dll
 0005:00000588       __imp___endthreadex        10027588     MSVCRTD:MSVCR90D.dll
 0005:0000058c       __imp___wassert            1002758c     MSVCRTD:MSVCR90D.dll
 0005:00000590       __imp_?what@exception@std@@UBEPBDXZ 10027590     MSVCRTD:MSVCR90D.dll
 0005:00000594       __imp_??0exception@std@@QAE@ABQBD@Z 10027594     MSVCRTD:MSVCR90D.dll
 0005:00000598       __imp_??0exception@std@@QAE@XZ 10027598     MSVCRTD:MSVCR90D.dll
 0005:0000059c       __imp_??1exception@std@@UAE@XZ 1002759c     MSVCRTD:MSVCR90D.dll
 0005:000005a0       __imp___CrtDbgReportW      100275a0     MSVCRTD:MSVCR90D.dll
 0005:000005a4       __imp___invalid_parameter  100275a4     MSVCRTD:MSVCR90D.dll
 0005:000005a8       __imp_??0exception@std@@QAE@ABV01@@Z 100275a8     MSVCRTD:MSVCR90D.dll
 0005:000005ac       __imp___CxxThrowException@8 100275ac     MSVCRTD:MSVCR90D.dll
 0005:000005b0       __imp_??2@YAPAXI@Z         100275b0     MSVCRTD:MSVCR90D.dll
 0005:000005b4       __imp___purecall           100275b4     MSVCRTD:MSVCR90D.dll
 0005:000005b8       __imp____CxxFrameHandler3  100275b8     MSVCRTD:MSVCR90D.dll
 0005:000005bc       __imp_??3@YAXPAX@Z         100275bc     MSVCRTD:MSVCR90D.dll
 0005:000005c0       __imp___initterm           100275c0     MSVCRTD:MSVCR90D.dll
 0005:000005c4       \177MSVCR90D_NULL_THUNK_DATA 100275c4     MSVCRTD:MSVCR90D.dll

 entry point at        0002:000003ed

