LIBRARY	IlmThread
EXPORTS
	??$?6U?$char_traits@D@std@@@std@@YAAAV?$basic_ostream@DU?$char_traits@D@std@@@0@AAV10@PBD@Z
	??0?$_Bidit@PAVWorkerThread@?A0xb0a473bd@IlmThread@@HPBQAV123@ABQAV123@@std@@QAE@XZ
	??0?$_Container_base_aux_alloc_empty@V?$allocator@PAVTask@IlmThread@@@std@@@std@@IAE@V?$allocator@PAVTask@IlmThread@@@1@@Z
	??0ArgExc@Iex@@QAE@ABV01@@Z
	?destroy@?$allocator@PAU_Node@?$_List_nod@PAVTask@IlmThread@@V?$allocator@PAVTask@IlmThread@@@std@@@std@@@std@@QAEXPAPAU_Node@?$_List_nod@PAVTask@IlmThread@@V?$allocator@PAVTask@IlmThread@@@std@@@2@@Z
	??$_Construct@PAU_Node@?$_List_nod@PAVWorkerThread@?A0xb0a473bd@IlmThread@@V?$allocator@PAVWorkerThread@?A0xb0a473bd@IlmThread@@@std@@@std@@PAU123@@std@@YAXPAPAU_Node@?$_List_nod@PAVWorkerThread@?A0xb0a473bd@IlmThread@@V?$allocator@PAVWorkerThread@?A0xb0a473bd@IlmThread@@@std@@@0@ABQAU120@@Z
	??0ArgExc@Iex@@QAE@PBD@Z
	??1?$_Container_base_aux_alloc_empty@V?$allocator@PAVWorkerThread@?A0xb0a473bd@IlmThread@@@std@@@std@@IAE@XZ
	??1?$list@PAVWorkerThread@?A0xb0a473bd@IlmThread@@V?$allocator@PAVWorkerThread@?A0xb0a473bd@IlmThread@@@std@@@std@@QAE@XZ
	??1Mutex@IlmThread@@UAE@XZ
	?boolalpha@?$_Iosb@H@std@@2W4_Fmtflags@12@B
	?unlock@Mutex@IlmThread@@ABEXXZ
	??1?$_List_val@PAVWorkerThread@?A0xb0a473bd@IlmThread@@V?$allocator@PAVWorkerThread@?A0xb0a473bd@IlmThread@@@std@@@std@@QAE@XZ
	??2@YAPAXIPAX@Z
	?_Buynode@?$list@PAVWorkerThread@?A0xb0a473bd@IlmThread@@V?$allocator@PAVWorkerThread@?A0xb0a473bd@IlmThread@@@std@@@std@@IAEPAU_Node@?$_List_nod@PAVWorkerThread@?A0xb0a473bd@IlmThread@@V?$allocator@PAVWorkerThread@?A0xb0a473bd@IlmThread@@@std@@@2@PAU342@0ABQAVWorkerThread@?A0xb0a473bd@IlmThread@@@Z
	?destroy@?$allocator@U_Node@?$_List_nod@PAVWorkerThread@?A0xb0a473bd@IlmThread@@V?$allocator@PAVWorkerThread@?A0xb0a473bd@IlmThread@@@std@@@std@@@std@@QAEXPAU_Node@?$_List_nod@PAVWorkerThread@?A0xb0a473bd@IlmThread@@V?$allocator@PAVWorkerThread@?A0xb0a473bd@IlmThread@@@std@@@2@@Z
	?wait@Semaphore@IlmThread@@QAEXXZ
	?_Mynode@?$_Const_iterator@$00@?$list@PAVWorkerThread@?A0xb0a473bd@IlmThread@@V?$allocator@PAVWorkerThread@?A0xb0a473bd@IlmThread@@@std@@@std@@QBEPAU_Node@?$_List_nod@PAVWorkerThread@?A0xb0a473bd@IlmThread@@V?$allocator@PAVWorkerThread@?A0xb0a473bd@IlmThread@@@std@@@3@XZ
	?_Nextnode@?$list@PAVWorkerThread@?A0xb0a473bd@IlmThread@@V?$allocator@PAVWorkerThread@?A0xb0a473bd@IlmThread@@@std@@@std@@KAAAPAU_Node@?$_List_nod@PAVWorkerThread@?A0xb0a473bd@IlmThread@@V?$allocator@PAVWorkerThread@?A0xb0a473bd@IlmThread@@@std@@@2@PAU342@@Z
	?hex@?$_Iosb@H@std@@2W4_Fmtflags@12@B
	?hexfloat@?$_Iosb@H@std@@2W4_Fmtflags@12@B
	??1Semaphore@IlmThread@@UAE@XZ
	??D?$_Const_iterator@$00@?$list@PAVWorkerThread@?A0xb0a473bd@IlmThread@@V?$allocator@PAVWorkerThread@?A0xb0a473bd@IlmThread@@@std@@@std@@QBEABQAVWorkerThread@?A0xb0a473bd@IlmThread@@XZ
	?end@?$list@PAVTask@IlmThread@@V?$allocator@PAVTask@IlmThread@@@std@@@std@@QAE?AV?$_Iterator@$00@12@XZ
	?showbase@?$_Iosb@H@std@@2W4_Fmtflags@12@B
	??0?$_List_ptr@PAVWorkerThread@?A0xb0a473bd@IlmThread@@V?$allocator@PAVWorkerThread@?A0xb0a473bd@IlmThread@@@std@@@std@@IAE@V?$allocator@PAVWorkerThread@?A0xb0a473bd@IlmThread@@@1@@Z
	??0?$list@PAVWorkerThread@?A0xb0a473bd@IlmThread@@V?$allocator@PAVWorkerThread@?A0xb0a473bd@IlmThread@@@std@@@std@@QAE@XZ
	??1_Sentry_base@?$basic_ostream@DU?$char_traits@D@std@@@std@@QAE@XZ
	??1sentry@?$basic_ostream@DU?$char_traits@D@std@@@std@@QAE@XZ
	??1LogicExc@Iex@@UAE@XZ
	?removeTask@Data@TaskGroup@IlmThread@@QAEXXZ
	??D?$_Const_iterator@$00@?$list@PAVTask@IlmThread@@V?$allocator@PAVTask@IlmThread@@@std@@@std@@QBEABQAVTask@IlmThread@@XZ
	??0logic_error@std@@QAE@ABV?$basic_string@DU?$char_traits@D@std@@V?$allocator@D@2@@1@@Z
	?finish@Data@ThreadPool@IlmThread@@QAEXXZ
	?internal@?$_Iosb@H@std@@2W4_Fmtflags@12@B
	??0?$_Iterator_with_base@Ubidirectional_iterator_tag@std@@PAVWorkerThread@?A0xb0a473bd@IlmThread@@HPBQAV345@ABQAV345@V_Iterator_base@2@@std@@QAE@XZ
	??0?$allocator@PAVTask@IlmThread@@@std@@QAE@ABV01@@Z
	?push_back@?$list@PAVTask@IlmThread@@V?$allocator@PAVTask@IlmThread@@@std@@@std@@QAEXABQAVTask@IlmThread@@@Z
	??0?$_Container_base_aux_alloc_empty@V?$allocator@PAVWorkerThread@?A0xb0a473bd@IlmThread@@@std@@@std@@IAE@V?$allocator@PAVWorkerThread@?A0xb0a473bd@IlmThread@@@1@@Z
	??1?$_Container_base_aux_alloc_empty@V?$allocator@PAVTask@IlmThread@@@std@@@std@@IAE@XZ
	??E?$_Const_iterator@$00@?$list@PAVTask@IlmThread@@V?$allocator@PAVTask@IlmThread@@@std@@@std@@QAE?AV012@H@Z
	?fixed@?$_Iosb@H@std@@2W4_Fmtflags@12@B
	?max_size@?$allocator@PAVWorkerThread@?A0xb0a473bd@IlmThread@@@std@@QBEIXZ
	?scientific@?$_Iosb@H@std@@2W4_Fmtflags@12@B
	__CTA3?AVlength_error@std@@
	??0Thread@IlmThread@@QAE@XZ
	??0_Iterator_base@std@@QAE@XZ
	?monetary@?$_Locbase@H@std@@2HB
	?end@?$_Iosb@H@std@@2W4_Seekdir@12@B
	?start@Thread@IlmThread@@QAEXXZ
	__CTA2?AVbad_alloc@std@@
	??0?$_Iterator_with_base@Ubidirectional_iterator_tag@std@@PAVWorkerThread@?A0xb0a473bd@IlmThread@@HPBQAV345@ABQAV345@V_Iterator_base@2@@std@@QAE@ABU01@@Z
	??0_Has_debug_it@?$basic_string@DU?$char_traits@D@std@@V?$allocator@D@2@@std@@QAE@_N@Z
	?construct@?$allocator@PAVTask@IlmThread@@@std@@QAEXPAPAVTask@IlmThread@@ABQAV34@@Z
	?deallocate@?$allocator@U_Node@?$_List_nod@PAVWorkerThread@?A0xb0a473bd@IlmThread@@V?$allocator@PAVWorkerThread@?A0xb0a473bd@IlmThread@@@std@@@std@@@std@@QAEXPAU_Node@?$_List_nod@PAVWorkerThread@?A0xb0a473bd@IlmThread@@V?$allocator@PAVWorkerThread@?A0xb0a473bd@IlmThread@@@std@@@2@I@Z
	?max_size@?$allocator@PAVTask@IlmThread@@@std@@QBEIXZ
	?stop@Data@ThreadPool@IlmThread@@QAEXXZ
	?trunc@?$_Iosb@H@std@@2W4_Openmode@12@B
	??$?0PAVTask@IlmThread@@@?$allocator@U_Node@?$_List_nod@PAVTask@IlmThread@@V?$allocator@PAVTask@IlmThread@@@std@@@std@@@std@@QAE@ABV?$allocator@PAVTask@IlmThread@@@1@@Z
	??1WorkerThread@?A0xb0a473bd@IlmThread@@UAE@XZ
	?globalThreadPool@ThreadPool@IlmThread@@SAAAV12@XZ
	?showpoint@?$_Iosb@H@std@@2W4_Fmtflags@12@B
	??0?$_Iterator@$00@?$list@PAVTask@IlmThread@@V?$allocator@PAVTask@IlmThread@@@std@@@std@@QAE@PAU_Node@?$_List_nod@PAVTask@IlmThread@@V?$allocator@PAVTask@IlmThread@@@std@@@2@PBV12@@Z
	??0Data@TaskGroup@IlmThread@@QAE@XZ
	??0?$_Iterator@$00@?$list@PAVWorkerThread@?A0xb0a473bd@IlmThread@@V?$allocator@PAVWorkerThread@?A0xb0a473bd@IlmThread@@@std@@@std@@QAE@PAU_Node@?$_List_nod@PAVWorkerThread@?A0xb0a473bd@IlmThread@@V?$allocator@PAVWorkerThread@?A0xb0a473bd@IlmThread@@@std@@@2@PBV12@@Z
	??0?$_List_nod@PAVWorkerThread@?A0xb0a473bd@IlmThread@@V?$allocator@PAVWorkerThread@?A0xb0a473bd@IlmThread@@@std@@@std@@IAE@V?$allocator@PAVWorkerThread@?A0xb0a473bd@IlmThread@@@1@@Z
	?_Adopt@_Iterator_base@std@@QAEXPBV_Container_base_secure@2@@Z
	?clear@?$list@PAVWorkerThread@?A0xb0a473bd@IlmThread@@V?$allocator@PAVWorkerThread@?A0xb0a473bd@IlmThread@@@std@@@std@@QAEXXZ
	??1Thread@IlmThread@@UAE@XZ
	??E?$_Const_iterator@$00@?$list@PAVTask@IlmThread@@V?$allocator@PAVTask@IlmThread@@@std@@@std@@QAEAAV012@XZ
	?goodbit@?$_Iosb@H@std@@2W4_Iostate@12@B
	?_Insert@?$list@PAVWorkerThread@?A0xb0a473bd@IlmThread@@V?$allocator@PAVWorkerThread@?A0xb0a473bd@IlmThread@@@std@@@std@@QAEXV?$_Const_iterator@$00@12@ABQAVWorkerThread@?A0xb0a473bd@IlmThread@@@Z
	?_Prevnode@?$list@PAVTask@IlmThread@@V?$allocator@PAVTask@IlmThread@@@std@@@std@@KAAAPAU_Node@?$_List_nod@PAVTask@IlmThread@@V?$allocator@PAVTask@IlmThread@@@std@@@2@PAU342@@Z
	?_Prevnode@?$list@PAVWorkerThread@?A0xb0a473bd@IlmThread@@V?$allocator@PAVWorkerThread@?A0xb0a473bd@IlmThread@@@std@@@std@@KAAAPAU_Node@?$_List_nod@PAVWorkerThread@?A0xb0a473bd@IlmThread@@V?$allocator@PAVWorkerThread@?A0xb0a473bd@IlmThread@@@std@@@2@PAU342@@Z
	?floatfield@?$_Iosb@H@std@@2W4_Fmtflags@12@B
	?none@?$_Locbase@H@std@@2HB
	??$_Allocate@U_Node@?$_List_nod@PAVWorkerThread@?A0xb0a473bd@IlmThread@@V?$allocator@PAVWorkerThread@?A0xb0a473bd@IlmThread@@@std@@@std@@@std@@YAPAU_Node@?$_List_nod@PAVWorkerThread@?A0xb0a473bd@IlmThread@@V?$allocator@PAVWorkerThread@?A0xb0a473bd@IlmThread@@@std@@@0@IPAU120@@Z
	??0?$_Const_iterator@$00@?$list@PAVWorkerThread@?A0xb0a473bd@IlmThread@@V?$allocator@PAVWorkerThread@?A0xb0a473bd@IlmThread@@@std@@@std@@QAE@PAU_Node@?$_List_nod@PAVWorkerThread@?A0xb0a473bd@IlmThread@@V?$allocator@PAVWorkerThread@?A0xb0a473bd@IlmThread@@@std@@@2@PBV12@@Z
	??0WorkerThread@?A0xb0a473bd@IlmThread@@QAE@PAUData@ThreadPool@2@@Z
	??1?$_List_val@PAVTask@IlmThread@@V?$allocator@PAVTask@IlmThread@@@std@@@std@@QAE@XZ
	?_Myval@?$list@PAVTask@IlmThread@@V?$allocator@PAVTask@IlmThread@@@std@@@std@@KAAAPAVTask@IlmThread@@PAU_Node@?$_List_nod@PAVTask@IlmThread@@V?$allocator@PAVTask@IlmThread@@@std@@@2@@Z
	?max_size@?$list@PAVWorkerThread@?A0xb0a473bd@IlmThread@@V?$allocator@PAVWorkerThread@?A0xb0a473bd@IlmThread@@@std@@@std@@QBEIXZ
	__TI3?AVlength_error@std@@
	??0length_error@std@@QAE@ABV?$basic_string@DU?$char_traits@D@std@@V?$allocator@D@2@@1@@Z
	??1?$_List_nod@PAVWorkerThread@?A0xb0a473bd@IlmThread@@V?$allocator@PAVWorkerThread@?A0xb0a473bd@IlmThread@@@std@@@std@@QAE@XZ
	?out@?$_Iosb@H@std@@2W4_Openmode@12@B
	??1?$_Iterator@$00@?$list@PAVWorkerThread@?A0xb0a473bd@IlmThread@@V?$allocator@PAVWorkerThread@?A0xb0a473bd@IlmThread@@@std@@@std@@QAE@XZ
	??1_Iterator_base@std@@QAE@XZ
	?supportsThreads@IlmThread@@YA_NXZ
	??$_Construct@PAU_Node@?$_List_nod@PAVTask@IlmThread@@V?$allocator@PAVTask@IlmThread@@@std@@@std@@PAU123@@std@@YAXPAPAU_Node@?$_List_nod@PAVTask@IlmThread@@V?$allocator@PAVTask@IlmThread@@@std@@@0@ABQAU120@@Z
	??0Task@IlmThread@@QAE@PAVTaskGroup@1@@Z
	?_Buynode@?$list@PAVWorkerThread@?A0xb0a473bd@IlmThread@@V?$allocator@PAVWorkerThread@?A0xb0a473bd@IlmThread@@@std@@@std@@IAEPAU_Node@?$_List_nod@PAVWorkerThread@?A0xb0a473bd@IlmThread@@V?$allocator@PAVWorkerThread@?A0xb0a473bd@IlmThread@@@std@@@2@XZ
	?erase@?$list@PAVTask@IlmThread@@V?$allocator@PAVTask@IlmThread@@@std@@@std@@QAE?AV?$_Iterator@$00@12@V?$_Const_iterator@$00@12@@Z
	__TI7?AVLogicExc@Iex@@
	??0Semaphore@IlmThread@@QAE@I@Z
	??0ThreadPool@IlmThread@@QAE@I@Z
	?_Noreplace@?$_Iosb@H@std@@2W4_Openmode@12@B
	?__LINE__Var@?1???1Semaphore@IlmThread@@UAE@XZ@4JA
	?end@?$list@PAVWorkerThread@?A0xb0a473bd@IlmThread@@V?$allocator@PAVWorkerThread@?A0xb0a473bd@IlmThread@@@std@@@std@@QAE?AV?$_Iterator@$00@12@XZ
	?unitbuf@?$_Iosb@H@std@@2W4_Fmtflags@12@B
	??0?$allocator@PAVWorkerThread@?A0xb0a473bd@IlmThread@@@std@@QAE@ABV01@@Z
	?binary@?$_Iosb@H@std@@2W4_Openmode@12@B
	?pop_front@?$list@PAVTask@IlmThread@@V?$allocator@PAVTask@IlmThread@@@std@@@std@@QAEXXZ
	?showpos@?$_Iosb@H@std@@2W4_Fmtflags@12@B
	?threadLoop@?A0x84754fee@IlmThread@@YGIPAX@Z
	?value@?$integral_constant@_N$0A@@tr1@std@@2_NB
	__TI7?AVArgExc@Iex@@
	??1?$_List_ptr@PAVTask@IlmThread@@V?$allocator@PAVTask@IlmThread@@@std@@@std@@QAE@XZ
	?beg@?$_Iosb@H@std@@2W4_Seekdir@12@B
	?begin@?$list@PAVWorkerThread@?A0xb0a473bd@IlmThread@@V?$allocator@PAVWorkerThread@?A0xb0a473bd@IlmThread@@@std@@@std@@QAE?AV?$_Iterator@$00@12@XZ
	?construct@?$allocator@PAU_Node@?$_List_nod@PAVWorkerThread@?A0xb0a473bd@IlmThread@@V?$allocator@PAVWorkerThread@?A0xb0a473bd@IlmThread@@@std@@@std@@@std@@QAEXPAPAU_Node@?$_List_nod@PAVWorkerThread@?A0xb0a473bd@IlmThread@@V?$allocator@PAVWorkerThread@?A0xb0a473bd@IlmThread@@@std@@@2@ABQAU342@@Z
	__CTA7?AVLogicExc@Iex@@
	??$?0PAVTask@IlmThread@@@?$allocator@PAU_Node@?$_List_nod@PAVTask@IlmThread@@V?$allocator@PAVTask@IlmThread@@@std@@@std@@@std@@QAE@ABV?$allocator@PAVTask@IlmThread@@@1@@Z
	??$_Construct@PAVTask@IlmThread@@PAV12@@std@@YAXPAPAVTask@IlmThread@@ABQAV12@@Z
	??1?$_Iterator_with_base@Ubidirectional_iterator_tag@std@@PAVWorkerThread@?A0xb0a473bd@IlmThread@@HPBQAV345@ABQAV345@V_Iterator_base@2@@std@@QAE@XZ
	??D?$_Iterator@$00@?$list@PAVTask@IlmThread@@V?$allocator@PAVTask@IlmThread@@@std@@@std@@QBEAAPAVTask@IlmThread@@XZ
	?basefield@?$_Iosb@H@std@@2W4_Fmtflags@12@B
	?begin@?$list@PAVTask@IlmThread@@V?$allocator@PAVTask@IlmThread@@@std@@@std@@QAE?AV?$_Iterator@$00@12@XZ
	??0?$_Const_iterator@$00@?$list@PAVTask@IlmThread@@V?$allocator@PAVTask@IlmThread@@@std@@@std@@QAE@ABV012@@Z
	??0?$_Const_iterator@$00@?$list@PAVWorkerThread@?A0xb0a473bd@IlmThread@@V?$allocator@PAVWorkerThread@?A0xb0a473bd@IlmThread@@@std@@@std@@QAE@ABV012@@Z
	??0LogicExc@Iex@@QAE@ABV01@@Z
	??0TaskGroup@IlmThread@@QAE@XZ
	??1?$_List_ptr@PAVWorkerThread@?A0xb0a473bd@IlmThread@@V?$allocator@PAVWorkerThread@?A0xb0a473bd@IlmThread@@@std@@@std@@QAE@XZ
	?_Compat@?$_Const_iterator@$00@?$list@PAVWorkerThread@?A0xb0a473bd@IlmThread@@V?$allocator@PAVWorkerThread@?A0xb0a473bd@IlmThread@@@std@@@std@@QBEXABV123@@Z
	?cur@?$_Iosb@H@std@@2W4_Seekdir@12@B
	?value@Semaphore@IlmThread@@QBEHXZ
	?_Buynode@?$list@PAVTask@IlmThread@@V?$allocator@PAVTask@IlmThread@@@std@@@std@@IAEPAU_Node@?$_List_nod@PAVTask@IlmThread@@V?$allocator@PAVTask@IlmThread@@@std@@@2@PAU342@0ABQAVTask@IlmThread@@@Z
	?all@?$_Locbase@H@std@@2HB
	?allocate@?$allocator@U_Node@?$_List_nod@PAVWorkerThread@?A0xb0a473bd@IlmThread@@V?$allocator@PAVWorkerThread@?A0xb0a473bd@IlmThread@@@std@@@std@@@std@@QAEPAU_Node@?$_List_nod@PAVWorkerThread@?A0xb0a473bd@IlmThread@@V?$allocator@PAVWorkerThread@?A0xb0a473bd@IlmThread@@@std@@@2@I@Z
	??0?$_Bidit@PAVTask@IlmThread@@HPBQAV12@ABQAV12@@std@@QAE@XZ
	??0Mutex@IlmThread@@QAE@XZ
	?_Orphan_me@_Iterator_base@std@@QAEXXZ
	?_Stdio@?$_Iosb@H@std@@2W4_Fmtflags@12@B
	?ate@?$_Iosb@H@std@@2W4_Openmode@12@B
	?max_size@?$list@PAVTask@IlmThread@@V?$allocator@PAVTask@IlmThread@@@std@@@std@@QBEIXZ
	?time@?$_Locbase@H@std@@2HB
	??0sentry@?$basic_ostream@DU?$char_traits@D@std@@@std@@QAE@AAV12@@Z
	??1Data@ThreadPool@IlmThread@@QAE@XZ
	?badbit@?$_Iosb@H@std@@2W4_Iostate@12@B
	?what@logic_error@std@@UBEPBDXZ
	?destroy@?$allocator@PAU_Node@?$_List_nod@PAVWorkerThread@?A0xb0a473bd@IlmThread@@V?$allocator@PAVWorkerThread@?A0xb0a473bd@IlmThread@@@std@@@std@@@std@@QAEXPAPAU_Node@?$_List_nod@PAVWorkerThread@?A0xb0a473bd@IlmThread@@V?$allocator@PAVWorkerThread@?A0xb0a473bd@IlmThread@@@std@@@2@@Z
	??$_Destroy@PAU_Node@?$_List_nod@PAVWorkerThread@?A0xb0a473bd@IlmThread@@V?$allocator@PAVWorkerThread@?A0xb0a473bd@IlmThread@@@std@@@std@@@std@@YAXPAPAU_Node@?$_List_nod@PAVWorkerThread@?A0xb0a473bd@IlmThread@@V?$allocator@PAVWorkerThread@?A0xb0a473bd@IlmThread@@@std@@@0@@Z
	??0_Sentry_base@?$basic_ostream@DU?$char_traits@D@std@@@std@@QAE@AAV12@@Z
	?_Buynode@?$list@PAVTask@IlmThread@@V?$allocator@PAVTask@IlmThread@@@std@@@std@@IAEPAU_Node@?$_List_nod@PAVTask@IlmThread@@V?$allocator@PAVTask@IlmThread@@@std@@@2@XZ
	?clear@?$list@PAVTask@IlmThread@@V?$allocator@PAVTask@IlmThread@@@std@@@std@@QAEXXZ
	?run@WorkerThread@?A0xb0a473bd@IlmThread@@UAEXXZ
	??1Task@IlmThread@@UAE@XZ
	?allocate@?$allocator@U_Node@?$_List_nod@PAVTask@IlmThread@@V?$allocator@PAVTask@IlmThread@@@std@@@std@@@std@@QAEPAU_Node@?$_List_nod@PAVTask@IlmThread@@V?$allocator@PAVTask@IlmThread@@@std@@@2@I@Z
	??0?$_List_nod@PAVTask@IlmThread@@V?$allocator@PAVTask@IlmThread@@@std@@@std@@IAE@V?$allocator@PAVTask@IlmThread@@@1@@Z
	??0?$_List_ptr@PAVTask@IlmThread@@V?$allocator@PAVTask@IlmThread@@@std@@@std@@IAE@V?$allocator@PAVTask@IlmThread@@@1@@Z
	??E?$_Const_iterator@$00@?$list@PAVWorkerThread@?A0xb0a473bd@IlmThread@@V?$allocator@PAVWorkerThread@?A0xb0a473bd@IlmThread@@@std@@@std@@QAEAAV012@XZ
	??0?$list@PAVTask@IlmThread@@V?$allocator@PAVTask@IlmThread@@@std@@@std@@QAE@XZ
	??1bad_alloc@std@@UAE@XZ
	??1length_error@std@@UAE@XZ
	??Bsentry@?$basic_ostream@DU?$char_traits@D@std@@@std@@QBE_NXZ
	?app@?$_Iosb@H@std@@2W4_Openmode@12@B
	??0Data@ThreadPool@IlmThread@@QAE@XZ
	?lock@Mutex@IlmThread@@ABEXXZ
	?messages@?$_Locbase@H@std@@2HB
	??0?$_List_val@PAVWorkerThread@?A0xb0a473bd@IlmThread@@V?$allocator@PAVWorkerThread@?A0xb0a473bd@IlmThread@@@std@@@std@@QAE@V?$allocator@PAVWorkerThread@?A0xb0a473bd@IlmThread@@@1@@Z
	?_Hardfail@?$_Iosb@H@std@@2W4_Iostate@12@B
	?stopped@Data@ThreadPool@IlmThread@@QBE_NXZ
	??$?0PAVWorkerThread@?A0xb0a473bd@IlmThread@@@?$allocator@U_Node@?$_List_nod@PAVWorkerThread@?A0xb0a473bd@IlmThread@@V?$allocator@PAVWorkerThread@?A0xb0a473bd@IlmThread@@@std@@@std@@@std@@QAE@ABV?$allocator@PAVWorkerThread@?A0xb0a473bd@IlmThread@@@1@@Z
	??0bad_alloc@std@@QAE@PBD@Z
	??0Lock@IlmThread@@QAE@ABVMutex@1@_N@Z
	?_Nextnode@?$list@PAVTask@IlmThread@@V?$allocator@PAVTask@IlmThread@@@std@@@std@@KAAAPAU_Node@?$_List_nod@PAVTask@IlmThread@@V?$allocator@PAVTask@IlmThread@@@std@@@2@PAU342@@Z
	?_Tidy@?$list@PAVTask@IlmThread@@V?$allocator@PAVTask@IlmThread@@@std@@@std@@IAEXXZ
	?addGlobalTask@ThreadPool@IlmThread@@SAXPAVTask@2@@Z
	?skipws@?$_Iosb@H@std@@2W4_Fmtflags@12@B
	??$_Destroy@U_Node@?$_List_nod@PAVWorkerThread@?A0xb0a473bd@IlmThread@@V?$allocator@PAVWorkerThread@?A0xb0a473bd@IlmThread@@@std@@@std@@@std@@YAXPAU_Node@?$_List_nod@PAVWorkerThread@?A0xb0a473bd@IlmThread@@V?$allocator@PAVWorkerThread@?A0xb0a473bd@IlmThread@@@std@@@0@@Z
	?_Orphan_ptr@?$list@PAVTask@IlmThread@@V?$allocator@PAVTask@IlmThread@@@std@@@std@@IBEXAAV12@PAU_Node@?$_List_nod@PAVTask@IlmThread@@V?$allocator@PAVTask@IlmThread@@@std@@@2@@Z
	?eofbit@?$_Iosb@H@std@@2W4_Iostate@12@B
	?setNumThreads@ThreadPool@IlmThread@@QAEXH@Z
	??$_Destroy@U_Node@?$_List_nod@PAVTask@IlmThread@@V?$allocator@PAVTask@IlmThread@@@std@@@std@@@std@@YAXPAU_Node@?$_List_nod@PAVTask@IlmThread@@V?$allocator@PAVTask@IlmThread@@@std@@@0@@Z
	?_Myval@?$list@PAVWorkerThread@?A0xb0a473bd@IlmThread@@V?$allocator@PAVWorkerThread@?A0xb0a473bd@IlmThread@@@std@@@std@@KAAAPAVWorkerThread@?A0xb0a473bd@IlmThread@@PAU_Node@?$_List_nod@PAVWorkerThread@?A0xb0a473bd@IlmThread@@V?$allocator@PAVWorkerThread@?A0xb0a473bd@IlmThread@@@std@@@2@@Z
	?construct@?$allocator@PAU_Node@?$_List_nod@PAVTask@IlmThread@@V?$allocator@PAVTask@IlmThread@@@std@@@std@@@std@@QAEXPAPAU_Node@?$_List_nod@PAVTask@IlmThread@@V?$allocator@PAVTask@IlmThread@@@std@@@2@ABQAU342@@Z
	??1logic_error@std@@UAE@XZ
	?collate@?$_Locbase@H@std@@2HB
	__TI2?AVbad_alloc@std@@
	??0?$_List_val@PAVTask@IlmThread@@V?$allocator@PAVTask@IlmThread@@@std@@@std@@QAE@V?$allocator@PAVTask@IlmThread@@@1@@Z
	??0?$allocator@PAVTask@IlmThread@@@std@@QAE@XZ
	??0_Iterator_base@std@@QAE@ABV01@@Z
	?_Tidy@?$list@PAVWorkerThread@?A0xb0a473bd@IlmThread@@V?$allocator@PAVWorkerThread@?A0xb0a473bd@IlmThread@@@std@@@std@@IAEXXZ
	??0?$_Bidit@PAVTask@IlmThread@@HPBQAV12@ABQAV12@@std@@QAE@ABU01@@Z
	??0?$_Bidit@PAVWorkerThread@?A0xb0a473bd@IlmThread@@HPBQAV123@ABQAV123@@std@@QAE@ABU01@@Z
	??0?$_Iterator_with_base@Ubidirectional_iterator_tag@std@@PAVTask@IlmThread@@HPBQAV34@ABQAV34@V_Iterator_base@2@@std@@QAE@ABU01@@Z
	??0length_error@std@@QAE@ABV01@@Z
	??1TaskGroup@IlmThread@@QAE@XZ
	??0logic_error@std@@QAE@ABV01@@Z
	??1Lock@IlmThread@@QAE@XZ
	?_Nocreate@?$_Iosb@H@std@@2W4_Openmode@12@B
	?group@Task@IlmThread@@QAEPAVTaskGroup@2@XZ
	??E?$_Iterator@$00@?$list@PAVWorkerThread@?A0xb0a473bd@IlmThread@@V?$allocator@PAVWorkerThread@?A0xb0a473bd@IlmThread@@@std@@@std@@QAEAAV012@XZ
	?addTask@Data@TaskGroup@IlmThread@@QAEXXZ
	??$?0PAVWorkerThread@?A0xb0a473bd@IlmThread@@@?$allocator@PAU_Node@?$_List_nod@PAVWorkerThread@?A0xb0a473bd@IlmThread@@V?$allocator@PAVWorkerThread@?A0xb0a473bd@IlmThread@@@std@@@std@@@std@@QAE@ABV?$allocator@PAVWorkerThread@?A0xb0a473bd@IlmThread@@@1@@Z
	??1ThreadPool@IlmThread@@UAE@XZ
	??8?$_Const_iterator@$00@?$list@PAVWorkerThread@?A0xb0a473bd@IlmThread@@V?$allocator@PAVWorkerThread@?A0xb0a473bd@IlmThread@@@std@@@std@@QBE_NABV012@@Z
	?destroy@?$allocator@U_Node@?$_List_nod@PAVTask@IlmThread@@V?$allocator@PAVTask@IlmThread@@@std@@@std@@@std@@QAEXPAU_Node@?$_List_nod@PAVTask@IlmThread@@V?$allocator@PAVTask@IlmThread@@@std@@@2@@Z
	?post@Semaphore@IlmThread@@QAEXXZ
	?right@?$_Iosb@H@std@@2W4_Fmtflags@12@B
	?_Incsize@?$list@PAVTask@IlmThread@@V?$allocator@PAVTask@IlmThread@@@std@@@std@@IAEXI@Z
	?_Make_iter@?$list@PAVTask@IlmThread@@V?$allocator@PAVTask@IlmThread@@@std@@@std@@QBE?AV?$_Iterator@$00@12@V?$_Const_iterator@$00@12@@Z
	?adjustfield@?$_Iosb@H@std@@2W4_Fmtflags@12@B
	?push_back@?$list@PAVWorkerThread@?A0xb0a473bd@IlmThread@@V?$allocator@PAVWorkerThread@?A0xb0a473bd@IlmThread@@@std@@@std@@QAEXABQAVWorkerThread@?A0xb0a473bd@IlmThread@@@Z
	?uppercase@?$_Iosb@H@std@@2W4_Fmtflags@12@B
	??$_Destroy@PAU_Node@?$_List_nod@PAVTask@IlmThread@@V?$allocator@PAVTask@IlmThread@@@std@@@std@@@std@@YAXPAPAU_Node@?$_List_nod@PAVTask@IlmThread@@V?$allocator@PAVTask@IlmThread@@@std@@@0@@Z
	??4_Iterator_base@std@@QAEAAV01@ABV01@@Z
	??D?$_Iterator@$00@?$list@PAVWorkerThread@?A0xb0a473bd@IlmThread@@V?$allocator@PAVWorkerThread@?A0xb0a473bd@IlmThread@@@std@@@std@@QBEAAPAVWorkerThread@?A0xb0a473bd@IlmThread@@XZ
	?__LINE__Var@?1???1Thread@IlmThread@@UAE@XZ@4JA
	?release@Lock@IlmThread@@QAEXXZ
	?tryWait@Semaphore@IlmThread@@QAE_NXZ
	??1?$_List_nod@PAVTask@IlmThread@@V?$allocator@PAVTask@IlmThread@@@std@@@std@@QAE@XZ
	?numThreads@ThreadPool@IlmThread@@QBEHXZ
	?_Orphan_ptr@?$list@PAVWorkerThread@?A0xb0a473bd@IlmThread@@V?$allocator@PAVWorkerThread@?A0xb0a473bd@IlmThread@@@std@@@std@@IBEXAAV12@PAU_Node@?$_List_nod@PAVWorkerThread@?A0xb0a473bd@IlmThread@@V?$allocator@PAVWorkerThread@?A0xb0a473bd@IlmThread@@@std@@@2@@Z
	?dec@?$_Iosb@H@std@@2W4_Fmtflags@12@B
	??0?$_Const_iterator@$00@?$list@PAVTask@IlmThread@@V?$allocator@PAVTask@IlmThread@@@std@@@std@@QAE@PAU_Node@?$_List_nod@PAVTask@IlmThread@@V?$allocator@PAVTask@IlmThread@@@std@@@2@PBV12@@Z
	??1?$_Const_iterator@$00@?$list@PAVTask@IlmThread@@V?$allocator@PAVTask@IlmThread@@@std@@@std@@QAE@XZ
	??9?$_Const_iterator@$00@?$list@PAVWorkerThread@?A0xb0a473bd@IlmThread@@V?$allocator@PAVWorkerThread@?A0xb0a473bd@IlmThread@@@std@@@std@@QBE_NABV012@@Z
	?acquire@Lock@IlmThread@@QAEXXZ
	?addTask@ThreadPool@IlmThread@@QAEXPAVTask@2@@Z
	??1?$_Const_iterator@$00@?$list@PAVWorkerThread@?A0xb0a473bd@IlmThread@@V?$allocator@PAVWorkerThread@?A0xb0a473bd@IlmThread@@@std@@@std@@QAE@XZ
	??1ArgExc@Iex@@UAE@XZ
	?construct@?$allocator@PAVWorkerThread@?A0xb0a473bd@IlmThread@@@std@@QAEXPAPAVWorkerThread@?A0xb0a473bd@IlmThread@@ABQAV345@@Z
	?ctype@?$_Locbase@H@std@@2HB
	??0?$allocator@PAVWorkerThread@?A0xb0a473bd@IlmThread@@@std@@QAE@XZ
	??1?$_Bidit@PAVTask@IlmThread@@HPBQAV12@ABQAV12@@std@@QAE@XZ
	??1?$_Iterator@$00@?$list@PAVTask@IlmThread@@V?$allocator@PAVTask@IlmThread@@@std@@@std@@QAE@XZ
	??1Data@TaskGroup@IlmThread@@QAE@XZ
	?failbit@?$_Iosb@H@std@@2W4_Iostate@12@B
	?front@?$list@PAVTask@IlmThread@@V?$allocator@PAVTask@IlmThread@@@std@@@std@@QAEAAPAVTask@IlmThread@@XZ
	?left@?$_Iosb@H@std@@2W4_Fmtflags@12@B
	??$_Allocate@U_Node@?$_List_nod@PAVTask@IlmThread@@V?$allocator@PAVTask@IlmThread@@@std@@@std@@@std@@YAPAU_Node@?$_List_nod@PAVTask@IlmThread@@V?$allocator@PAVTask@IlmThread@@@std@@@0@IPAU120@@Z
	??1?$list@PAVTask@IlmThread@@V?$allocator@PAVTask@IlmThread@@@std@@@std@@QAE@XZ
	?_Value@?$_Is_swap_move@U_Swap_move_tag@std@@@std@@2_NB
	?errorString@?A0x7f4d0287@IlmThread@@YA?AV?$basic_string@DU?$char_traits@D@std@@V?$allocator@D@2@@std@@XZ
	??$_Construct@PAVWorkerThread@?A0xb0a473bd@IlmThread@@PAV123@@std@@YAXPAPAVWorkerThread@?A0xb0a473bd@IlmThread@@ABQAV123@@Z
	??0LogicExc@Iex@@QAE@AAV?$basic_stringstream@DU?$char_traits@D@std@@V?$allocator@D@2@@std@@@Z
	??0bad_alloc@std@@QAE@ABV01@@Z
	?oct@?$_Iosb@H@std@@2W4_Fmtflags@12@B
	?value@?$integral_constant@_N$00@tr1@std@@2_NB
	??0?$_Iterator_with_base@Ubidirectional_iterator_tag@std@@PAVTask@IlmThread@@HPBQAV34@ABQAV34@V_Iterator_base@2@@std@@QAE@XZ
	??1?$_Bidit@PAVWorkerThread@?A0xb0a473bd@IlmThread@@HPBQAV123@ABQAV123@@std@@QAE@XZ
	?_Incsize@?$list@PAVWorkerThread@?A0xb0a473bd@IlmThread@@V?$allocator@PAVWorkerThread@?A0xb0a473bd@IlmThread@@@std@@@std@@IAEXI@Z
	?_Insert@?$list@PAVTask@IlmThread@@V?$allocator@PAVTask@IlmThread@@@std@@@std@@QAEXV?$_Const_iterator@$00@12@ABQAVTask@IlmThread@@@Z
	?in@?$_Iosb@H@std@@2W4_Openmode@12@B
	?numeric@?$_Locbase@H@std@@2HB
	??1?$_Iterator_with_base@Ubidirectional_iterator_tag@std@@PAVTask@IlmThread@@HPBQAV34@ABQAV34@V_Iterator_base@2@@std@@QAE@XZ
	?_Mynode@?$_Const_iterator@$00@?$list@PAVTask@IlmThread@@V?$allocator@PAVTask@IlmThread@@@std@@@std@@QBEPAU_Node@?$_List_nod@PAVTask@IlmThread@@V?$allocator@PAVTask@IlmThread@@@std@@@3@XZ
	?deallocate@?$allocator@U_Node@?$_List_nod@PAVTask@IlmThread@@V?$allocator@PAVTask@IlmThread@@@std@@@std@@@std@@QAEXPAU_Node@?$_List_nod@PAVTask@IlmThread@@V?$allocator@PAVTask@IlmThread@@@std@@@2@I@Z
	__CTA7?AVArgExc@Iex@@
