LIBRARY	Imath
EXPORTS
	??$minEigenVector@V?$Matrix44@M@Imath@@V?$Vec4@M@2@@Imath@@YAXAAV?$Matrix44@M@0@AAV?$Vec4@M@0@@Z
	?normalizedNonNull@?$Vec2@H@Imath@@QBE?AV12@XZ
	?showbase@?$_Iosb@H@std@@2W4_Fmtflags@12@B
	?fastMinor@?$Matrix44@N@Imath@@QBENHHHHHH@Z
	??0?$Matrix33@M@Imath@@QAE@MMMMMMMMM@Z
	?fixed@?$_Iosb@H@std@@2W4_Fmtflags@12@B
	??A?$Vec4@H@Imath@@QAEAAHH@Z
	?length@?$Vec3@F@Imath@@QBEFXZ
	??$jacobiRotateRight@$00$01V?$Matrix44@N@Imath@@@?A0x562b15e4@Imath@@YAXAAV?$Matrix44@N@1@NN@Z
	??$jacobiRotateRight@$0A@$01V?$Matrix44@N@Imath@@@?A0x562b15e4@Imath@@YAXAAV?$Matrix44@N@1@NN@Z
	??$jacobiRotateRight@$0A@$01V?$Matrix33@M@Imath@@@?A0x562b15e4@Imath@@YAXAAV?$Matrix33@M@1@MM@Z
	??0?$Matrix33@N@Imath@@QAE@N@Z
	?rgb2hsv_d@Imath@@YA?AV?$Vec3@N@1@ABV21@@Z
	??$normalizeOrThrow@F@?A0xf42ee053@Imath@@YA_NAAV?$Vec2@F@1@@Z
	?normalize@?$Vec4@F@Imath@@QAEABV12@XZ
	??$jacobiRotateRight@$0A@$01V?$Matrix33@N@Imath@@@?A0x562b15e4@Imath@@YAXAAV?$Matrix33@N@1@NN@Z
	?binary@?$_Iosb@H@std@@2W4_Openmode@12@B
	?basefield@?$_Iosb@H@std@@2W4_Fmtflags@12@B
	?normalized@?$Vec2@F@Imath@@QBE?AV12@XZ
	??$jacobiRotateRight@$0A@$00V?$Matrix33@M@Imath@@@?A0x562b15e4@Imath@@YAXAAV?$Matrix33@M@1@MM@Z
	?_Stdio@?$_Iosb@H@std@@2W4_Fmtflags@12@B
	??0?$Vec4@N@Imath@@QAE@XZ
	?makeIdentity@?$Matrix33@M@Imath@@QAEXXZ
	?length@?$Vec4@F@Imath@@QBEFXZ
	?dot@?$Vec2@F@Imath@@QBEFABV12@@Z
	?messages@?$_Locbase@H@std@@2HB
	?normalize@?$Vec3@F@Imath@@QAEABV12@XZ
	??A?$Matrix44@M@Imath@@QBEPBMH@Z
	?determinant@?$Matrix33@M@Imath@@QBEMXZ
	??A?$Matrix44@M@Imath@@QAEPAMH@Z
	??$normalizeOrThrow@H@?A0xf42ee053@Imath@@YA_NAAV?$Vec3@H@1@@Z
	??$jacobiRotateRight@N$0A@$01@?A0x562b15e4@Imath@@YAXAAV?$Matrix33@N@1@NN@Z
	??$jacobiRotateRight@N@?A0x562b15e4@Imath@@YAXAAV?$Matrix44@N@1@HHNN@Z
	?get@KahanSum@?A0x562b15e4@Imath@@QBENXZ
	??$jacobiSVD@N@Imath@@YAXABV?$Matrix33@N@0@AAV10@AAV?$Vec3@N@0@1N_N@Z
	??$maxEigenVector@V?$Matrix44@M@Imath@@V?$Vec4@M@2@@Imath@@YAXAAV?$Matrix44@M@0@AAV?$Vec4@M@0@@Z
	??$jacobiRotation@$00$02$0A@$01M@?A0x562b15e4@Imath@@YA_NAAV?$Matrix44@M@1@0AAV?$Vec4@M@1@M@Z
	??0KahanSum@?A0x562b15e4@Imath@@QAE@XZ
	??$jacobiRotateRight@M$0A@$01@?A0x562b15e4@Imath@@YAXAAV?$Matrix33@M@1@MM@Z
	??$jacobiRotation@$01$02$0A@$00M@?A0x562b15e4@Imath@@YA_NAAV?$Matrix44@M@1@0AAV?$Vec4@M@1@M@Z
	??$jacobiRotation@$01$02$0A@$00N@?A0x562b15e4@Imath@@YA_NAAV?$Matrix44@N@1@0AAV?$Vec4@N@1@N@Z
	?in@?$_Iosb@H@std@@2W4_Openmode@12@B
	?succf@Imath@@YAMM@Z
	??$jacobiSVD@M@Imath@@YAXABV?$Matrix44@M@0@AAV10@AAV?$Vec4@M@0@1M_N@Z
	?normalizedNonNull@?$Vec4@H@Imath@@QBE?AV12@XZ
	?hexfloat@?$_Iosb@H@std@@2W4_Fmtflags@12@B
	??$jacobiRotateRight@$01$02V?$Matrix44@N@Imath@@@?A0x562b15e4@Imath@@YAXAAV?$Matrix44@N@1@NN@Z
	??A?$Matrix33@N@Imath@@QAEPANH@Z
	??0NullVecExc@Imath@@QAE@PBD@Z
	?normalizeNonNull@?$Vec4@F@Imath@@QAEABV12@XZ
	??0?$Matrix33@M@Imath@@QAE@ABV01@@Z
	?sqrt@@YAMM@Z
	?dot@?$Vec2@H@Imath@@QBEHABV12@@Z
	?length@?$Vec3@H@Imath@@QBEHXZ
	?showpoint@?$_Iosb@H@std@@2W4_Fmtflags@12@B
	??$jacobiRotation@$0A@$02$00$01M@?A0x562b15e4@Imath@@YA_NAAV?$Matrix44@M@1@0AAV?$Vec4@M@1@M@Z
	?dimensions@?$Vec3@M@Imath@@SAIXZ
	?floatfield@?$_Iosb@H@std@@2W4_Fmtflags@12@B
	?none@?$_Locbase@H@std@@2HB
	?sqrt@?$Math@M@Imath@@SAMM@Z
	__CTA8?AVIntVecNormalizeExc@Imath@@
	??$normalizeOrThrow@F@?A0xf42ee053@Imath@@YA_NAAV?$Vec3@F@1@@Z
	?out@?$_Iosb@H@std@@2W4_Openmode@12@B
	??A?$Matrix44@N@Imath@@QBEPBNH@Z
	??0?$Matrix33@N@Imath@@QAE@ABV01@@Z
	?nextf@Rand32@Imath@@QAEMXZ
	??$jacobiEigenSolver@M@Imath@@YAXAAV?$Matrix44@M@0@AAV?$Vec4@M@0@0@Z
	?cur@?$_Iosb@H@std@@2W4_Seekdir@12@B
	??$jacobiEigenSolver@N@Imath@@YAXAAV?$Matrix33@N@0@AAV?$Vec3@N@0@0@Z
	?time@?$_Locbase@H@std@@2HB
	?normalizedExc@?$Vec3@F@Imath@@QBE?AV12@XZ
	??$jacobiRotateRight@M@?A0x562b15e4@Imath@@YAXAAV?$Matrix44@M@1@HHMM@Z
	?dot@?$Vec3@H@Imath@@QBEHABV12@@Z
	??$maxOffDiagSymm@V?$Matrix33@N@Imath@@@?A0x562b15e4@Imath@@YANABV?$Matrix33@N@1@@Z
	?hsv2rgb_d@Imath@@YA?AV?$Vec3@N@1@ABV21@@Z
	??0?$Matrix44@M@Imath@@QAE@MMMMMMMMMMMMMMMM@Z
	?predf@Imath@@YAMM@Z
	??$jacobiRotation@$00$01$0A@M@?A0x562b15e4@Imath@@YA_NAAV?$Matrix33@M@1@0AAV?$Vec3@M@1@M@Z
	?epsilon@?$limits@M@Imath@@SAMXZ
	??0?$Matrix44@M@Imath@@QAE@ABV01@@Z
	??$twoSidedJacobiRotation@N@?A0x562b15e4@Imath@@YA_NAAV?$Matrix44@N@1@HH00N@Z
	?length@?$Vec2@F@Imath@@QBEFXZ
	?transposed@?$Matrix33@N@Imath@@QBE?AV12@XZ
	??A?$Matrix44@N@Imath@@QAEPANH@Z
	?identity44f@Imath@@3V?$Matrix44@M@1@A
	?normalized@?$Vec3@F@Imath@@QBE?AV12@XZ
	??0MathExc@Iex@@QAE@ABV01@@Z
	?normalizedNonNull@?$Vec3@F@Imath@@QBE?AV12@XZ
	??$maxOffDiag@N@?A0x562b15e4@Imath@@YANABV?$Matrix44@N@1@@Z
	?normalized@?$Vec2@H@Imath@@QBE?AV12@XZ
	?dimensions@?$Vec4@N@Imath@@SAIXZ
	?boolalpha@?$_Iosb@H@std@@2W4_Fmtflags@12@B
	?normalized@?$Vec3@H@Imath@@QBE?AV12@XZ
	??$normalizeOrThrow@H@?A0xf42ee053@Imath@@YA_NAAV?$Vec4@H@1@@Z
	??$jacobiEigenSolver@N@Imath@@YAXAAV?$Matrix44@N@0@AAV?$Vec4@N@0@0N@Z
	??$minEigenVector@V?$Matrix33@N@Imath@@V?$Vec3@N@2@@Imath@@YAXAAV?$Matrix33@N@0@AAV?$Vec3@N@0@@Z
	?normalizeNonNull@?$Vec2@H@Imath@@QAEABV12@XZ
	??$jacobiRotateRight@M$00$01@?A0x562b15e4@Imath@@YAXAAV?$Matrix33@M@1@MM@Z
	??0?$Matrix44@N@Imath@@QAE@XZ
	??A?$Vec3@M@Imath@@QAEAAMH@Z
	?trunc@?$_Iosb@H@std@@2W4_Openmode@12@B
	?normalized@?$Vec4@H@Imath@@QBE?AV12@XZ
	??$jacobiRotation@$0A@$02$00$01N@?A0x562b15e4@Imath@@YA_NAAV?$Matrix44@N@1@0AAV?$Vec4@N@1@N@Z
	?dot@?$Vec3@N@Imath@@QBENABV12@@Z
	??$outerProduct@N@Imath@@YA?AV?$Matrix33@N@0@ABV?$Vec3@N@0@0@Z
	?dimensions@?$Matrix44@N@Imath@@SAIXZ
	??$jacobiRotateRight@N$0A@$00@?A0x562b15e4@Imath@@YAXAAV?$Matrix33@N@1@NN@Z
	??0?$Vec3@M@Imath@@QAE@MMM@Z
	?normalizeExc@?$Vec4@F@Imath@@QAEABV12@XZ
	?succd@Imath@@YANN@Z
	?showpos@?$_Iosb@H@std@@2W4_Fmtflags@12@B
	__mask@@NegFloat@
	?floor@?$Math@N@Imath@@SANN@Z
	??0?$Vec3@N@Imath@@QAE@NNN@Z
	??$maxOffDiag@M@?A0x562b15e4@Imath@@YAMABV?$Matrix33@M@1@@Z
	?rgb2hsv_d@Imath@@YA?AV?$Color4@N@1@ABV21@@Z
	?normalizeNonNull@?$Vec3@F@Imath@@QAEABV12@XZ
	?identity44d@Imath@@3V?$Matrix44@N@1@A
	??0?$Vec4@M@Imath@@QAE@XZ
	?determinant@?$Matrix44@N@Imath@@QBENXZ
	??A?$Vec4@M@Imath@@QAEAAMH@Z
	?dot@?$Vec4@H@Imath@@QBEHABV12@@Z
	??$jacobiEigenSolver@M@Imath@@YAXAAV?$Matrix44@M@0@AAV?$Vec4@M@0@0M@Z
	??$jacobiRotateRight@M$0A@$00@?A0x562b15e4@Imath@@YAXAAV?$Matrix33@M@1@MM@Z
	??$jacobiRotateRight@$00$01V?$Matrix33@N@Imath@@@?A0x562b15e4@Imath@@YAXAAV?$Matrix33@N@1@NN@Z
	??$jacobiRotation@$0A@$00$01N@?A0x562b15e4@Imath@@YA_NAAV?$Matrix33@N@1@0AAV?$Vec3@N@1@N@Z
	??$max@N@std@@YAABNABN0@Z
	?left@?$_Iosb@H@std@@2W4_Fmtflags@12@B
	?normalizeNonNull@?$Vec4@H@Imath@@QAEABV12@XZ
	??$maxOffDiagSymm@V?$Matrix33@M@Imath@@@?A0x562b15e4@Imath@@YAMABV?$Matrix33@M@1@@Z
	??$jacobiRotateRight@N$00$01@?A0x562b15e4@Imath@@YAXAAV?$Matrix33@N@1@NN@Z
	?numeric@?$_Locbase@H@std@@2HB
	?hsv2rgb_d@Imath@@YA?AV?$Color4@N@1@ABV21@@Z
	?dimensions@?$Matrix33@N@Imath@@SAIXZ
	__mask@@NegDouble@
	?dimensions@?$Matrix44@M@Imath@@SAIXZ
	??0?$Vec4@N@Imath@@QAE@NNNN@Z
	?lrand48@Imath@@YAJXZ
	??$jacobiRotation@$0A@$01$00$02M@?A0x562b15e4@Imath@@YA_NAAV?$Matrix44@M@1@0AAV?$Vec4@M@1@M@Z
	??$jacobiRotateRight@$00$02V?$Matrix44@N@Imath@@@?A0x562b15e4@Imath@@YAXAAV?$Matrix44@N@1@NN@Z
	??A?$Vec4@F@Imath@@QAEAAFH@Z
	?length@?$Vec4@H@Imath@@QBEHXZ
	?rand48Next@?A0xb1e4c764@Imath@@YAXQAG@Z
	??$jacobiRotateRight@$0A@$01V?$Matrix44@M@Imath@@@?A0x562b15e4@Imath@@YAXAAV?$Matrix44@M@1@MM@Z
	??Y?$Matrix33@N@Imath@@QAEABV01@ABV01@@Z
	??0?$Vec3@H@Imath@@QAE@ABV01@@Z
	??$twoSidedJacobiRotation@N$0A@$00$01@?A0x562b15e4@Imath@@YA_NAAV?$Matrix33@N@1@00N@Z
	?dimensions@?$Vec3@N@Imath@@SAIXZ
	??$?DN@Imath@@YA?AV?$Vec3@N@0@NABV10@@Z
	??$twoSidedJacobiRotation@M$00$01$0A@@?A0x562b15e4@Imath@@YA_NAAV?$Matrix33@M@1@00M@Z
	??0?$Vec3@N@Imath@@QAE@XZ
	?_Noreplace@?$_Iosb@H@std@@2W4_Openmode@12@B
	?normalize@?$Vec3@H@Imath@@QAEABV12@XZ
	??$jacobiRotation@$00$01$0A@$02N@?A0x562b15e4@Imath@@YA_NAAV?$Matrix44@N@1@0AAV?$Vec4@N@1@N@Z
	??A?$Vec4@N@Imath@@QBEABNH@Z
	??0IntVecNormalizeExc@Imath@@QAE@PBD@Z
	??$max@M@std@@YAABMABM0@Z
	??$maxOffDiagSymm@V?$Matrix44@N@Imath@@@?A0x562b15e4@Imath@@YANABV?$Matrix44@N@1@@Z
	??A?$Vec2@F@Imath@@QAEAAFH@Z
	??$jacobiRotation@$0A@$00$01M@?A0x562b15e4@Imath@@YA_NAAV?$Matrix33@M@1@0AAV?$Vec3@M@1@M@Z
	?identity33f@Imath@@3V?$Matrix33@M@1@A
	?dot@?$Vec3@F@Imath@@QBEFABV12@@Z
	??$jacobiRotateRight@$0A@$02V?$Matrix44@M@Imath@@@?A0x562b15e4@Imath@@YAXAAV?$Matrix44@M@1@MM@Z
	??$minEigenVector@V?$Matrix44@N@Imath@@V?$Vec4@N@2@@Imath@@YAXAAV?$Matrix44@N@0@AAV?$Vec4@N@0@@Z
	??$twoSidedJacobiRotation@M$0A@$01$00@?A0x562b15e4@Imath@@YA_NAAV?$Matrix33@M@1@00M@Z
	??$twoSidedJacobiRotation@M@?A0x562b15e4@Imath@@YA_NAAV?$Matrix44@M@1@HH00M@Z
	??1NullVecExc@Imath@@UAE@XZ
	??$twoSidedJacobiSVD@N@?A0x562b15e4@Imath@@YAXV?$Matrix33@N@1@AAV21@AAV?$Vec3@N@1@1N_N@Z
	?normalizeNonNull@?$Vec3@H@Imath@@QAEABV12@XZ
	?adjustfield@?$_Iosb@H@std@@2W4_Fmtflags@12@B
	??A?$Vec3@H@Imath@@QAEAAHH@Z
	??A?$Matrix33@M@Imath@@QBEPBMH@Z
	??Y?$Vec3@N@Imath@@QAEABV01@ABV01@@Z
	??$jacobiRotateRight@$0A@$02V?$Matrix44@N@Imath@@@?A0x562b15e4@Imath@@YAXAAV?$Matrix44@N@1@NN@Z
	??A?$Vec3@N@Imath@@QAEAANH@Z
	?staticState@?A0xb1e4c764@Imath@@3PAGA
	?normalizeExc@?$Vec2@F@Imath@@QAEABV12@XZ
	__TI8?AVIntVecNormalizeExc@Imath@@
	??0?$Vec3@N@Imath@@QAE@ABV01@@Z
	??0?$Color4@N@Imath@@QAE@NNNN@Z
	?length@?$Vec2@H@Imath@@QBEHXZ
	??$jacobiRotateRight@$0A@$00V?$Matrix44@M@Imath@@@?A0x562b15e4@Imath@@YAXAAV?$Matrix44@M@1@MM@Z
	??$swapColumns@N@?A0x562b15e4@Imath@@YAXAAV?$Matrix33@N@1@HH@Z
	?abs@@YANN@Z
	??$jacobiRotateRight@$0A@$00V?$Matrix33@N@Imath@@@?A0x562b15e4@Imath@@YAXAAV?$Matrix33@N@1@NN@Z
	?normalizeExc@?$Vec3@H@Imath@@QAEABV12@XZ
	?predd@Imath@@YANN@Z
	??$jacobiRotation@$00$01$0A@N@?A0x562b15e4@Imath@@YA_NAAV?$Matrix33@N@1@0AAV?$Vec3@N@1@N@Z
	??A?$Vec4@M@Imath@@QBEABMH@Z
	??$jacobiRotateRight@$00$01V?$Matrix33@M@Imath@@@?A0x562b15e4@Imath@@YAXAAV?$Matrix33@M@1@MM@Z
	??$procrustesRotationAndTranslation@M@Imath@@YA?AV?$Matrix44@N@0@PBV?$Vec3@M@0@0I_N@Z
	?badbit@?$_Iosb@H@std@@2W4_Iostate@12@B
	?makeIdentity@?$Matrix44@N@Imath@@QAEXXZ
	??$maxEigenVector@V?$Matrix44@N@Imath@@V?$Vec4@N@2@@Imath@@YAXAAV?$Matrix44@N@0@AAV?$Vec4@N@0@@Z
	??A?$Matrix33@M@Imath@@QAEPAMH@Z
	?eofbit@?$_Iosb@H@std@@2W4_Iostate@12@B
	?normalize@?$Vec4@H@Imath@@QAEABV12@XZ
	??A?$Matrix33@N@Imath@@QBEPBNH@Z
	?_Value@?$_Is_swap_move@U_Swap_move_tag@std@@@std@@2_NB
	?normalized@?$Vec4@F@Imath@@QBE?AV12@XZ
	?oct@?$_Iosb@H@std@@2W4_Fmtflags@12@B
	??$procrustesRotationAndTranslation@N@Imath@@YA?AV?$Matrix44@N@0@PBV?$Vec3@N@0@0I_N@Z
	??$twoSidedJacobiRotation@M$0A@$00$01@?A0x562b15e4@Imath@@YA_NAAV?$Matrix33@M@1@00M@Z
	?srand48@Imath@@YAXJ@Z
	??$normalizeOrThrow@F@?A0xf42ee053@Imath@@YA_NAAV?$Vec4@F@1@@Z
	?next@Rand32@Imath@@AAEXXZ
	?normalizedExc@?$Vec4@H@Imath@@QBE?AV12@XZ
	??$maxOffDiag@M@?A0x562b15e4@Imath@@YAMABV?$Matrix44@M@1@@Z
	?normalizedExc@?$Vec2@H@Imath@@QBE?AV12@XZ
	?nrand48@Imath@@YAJQAG@Z
	?drand48@Imath@@YANXZ
	?normalize@?$Vec2@F@Imath@@QAEABV12@XZ
	?normalizeExc@?$Vec2@H@Imath@@QAEABV12@XZ
	??0IntVecNormalizeExc@Imath@@QAE@ABV01@@Z
	??$procrustesRotationAndTranslation@M@Imath@@YA?AV?$Matrix44@N@0@PBV?$Vec3@M@0@0PBMI_N@Z
	__TI8?AVNullVecExc@Imath@@
	?normalizedExc@?$Vec4@F@Imath@@QBE?AV12@XZ
	??$jacobiEigenSolver@N@Imath@@YAXAAV?$Matrix44@N@0@AAV?$Vec4@N@0@0@Z
	??$jacobiRotation@$0A@$00$01$02N@?A0x562b15e4@Imath@@YA_NAAV?$Matrix44@N@1@0AAV?$Vec4@N@1@N@Z
	??A?$Vec4@N@Imath@@QAEAANH@Z
	?epsilon@?$limits@N@Imath@@SANXZ
	?normalizeNonNull@?$Vec2@F@Imath@@QAEABV12@XZ
	??1MathExc@Iex@@UAE@XZ
	?app@?$_Iosb@H@std@@2W4_Openmode@12@B
	?_Hardfail@?$_Iosb@H@std@@2W4_Iostate@12@B
	??$normalizeOrThrow@H@?A0xf42ee053@Imath@@YA_NAAV?$Vec2@H@1@@Z
	??$jacobiEigenSolver@N@Imath@@YAXAAV?$Matrix33@N@0@AAV?$Vec3@N@0@0N@Z
	??D?$Matrix33@N@Imath@@QBE?AV01@ABV01@@Z
	??0?$Vec4@M@Imath@@QAE@MMMM@Z
	?collate@?$_Locbase@H@std@@2HB
	??$?0M@?$Vec3@N@Imath@@QAE@ABV?$Vec3@M@1@@Z
	?right@?$_Iosb@H@std@@2W4_Fmtflags@12@B
	?uppercase@?$_Iosb@H@std@@2W4_Fmtflags@12@B
	?ctype@?$_Locbase@H@std@@2HB
	??$procrustesRotationAndTranslation@N@Imath@@YA?AV?$Matrix44@N@0@PBV?$Vec3@N@0@0PBNI_N@Z
	?erand48@Imath@@YANQAG@Z
	?length2@?$Vec3@N@Imath@@QBENXZ
	?makeIdentity@?$Matrix44@M@Imath@@QAEXXZ
	fabsf
	?hex@?$_Iosb@H@std@@2W4_Fmtflags@12@B
	??$twoSidedJacobiSVD@M@?A0x562b15e4@Imath@@YAXV?$Matrix44@M@1@AAV21@AAV?$Vec4@M@1@1M_N@Z
	??$maxEigenVector@V?$Matrix33@M@Imath@@V?$Vec3@M@2@@Imath@@YAXAAV?$Matrix33@M@0@AAV?$Vec3@M@0@@Z
	??$swap@M@std@@YAXAAM0@Z
	??$jacobiRotation@$0A@$00$01$02M@?A0x562b15e4@Imath@@YA_NAAV?$Matrix44@M@1@0AAV?$Vec4@M@1@M@Z
	??G?$Vec3@N@Imath@@QBE?AV01@ABV01@@Z
	??$jacobiSVD@N@Imath@@YAXABV?$Matrix44@N@0@AAV10@AAV?$Vec4@N@0@1N_N@Z
	?normalizedExc@?$Vec2@F@Imath@@QBE?AV12@XZ
	??$jacobiRotation@$0A@$01$00N@?A0x562b15e4@Imath@@YA_NAAV?$Matrix33@N@1@0AAV?$Vec3@N@1@N@Z
	??0?$Matrix44@N@Imath@@QAE@ABV01@@Z
	?monetary@?$_Locbase@H@std@@2HB
	?end@?$_Iosb@H@std@@2W4_Seekdir@12@B
	??0?$Vec3@N@Imath@@QAE@N@Z
	??$jacobiRotation@$0A@$01$00$02N@?A0x562b15e4@Imath@@YA_NAAV?$Matrix44@N@1@0AAV?$Vec4@N@1@N@Z
	?normalizeExc@?$Vec3@F@Imath@@QAEABV12@XZ
	__CTA8?AVNullVecExc@Imath@@
	??A?$Vec3@F@Imath@@QAEAAFH@Z
	?goodbit@?$_Iosb@H@std@@2W4_Iostate@12@B
	??$swapColumns@M@?A0x562b15e4@Imath@@YAXAAV?$Matrix33@M@1@HH@Z
	?abs@@YAMM@Z
	sqrtf
	?beg@?$_Iosb@H@std@@2W4_Seekdir@12@B
	?dimensions@?$Matrix33@M@Imath@@SAIXZ
	??$twoSidedJacobiRotation@N$0A@$01$00@?A0x562b15e4@Imath@@YA_NAAV?$Matrix33@N@1@00N@Z
	??$maxOffDiagSymm@V?$Matrix44@M@Imath@@@?A0x562b15e4@Imath@@YAMABV?$Matrix44@M@1@@Z
	??0?$Vec4@H@Imath@@QAE@ABV01@@Z
	?normalizedNonNull@?$Vec3@H@Imath@@QBE?AV12@XZ
	??0?$Vec2@H@Imath@@QAE@ABV01@@Z
	?dimensions@?$Vec4@M@Imath@@SAIXZ
	?skipws@?$_Iosb@H@std@@2W4_Fmtflags@12@B
	?fastMinor@?$Matrix44@M@Imath@@QBEMHHHHHH@Z
	??0?$Vec2@F@Imath@@QAE@ABV01@@Z
	??0?$Matrix33@M@Imath@@QAE@XZ
	?determinant@?$Matrix44@M@Imath@@QBEMXZ
	?normalizedExc@?$Vec3@H@Imath@@QBE?AV12@XZ
	??0NullVecExc@Imath@@QAE@ABV01@@Z
	?determinant@?$Matrix33@N@Imath@@QBENXZ
	??0?$Vec3@F@Imath@@QAE@ABV01@@Z
	??$maxOffDiag@N@?A0x562b15e4@Imath@@YANABV?$Matrix33@N@1@@Z
	?dot@?$Vec4@F@Imath@@QBEFABV12@@Z
	??$maxEigenVector@V?$Matrix33@N@Imath@@V?$Vec3@N@2@@Imath@@YAXAAV?$Matrix33@N@0@AAV?$Vec3@N@0@@Z
	??$twoSidedJacobiRotation@N$00$01$0A@@?A0x562b15e4@Imath@@YA_NAAV?$Matrix33@N@1@00N@Z
	??$jacobiRotation@$00$02$0A@$01N@?A0x562b15e4@Imath@@YA_NAAV?$Matrix44@N@1@0AAV?$Vec4@N@1@N@Z
	?internal@?$_Iosb@H@std@@2W4_Fmtflags@12@B
	?scientific@?$_Iosb@H@std@@2W4_Fmtflags@12@B
	??$jacobiRotateRight@$0A@$00V?$Matrix44@N@Imath@@@?A0x562b15e4@Imath@@YAXAAV?$Matrix44@N@1@NN@Z
	??1IntVecNormalizeExc@Imath@@UAE@XZ
	?normalize@?$Vec2@H@Imath@@QAEABV12@XZ
	??$minEigenVector@V?$Matrix33@M@Imath@@V?$Vec3@M@2@@Imath@@YAXAAV?$Matrix33@M@0@AAV?$Vec3@M@0@@Z
	??0MathExc@Iex@@QAE@PBD@Z
	?unitbuf@?$_Iosb@H@std@@2W4_Fmtflags@12@B
	??$jacobiRotateRight@$00$01V?$Matrix44@M@Imath@@@?A0x562b15e4@Imath@@YAXAAV?$Matrix44@M@1@MM@Z
	??$jacobiSVD@M@Imath@@YAXABV?$Matrix33@M@0@AAV10@AAV?$Vec3@M@0@1M_N@Z
	??0?$Vec4@F@Imath@@QAE@ABV01@@Z
	?all@?$_Locbase@H@std@@2HB
	??$twoSidedJacobiSVD@M@?A0x562b15e4@Imath@@YAXV?$Matrix33@M@1@AAV21@AAV?$Vec3@M@1@1M_N@Z
	?ate@?$_Iosb@H@std@@2W4_Openmode@12@B
	??0?$Matrix44@N@Imath@@QAE@NNNNNNNNNNNNNNNN@Z
	?makeIdentity@?$Matrix33@N@Imath@@QAEXXZ
	??0?$Matrix33@N@Imath@@QAE@XZ
	??$jacobiEigenSolver@M@Imath@@YAXAAV?$Matrix33@M@0@AAV?$Vec3@M@0@0@Z
	?normalizedNonNull@?$Vec2@F@Imath@@QBE?AV12@XZ
	??$?DNN@Imath@@YA?AV?$Vec3@N@0@ABV10@ABV?$Matrix33@N@0@@Z
	?_Nocreate@?$_Iosb@H@std@@2W4_Openmode@12@B
	??$jacobiRotateRight@$00$02V?$Matrix44@M@Imath@@@?A0x562b15e4@Imath@@YAXAAV?$Matrix44@M@1@MM@Z
	??0?$Vec3@M@Imath@@QAE@XZ
	??A?$Vec2@H@Imath@@QAEAAHH@Z
	?identity33d@Imath@@3V?$Matrix33@N@1@A
	?dec@?$_Iosb@H@std@@2W4_Fmtflags@12@B
	??$jacobiRotateRight@$01$02V?$Matrix44@M@Imath@@@?A0x562b15e4@Imath@@YAXAAV?$Matrix44@M@1@MM@Z
	??$jacobiRotation@$00$01$0A@$02M@?A0x562b15e4@Imath@@YA_NAAV?$Matrix44@M@1@0AAV?$Vec4@M@1@M@Z
	??$jacobiRotation@$0A@$01$00M@?A0x562b15e4@Imath@@YA_NAAV?$Matrix33@M@1@0AAV?$Vec3@M@1@M@Z
	??0?$Matrix44@M@Imath@@QAE@XZ
	??$twoSidedJacobiSVD@N@?A0x562b15e4@Imath@@YAXV?$Matrix44@N@1@AAV21@AAV?$Vec4@N@1@1N_N@Z
	??$swap@N@std@@YAXAAN0@Z
	??YKahanSum@?A0x562b15e4@Imath@@QAEXN@Z
	?failbit@?$_Iosb@H@std@@2W4_Iostate@12@B
	??$jacobiEigenSolver@M@Imath@@YAXAAV?$Matrix33@M@0@AAV?$Vec3@M@0@0M@Z
	??0?$Matrix33@N@Imath@@QAE@NNNNNNNNN@Z
	?normalizeExc@?$Vec4@H@Imath@@QAEABV12@XZ
	?normalizedNonNull@?$Vec4@F@Imath@@QBE?AV12@XZ
