 IlmImf

 Timestamp is 50fd5820 (Mon Jan 21 23:00:48 2013)

 Preferred load address is 10000000

 Start         Length     Name                   Class
 0001:00000000 00047e88H .text                   CODE
 0001:00047e90 000052eaH .text$x                 CODE
 0001:0004d17a 0000000cH .text$yc                CODE
 0001:0004d190 00000024H .text$yd                CODE
 0002:00000000 000002c0H .idata$5                DATA
 0002:000002c0 00000004H .CRT$XCA                DATA
 0002:000002c4 00000004H .CRT$XCL                DATA
 0002:000002c8 00000004H .CRT$XCZ                DATA
 0002:000002cc 00000004H .CRT$XIA                DATA
 0002:000002d0 00000004H .CRT$XIAA               DATA
 0002:000002d4 00000004H .CRT$XIC                DATA
 0002:000002d8 00000004H .CRT$XIZ                DATA
 0002:000002e0 000428d0H .rdata                  DATA
 0002:00042bb0 00000073H .rdata$debug            DATA
 0002:00042c24 00001c30H .rdata$r                DATA
 0002:00044860 00000468H .rdata$sxdata           DATA
 0002:00044cc8 00000004H .rtc$IAA                DATA
 0002:00044ccc 00000004H .rtc$IZZ                DATA
 0002:00044cd0 00000004H .rtc$TAA                DATA
 0002:00044cd4 00000004H .rtc$TZZ                DATA
 0002:00044cd8 00005b94H .xdata$x                DATA
 0002:0004a86c 0000008cH .idata$2                DATA
 0002:0004a8f8 00000014H .idata$3                DATA
 0002:0004a90c 000002c0H .idata$4                DATA
 0002:0004abcc 00001838H .idata$6                DATA
 0002:0004c404 00000000H .edata                  DATA
 0003:00000000 00001138H .data                   DATA
 0003:00001138 000007bcH .bss                    DATA

  Address         Publics by Value              Rva+Base       Lib:Object

 0000:00000000       __except_list              00000000     <absolute>
 0000:0000011a       ___safe_se_handler_count   0000011a     <absolute>
 0000:00009876       __ldused                   00009876     <absolute>
 0000:00009876       __fltused                  00009876     <absolute>
 0000:00000000       ___ImageBase               10000000     <linker-defined>
 0001:00000000       ??0bad_alloc@std@@QAE@PBD@Z 10001000 f i ImfAttribute.obj
 0001:00000020       ??1bad_alloc@std@@UAE@XZ   10001020 f i ImfAttribute.obj
 0001:00000030       ??_Ebad_alloc@std@@UAEPAXI@Z 10001030 f i ImfAttribute.obj
 0001:00000030       ??_Gbad_alloc@std@@UAEPAXI@Z 10001030 f i ImfAttribute.obj
 0001:00000060       ??2@YAPAXIPAX@Z            10001060 f i ImfAttribute.obj
 0001:00000070       ?length@?$char_traits@D@std@@SAIPBD@Z 10001070 f i ImfAttribute.obj
 0001:00000090       ?copy@?$char_traits@D@std@@SAPADPADPBDI@Z 10001090 f i ImfAttribute.obj
 0001:000000a0       ?eof@?$char_traits@D@std@@SAHXZ 100010a0 f i ImfAttribute.obj
 0001:000000a0       ?max_size@?$allocator@D@std@@QBEIXZ 100010a0 f i ImfAttribute.obj
 0001:000000b0       ??0ArgExc@Iex@@QAE@AAV?$basic_stringstream@DU?$char_traits@D@std@@V?$allocator@D@2@@std@@@Z 100010b0 f i ImfAttribute.obj
 0001:000000d0       ??0TypeExc@Iex@@QAE@PBD@Z  100010d0 f i ImfAttribute.obj
 0001:000000f0       ??0Lock@IlmThread@@QAE@ABVMutex@1@_N@Z 100010f0 f i ImfAttribute.obj
 0001:00000120       ??1Lock@IlmThread@@QAE@XZ  10001120 f i ImfAttribute.obj
 0001:00000130       ??0Attribute@Imf@@QAE@XZ   10001130 f   ImfAttribute.obj
 0001:00000140       ??1?$TypedAttribute@M@Imf@@UAE@XZ 10001140 f   ImfAttribute.obj
 0001:00000140       ??1?$TypedAttribute@N@Imf@@UAE@XZ 10001140 f   ImfAttribute.obj
 0001:00000140       ??1Attribute@Imf@@UAE@XZ   10001140 f   ImfAttribute.obj
 0001:00000150       ??R?$less@VName@Imf@@@std@@QBE_NABVName@Imf@@0@Z 10001150 f i ImfChannelList.obj
 0001:00000150       ??RNameCompare@?A0x0779e1ad@Imf@@QBE_NPBD0@Z 10001150 f i ImfAttribute.obj
 0001:000001a0       ?_Tidy@?$basic_stringbuf@DU?$char_traits@D@std@@V?$allocator@D@2@@std@@IAEXXZ 100011a0 f i ImfAttribute.obj
 0001:00000200       ??Bsentry@?$basic_ostream@DU?$char_traits@D@std@@@std@@QBEPQ_Bool_struct@2@HXZ 10001200 f i ImfAttribute.obj
 0001:00000210       ?_Getstate@?$basic_stringbuf@DU?$char_traits@D@std@@V?$allocator@D@2@@std@@AAEHH@Z 10001210 f i ImfAttribute.obj
 0001:00000240       ??0_Sentry_base@?$basic_ostream@DU?$char_traits@D@std@@@std@@QAE@AAV12@@Z 10001240 f i ImfAttribute.obj
 0001:00000270       ??1_Sentry_base@?$basic_ostream@DU?$char_traits@D@std@@@std@@QAE@XZ 10001270 f i ImfAttribute.obj
 0001:00000290       ?_Color@?$_Tree_val@V?$_Tmap_traits@PBDP6APAVAttribute@Imf@@XZUNameCompare@?A0x0779e1ad@2@V?$allocator@U?$pair@QBDP6APAVAttribute@Imf@@XZ@std@@@std@@$0A@@std@@@std@@SAAADPAU_Node@?$_Tree_nod@V?$_Tmap_traits@PBDP6APAVAttribute@Imf@@XZUNameCompare@?A0x0779e1ad@2@V?$allocator@U?$pair@QBDP6APAVAttribute@Imf@@XZ@std@@@std@@$0A@@std@@@2@@Z 10001290 f i ImfAttribute.obj
 0001:000002a0       ?_Isnil@?$_Tree_val@V?$_Tmap_traits@PBDP6APAVAttribute@Imf@@XZUNameCompare@?A0x0779e1ad@2@V?$allocator@U?$pair@QBDP6APAVAttribute@Imf@@XZ@std@@@std@@$0A@@std@@@std@@SAAADPAU_Node@?$_Tree_nod@V?$_Tmap_traits@PBDP6APAVAttribute@Imf@@XZUNameCompare@?A0x0779e1ad@2@V?$allocator@U?$pair@QBDP6APAVAttribute@Imf@@XZ@std@@@std@@$0A@@std@@@2@@Z 100012a0 f i ImfAttribute.obj
 0001:000002b0       ?_Max@?$_Tree_val@V?$_Tmap_traits@PBDP6APAVAttribute@Imf@@XZUNameCompare@?A0x0779e1ad@2@V?$allocator@U?$pair@QBDP6APAVAttribute@Imf@@XZ@std@@@std@@$0A@@std@@@std@@SAPAU_Node@?$_Tree_nod@V?$_Tmap_traits@PBDP6APAVAttribute@Imf@@XZUNameCompare@?A0x0779e1ad@2@V?$allocator@U?$pair@QBDP6APAVAttribute@Imf@@XZ@std@@@std@@$0A@@std@@@2@PAU342@@Z 100012b0 f i ImfAttribute.obj
 0001:000002d0       ?_Min@?$_Tree_val@V?$_Tmap_traits@PBDP6APAVAttribute@Imf@@XZUNameCompare@?A0x0779e1ad@2@V?$allocator@U?$pair@QBDP6APAVAttribute@Imf@@XZ@std@@@std@@$0A@@std@@@std@@SAPAU_Node@?$_Tree_nod@V?$_Tmap_traits@PBDP6APAVAttribute@Imf@@XZUNameCompare@?A0x0779e1ad@2@V?$allocator@U?$pair@QBDP6APAVAttribute@Imf@@XZ@std@@@std@@$0A@@std@@@2@PAU342@@Z 100012d0 f i ImfAttribute.obj
 0001:000002f0       ??E?$_Tree_unchecked_const_iterator@V?$_Tree_val@V?$_Tmap_traits@PBDP6APAVAttribute@Imf@@XZUNameCompare@?A0x0779e1ad@2@V?$allocator@U?$pair@QBDP6APAVAttribute@Imf@@XZ@std@@@std@@$0A@@std@@@std@@U_Iterator_base0@2@@std@@QAEAAV01@XZ 100012f0 f i ImfAttribute.obj
 0001:00000340       ??0?$TypedAttribute@M@Imf@@QAE@ABM@Z 10001340 f i ImfAttribute.obj
 0001:00000360       ??0?$TypedAttribute@M@Imf@@QAE@XZ 10001360 f i ImfAttribute.obj
 0001:00000380       ?typeName@?$TypedAttribute@M@Imf@@UBEPBDXZ 10001380 f i ImfAttribute.obj
 0001:00000390       ?makeNewAttribute@?$TypedAttribute@M@Imf@@SAPAVAttribute@2@XZ 10001390 f i ImfAttribute.obj
 0001:000003b0       ?copy@?$TypedAttribute@M@Imf@@UBEPAVAttribute@2@XZ 100013b0 f i ImfAttribute.obj
 0001:00000400       ?move@?$char_traits@D@std@@SAPADPADPBDI@Z 10001400 f i ImfAttribute.obj
 0001:00000410       ?assign@?$char_traits@D@std@@SAXAADABD@Z 10001410 f i ImfAttribute.obj
 0001:00000420       ?data@?$basic_string@DU?$char_traits@D@std@@V?$allocator@D@2@@std@@QBEPBDXZ 10001420 f i ImfHeader.obj
 0001:00000420       ?c_str@?$basic_string@DU?$char_traits@D@std@@V?$allocator@D@2@@std@@QBEPBDXZ 10001420 f i ImfChannelList.obj
 0001:00000420       ?_Myptr@?$basic_string@DU?$char_traits@D@std@@V?$allocator@D@2@@std@@QBEPBDXZ 10001420 f i ImfAttribute.obj
 0001:00000420       ?_Myptr@?$basic_string@DU?$char_traits@D@std@@V?$allocator@D@2@@std@@QAEPADXZ 10001420 f i ImfAttribute.obj
 0001:00000430       ?_Xlen@?$basic_string@DU?$char_traits@D@std@@V?$allocator@D@2@@std@@QBEXXZ 10001430 f i ImfAttribute.obj
 0001:00000440       ?_Xran@?$basic_string@DU?$char_traits@D@std@@V?$allocator@D@2@@std@@QBEXXZ 10001440 f i ImfAttribute.obj
 0001:00000450       ??0?$TypedAttribute@N@Imf@@QAE@ABN@Z 10001450 f i ImfAttribute.obj
 0001:00000470       ??0?$TypedAttribute@N@Imf@@QAE@XZ 10001470 f i ImfAttribute.obj
 0001:00000490       ?value@?$TypedAttribute@N@Imf@@QAEAANXZ 10001490 f i ImfAttribute.obj
 0001:00000490       ?value@?$TypedAttribute@N@Imf@@QBEABNXZ 10001490 f i ImfAttribute.obj
 0001:000004a0       ?typeName@?$TypedAttribute@N@Imf@@UBEPBDXZ 100014a0 f i ImfAttribute.obj
 0001:000004b0       ?makeNewAttribute@?$TypedAttribute@N@Imf@@SAPAVAttribute@2@XZ 100014b0 f i ImfAttribute.obj
 0001:000004d0       ?copy@?$TypedAttribute@N@Imf@@UBEPAVAttribute@2@XZ 100014d0 f i ImfAttribute.obj
 0001:00000520       ?cast@?$TypedAttribute@N@Imf@@SAPBV12@PBVAttribute@2@@Z 10001520 f i ImfAttribute.obj
 0001:00000520       ?cast@?$TypedAttribute@N@Imf@@SAPAV12@PAVAttribute@2@@Z 10001520 f i ImfAttribute.obj
 0001:00000520       ?cast@?$TypedAttribute@N@Imf@@SAAAV12@AAVAttribute@2@@Z 10001520 f i ImfAttribute.obj
 0001:00000520       ?cast@?$TypedAttribute@N@Imf@@SAABV12@ABVAttribute@2@@Z 10001520 f i ImfAttribute.obj
 0001:00000580       ??$_Allocate@D@std@@YAPADIPAD@Z 10001580 f i ImfAttribute.obj
 0001:000005d0       ??$_Allocate@U_Node@?$_Tree_nod@V?$_Tmap_traits@PBDP6APAVAttribute@Imf@@XZUNameCompare@?A0x0779e1ad@2@V?$allocator@U?$pair@QBDP6APAVAttribute@Imf@@XZ@std@@@std@@$0A@@std@@@std@@@std@@YAPAU_Node@?$_Tree_nod@V?$_Tmap_traits@PBDP6APAVAttribute@Imf@@XZUNameCompare@?A0x0779e1ad@2@V?$allocator@U?$pair@QBDP6APAVAttribute@Imf@@XZ@std@@@std@@$0A@@std@@@0@IPAU120@@Z 100015d0 f i ImfAttribute.obj
 0001:00000630       ??_G?$TypedAttribute@N@Imf@@UAEPAXI@Z 10001630 f i ImfAttribute.obj
 0001:00000630       ??_E?$TypedAttribute@M@Imf@@UAEPAXI@Z 10001630 f i ImfAttribute.obj
 0001:00000630       ??_GAttribute@Imf@@UAEPAXI@Z 10001630 f i ImfAttribute.obj
 0001:00000630       ??_EAttribute@Imf@@UAEPAXI@Z 10001630 f i ImfAttribute.obj
 0001:00000630       ??_G?$TypedAttribute@M@Imf@@UAEPAXI@Z 10001630 f i ImfAttribute.obj
 0001:00000630       ??_E?$TypedAttribute@N@Imf@@UAEPAXI@Z 10001630 f i ImfAttribute.obj
 0001:00000660       ??0Attribute@Imf@@QAE@ABV01@@Z 10001660 f i ImfAttribute.obj
 0001:00000670       ??0TypeExc@Iex@@QAE@ABV01@@Z 10001670 f i ImfAttribute.obj
 0001:00000690       ??0bad_alloc@std@@QAE@ABV01@@Z 10001690 f i ImfAttribute.obj
 0001:000006b0       ?max_size@?$allocator@_K@std@@QBEIXZ 100016b0 f i ImfOutputFile.obj
 0001:000006b0       ?max_size@?$_Tree@V?$_Tmap_traits@PBDP6APAVAttribute@Imf@@XZUNameCompare@?A0x0779e1ad@2@V?$allocator@U?$pair@QBDP6APAVAttribute@Imf@@XZ@std@@@std@@$0A@@std@@@std@@QBEIXZ 100016b0 f i ImfAttribute.obj
 0001:000006b0       ?max_size@?$vector@_KV?$allocator@_K@std@@@std@@QBEIXZ 100016b0 f i ImfOutputFile.obj
 0001:000006b0       ?max_size@?$allocator@U?$pair@QBDP6APAVAttribute@Imf@@XZ@std@@@std@@QBEIXZ 100016b0 f i ImfAttribute.obj
 0001:000006c0       ??F?$_Tree_unchecked_const_iterator@V?$_Tree_val@V?$_Tmap_traits@PBDP6APAVAttribute@Imf@@XZUNameCompare@?A0x0779e1ad@2@V?$allocator@U?$pair@QBDP6APAVAttribute@Imf@@XZ@std@@@std@@$0A@@std@@@std@@U_Iterator_base0@2@@std@@QAEAAV01@XZ 100016c0 f i ImfAttribute.obj
 0001:00000720       ??0?$_String_val@DV?$allocator@D@std@@@std@@QAE@ABV01@@Z 10001720 f i ImfAttribute.obj
 0001:00000750       ??1?$basic_stringbuf@DU?$char_traits@D@std@@V?$allocator@D@2@@std@@UAE@XZ 10001750 f i ImfAttribute.obj
 0001:00000770       ?eq@?$char_traits@D@std@@SA_NABD0@Z 10001770 f i ImfAttribute.obj
 0001:00000790       ?to_char_type@?$char_traits@D@std@@SADABH@Z 10001790 f i ImfAttribute.obj
 0001:000007a0       ?to_int_type@?$char_traits@D@std@@SAHABD@Z 100017a0 f i ImfAttribute.obj
 0001:000007b0       ?underflow@?$basic_stringbuf@DU?$char_traits@D@std@@V?$allocator@D@2@@std@@MAEHXZ 100017b0 f i ImfAttribute.obj
 0001:00000820       ??0?$fpos@H@std@@QAE@_J@Z  10001820 f i ImfAttribute.obj
 0001:00000840       ??B?$fpos@H@std@@QBE_JXZ   10001840 f i ImfAttribute.obj
 0001:00000850       ?not_eof@?$char_traits@D@std@@SAHABH@Z 10001850 f i ImfAttribute.obj
 0001:00000870       ?pbackfail@?$basic_stringbuf@DU?$char_traits@D@std@@V?$allocator@D@2@@std@@MAEHH@Z 10001870 f i ImfAttribute.obj
 0001:000008c0       ?seekoff@?$basic_stringbuf@DU?$char_traits@D@std@@V?$allocator@D@2@@std@@MAE?AV?$fpos@H@2@_JHH@Z 100018c0 f i ImfAttribute.obj
 0001:00000a70       ?seekpos@?$basic_stringbuf@DU?$char_traits@D@std@@V?$allocator@D@2@@std@@MAE?AV?$fpos@H@2@V32@H@Z 10001a70 f i ImfAttribute.obj
 0001:00000b90       ??_E?$basic_stringbuf@DU?$char_traits@D@std@@V?$allocator@D@2@@std@@UAEPAXI@Z 10001b90 f i ImfAttribute.obj
 0001:00000b90       ??_G?$basic_stringbuf@DU?$char_traits@D@std@@V?$allocator@D@2@@std@@UAEPAXI@Z 10001b90 f i ImfAttribute.obj
 0001:00000bc0       ?allocate@?$allocator@D@std@@QAEPADI@Z 10001bc0 f i ImfAttribute.obj
 0001:00000c10       ??0sentry@?$basic_ostream@DU?$char_traits@D@std@@@std@@QAE@AAV12@@Z 10001c10 f i ImfAttribute.obj
 0001:00000ca0       ??1sentry@?$basic_ostream@DU?$char_traits@D@std@@@std@@QAE@XZ 10001ca0 f i ImfAttribute.obj
 0001:00000d20       ?_Eos@?$basic_string@DU?$char_traits@D@std@@V?$allocator@D@2@@std@@QAEXI@Z 10001d20 f i ImfAttribute.obj
 0001:00000d40       ?_Init@?$basic_stringbuf@DU?$char_traits@D@std@@V?$allocator@D@2@@std@@IAEXPBDIH@Z 10001d40 f i ImfAttribute.obj
 0001:00000df0       ?max_size@?$basic_string@DU?$char_traits@D@std@@V?$allocator@D@2@@std@@QBEIXZ 10001df0 f i ImfAttribute.obj
 0001:00000e00       ?_Rrotate@?$_Tree@V?$_Tmap_traits@PBDP6APAVAttribute@Imf@@XZUNameCompare@?A0x0779e1ad@2@V?$allocator@U?$pair@QBDP6APAVAttribute@Imf@@XZ@std@@@std@@$0A@@std@@@std@@IAEXPAU_Node@?$_Tree_nod@V?$_Tmap_traits@PBDP6APAVAttribute@Imf@@XZUNameCompare@?A0x0779e1ad@2@V?$allocator@U?$pair@QBDP6APAVAttribute@Imf@@XZ@std@@@std@@$0A@@std@@@2@@Z 10001e00 f i ImfAttribute.obj
 0001:00000e60       ?allocate@?$allocator@U_Node@?$_Tree_nod@V?$_Tmap_traits@PBDP6APAVAttribute@Imf@@XZUNameCompare@?A0x0779e1ad@2@V?$allocator@U?$pair@QBDP6APAVAttribute@Imf@@XZ@std@@@std@@$0A@@std@@@std@@@std@@QAEPAU_Node@?$_Tree_nod@V?$_Tmap_traits@PBDP6APAVAttribute@Imf@@XZUNameCompare@?A0x0779e1ad@2@V?$allocator@U?$pair@QBDP6APAVAttribute@Imf@@XZ@std@@@std@@$0A@@std@@@2@I@Z 10001e60 f i ImfAttribute.obj
 0001:00000ec0       ??E?$_Tree_const_iterator@V?$_Tree_val@V?$_Tmap_traits@PBDP6APAVAttribute@Imf@@XZUNameCompare@?A0x0779e1ad@2@V?$allocator@U?$pair@QBDP6APAVAttribute@Imf@@XZ@std@@@std@@$0A@@std@@@std@@@std@@QAEAAV01@XZ 10001ec0 f i ImfAttribute.obj
 0001:00000ec0       ??E?$_Tree_iterator@V?$_Tree_val@V?$_Tmap_traits@PBDP6APAVAttribute@Imf@@XZUNameCompare@?A0x0779e1ad@2@V?$allocator@U?$pair@QBDP6APAVAttribute@Imf@@XZ@std@@@std@@$0A@@std@@@std@@@std@@QAEAAV01@XZ 10001ec0 f i ImfAttribute.obj
 0001:00000ed0       ?cast@?$TypedAttribute@M@Imf@@SAPAV12@PAVAttribute@2@@Z 10001ed0 f i ImfAttribute.obj
 0001:00000ed0       ?cast@?$TypedAttribute@M@Imf@@SAABV12@ABVAttribute@2@@Z 10001ed0 f i ImfAttribute.obj
 0001:00000ed0       ?cast@?$TypedAttribute@M@Imf@@SAPBV12@PBVAttribute@2@@Z 10001ed0 f i ImfAttribute.obj
 0001:00000ed0       ?cast@?$TypedAttribute@M@Imf@@SAAAV12@AAVAttribute@2@@Z 10001ed0 f i ImfAttribute.obj
 0001:00000f30       ??$?6U?$char_traits@D@std@@@std@@YAAAV?$basic_ostream@DU?$char_traits@D@std@@@0@AAV10@PBD@Z 10001f30 f i ImfAttribute.obj
 0001:00001180       ??$swap@D@std@@YAXAAD0@Z   10002180 f i ImfAttribute.obj
 0001:000011a0       ??$write@UStreamIO@Imf@@VOStream@2@@Xdr@Imf@@YAXAAVOStream@1@M@Z 100021a0 f i ImfAttribute.obj
 0001:000011e0       ??$write@UStreamIO@Imf@@VOStream@2@@Xdr@Imf@@YAXAAVOStream@1@N@Z 100021e0 f i ImfAttribute.obj
 0001:00001270       ?_Buynode@?$_Tree_val@V?$_Tmap_traits@PBDP6APAVAttribute@Imf@@XZUNameCompare@?A0x0779e1ad@2@V?$allocator@U?$pair@QBDP6APAVAttribute@Imf@@XZ@std@@@std@@$0A@@std@@@std@@QAEPAU_Node@?$_Tree_nod@V?$_Tmap_traits@PBDP6APAVAttribute@Imf@@XZUNameCompare@?A0x0779e1ad@2@V?$allocator@U?$pair@QBDP6APAVAttribute@Imf@@XZ@std@@@std@@$0A@@std@@@2@XZ 10002270 f i ImfAttribute.obj
 0001:000012d0       ??$?0AAV?$_Tree_iterator@V?$_Tree_val@V?$_Tmap_traits@PBDP6APAVAttribute@Imf@@XZUNameCompare@?A0x0779e1ad@2@V?$allocator@U?$pair@QBDP6APAVAttribute@Imf@@XZ@std@@@std@@$0A@@std@@@std@@@std@@AAV01@@?$_Pair_base@V?$_Tree_iterator@V?$_Tree_val@V?$_Tmap_traits@PBDP6APAVAttribute@Imf@@XZUNameCompare@?A0x0779e1ad@2@V?$allocator@U?$pair@QBDP6APAVAttribute@Imf@@XZ@std@@@std@@$0A@@std@@@std@@@std@@V12@@std@@QAE@AAV?$_Tree_iterator@V?$_Tree_val@V?$_Tmap_traits@PBDP6APAVAttribute@Imf@@XZUNameCompare@?A0x0779e1ad@2@V?$allocator@U?$pair@QBDP6APAVAttribute@Imf@@XZ@std@@@std@@$0A@@std@@@std@@@1@0@Z 100022d0 f i ImfAttribute.obj
 0001:000012d0       ??$?0AAQBDAAP6APAVAttribute@Imf@@XZ@?$pair@QBDP6APAVAttribute@Imf@@XZ@std@@QAE@AAQBDAAP6APAVAttribute@Imf@@XZ@Z 100022d0 f i ImfAttribute.obj
 0001:000012d0       ??$?0AAV?$_Tree_iterator@V?$_Tree_val@V?$_Tmap_traits@PBDP6APAVAttribute@Imf@@XZUNameCompare@?A0x0779e1ad@2@V?$allocator@U?$pair@QBDP6APAVAttribute@Imf@@XZ@std@@@std@@$0A@@std@@@std@@@std@@AAV01@@?$pair@V?$_Tree_iterator@V?$_Tree_val@V?$_Tmap_traits@PBDP6APAVAttribute@Imf@@XZUNameCompare@?A0x0779e1ad@2@V?$allocator@U?$pair@QBDP6APAVAttribute@Imf@@XZ@std@@@std@@$0A@@std@@@std@@@std@@V12@@std@@QAE@AAV?$_Tree_iterator@V?$_Tree_val@V?$_Tmap_traits@PBDP6APAVAttribute@Imf@@XZUNameCompare@?A0x0779e1ad@2@V?$allocator@U?$pair@QBDP6APAVAttribute@Imf@@XZ@std@@@std@@$0A@@std@@@std@@@1@0@Z 100022d0 f i ImfAttribute.obj
 0001:000012d0       ??$?0AAQBDAAP6APAVAttribute@Imf@@XZ@?$_Pair_base@QBDP6APAVAttribute@Imf@@XZ@std@@QAE@AAQBDAAP6APAVAttribute@Imf@@XZ@Z 100022d0 f i ImfAttribute.obj
 0001:000012d0       ??0?$_Pair_base@QBDP6APAVAttribute@Imf@@XZ@std@@QAE@$$QBQBD$$QAP6APAVAttribute@Imf@@XZ@Z 100022d0 f i ImfAttribute.obj
 0001:000012f0       ??1?$basic_stringstream@DU?$char_traits@D@std@@V?$allocator@D@2@@std@@UAE@XZ 100022f0 f i ImfAttribute.obj
 0001:00001370       ?overflow@?$basic_stringbuf@DU?$char_traits@D@std@@V?$allocator@D@2@@std@@MAEHH@Z 10002370 f i ImfAttribute.obj
 0001:00001540       ?_Tidy@?$basic_string@DU?$char_traits@D@std@@V?$allocator@D@2@@std@@QAEX_NI@Z 10002540 f i ImfAttribute.obj
 0001:00001590       ??0?$basic_stringbuf@DU?$char_traits@D@std@@V?$allocator@D@2@@std@@QAE@H@Z 10002590 f i ImfAttribute.obj
 0001:00001610       ?erase@?$basic_string@DU?$char_traits@D@std@@V?$allocator@D@2@@std@@QAEAAV12@II@Z 10002610 f i ImfAttribute.obj
 0001:000016a0       ?begin@?$_Tree@V?$_Tmap_traits@PBDP6APAVAttribute@Imf@@XZUNameCompare@?A0x0779e1ad@2@V?$allocator@U?$pair@QBDP6APAVAttribute@Imf@@XZ@std@@@std@@$0A@@std@@@std@@QAE?AV?$_Tree_iterator@V?$_Tree_val@V?$_Tmap_traits@PBDP6APAVAttribute@Imf@@XZUNameCompare@?A0x0779e1ad@2@V?$allocator@U?$pair@QBDP6APAVAttribute@Imf@@XZ@std@@@std@@$0A@@std@@@std@@@2@XZ 100026a0 f i ImfAttribute.obj
 0001:000016a0       ?begin@?$_Tree@V?$_Tset_traits@V?$basic_string@DU?$char_traits@D@std@@V?$allocator@D@2@@std@@U?$less@V?$basic_string@DU?$char_traits@D@std@@V?$allocator@D@2@@std@@@2@V?$allocator@V?$basic_string@DU?$char_traits@D@std@@V?$allocator@D@2@@std@@@2@$0A@@std@@@std@@QAE?AV?$_Tree_const_iterator@V?$_Tree_val@V?$_Tset_traits@V?$basic_string@DU?$char_traits@D@std@@V?$allocator@D@2@@std@@U?$less@V?$basic_string@DU?$char_traits@D@std@@V?$allocator@D@2@@std@@@2@V?$allocator@V?$basic_string@DU?$char_traits@D@std@@V?$allocator@D@2@@std@@@2@$0A@@std@@@std@@@2@XZ 100026a0 f i ImfChannelList.obj
 0001:000016a0       ?begin@?$_Tree@V?$_Tmap_traits@VName@Imf@@PAVAttribute@2@U?$less@VName@Imf@@@std@@V?$allocator@U?$pair@$$CBVName@Imf@@PAVAttribute@2@@std@@@5@$0A@@std@@@std@@QBE?AV?$_Tree_const_iterator@V?$_Tree_val@V?$_Tmap_traits@VName@Imf@@PAVAttribute@2@U?$less@VName@Imf@@@std@@V?$allocator@U?$pair@$$CBVName@Imf@@PAVAttribute@2@@std@@@5@$0A@@std@@@std@@@2@XZ 100026a0 f i ImfHeader.obj
 0001:000016a0       ?begin@Header@Imf@@QAE?AVIterator@12@XZ 100026a0 f i ImfHeader.obj
 0001:000016a0       ?begin@FrameBuffer@Imf@@QAE?AVIterator@12@XZ 100026a0 f i ImfFrameBuffer.obj
 0001:000016a0       ?begin@ChannelList@Imf@@QBE?AVConstIterator@12@XZ 100026a0 f i ImfChannelList.obj
 0001:000016a0       ?begin@?$_Tree@V?$_Tmap_traits@VName@Imf@@PAVAttribute@2@U?$less@VName@Imf@@@std@@V?$allocator@U?$pair@$$CBVName@Imf@@PAVAttribute@2@@std@@@5@$0A@@std@@@std@@QAE?AV?$_Tree_iterator@V?$_Tree_val@V?$_Tmap_traits@VName@Imf@@PAVAttribute@2@U?$less@VName@Imf@@@std@@V?$allocator@U?$pair@$$CBVName@Imf@@PAVAttribute@2@@std@@@5@$0A@@std@@@std@@@2@XZ 100026a0 f i ImfHeader.obj
 0001:000016a0       ?begin@?$_Tree@V?$_Tmap_traits@VName@Imf@@UChannel@2@U?$less@VName@Imf@@@std@@V?$allocator@U?$pair@$$CBVName@Imf@@UChannel@2@@std@@@5@$0A@@std@@@std@@QBE?AV?$_Tree_const_iterator@V?$_Tree_val@V?$_Tmap_traits@VName@Imf@@UChannel@2@U?$less@VName@Imf@@@std@@V?$allocator@U?$pair@$$CBVName@Imf@@UChannel@2@@std@@@5@$0A@@std@@@std@@@2@XZ 100026a0 f i ImfChannelList.obj
 0001:000016a0       ?begin@?$_Tree@V?$_Tmap_traits@VName@Imf@@USlice@2@U?$less@VName@Imf@@@std@@V?$allocator@U?$pair@$$CBVName@Imf@@USlice@2@@std@@@5@$0A@@std@@@std@@QBE?AV?$_Tree_const_iterator@V?$_Tree_val@V?$_Tmap_traits@VName@Imf@@USlice@2@U?$less@VName@Imf@@@std@@V?$allocator@U?$pair@$$CBVName@Imf@@USlice@2@@std@@@5@$0A@@std@@@std@@@2@XZ 100026a0 f i ImfFrameBuffer.obj
 0001:000016a0       ?begin@Header@Imf@@QBE?AVConstIterator@12@XZ 100026a0 f i ImfHeader.obj
 0001:000016a0       ?begin@?$_Tree@V?$_Tmap_traits@UTileCoord@?A0x39e5c904@Imf@@PAUBufferedTile@23@U?$less@UTileCoord@?A0x39e5c904@Imf@@@std@@V?$allocator@U?$pair@$$CBUTileCoord@?A0x39e5c904@Imf@@PAUBufferedTile@23@@std@@@6@$0A@@std@@@std@@QAE?AV?$_Tree_iterator@V?$_Tree_val@V?$_Tmap_traits@UTileCoord@?A0x39e5c904@Imf@@PAUBufferedTile@23@U?$less@UTileCoord@?A0x39e5c904@Imf@@@std@@V?$allocator@U?$pair@$$CBUTileCoord@?A0x39e5c904@Imf@@PAUBufferedTile@23@@std@@@6@$0A@@std@@@std@@@2@XZ 100026a0 f i ImfTiledOutputFile.obj
 0001:000016a0       ?begin@ChannelList@Imf@@QAE?AVIterator@12@XZ 100026a0 f i ImfChannelList.obj
 0001:000016a0       ?begin@FrameBuffer@Imf@@QBE?AVConstIterator@12@XZ 100026a0 f i ImfFrameBuffer.obj
 0001:000016a0       ?begin@?$_Tree@V?$_Tmap_traits@VName@Imf@@UChannel@2@U?$less@VName@Imf@@@std@@V?$allocator@U?$pair@$$CBVName@Imf@@UChannel@2@@std@@@5@$0A@@std@@@std@@QAE?AV?$_Tree_iterator@V?$_Tree_val@V?$_Tmap_traits@VName@Imf@@UChannel@2@U?$less@VName@Imf@@@std@@V?$allocator@U?$pair@$$CBVName@Imf@@UChannel@2@@std@@@5@$0A@@std@@@std@@@2@XZ 100026a0 f i ImfChannelList.obj
 0001:000016a0       ?begin@?$_Tree@V?$_Tmap_traits@VName@Imf@@USlice@2@U?$less@VName@Imf@@@std@@V?$allocator@U?$pair@$$CBVName@Imf@@USlice@2@@std@@@5@$0A@@std@@@std@@QAE?AV?$_Tree_iterator@V?$_Tree_val@V?$_Tmap_traits@VName@Imf@@USlice@2@U?$less@VName@Imf@@@std@@V?$allocator@U?$pair@$$CBVName@Imf@@USlice@2@@std@@@5@$0A@@std@@@std@@@2@XZ 100026a0 f i ImfFrameBuffer.obj
 0001:000016c0       ?_Eqrange@?$_Tree@V?$_Tmap_traits@PBDP6APAVAttribute@Imf@@XZUNameCompare@?A0x0779e1ad@2@V?$allocator@U?$pair@QBDP6APAVAttribute@Imf@@XZ@std@@@std@@$0A@@std@@@std@@IAE?AU?$pair@V?$_Tree_iterator@V?$_Tree_val@V?$_Tmap_traits@PBDP6APAVAttribute@Imf@@XZUNameCompare@?A0x0779e1ad@2@V?$allocator@U?$pair@QBDP6APAVAttribute@Imf@@XZ@std@@@std@@$0A@@std@@@std@@@std@@V12@@2@ABQBD@Z 100026c0 f i ImfAttribute.obj
 0001:000017f0       ?_Lbound@?$_Tree@V?$_Tmap_traits@PBDP6APAVAttribute@Imf@@XZUNameCompare@?A0x0779e1ad@2@V?$allocator@U?$pair@QBDP6APAVAttribute@Imf@@XZ@std@@@std@@$0A@@std@@@std@@IAEPAU_Node@?$_Tree_nod@V?$_Tmap_traits@PBDP6APAVAttribute@Imf@@XZUNameCompare@?A0x0779e1ad@2@V?$allocator@U?$pair@QBDP6APAVAttribute@Imf@@XZ@std@@@std@@$0A@@std@@@2@ABQBD@Z 100027f0 f i ImfAttribute.obj
 0001:00001850       ??E?$_Tree_const_iterator@V?$_Tree_val@V?$_Tmap_traits@PBDP6APAVAttribute@Imf@@XZUNameCompare@?A0x0779e1ad@2@V?$allocator@U?$pair@QBDP6APAVAttribute@Imf@@XZ@std@@@std@@$0A@@std@@@std@@@std@@QAE?AV01@H@Z 10002850 f i ImfAttribute.obj
 0001:00001870       ?_Copy@?$basic_string@DU?$char_traits@D@std@@V?$allocator@D@2@@std@@QAEXII@Z 10002870 f i ImfAttribute.obj
 0001:000019e0       ?_Lrotate@?$_Tree@V?$_Tmap_traits@PBDP6APAVAttribute@Imf@@XZUNameCompare@?A0x0779e1ad@2@V?$allocator@U?$pair@QBDP6APAVAttribute@Imf@@XZ@std@@@std@@$0A@@std@@@std@@IAEXPAU_Node@?$_Tree_nod@V?$_Tmap_traits@PBDP6APAVAttribute@Imf@@XZUNameCompare@?A0x0779e1ad@2@V?$allocator@U?$pair@QBDP6APAVAttribute@Imf@@XZ@std@@@std@@$0A@@std@@@2@@Z 100029e0 f i ImfAttribute.obj
 0001:00001a40       ?writeValueTo@?$TypedAttribute@M@Imf@@UBEXAAVOStream@2@H@Z 10002a40 f i ImfAttribute.obj
 0001:00001a80       ?readValueFrom@?$TypedAttribute@M@Imf@@UAEXAAVIStream@2@HH@Z 10002a80 f i ImfAttribute.obj
 0001:00001ad0       ?copyValueFrom@?$TypedAttribute@M@Imf@@UAEXABVAttribute@2@@Z 10002ad0 f i ImfAttribute.obj
 0001:00001b40       ?writeValueTo@?$TypedAttribute@N@Imf@@UBEXAAVOStream@2@H@Z 10002b40 f i ImfAttribute.obj
 0001:00001b60       ?readValueFrom@?$TypedAttribute@N@Imf@@UAEXAAVIStream@2@HH@Z 10002b60 f i ImfAttribute.obj
 0001:00001b80       ?copyValueFrom@?$TypedAttribute@N@Imf@@UAEXABVAttribute@2@@Z 10002b80 f i ImfAttribute.obj
 0001:00001bf0       ?_Insert@?$_Tree@V?$_Tmap_traits@PBDP6APAVAttribute@Imf@@XZUNameCompare@?A0x0779e1ad@2@V?$allocator@U?$pair@QBDP6APAVAttribute@Imf@@XZ@std@@@std@@$0A@@std@@@std@@IAE?AV?$_Tree_iterator@V?$_Tree_val@V?$_Tmap_traits@PBDP6APAVAttribute@Imf@@XZUNameCompare@?A0x0779e1ad@2@V?$allocator@U?$pair@QBDP6APAVAttribute@Imf@@XZ@std@@@std@@$0A@@std@@@std@@@2@_NPAU_Node@?$_Tree_nod@V?$_Tmap_traits@PBDP6APAVAttribute@Imf@@XZUNameCompare@?A0x0779e1ad@2@V?$allocator@U?$pair@QBDP6APAVAttribute@Imf@@XZ@std@@@std@@$0A@@std@@@2@1@Z 10002bf0 f i ImfAttribute.obj
 0001:00001e20       ??F?$_Tree_iterator@V?$_Tree_val@V?$_Tmap_traits@PBDP6APAVAttribute@Imf@@XZUNameCompare@?A0x0779e1ad@2@V?$allocator@U?$pair@QBDP6APAVAttribute@Imf@@XZ@std@@@std@@$0A@@std@@@std@@@std@@QAEAAV01@XZ 10002e20 f i ImfAttribute.obj
 0001:00001e20       ??F?$_Tree_const_iterator@V?$_Tree_val@V?$_Tmap_traits@PBDP6APAVAttribute@Imf@@XZUNameCompare@?A0x0779e1ad@2@V?$allocator@U?$pair@QBDP6APAVAttribute@Imf@@XZ@std@@@std@@$0A@@std@@@std@@@std@@QAEAAV01@XZ 10002e20 f i ImfAttribute.obj
 0001:00001e30       ??$_Distance2@V?$_Tree_iterator@V?$_Tree_val@V?$_Tmap_traits@PBDP6APAVAttribute@Imf@@XZUNameCompare@?A0x0779e1ad@2@V?$allocator@U?$pair@QBDP6APAVAttribute@Imf@@XZ@std@@@std@@$0A@@std@@@std@@@std@@I@std@@YAXV?$_Tree_iterator@V?$_Tree_val@V?$_Tmap_traits@PBDP6APAVAttribute@Imf@@XZUNameCompare@?A0x0779e1ad@2@V?$allocator@U?$pair@QBDP6APAVAttribute@Imf@@XZ@std@@@std@@$0A@@std@@@std@@@0@0AAIUbidirectional_iterator_tag@0@@Z 10002e30 f i ImfAttribute.obj
 0001:00001ea0       ??$?0QBDP6APAVAttribute@Imf@@XZ@?$pair@QBDP6APAVAttribute@Imf@@XZ@std@@QAE@$$QAU01@@Z 10002ea0 f i ImfAttribute.obj
 0001:00001ea0       ??4TimeCode@Imf@@QAEAAV01@ABV01@@Z 10002ea0 f i ImfTimeCode.obj
 0001:00001ea0       ??0?$Vec2@H@Imath@@QAE@ABV01@@Z 10002ea0 f i ImfB44Compressor.obj
 0001:00001ea0       ??4?$Vec2@H@Imath@@QAEABV01@ABV01@@Z 10002ea0 f i ImfB44Compressor.obj
 0001:00001ea0       ??0TimeCode@Imf@@QAE@ABV01@@Z 10002ea0 f i ImfTimeCode.obj
 0001:00001ec0       ??_D?$basic_stringstream@DU?$char_traits@D@std@@V?$allocator@D@2@@std@@QAEXXZ 10002ec0 f i ImfAttribute.obj
 0001:00001f60       ??0?$basic_stringstream@DU?$char_traits@D@std@@V?$allocator@D@2@@std@@QAE@H@Z 10002f60 f i ImfAttribute.obj
 0001:00002040       ??_E?$basic_stringstream@DU?$char_traits@D@std@@V?$allocator@D@2@@std@@UAEPAXI@Z 10003040 f i ImfAttribute.obj
 0001:00002040       ??_G?$basic_stringstream@DU?$char_traits@D@std@@V?$allocator@D@2@@std@@UAEPAXI@Z 10003040 f i ImfAttribute.obj
 0001:00002070       ??0?$_Tree@V?$_Tmap_traits@PBDP6APAVAttribute@Imf@@XZUNameCompare@?A0x0779e1ad@2@V?$allocator@U?$pair@QBDP6APAVAttribute@Imf@@XZ@std@@@std@@$0A@@std@@@std@@QAE@ABUNameCompare@?A0x0779e1ad@Imf@@ABV?$allocator@U?$pair@QBDP6APAVAttribute@Imf@@XZ@std@@@1@@Z 10003070 f i ImfAttribute.obj
 0001:00002070       ??0?$_Tree_val@V?$_Tmap_traits@PBDP6APAVAttribute@Imf@@XZUNameCompare@?A0x0779e1ad@2@V?$allocator@U?$pair@QBDP6APAVAttribute@Imf@@XZ@std@@@std@@$0A@@std@@@std@@QAE@ABUNameCompare@?A0x0779e1ad@Imf@@V?$allocator@U?$pair@QBDP6APAVAttribute@Imf@@XZ@std@@@1@@Z 10003070 f i ImfAttribute.obj
 0001:000020e0       ?lower_bound@?$_Tree@V?$_Tmap_traits@PBDP6APAVAttribute@Imf@@XZUNameCompare@?A0x0779e1ad@2@V?$allocator@U?$pair@QBDP6APAVAttribute@Imf@@XZ@std@@@std@@$0A@@std@@@std@@QAE?AV?$_Tree_iterator@V?$_Tree_val@V?$_Tmap_traits@PBDP6APAVAttribute@Imf@@XZUNameCompare@?A0x0779e1ad@2@V?$allocator@U?$pair@QBDP6APAVAttribute@Imf@@XZ@std@@@std@@$0A@@std@@@std@@@2@ABQBD@Z 100030e0 f i ImfAttribute.obj
 0001:00002100       ?equal_range@?$_Tree@V?$_Tmap_traits@PBDP6APAVAttribute@Imf@@XZUNameCompare@?A0x0779e1ad@2@V?$allocator@U?$pair@QBDP6APAVAttribute@Imf@@XZ@std@@@std@@$0A@@std@@@std@@QAE?AU?$pair@V?$_Tree_iterator@V?$_Tree_val@V?$_Tmap_traits@PBDP6APAVAttribute@Imf@@XZUNameCompare@?A0x0779e1ad@2@V?$allocator@U?$pair@QBDP6APAVAttribute@Imf@@XZ@std@@@std@@$0A@@std@@@std@@@std@@V12@@2@ABQBD@Z 10003100 f i ImfAttribute.obj
 0001:00002120       ?_Grow@?$basic_string@DU?$char_traits@D@std@@V?$allocator@D@2@@std@@QAE_NI_N@Z 10003120 f i ImfAttribute.obj
 0001:000021d0       ?erase@?$_Tree@V?$_Tmap_traits@PBDP6APAVAttribute@Imf@@XZUNameCompare@?A0x0779e1ad@2@V?$allocator@U?$pair@QBDP6APAVAttribute@Imf@@XZ@std@@@std@@$0A@@std@@@std@@QAE?AV?$_Tree_iterator@V?$_Tree_val@V?$_Tmap_traits@PBDP6APAVAttribute@Imf@@XZUNameCompare@?A0x0779e1ad@2@V?$allocator@U?$pair@QBDP6APAVAttribute@Imf@@XZ@std@@@std@@$0A@@std@@@std@@@2@V?$_Tree_const_iterator@V?$_Tree_val@V?$_Tmap_traits@PBDP6APAVAttribute@Imf@@XZUNameCompare@?A0x0779e1ad@2@V?$allocator@U?$pair@QBDP6APAVAttribute@Imf@@XZ@std@@@std@@$0A@@std@@@std@@@2@@Z 100031d0 f i ImfAttribute.obj
 0001:00002430       ?_Erase@?$_Tree@V?$_Tmap_traits@PBDP6APAVAttribute@Imf@@XZUNameCompare@?A0x0779e1ad@2@V?$allocator@U?$pair@QBDP6APAVAttribute@Imf@@XZ@std@@@std@@$0A@@std@@@std@@IAEXPAU_Node@?$_Tree_nod@V?$_Tmap_traits@PBDP6APAVAttribute@Imf@@XZUNameCompare@?A0x0779e1ad@2@V?$allocator@U?$pair@QBDP6APAVAttribute@Imf@@XZ@std@@@std@@$0A@@std@@@2@@Z 10003430 f i ImfAttribute.obj
 0001:00002470       ??0?$TypedAttribute@M@Imf@@QAE@ABV01@@Z 10003470 f i ImfAttribute.obj
 0001:00002520       ??0?$TypedAttribute@N@Imf@@QAE@ABV01@@Z 10003520 f i ImfAttribute.obj
 0001:000025d0       ??$_Distance@V?$_Tree_iterator@V?$_Tree_val@V?$_Tmap_traits@PBDP6APAVAttribute@Imf@@XZUNameCompare@?A0x0779e1ad@2@V?$allocator@U?$pair@QBDP6APAVAttribute@Imf@@XZ@std@@@std@@$0A@@std@@@std@@@std@@I@std@@YAXV?$_Tree_iterator@V?$_Tree_val@V?$_Tmap_traits@PBDP6APAVAttribute@Imf@@XZUNameCompare@?A0x0779e1ad@2@V?$allocator@U?$pair@QBDP6APAVAttribute@Imf@@XZ@std@@@std@@$0A@@std@@@std@@@0@0AAI@Z 100035d0 f i ImfAttribute.obj
 0001:000025f0       ?_Linsert@?$_Tree@V?$_Tmap_traits@PBDP6APAVAttribute@Imf@@XZUNameCompare@?A0x0779e1ad@2@V?$allocator@U?$pair@QBDP6APAVAttribute@Imf@@XZ@std@@@std@@$0A@@std@@@std@@QAE?AU?$pair@V?$_Tree_iterator@V?$_Tree_val@V?$_Tmap_traits@PBDP6APAVAttribute@Imf@@XZUNameCompare@?A0x0779e1ad@2@V?$allocator@U?$pair@QBDP6APAVAttribute@Imf@@XZ@std@@@std@@$0A@@std@@@std@@@std@@_N@2@PAU_Node@?$_Tree_nod@V?$_Tmap_traits@PBDP6APAVAttribute@Imf@@XZUNameCompare@?A0x0779e1ad@2@V?$allocator@U?$pair@QBDP6APAVAttribute@Imf@@XZ@std@@@std@@$0A@@std@@@2@_N@Z 100035f0 f i ImfAttribute.obj
 0001:00002750       ?find@?$_Tree@V?$_Tmap_traits@PBDP6APAVAttribute@Imf@@XZUNameCompare@?A0x0779e1ad@2@V?$allocator@U?$pair@QBDP6APAVAttribute@Imf@@XZ@std@@@std@@$0A@@std@@@std@@QAE?AV?$_Tree_iterator@V?$_Tree_val@V?$_Tmap_traits@PBDP6APAVAttribute@Imf@@XZUNameCompare@?A0x0779e1ad@2@V?$allocator@U?$pair@QBDP6APAVAttribute@Imf@@XZ@std@@@std@@$0A@@std@@@std@@@2@ABQBD@Z 10003750 f i ImfAttribute.obj
 0001:000027c0       ?assign@?$basic_string@DU?$char_traits@D@std@@V?$allocator@D@2@@std@@QAEAAV12@ABV12@II@Z 100037c0 f i ImfAttribute.obj
 0001:000028b0       ?clear@?$_Tree@V?$_Tmap_traits@PBDP6APAVAttribute@Imf@@XZUNameCompare@?A0x0779e1ad@2@V?$allocator@U?$pair@QBDP6APAVAttribute@Imf@@XZ@std@@@std@@$0A@@std@@@std@@QAEXXZ 100038b0 f i ImfAttribute.obj
 0001:00002900       ??0?$basic_string@DU?$char_traits@D@std@@V?$allocator@D@2@@std@@QAE@ABV01@@Z 10003900 f i ImfAttribute.obj
 0001:00002930       ?erase@?$_Tree@V?$_Tmap_traits@PBDP6APAVAttribute@Imf@@XZUNameCompare@?A0x0779e1ad@2@V?$allocator@U?$pair@QBDP6APAVAttribute@Imf@@XZ@std@@@std@@$0A@@std@@@std@@QAE?AV?$_Tree_iterator@V?$_Tree_val@V?$_Tmap_traits@PBDP6APAVAttribute@Imf@@XZUNameCompare@?A0x0779e1ad@2@V?$allocator@U?$pair@QBDP6APAVAttribute@Imf@@XZ@std@@@std@@$0A@@std@@@std@@@2@V?$_Tree_const_iterator@V?$_Tree_val@V?$_Tmap_traits@PBDP6APAVAttribute@Imf@@XZUNameCompare@?A0x0779e1ad@2@V?$allocator@U?$pair@QBDP6APAVAttribute@Imf@@XZ@std@@@std@@$0A@@std@@@std@@@2@0@Z 10003930 f i ImfAttribute.obj
 0001:000029d0       ?_Tidy@?$_Tree@V?$_Tmap_traits@PBDP6APAVAttribute@Imf@@XZUNameCompare@?A0x0779e1ad@2@V?$allocator@U?$pair@QBDP6APAVAttribute@Imf@@XZ@std@@@std@@$0A@@std@@@std@@IAEXXZ 100039d0 f i ImfAttribute.obj
 0001:000029f0       ??$_Buynode@U?$pair@QBDP6APAVAttribute@Imf@@XZ@std@@@?$_Tree_val@V?$_Tmap_traits@PBDP6APAVAttribute@Imf@@XZUNameCompare@?A0x0779e1ad@2@V?$allocator@U?$pair@QBDP6APAVAttribute@Imf@@XZ@std@@@std@@$0A@@std@@@std@@QAEPAU_Node@?$_Tree_nod@V?$_Tmap_traits@PBDP6APAVAttribute@Imf@@XZUNameCompare@?A0x0779e1ad@2@V?$allocator@U?$pair@QBDP6APAVAttribute@Imf@@XZ@std@@@std@@$0A@@std@@@1@$$QAU?$pair@QBDP6APAVAttribute@Imf@@XZ@1@@Z 100039f0 f i ImfAttribute.obj
 0001:00002a60       ??1?$_Tree@V?$_Tmap_traits@PBDP6APAVAttribute@Imf@@XZUNameCompare@?A0x0779e1ad@2@V?$allocator@U?$pair@QBDP6APAVAttribute@Imf@@XZ@std@@@std@@$0A@@std@@@std@@QAE@XZ 10003a60 f i ImfAttribute.obj
 0001:00002a60       ??1?$map@PBDP6APAVAttribute@Imf@@XZUNameCompare@?A0x0779e1ad@2@V?$allocator@U?$pair@QBDP6APAVAttribute@Imf@@XZ@std@@@std@@@std@@QAE@XZ 10003a60 f i ImfAttribute.obj
 0001:00002ac0       ?erase@?$_Tree@V?$_Tmap_traits@PBDP6APAVAttribute@Imf@@XZUNameCompare@?A0x0779e1ad@2@V?$allocator@U?$pair@QBDP6APAVAttribute@Imf@@XZ@std@@@std@@$0A@@std@@@std@@QAEIABQBD@Z 10003ac0 f i ImfAttribute.obj
 0001:00002b20       ??$insert@U?$pair@QBDP6APAVAttribute@Imf@@XZ@std@@@?$_Tree@V?$_Tmap_traits@PBDP6APAVAttribute@Imf@@XZUNameCompare@?A0x0779e1ad@2@V?$allocator@U?$pair@QBDP6APAVAttribute@Imf@@XZ@std@@@std@@$0A@@std@@@std@@QAE?AU?$pair@V?$_Tree_iterator@V?$_Tree_val@V?$_Tmap_traits@PBDP6APAVAttribute@Imf@@XZUNameCompare@?A0x0779e1ad@2@V?$allocator@U?$pair@QBDP6APAVAttribute@Imf@@XZ@std@@@std@@$0A@@std@@@std@@@std@@_N@1@$$QAU?$pair@QBDP6APAVAttribute@Imf@@XZ@1@@Z 10003b20 f i ImfAttribute.obj
 0001:00002b50       ??0?$map@PBDP6APAVAttribute@Imf@@XZUNameCompare@?A0x0779e1ad@2@V?$allocator@U?$pair@QBDP6APAVAttribute@Imf@@XZ@std@@@std@@@std@@QAE@XZ 10003b50 f i ImfAttribute.obj
 0001:00002bc0       ??0LockedTypeMap@?A0x0779e1ad@Imf@@QAE@XZ 10003bc0 f i ImfAttribute.obj
 0001:00002c70       ?typeMap@?A0x0779e1ad@Imf@@YAAAVLockedTypeMap@12@XZ 10003c70 f   ImfAttribute.obj
 0001:00002d40       ?knownType@Attribute@Imf@@SA_NQBD@Z 10003d40 f   ImfAttribute.obj
 0001:00002d80       ?registerAttributeType@Attribute@Imf@@KAXQBDP6APAV12@XZ@Z 10003d80 f   ImfAttribute.obj
 0001:00002f20       ??0ArgExc@Iex@@QAE@ABV01@@Z 10003f20 f i ImfAttribute.obj
 0001:00002f40       ?unRegisterAttributeType@Attribute@Imf@@KAXQBD@Z 10003f40 f   ImfAttribute.obj
 0001:00002fd0       ?newAttribute@Attribute@Imf@@SAPAV12@QBD@Z 10003fd0 f   ImfAttribute.obj
 0001:00003150       ?registerAttributeType@?$TypedAttribute@M@Imf@@SAXXZ 10004150 f i ImfAttribute.obj
 0001:00003170       ?unRegisterAttributeType@?$TypedAttribute@M@Imf@@SAXXZ 10004170 f i ImfAttribute.obj
 0001:00003200       ?registerAttributeType@?$TypedAttribute@N@Imf@@SAXXZ 10004200 f i ImfAttribute.obj
 0001:00003220       ?unRegisterAttributeType@?$TypedAttribute@N@Imf@@SAXXZ 10004220 f i ImfAttribute.obj
 0001:000032b0       ??0InputExc@Iex@@QAE@PBD@Z 100042b0 f i ImfB44Compressor.obj
 0001:000032d0       ??0MathExc@Iex@@QAE@PBD@Z  100042d0 f i ImfB44Compressor.obj
 0001:000032f0       ??0OverflowExc@Iex@@QAE@PBD@Z 100042f0 f i ImfB44Compressor.obj
 0001:00003310       ??1OverflowExc@Iex@@UAE@XZ 10004310 f i ImfB44Compressor.obj
 0001:00003310       ??1ErrnoExc@Iex@@UAE@XZ    10004310 f i ImfStdIO.obj
 0001:00003310       ??1SingMatrixExc@Imath@@UAE@XZ 10004310 f i ImfChromaticities.obj
 0001:00003310       ??1MathExc@Iex@@UAE@XZ     10004310 f i ImfB44Compressor.obj
 0001:00003310       ??1ArgExc@Iex@@UAE@XZ      10004310 f i ImfAttribute.obj
 0001:00003310       ??1IoExc@Iex@@UAE@XZ       10004310 f i ImfOutputFile.obj
 0001:00003310       ??1LogicExc@Iex@@UAE@XZ    10004310 f i ImfOutputFile.obj
 0001:00003310       ??1InputExc@Iex@@UAE@XZ    10004310 f i ImfB44Compressor.obj
 0001:00003310       ??1TypeExc@Iex@@UAE@XZ     10004310 f i ImfAttribute.obj
 0001:00003320       ?divp@Imath@@YAHHH@Z       10004320 f i ImfB44Compressor.obj
 0001:00003360       ?modp@Imath@@YAHHH@Z       10004360 f i ImfB44Compressor.obj
 0001:000033c0       ?writeChars@CharPtrIO@Imf@@SAXAAPADQBDH@Z 100043c0 f i ImfB44Compressor.obj
 0001:000033f0       ?readChars@CharPtrIO@Imf@@SA_NAAPBDQADH@Z 100043f0 f i ImfB44Compressor.obj
 0001:00003420       ?convertFromLinear@?A0xb36f0740@Imf@@YAXQAG@Z 10004420 f i ImfB44Compressor.obj
 0001:00003480       ?convertToLinear@?A0xb36f0740@Imf@@YAXQAG@Z 10004480 f i ImfB44Compressor.obj
 0001:000034e0       ?shiftAndRound@?A0xb36f0740@Imf@@YAHHH@Z 100044e0 f i ImfB44Compressor.obj
 0001:00003510       ?pack@?A0xb36f0740@Imf@@YAHQBGQAE_N2@Z 10004510 f   ImfB44Compressor.obj
 0001:00003870       ?unpack14@?A0xb36f0740@Imf@@YAXQBEQAG@Z 10004870 f i ImfB44Compressor.obj
 0001:00003b20       ?unpack3@?A0xb36f0740@Imf@@YAXQBEQAG@Z 10004b20 f i ImfB44Compressor.obj
 0001:00003b70       ?notEnoughData@?A0x2158812f@Imf@@YAXXZ 10004b70 f   ImfPxr24Compressor.obj
 0001:00003b70       ?notEnoughData@?A0xb36f0740@Imf@@YAXXZ 10004b70 f   ImfB44Compressor.obj
 0001:00003bb0       ??0InputExc@Iex@@QAE@ABV01@@Z 10004bb0 f i ImfB44Compressor.obj
 0001:00003bd0       ??1B44Compressor@Imf@@UAE@XZ 10004bd0 f   ImfB44Compressor.obj
 0001:00003c00       ?perfsPerFrame@KeyCode@Imf@@QBEHXZ 10004c00 f   ImfKeyCode.obj
 0001:00003c00       ?numScanLines@B44Compressor@Imf@@UBEHXZ 10004c00 f   ImfB44Compressor.obj
 0001:00003c10       ?_Isnil@?$_Tree_val@V?$_Tmap_traits@VName@Imf@@UChannel@2@U?$less@VName@Imf@@@std@@V?$allocator@U?$pair@$$CBVName@Imf@@UChannel@2@@std@@@5@$0A@@std@@@std@@SAAADPAU_Node@?$_Tree_nod@V?$_Tmap_traits@VName@Imf@@UChannel@2@U?$less@VName@Imf@@@std@@V?$allocator@U?$pair@$$CBVName@Imf@@UChannel@2@@std@@@5@$0A@@std@@@2@@Z 10004c10 f i ImfB44Compressor.obj
 0001:00003c20       ??0?$Vec2@H@Imath@@QAE@HH@Z 10004c20 f i ImfB44Compressor.obj
 0001:00003c20       ??0Rational@Imf@@QAE@HH@Z  10004c20 f i ImfFramesPerSecond.obj
 0001:00003c40       ??$uiMult@I@Imf@@YAIII@Z   10004c40 f i ImfB44Compressor.obj
 0001:00003ca0       ??$checkArraySize@I@Imf@@YAIII@Z 10004ca0 f i ImfB44Compressor.obj
 0001:00003d00       ??$uiAdd@I@Imf@@YAIII@Z    10004d00 f i ImfB44Compressor.obj
 0001:00003d60       ??$min@H@std@@YAABHABH0@Z  10004d60 f i ImfB44Compressor.obj
 0001:00003d80       ??0MathExc@Iex@@QAE@ABV01@@Z 10004d80 f i ImfB44Compressor.obj
 0001:00003da0       ??$write@UCharPtrIO@Imf@@PAD@Xdr@Imf@@YAXAAPADQBDH@Z 10004da0 f i ImfPizCompressor.obj
 0001:00003da0       ??$writeSignedChars@UCharPtrIO@Imf@@PAD@Xdr@Imf@@YAXAAPADQBCH@Z 10004da0 f i ImfPizCompressor.obj
 0001:00003da0       ??$writeUnsignedChars@UCharPtrIO@Imf@@PAD@Xdr@Imf@@YAXAAPADQBEH@Z 10004da0 f i ImfB44Compressor.obj
 0001:00003dd0       ??8Imf@@YA_NABVConstIterator@Header@0@0@Z 10004dd0 f i ImfCRgbaFile.obj
 0001:00003dd0       ?eq_int_type@?$char_traits@D@std@@SA_NABH0@Z 10004dd0 f i ImfAttribute.obj
 0001:00003dd0       ??8Imf@@YA_NABVConstIterator@ChannelList@0@0@Z 10004dd0 f i ImfB44Compressor.obj
 0001:00003dd0       ??8Imf@@YA_NABVConstIterator@FrameBuffer@0@0@Z 10004dd0 f i ImfInputFile.obj
 0001:00003df0       ??9Imf@@YA_NABVConstIterator@ChannelList@0@0@Z 10004df0 f i ImfB44Compressor.obj
 0001:00003df0       ??9Imf@@YA_NABVConstIterator@FrameBuffer@0@0@Z 10004df0 f i ImfInputFile.obj
 0001:00003df0       ??9Imf@@YA_NABVConstIterator@Header@0@0@Z 10004df0 f i ImfHeader.obj
 0001:00003e10       ??_EB44Compressor@Imf@@UAEPAXI@Z 10004e10 f i ImfB44Compressor.obj
 0001:00003e10       ??_GB44Compressor@Imf@@UAEPAXI@Z 10004e10 f i ImfB44Compressor.obj
 0001:00003e60       ??4?$Box@V?$Vec2@H@Imath@@@Imath@@QAEAAV01@ABV01@@Z 10004e60 f i ImfCRgbaFile.obj
 0001:00003e60       ??0?$Box@V?$Vec2@H@Imath@@@Imath@@QAE@ABV01@@Z 10004e60 f i ImfB44Compressor.obj
 0001:00003e90       ?_Min@?$_Tree_val@V?$_Tmap_traits@VName@Imf@@UChannel@2@U?$less@VName@Imf@@@std@@V?$allocator@U?$pair@$$CBVName@Imf@@UChannel@2@@std@@@5@$0A@@std@@@std@@SAPAU_Node@?$_Tree_nod@V?$_Tmap_traits@VName@Imf@@UChannel@2@U?$less@VName@Imf@@@std@@V?$allocator@U?$pair@$$CBVName@Imf@@UChannel@2@@std@@@5@$0A@@std@@@2@PAU342@@Z 10004e90 f i ImfB44Compressor.obj
 0001:00003eb0       ??0?$Box@V?$Vec2@H@Imath@@@Imath@@QAE@ABV?$Vec2@H@1@0@Z 10004eb0 f i ImfB44Compressor.obj
 0001:00003ee0       ??$write@UCharPtrIO@Imf@@PAD@Xdr@Imf@@YAXAAPADG@Z 10004ee0 f i ImfB44Compressor.obj
 0001:00003f10       ??0OverflowExc@Iex@@QAE@ABV01@@Z 10004f10 f i ImfB44Compressor.obj
 0001:00003f30       ??E?$_Tree_unchecked_const_iterator@V?$_Tree_val@V?$_Tmap_traits@VName@Imf@@UChannel@2@U?$less@VName@Imf@@@std@@V?$allocator@U?$pair@$$CBVName@Imf@@UChannel@2@@std@@@5@$0A@@std@@@std@@U_Iterator_base0@2@@std@@QAEAAV01@XZ 10004f30 f i ImfB44Compressor.obj
 0001:00003f90       ?channel@ConstIterator@ChannelList@Imf@@QBEABUChannel@3@XZ 10004f90 f i ImfB44Compressor.obj
 0001:00003fa0       ??0B44Compressor@Imf@@QAE@ABVHeader@1@II_N@Z 10004fa0 f   ImfB44Compressor.obj
 0001:000043e0       ?compress@B44Compressor@Imf@@AAEHPBDHV?$Box@V?$Vec2@H@Imath@@@Imath@@AAPBD@Z 100053e0 f   ImfB44Compressor.obj
 0001:00004850       ?uncompress@B44Compressor@Imf@@AAEHPBDHV?$Box@V?$Vec2@H@Imath@@@Imath@@AAPBD@Z 10005850 f   ImfB44Compressor.obj
 0001:00004d70       ?compress@B44Compressor@Imf@@UAEHPBDHHAAPBD@Z 10005d70 f   ImfB44Compressor.obj
 0001:00004dc0       ?compressTile@B44Compressor@Imf@@UAEHPBDHV?$Box@V?$Vec2@H@Imath@@@Imath@@AAPBD@Z 10005dc0 f   ImfB44Compressor.obj
 0001:00004e00       ?uncompress@B44Compressor@Imf@@UAEHPBDHHAAPBD@Z 10005e00 f   ImfB44Compressor.obj
 0001:00004e50       ?uncompressTile@B44Compressor@Imf@@UAEHPBDHV?$Box@V?$Vec2@H@Imath@@@Imath@@AAPBD@Z 10005e50 f   ImfB44Compressor.obj
 0001:00004e90       ?staticTypeName@?$TypedAttribute@V?$Box@V?$Vec2@H@Imath@@@Imath@@@Imf@@SAPBDXZ 10005e90 f   ImfBoxAttribute.obj
 0001:00004ea0       ?staticTypeName@?$TypedAttribute@V?$Box@V?$Vec2@M@Imath@@@Imath@@@Imf@@SAPBDXZ 10005ea0 f   ImfBoxAttribute.obj
 0001:00004eb0       ??$writeSignedChars@UStreamIO@Imf@@VOStream@2@@Xdr@Imf@@YAXAAVOStream@1@QBCH@Z 10005eb0 f i ImfBoxAttribute.obj
 0001:00004eb0       ??$writeUnsignedChars@UStreamIO@Imf@@VOStream@2@@Xdr@Imf@@YAXAAVOStream@1@QBEH@Z 10005eb0 f i ImfAttribute.obj
 0001:00004eb0       ?writeChars@StreamIO@Imf@@SAXAAVOStream@2@QBDH@Z 10005eb0 f i ImfAttribute.obj
 0001:00004eb0       ??$write@UStreamIO@Imf@@VOStream@2@@Xdr@Imf@@YAXAAVOStream@1@QBDH@Z 10005eb0 f i ImfOpaqueAttribute.obj
 0001:00004ed0       ??$readSignedChars@UStreamIO@Imf@@VIStream@2@@Xdr@Imf@@YAXAAVIStream@1@QACH@Z 10005ed0 f i ImfBoxAttribute.obj
 0001:00004ed0       ??$readSignedChars@UStreamIO@Imf@@VStdIFStream@2@@Xdr@Imf@@YAXAAVStdIFStream@1@QACH@Z 10005ed0 f i ImfTestFile.obj
 0001:00004ed0       ??$read@UStreamIO@Imf@@VIStream@2@@Xdr@Imf@@YAXAAVIStream@1@QADH@Z 10005ed0 f i ImfOpaqueAttribute.obj
 0001:00004ed0       ??$readUnsignedChars@UStreamIO@Imf@@VIStream@2@@Xdr@Imf@@YAXAAVIStream@1@QAEH@Z 10005ed0 f i ImfAttribute.obj
 0001:00004ed0       ?readChars@StreamIO@Imf@@SA_NAAVIStream@2@QADH@Z 10005ed0 f i ImfAttribute.obj
 0001:00004ef0       ??$write@UStreamIO@Imf@@VOStream@2@@Xdr@Imf@@YAXAAVOStream@1@H@Z 10005ef0 f i ImfBoxAttribute.obj
 0001:00004f30       ?writeValueTo@?$TypedAttribute@V?$Box@V?$Vec2@H@Imath@@@Imath@@@Imf@@UBEXAAVOStream@2@H@Z 10005f30 f   ImfBoxAttribute.obj
 0001:00004ff0       ?readValueFrom@?$TypedAttribute@V?$Box@V?$Vec2@H@Imath@@@Imath@@@Imf@@UAEXAAVIStream@2@HH@Z 10005ff0 f   ImfBoxAttribute.obj
 0001:000050d0       ?writeValueTo@?$TypedAttribute@V?$Box@V?$Vec2@M@Imath@@@Imath@@@Imf@@UBEXAAVOStream@2@H@Z 100060d0 f   ImfBoxAttribute.obj
 0001:000051c0       ?readValueFrom@?$TypedAttribute@V?$Box@V?$Vec2@M@Imath@@@Imath@@@Imf@@UAEXAAVIStream@2@HH@Z 100061c0 f   ImfBoxAttribute.obj
 0001:000052c0       ??4Name@Imf@@QAEAAV01@QBD@Z 100062c0 f i ImfChannelList.obj
 0001:000052e0       ??0Name@Imf@@QAE@QBD@Z     100062e0 f i ImfChannelList.obj
 0001:00005310       ??MImf@@YA_NABVName@0@0@Z  10006310 f i ImfChannelList.obj
 0001:00005360       ?compare@?$char_traits@D@std@@SAHPBD0I@Z 10006360 f i ImfChannelList.obj
 0001:000053e0       ?assign@?$char_traits@D@std@@SAPADPADID@Z 100063e0 f i ImfChannelList.obj
 0001:00005400       ??0Channel@Imf@@QAE@W4PixelType@1@HH_N@Z 10006400 f   ImfChannelList.obj
 0001:00005420       ??8Channel@Imf@@QBE_NABU01@@Z 10006420 f   ImfChannelList.obj
 0001:00005460       ?_Inside@?$basic_string@DU?$char_traits@D@std@@V?$allocator@D@2@@std@@QAE_NPBD@Z 10006460 f i ImfChannelList.obj
 0001:000054a0       ?_Isnil@?$_Tree_val@V?$_Tset_traits@V?$basic_string@DU?$char_traits@D@std@@V?$allocator@D@2@@std@@U?$less@V?$basic_string@DU?$char_traits@D@std@@V?$allocator@D@2@@std@@@2@V?$allocator@V?$basic_string@DU?$char_traits@D@std@@V?$allocator@D@2@@std@@@2@$0A@@std@@@std@@SAAADPAU_Node@?$_Tree_nod@V?$_Tset_traits@V?$basic_string@DU?$char_traits@D@std@@V?$allocator@D@2@@std@@U?$less@V?$basic_string@DU?$char_traits@D@std@@V?$allocator@D@2@@std@@@2@V?$allocator@V?$basic_string@DU?$char_traits@D@std@@V?$allocator@D@2@@std@@@2@$0A@@std@@@2@@Z 100064a0 f i ImfChannelList.obj
 0001:000054b0       ?_Chassign@?$basic_string@DU?$char_traits@D@std@@V?$allocator@D@2@@std@@QAEXIID@Z 100064b0 f i ImfChannelList.obj
 0001:000054f0       ?_Color@?$_Tree_val@V?$_Tmap_traits@VName@Imf@@UChannel@2@U?$less@VName@Imf@@@std@@V?$allocator@U?$pair@$$CBVName@Imf@@UChannel@2@@std@@@5@$0A@@std@@@std@@SAAADPAU_Node@?$_Tree_nod@V?$_Tmap_traits@VName@Imf@@UChannel@2@U?$less@VName@Imf@@@std@@V?$allocator@U?$pair@$$CBVName@Imf@@UChannel@2@@std@@@5@$0A@@std@@@2@@Z 100064f0 f i ImfChannelList.obj
 0001:00005500       ?deallocate@?$allocator@PAUTileBuffer@?A0x39e5c904@Imf@@@std@@QAEXPAPAUTileBuffer@?A0x39e5c904@Imf@@I@Z 10006500 f i ImfTiledOutputFile.obj
 0001:00005500       ?deallocate@?$allocator@UTInSliceInfo@?A0xf6fcebb6@Imf@@@std@@QAEXPAUTInSliceInfo@?A0xf6fcebb6@Imf@@I@Z 10006500 f i ImfTiledInputFile.obj
 0001:00005500       ?deallocate@?$allocator@UInSliceInfo@?A0xcbf8ace6@Imf@@@std@@QAEXPAUInSliceInfo@?A0xcbf8ace6@Imf@@I@Z 10006500 f i ImfScanLineInputFile.obj
 0001:00005500       ?deallocate@?$allocator@V?$vector@_KV?$allocator@_K@std@@@std@@@std@@QAEXPAV?$vector@_KV?$allocator@_K@std@@@2@I@Z 10006500 f i ImfTiledInputFile.obj
 0001:00005500       ?deallocate@?$allocator@UOutSliceInfo@?A0xf57f9ec6@Imf@@@std@@QAEXPAUOutSliceInfo@?A0xf57f9ec6@Imf@@I@Z 10006500 f i ImfOutputFile.obj
 0001:00005500       ?deallocate@?$allocator@_K@std@@QAEXPA_KI@Z 10006500 f i ImfOutputFile.obj
 0001:00005500       ?deallocate@?$allocator@U_Node@?$_Tree_nod@V?$_Tset_traits@V?$basic_string@DU?$char_traits@D@std@@V?$allocator@D@2@@std@@U?$less@V?$basic_string@DU?$char_traits@D@std@@V?$allocator@D@2@@std@@@2@V?$allocator@V?$basic_string@DU?$char_traits@D@std@@V?$allocator@D@2@@std@@@2@$0A@@std@@@std@@@std@@QAEXPAU_Node@?$_Tree_nod@V?$_Tset_traits@V?$basic_string@DU?$char_traits@D@std@@V?$allocator@D@2@@std@@U?$less@V?$basic_string@DU?$char_traits@D@std@@V?$allocator@D@2@@std@@@2@V?$allocator@V?$basic_string@DU?$char_traits@D@std@@V?$allocator@D@2@@std@@@2@$0A@@std@@@2@I@Z 10006500 f i ImfChannelList.obj
 0001:00005500       ?deallocate@?$allocator@U_Node@?$_Tree_nod@V?$_Tmap_traits@PBDP6APAVAttribute@Imf@@XZUNameCompare@?A0x0779e1ad@2@V?$allocator@U?$pair@QBDP6APAVAttribute@Imf@@XZ@std@@@std@@$0A@@std@@@std@@@std@@QAEXPAU_Node@?$_Tree_nod@V?$_Tmap_traits@PBDP6APAVAttribute@Imf@@XZUNameCompare@?A0x0779e1ad@2@V?$allocator@U?$pair@QBDP6APAVAttribute@Imf@@XZ@std@@@std@@$0A@@std@@@2@I@Z 10006500 f i ImfAttribute.obj
 0001:00005500       ?deallocate@?$allocator@U_Node@?$_Tree_nod@V?$_Tmap_traits@VName@Imf@@USlice@2@U?$less@VName@Imf@@@std@@V?$allocator@U?$pair@$$CBVName@Imf@@USlice@2@@std@@@5@$0A@@std@@@std@@@std@@QAEXPAU_Node@?$_Tree_nod@V?$_Tmap_traits@VName@Imf@@USlice@2@U?$less@VName@Imf@@@std@@V?$allocator@U?$pair@$$CBVName@Imf@@USlice@2@@std@@@5@$0A@@std@@@2@I@Z 10006500 f i ImfFrameBuffer.obj
 0001:00005500       ?deallocate@?$allocator@U_Node@?$_Tree_nod@V?$_Tmap_traits@VName@Imf@@UChannel@2@U?$less@VName@Imf@@@std@@V?$allocator@U?$pair@$$CBVName@Imf@@UChannel@2@@std@@@5@$0A@@std@@@std@@@std@@QAEXPAU_Node@?$_Tree_nod@V?$_Tmap_traits@VName@Imf@@UChannel@2@U?$less@VName@Imf@@@std@@V?$allocator@U?$pair@$$CBVName@Imf@@UChannel@2@@std@@@5@$0A@@std@@@2@I@Z 10006500 f i ImfChannelList.obj
 0001:00005500       ?deallocate@?$allocator@D@std@@QAEXPADI@Z 10006500 f i ImfAttribute.obj
 0001:00005500       ?deallocate@?$allocator@PAULineBuffer@?A0xcbf8ace6@Imf@@@std@@QAEXPAPAULineBuffer@?A0xcbf8ace6@Imf@@I@Z 10006500 f i ImfScanLineInputFile.obj
 0001:00005500       ?deallocate@?$allocator@V?$basic_string@DU?$char_traits@D@std@@V?$allocator@D@2@@std@@@std@@QAEXPAV?$basic_string@DU?$char_traits@D@std@@V?$allocator@D@2@@2@I@Z 10006500 f i ImfHeader.obj
 0001:00005500       ?deallocate@?$allocator@PAULineBuffer@?A0xf57f9ec6@Imf@@@std@@QAEXPAPAULineBuffer@?A0xf57f9ec6@Imf@@I@Z 10006500 f i ImfOutputFile.obj
 0001:00005500       ?deallocate@?$allocator@U_Node@?$_Tree_nod@V?$_Tmap_traits@UTileCoord@?A0x39e5c904@Imf@@PAUBufferedTile@23@U?$less@UTileCoord@?A0x39e5c904@Imf@@@std@@V?$allocator@U?$pair@$$CBUTileCoord@?A0x39e5c904@Imf@@PAUBufferedTile@23@@std@@@6@$0A@@std@@@std@@@std@@QAEXPAU_Node@?$_Tree_nod@V?$_Tmap_traits@UTileCoord@?A0x39e5c904@Imf@@PAUBufferedTile@23@U?$less@UTileCoord@?A0x39e5c904@Imf@@@std@@V?$allocator@U?$pair@$$CBUTileCoord@?A0x39e5c904@Imf@@PAUBufferedTile@23@@std@@@6@$0A@@std@@@2@I@Z 10006500 f i ImfTiledOutputFile.obj
 0001:00005500       ?deallocate@?$allocator@I@std@@QAEXPAII@Z 10006500 f i ImfMisc.obj
 0001:00005500       ?deallocate@?$allocator@UTOutSliceInfo@?A0x39e5c904@Imf@@@std@@QAEXPAUTOutSliceInfo@?A0x39e5c904@Imf@@I@Z 10006500 f i ImfTiledOutputFile.obj
 0001:00005500       ?deallocate@?$allocator@V?$vector@V?$vector@_KV?$allocator@_K@std@@@std@@V?$allocator@V?$vector@_KV?$allocator@_K@std@@@std@@@2@@std@@@std@@QAEXPAV?$vector@V?$vector@_KV?$allocator@_K@std@@@std@@V?$allocator@V?$vector@_KV?$allocator@_K@std@@@std@@@2@@2@I@Z 10006500 f i ImfTiledInputFile.obj
 0001:00005500       ?deallocate@?$allocator@U_Node@?$_Tree_nod@V?$_Tmap_traits@VName@Imf@@PAVAttribute@2@U?$less@VName@Imf@@@std@@V?$allocator@U?$pair@$$CBVName@Imf@@PAVAttribute@2@@std@@@5@$0A@@std@@@std@@@std@@QAEXPAU_Node@?$_Tree_nod@V?$_Tmap_traits@VName@Imf@@PAVAttribute@2@U?$less@VName@Imf@@@std@@V?$allocator@U?$pair@$$CBVName@Imf@@PAVAttribute@2@@std@@@5@$0A@@std@@@2@I@Z 10006500 f i ImfHeader.obj
 0001:00005500       ?deallocate@?$allocator@PAUTileBuffer@?A0xf6fcebb6@Imf@@@std@@QAEXPAPAUTileBuffer@?A0xf6fcebb6@Imf@@I@Z 10006500 f i ImfTiledInputFile.obj
 0001:00005520       ?_Color@?$_Tree_val@V?$_Tset_traits@V?$basic_string@DU?$char_traits@D@std@@V?$allocator@D@2@@std@@U?$less@V?$basic_string@DU?$char_traits@D@std@@V?$allocator@D@2@@std@@@2@V?$allocator@V?$basic_string@DU?$char_traits@D@std@@V?$allocator@D@2@@std@@@2@$0A@@std@@@std@@SAAADPAU_Node@?$_Tree_nod@V?$_Tset_traits@V?$basic_string@DU?$char_traits@D@std@@V?$allocator@D@2@@std@@U?$less@V?$basic_string@DU?$char_traits@D@std@@V?$allocator@D@2@@std@@@2@V?$allocator@V?$basic_string@DU?$char_traits@D@std@@V?$allocator@D@2@@std@@@2@$0A@@std@@@2@@Z 10006520 f i ImfChannelList.obj
 0001:00005530       ?_Max@?$_Tree_val@V?$_Tmap_traits@VName@Imf@@UChannel@2@U?$less@VName@Imf@@@std@@V?$allocator@U?$pair@$$CBVName@Imf@@UChannel@2@@std@@@5@$0A@@std@@@std@@SAPAU_Node@?$_Tree_nod@V?$_Tmap_traits@VName@Imf@@UChannel@2@U?$less@VName@Imf@@@std@@V?$allocator@U?$pair@$$CBVName@Imf@@UChannel@2@@std@@@5@$0A@@std@@@2@PAU342@@Z 10006530 f i ImfChannelList.obj
 0001:00005560       ?max_size@?$_Tree@V?$_Tmap_traits@VName@Imf@@UChannel@2@U?$less@VName@Imf@@@std@@V?$allocator@U?$pair@$$CBVName@Imf@@UChannel@2@@std@@@5@$0A@@std@@@std@@QBEIXZ 10006560 f i ImfChannelList.obj
 0001:00005560       ?max_size@?$allocator@U?$pair@$$CBVName@Imf@@UChannel@2@@std@@@std@@QBEIXZ 10006560 f i ImfChannelList.obj
 0001:00005570       ?_Max@?$_Tree_val@V?$_Tset_traits@V?$basic_string@DU?$char_traits@D@std@@V?$allocator@D@2@@std@@U?$less@V?$basic_string@DU?$char_traits@D@std@@V?$allocator@D@2@@std@@@2@V?$allocator@V?$basic_string@DU?$char_traits@D@std@@V?$allocator@D@2@@std@@@2@$0A@@std@@@std@@SAPAU_Node@?$_Tree_nod@V?$_Tset_traits@V?$basic_string@DU?$char_traits@D@std@@V?$allocator@D@2@@std@@U?$less@V?$basic_string@DU?$char_traits@D@std@@V?$allocator@D@2@@std@@@2@V?$allocator@V?$basic_string@DU?$char_traits@D@std@@V?$allocator@D@2@@std@@@2@$0A@@std@@@2@PAU342@@Z 10006570 f i ImfChannelList.obj
 0001:00005590       ??$?8V?$basic_string@DU?$char_traits@D@std@@V?$allocator@D@2@@std@@V01@@std@@YA_NABV?$allocator@V?$basic_string@DU?$char_traits@D@std@@V?$allocator@D@2@@std@@@0@0@Z 10006590 f i ImfMultiView.obj
 0001:00005590       ??$?8DD@std@@YA_NABV?$allocator@D@0@0@Z 10006590 f i ImfChannelList.obj
 0001:00005590       ??$?8V?$vector@_KV?$allocator@_K@std@@@std@@V01@@std@@YA_NABV?$allocator@V?$vector@_KV?$allocator@_K@std@@@std@@@0@0@Z 10006590 f i ImfTiledInputFile.obj
 0001:00005590       ??$?8_K_K@std@@YA_NABV?$allocator@_K@0@0@Z 10006590 f i ImfTiledInputFile.obj
 0001:000055a0       ??$_Allocate@U_Node@?$_Tree_nod@V?$_Tmap_traits@VName@Imf@@UChannel@2@U?$less@VName@Imf@@@std@@V?$allocator@U?$pair@$$CBVName@Imf@@UChannel@2@@std@@@5@$0A@@std@@@std@@@std@@YAPAU_Node@?$_Tree_nod@V?$_Tmap_traits@VName@Imf@@UChannel@2@U?$less@VName@Imf@@@std@@V?$allocator@U?$pair@$$CBVName@Imf@@UChannel@2@@std@@@5@$0A@@std@@@0@IPAU120@@Z 100065a0 f i ImfChannelList.obj
 0001:00005600       ??$_Allocate@U_Node@?$_Tree_nod@V?$_Tset_traits@V?$basic_string@DU?$char_traits@D@std@@V?$allocator@D@2@@std@@U?$less@V?$basic_string@DU?$char_traits@D@std@@V?$allocator@D@2@@std@@@2@V?$allocator@V?$basic_string@DU?$char_traits@D@std@@V?$allocator@D@2@@std@@@2@$0A@@std@@@std@@@std@@YAPAU_Node@?$_Tree_nod@V?$_Tset_traits@V?$basic_string@DU?$char_traits@D@std@@V?$allocator@D@2@@std@@U?$less@V?$basic_string@DU?$char_traits@D@std@@V?$allocator@D@2@@std@@@2@V?$allocator@V?$basic_string@DU?$char_traits@D@std@@V?$allocator@D@2@@std@@@2@$0A@@std@@@0@IPAU120@@Z 10006600 f i ImfChannelList.obj
 0001:00005660       ?rfind@?$basic_string@DU?$char_traits@D@std@@V?$allocator@D@2@@std@@QBEIPBDII@Z 10006660 f i ImfChannelList.obj
 0001:000056f0       ?compare@?$basic_string@DU?$char_traits@D@std@@V?$allocator@D@2@@std@@QBEHIIPBDI@Z 100066f0 f i ImfChannelList.obj
 0001:00005760       ?_Root@?$_Tree@V?$_Tmap_traits@VName@Imf@@USlice@2@U?$less@VName@Imf@@@std@@V?$allocator@U?$pair@$$CBVName@Imf@@USlice@2@@std@@@5@$0A@@std@@@std@@IBEAAPAU_Node@?$_Tree_nod@V?$_Tmap_traits@VName@Imf@@USlice@2@U?$less@VName@Imf@@@std@@V?$allocator@U?$pair@$$CBVName@Imf@@USlice@2@@std@@@5@$0A@@std@@@2@XZ 10006760 f i ImfFrameBuffer.obj
 0001:00005760       ?_Root@?$_Tree@V?$_Tmap_traits@VName@Imf@@UChannel@2@U?$less@VName@Imf@@@std@@V?$allocator@U?$pair@$$CBVName@Imf@@UChannel@2@@std@@@5@$0A@@std@@@std@@IBEAAPAU_Node@?$_Tree_nod@V?$_Tmap_traits@VName@Imf@@UChannel@2@U?$less@VName@Imf@@@std@@V?$allocator@U?$pair@$$CBVName@Imf@@UChannel@2@@std@@@5@$0A@@std@@@2@XZ 10006760 f i ImfChannelList.obj
 0001:00005760       ?_Root@?$_Tree@V?$_Tmap_traits@UTileCoord@?A0x39e5c904@Imf@@PAUBufferedTile@23@U?$less@UTileCoord@?A0x39e5c904@Imf@@@std@@V?$allocator@U?$pair@$$CBUTileCoord@?A0x39e5c904@Imf@@PAUBufferedTile@23@@std@@@6@$0A@@std@@@std@@IBEAAPAU_Node@?$_Tree_nod@V?$_Tmap_traits@UTileCoord@?A0x39e5c904@Imf@@PAUBufferedTile@23@U?$less@UTileCoord@?A0x39e5c904@Imf@@@std@@V?$allocator@U?$pair@$$CBUTileCoord@?A0x39e5c904@Imf@@PAUBufferedTile@23@@std@@@6@$0A@@std@@@2@XZ 10006760 f i ImfTiledOutputFile.obj
 0001:00005760       ?_Root@?$_Tree@V?$_Tmap_traits@PBDP6APAVAttribute@Imf@@XZUNameCompare@?A0x0779e1ad@2@V?$allocator@U?$pair@QBDP6APAVAttribute@Imf@@XZ@std@@@std@@$0A@@std@@@std@@IBEAAPAU_Node@?$_Tree_nod@V?$_Tmap_traits@PBDP6APAVAttribute@Imf@@XZUNameCompare@?A0x0779e1ad@2@V?$allocator@U?$pair@QBDP6APAVAttribute@Imf@@XZ@std@@@std@@$0A@@std@@@2@XZ 10006760 f i ImfAttribute.obj
 0001:00005760       ?_Root@?$_Tree@V?$_Tset_traits@V?$basic_string@DU?$char_traits@D@std@@V?$allocator@D@2@@std@@U?$less@V?$basic_string@DU?$char_traits@D@std@@V?$allocator@D@2@@std@@@2@V?$allocator@V?$basic_string@DU?$char_traits@D@std@@V?$allocator@D@2@@std@@@2@$0A@@std@@@std@@IBEAAPAU_Node@?$_Tree_nod@V?$_Tset_traits@V?$basic_string@DU?$char_traits@D@std@@V?$allocator@D@2@@std@@U?$less@V?$basic_string@DU?$char_traits@D@std@@V?$allocator@D@2@@std@@@2@V?$allocator@V?$basic_string@DU?$char_traits@D@std@@V?$allocator@D@2@@std@@@2@$0A@@std@@@2@XZ 10006760 f i ImfChannelList.obj
 0001:00005760       ?_Root@?$_Tree@V?$_Tmap_traits@VName@Imf@@PAVAttribute@2@U?$less@VName@Imf@@@std@@V?$allocator@U?$pair@$$CBVName@Imf@@PAVAttribute@2@@std@@@5@$0A@@std@@@std@@IBEAAPAU_Node@?$_Tree_nod@V?$_Tmap_traits@VName@Imf@@PAVAttribute@2@U?$less@VName@Imf@@@std@@V?$allocator@U?$pair@$$CBVName@Imf@@PAVAttribute@2@@std@@@5@$0A@@std@@@2@XZ 10006760 f i ImfHeader.obj
 0001:00005770       ??0?$pair@$$CBVName@Imf@@UChannel@2@@std@@QAE@ABVName@Imf@@$$QAUChannel@3@@Z 10006770 f i ImfChannelList.obj
 0001:00005770       ??$?0ABVName@Imf@@AAUChannel@1@@?$_Pair_base@$$CBVName@Imf@@UChannel@2@@std@@QAE@ABVName@Imf@@AAUChannel@3@@Z 10006770 f i ImfHeader.obj
 0001:00005770       ??0?$_Pair_base@$$CBVName@Imf@@UChannel@2@@std@@QAE@ABVName@Imf@@$$QAUChannel@3@@Z 10006770 f i ImfChannelList.obj
 0001:00005770       ??0?$_Pair_base@$$CBVName@Imf@@UChannel@2@@std@@QAE@$$QBVName@Imf@@$$QAUChannel@3@@Z 10006770 f i ImfChannelList.obj
 0001:000057b0       ??$?9_K_K@std@@YA_NABV?$allocator@_K@0@0@Z 100067b0 f i ImfTiledInputFile.obj
 0001:000057b0       ??$?9V?$vector@_KV?$allocator@_K@std@@@std@@V01@@std@@YA_NABV?$allocator@V?$vector@_KV?$allocator@_K@std@@@std@@@0@0@Z 100067b0 f i ImfTiledInputFile.obj
 0001:000057b0       ?isMemoryMapped@IStream@Imf@@UBE_NXZ 100067b0 f i ImfIO.obj
 0001:000057b0       ??$?9V?$basic_string@DU?$char_traits@D@std@@V?$allocator@D@2@@std@@V01@@std@@YA_NABV?$allocator@V?$basic_string@DU?$char_traits@D@std@@V?$allocator@D@2@@std@@@0@0@Z 100067b0 f i ImfMultiView.obj
 0001:000057b0       ??$?9DD@std@@YA_NABV?$allocator@D@0@0@Z 100067b0 f i ImfChannelList.obj
 0001:000057c0       ?_Lrotate@?$_Tree@V?$_Tmap_traits@VName@Imf@@UChannel@2@U?$less@VName@Imf@@@std@@V?$allocator@U?$pair@$$CBVName@Imf@@UChannel@2@@std@@@5@$0A@@std@@@std@@IAEXPAU_Node@?$_Tree_nod@V?$_Tmap_traits@VName@Imf@@UChannel@2@U?$less@VName@Imf@@@std@@V?$allocator@U?$pair@$$CBVName@Imf@@UChannel@2@@std@@@5@$0A@@std@@@2@@Z 100067c0 f i ImfChannelList.obj
 0001:00005820       ?_Rrotate@?$_Tree@V?$_Tmap_traits@VName@Imf@@UChannel@2@U?$less@VName@Imf@@@std@@V?$allocator@U?$pair@$$CBVName@Imf@@UChannel@2@@std@@@5@$0A@@std@@@std@@IAEXPAU_Node@?$_Tree_nod@V?$_Tmap_traits@VName@Imf@@UChannel@2@U?$less@VName@Imf@@@std@@V?$allocator@U?$pair@$$CBVName@Imf@@UChannel@2@@std@@@5@$0A@@std@@@2@@Z 10006820 f i ImfChannelList.obj
 0001:00005880       ??F?$_Tree_unchecked_const_iterator@V?$_Tree_val@V?$_Tmap_traits@VName@Imf@@UChannel@2@U?$less@VName@Imf@@@std@@V?$allocator@U?$pair@$$CBVName@Imf@@UChannel@2@@std@@@5@$0A@@std@@@std@@U_Iterator_base0@2@@std@@QAEAAV01@XZ 10006880 f i ImfChannelList.obj
 0001:00005900       ?_Lrotate@?$_Tree@V?$_Tset_traits@V?$basic_string@DU?$char_traits@D@std@@V?$allocator@D@2@@std@@U?$less@V?$basic_string@DU?$char_traits@D@std@@V?$allocator@D@2@@std@@@2@V?$allocator@V?$basic_string@DU?$char_traits@D@std@@V?$allocator@D@2@@std@@@2@$0A@@std@@@std@@IAEXPAU_Node@?$_Tree_nod@V?$_Tset_traits@V?$basic_string@DU?$char_traits@D@std@@V?$allocator@D@2@@std@@U?$less@V?$basic_string@DU?$char_traits@D@std@@V?$allocator@D@2@@std@@@2@V?$allocator@V?$basic_string@DU?$char_traits@D@std@@V?$allocator@D@2@@std@@@2@$0A@@std@@@2@@Z 10006900 f i ImfChannelList.obj
 0001:00005960       ?_Rrotate@?$_Tree@V?$_Tset_traits@V?$basic_string@DU?$char_traits@D@std@@V?$allocator@D@2@@std@@U?$less@V?$basic_string@DU?$char_traits@D@std@@V?$allocator@D@2@@std@@@2@V?$allocator@V?$basic_string@DU?$char_traits@D@std@@V?$allocator@D@2@@std@@@2@$0A@@std@@@std@@IAEXPAU_Node@?$_Tree_nod@V?$_Tset_traits@V?$basic_string@DU?$char_traits@D@std@@V?$allocator@D@2@@std@@U?$less@V?$basic_string@DU?$char_traits@D@std@@V?$allocator@D@2@@std@@@2@V?$allocator@V?$basic_string@DU?$char_traits@D@std@@V?$allocator@D@2@@std@@@2@$0A@@std@@@2@@Z 10006960 f i ImfChannelList.obj
 0001:000059c0       ??F?$_Tree_unchecked_const_iterator@V?$_Tree_val@V?$_Tset_traits@V?$basic_string@DU?$char_traits@D@std@@V?$allocator@D@2@@std@@U?$less@V?$basic_string@DU?$char_traits@D@std@@V?$allocator@D@2@@std@@@2@V?$allocator@V?$basic_string@DU?$char_traits@D@std@@V?$allocator@D@2@@std@@@2@$0A@@std@@@std@@U_Iterator_base0@2@@std@@QAEAAV01@XZ 100069c0 f i ImfChannelList.obj
 0001:00005a20       ?allocate@?$allocator@U_Node@?$_Tree_nod@V?$_Tmap_traits@VName@Imf@@UChannel@2@U?$less@VName@Imf@@@std@@V?$allocator@U?$pair@$$CBVName@Imf@@UChannel@2@@std@@@5@$0A@@std@@@std@@@std@@QAEPAU_Node@?$_Tree_nod@V?$_Tmap_traits@VName@Imf@@UChannel@2@U?$less@VName@Imf@@@std@@V?$allocator@U?$pair@$$CBVName@Imf@@UChannel@2@@std@@@5@$0A@@std@@@2@I@Z 10006a20 f i ImfChannelList.obj
 0001:00005a80       ?allocate@?$allocator@U_Node@?$_Tree_nod@V?$_Tset_traits@V?$basic_string@DU?$char_traits@D@std@@V?$allocator@D@2@@std@@U?$less@V?$basic_string@DU?$char_traits@D@std@@V?$allocator@D@2@@std@@@2@V?$allocator@V?$basic_string@DU?$char_traits@D@std@@V?$allocator@D@2@@std@@@2@$0A@@std@@@std@@@std@@QAEPAU_Node@?$_Tree_nod@V?$_Tset_traits@V?$basic_string@DU?$char_traits@D@std@@V?$allocator@D@2@@std@@U?$less@V?$basic_string@DU?$char_traits@D@std@@V?$allocator@D@2@@std@@@2@V?$allocator@V?$basic_string@DU?$char_traits@D@std@@V?$allocator@D@2@@std@@@2@$0A@@std@@@2@I@Z 10006a80 f i ImfChannelList.obj
 0001:00005ae0       ??0?$basic_string@DU?$char_traits@D@std@@V?$allocator@D@2@@std@@QAE@XZ 10006ae0 f i ImfChannelList.obj
 0001:00005b00       ??1?$basic_string@DU?$char_traits@D@std@@V?$allocator@D@2@@std@@QAE@XZ 10006b00 f i ImfChannelList.obj
 0001:00005b30       ?rfind@?$basic_string@DU?$char_traits@D@std@@V?$allocator@D@2@@std@@QBEIDI@Z 10006b30 f i ImfChannelList.obj
 0001:00005b50       ?compare@?$basic_string@DU?$char_traits@D@std@@V?$allocator@D@2@@std@@QBEHABV12@@Z 10006b50 f i ImfChannelList.obj
 0001:00005b80       ?_Lbound@?$_Tree@V?$_Tmap_traits@VName@Imf@@UChannel@2@U?$less@VName@Imf@@@std@@V?$allocator@U?$pair@$$CBVName@Imf@@UChannel@2@@std@@@5@$0A@@std@@@std@@IBEPAU_Node@?$_Tree_nod@V?$_Tmap_traits@VName@Imf@@UChannel@2@U?$less@VName@Imf@@@std@@V?$allocator@U?$pair@$$CBVName@Imf@@UChannel@2@@std@@@5@$0A@@std@@@2@ABVName@Imf@@@Z 10006b80 f i ImfChannelList.obj
 0001:00005b80       ?_Lbound@?$_Tree@V?$_Tmap_traits@VName@Imf@@UChannel@2@U?$less@VName@Imf@@@std@@V?$allocator@U?$pair@$$CBVName@Imf@@UChannel@2@@std@@@5@$0A@@std@@@std@@IAEPAU_Node@?$_Tree_nod@V?$_Tmap_traits@VName@Imf@@UChannel@2@U?$less@VName@Imf@@@std@@V?$allocator@U?$pair@$$CBVName@Imf@@UChannel@2@@std@@@5@$0A@@std@@@2@ABVName@Imf@@@Z 10006b80 f i ImfChannelList.obj
 0001:00005bf0       ?reserve@?$basic_string@DU?$char_traits@D@std@@V?$allocator@D@2@@std@@QAEXI@Z 10006bf0 f i ImfChannelList.obj
 0001:00005c30       ??F?$_Tree_const_iterator@V?$_Tree_val@V?$_Tmap_traits@VName@Imf@@UChannel@2@U?$less@VName@Imf@@@std@@V?$allocator@U?$pair@$$CBVName@Imf@@UChannel@2@@std@@@5@$0A@@std@@@std@@@std@@QAEAAV01@XZ 10006c30 f i ImfChannelList.obj
 0001:00005c30       ??F?$_Tree_iterator@V?$_Tree_val@V?$_Tmap_traits@VName@Imf@@UChannel@2@U?$less@VName@Imf@@@std@@V?$allocator@U?$pair@$$CBVName@Imf@@UChannel@2@@std@@@5@$0A@@std@@@std@@@std@@QAEAAV01@XZ 10006c30 f i ImfChannelList.obj
 0001:00005c40       ??F?$_Tree_const_iterator@V?$_Tree_val@V?$_Tset_traits@V?$basic_string@DU?$char_traits@D@std@@V?$allocator@D@2@@std@@U?$less@V?$basic_string@DU?$char_traits@D@std@@V?$allocator@D@2@@std@@@2@V?$allocator@V?$basic_string@DU?$char_traits@D@std@@V?$allocator@D@2@@std@@@2@$0A@@std@@@std@@@std@@QAEAAV01@XZ 10006c40 f i ImfChannelList.obj
 0001:00005c50       ??$?MDU?$char_traits@D@std@@V?$allocator@D@1@@std@@YA_NABV?$basic_string@DU?$char_traits@D@std@@V?$allocator@D@2@@0@0@Z 10006c50 f i ImfChannelList.obj
 0001:00005c80       ??_G?$basic_string@DU?$char_traits@D@std@@V?$allocator@D@2@@std@@QAEPAXI@Z 10006c80 f i ImfChannelList.obj
 0001:00005cc0       ?_Buynode@?$_Tree_val@V?$_Tmap_traits@VName@Imf@@UChannel@2@U?$less@VName@Imf@@@std@@V?$allocator@U?$pair@$$CBVName@Imf@@UChannel@2@@std@@@5@$0A@@std@@@std@@QAEPAU_Node@?$_Tree_nod@V?$_Tmap_traits@VName@Imf@@UChannel@2@U?$less@VName@Imf@@@std@@V?$allocator@U?$pair@$$CBVName@Imf@@UChannel@2@@std@@@5@$0A@@std@@@2@XZ 10006cc0 f i ImfChannelList.obj
 0001:00005d20       ?_Buynode@?$_Tree_val@V?$_Tset_traits@V?$basic_string@DU?$char_traits@D@std@@V?$allocator@D@2@@std@@U?$less@V?$basic_string@DU?$char_traits@D@std@@V?$allocator@D@2@@std@@@2@V?$allocator@V?$basic_string@DU?$char_traits@D@std@@V?$allocator@D@2@@std@@@2@$0A@@std@@@std@@QAEPAU_Node@?$_Tree_nod@V?$_Tset_traits@V?$basic_string@DU?$char_traits@D@std@@V?$allocator@D@2@@std@@U?$less@V?$basic_string@DU?$char_traits@D@std@@V?$allocator@D@2@@std@@@2@V?$allocator@V?$basic_string@DU?$char_traits@D@std@@V?$allocator@D@2@@std@@@2@$0A@@std@@@2@XZ 10006d20 f i ImfChannelList.obj
 0001:00005d80       ??8ChannelList@Imf@@QBE_NABV01@@Z 10006d80 f   ImfChannelList.obj
 0001:00005ed0       ?lower_bound@?$_Tree@V?$_Tmap_traits@VName@Imf@@UChannel@2@U?$less@VName@Imf@@@std@@V?$allocator@U?$pair@$$CBVName@Imf@@UChannel@2@@std@@@5@$0A@@std@@@std@@QAE?AV?$_Tree_iterator@V?$_Tree_val@V?$_Tmap_traits@VName@Imf@@UChannel@2@U?$less@VName@Imf@@@std@@V?$allocator@U?$pair@$$CBVName@Imf@@UChannel@2@@std@@@5@$0A@@std@@@std@@@2@ABVName@Imf@@@Z 10006ed0 f i ImfChannelList.obj
 0001:00005ed0       ?lower_bound@?$_Tree@V?$_Tmap_traits@VName@Imf@@UChannel@2@U?$less@VName@Imf@@@std@@V?$allocator@U?$pair@$$CBVName@Imf@@UChannel@2@@std@@@5@$0A@@std@@@std@@QBE?AV?$_Tree_const_iterator@V?$_Tree_val@V?$_Tmap_traits@VName@Imf@@UChannel@2@U?$less@VName@Imf@@@std@@V?$allocator@U?$pair@$$CBVName@Imf@@UChannel@2@@std@@@5@$0A@@std@@@std@@@2@ABVName@Imf@@@Z 10006ed0 f i ImfChannelList.obj
 0001:00005ef0       ?assign@?$basic_string@DU?$char_traits@D@std@@V?$allocator@D@2@@std@@QAEAAV12@PBDI@Z 10006ef0 f i ImfChannelList.obj
 0001:00005ff0       ?append@?$basic_string@DU?$char_traits@D@std@@V?$allocator@D@2@@std@@QAEAAV12@ABV12@II@Z 10006ff0 f i ImfChannelList.obj
 0001:000060e0       ?append@?$basic_string@DU?$char_traits@D@std@@V?$allocator@D@2@@std@@QAEAAV12@ID@Z 100070e0 f i ImfChannelList.obj
 0001:00006190       ?assign@?$basic_string@DU?$char_traits@D@std@@V?$allocator@D@2@@std@@QAEAAV12@ABV12@@Z 10007190 f i ImfChannelList.obj
 0001:00006190       ??4?$basic_string@DU?$char_traits@D@std@@V?$allocator@D@2@@std@@QAEAAV01@ABV01@@Z 10007190 f i ImfChannelList.obj
 0001:000061b0       ?_Insert@?$_Tree@V?$_Tmap_traits@VName@Imf@@UChannel@2@U?$less@VName@Imf@@@std@@V?$allocator@U?$pair@$$CBVName@Imf@@UChannel@2@@std@@@5@$0A@@std@@@std@@IAE?AV?$_Tree_iterator@V?$_Tree_val@V?$_Tmap_traits@VName@Imf@@UChannel@2@U?$less@VName@Imf@@@std@@V?$allocator@U?$pair@$$CBVName@Imf@@UChannel@2@@std@@@5@$0A@@std@@@std@@@2@_NPAU_Node@?$_Tree_nod@V?$_Tmap_traits@VName@Imf@@UChannel@2@U?$less@VName@Imf@@@std@@V?$allocator@U?$pair@$$CBVName@Imf@@UChannel@2@@std@@@5@$0A@@std@@@2@1@Z 100071b0 f i ImfChannelList.obj
 0001:000063c0       ??R?$less@V?$basic_string@DU?$char_traits@D@std@@V?$allocator@D@2@@std@@@std@@QBE_NABV?$basic_string@DU?$char_traits@D@std@@V?$allocator@D@2@@1@0@Z 100073c0 f i ImfChannelList.obj
 0001:000063f0       ??$_Destroy@V?$basic_string@DU?$char_traits@D@std@@V?$allocator@D@2@@std@@@std@@YAXPAV?$basic_string@DU?$char_traits@D@std@@V?$allocator@D@2@@0@@Z 100073f0 f i ImfChannelList.obj
 0001:00006420       ?construct@?$allocator@U?$pair@$$CBVName@Imf@@UChannel@2@@std@@@std@@QAEXPAU?$pair@$$CBVName@Imf@@UChannel@2@@2@$$QAU32@@Z 10007420 f i ImfChannelList.obj
 0001:00006420       ??$construct@AAU?$pair@$$CBVName@Imf@@UChannel@2@@std@@@?$allocator@U?$pair@$$CBVName@Imf@@UChannel@2@@std@@@std@@QAEXPAU?$pair@$$CBVName@Imf@@UChannel@2@@1@AAU21@@Z 10007420 f i ImfHeader.obj
 0001:00006460       ??EConstIterator@ChannelList@Imf@@QAEAAV012@XZ 10007460 f i ImfB44Compressor.obj
 0001:00006460       ??E?$_Tree_const_iterator@V?$_Tree_val@V?$_Tmap_traits@VName@Imf@@UChannel@2@U?$less@VName@Imf@@@std@@V?$allocator@U?$pair@$$CBVName@Imf@@UChannel@2@@std@@@5@$0A@@std@@@std@@@std@@QAEAAV01@XZ 10007460 f i ImfB44Compressor.obj
 0001:00006460       ??EIterator@ChannelList@Imf@@QAEAAV012@XZ 10007460 f i ImfChannelList.obj
 0001:00006460       ??E?$_Tree_iterator@V?$_Tree_val@V?$_Tmap_traits@VName@Imf@@UChannel@2@U?$less@VName@Imf@@@std@@V?$allocator@U?$pair@$$CBVName@Imf@@UChannel@2@@std@@@5@$0A@@std@@@std@@@std@@QAEAAV01@XZ 10007460 f i ImfChannelList.obj
 0001:00006470       ?channelsWithPrefix@ChannelList@Imf@@QAEXQBDAAVIterator@12@1@Z 10007470 f   ImfChannelList.obj
 0001:00006590       ?channelsWithPrefix@ChannelList@Imf@@QBEXQBDAAVConstIterator@12@1@Z 10007590 f   ImfChannelList.obj
 0001:000066b0       ?channelsWithPrefix@ChannelList@Imf@@QAEXABV?$basic_string@DU?$char_traits@D@std@@V?$allocator@D@2@@std@@AAVIterator@12@1@Z 100076b0 f   ImfChannelList.obj
 0001:000066d0       ?channelsWithPrefix@ChannelList@Imf@@QBEXABV?$basic_string@DU?$char_traits@D@std@@V?$allocator@D@2@@std@@AAVConstIterator@12@1@Z 100076d0 f   ImfChannelList.obj
 0001:000066f0       ?find@?$_Tree@V?$_Tmap_traits@VName@Imf@@UChannel@2@U?$less@VName@Imf@@@std@@V?$allocator@U?$pair@$$CBVName@Imf@@UChannel@2@@std@@@5@$0A@@std@@@std@@QAE?AV?$_Tree_iterator@V?$_Tree_val@V?$_Tmap_traits@VName@Imf@@UChannel@2@U?$less@VName@Imf@@@std@@V?$allocator@U?$pair@$$CBVName@Imf@@UChannel@2@@std@@@5@$0A@@std@@@std@@@2@ABVName@Imf@@@Z 100076f0 f i ImfChannelList.obj
 0001:000066f0       ?find@?$_Tree@V?$_Tmap_traits@VName@Imf@@UChannel@2@U?$less@VName@Imf@@@std@@V?$allocator@U?$pair@$$CBVName@Imf@@UChannel@2@@std@@@5@$0A@@std@@@std@@QBE?AV?$_Tree_const_iterator@V?$_Tree_val@V?$_Tmap_traits@VName@Imf@@UChannel@2@U?$less@VName@Imf@@@std@@V?$allocator@U?$pair@$$CBVName@Imf@@UChannel@2@@std@@@5@$0A@@std@@@std@@@2@ABVName@Imf@@@Z 100076f0 f i ImfChannelList.obj
 0001:00006760       ??Y?$basic_string@DU?$char_traits@D@std@@V?$allocator@D@2@@std@@QAEAAV01@D@Z 10007760 f i ImfChannelList.obj
 0001:00006780       ?destroy@?$allocator@V?$basic_string@DU?$char_traits@D@std@@V?$allocator@D@2@@std@@@std@@QAEXPAV?$basic_string@DU?$char_traits@D@std@@V?$allocator@D@2@@2@@Z 10007780 f i ImfChannelList.obj
 0001:000067b0       ?_Linsert@?$_Tree@V?$_Tmap_traits@VName@Imf@@UChannel@2@U?$less@VName@Imf@@@std@@V?$allocator@U?$pair@$$CBVName@Imf@@UChannel@2@@std@@@5@$0A@@std@@@std@@QAE?AU?$pair@V?$_Tree_iterator@V?$_Tree_val@V?$_Tmap_traits@VName@Imf@@UChannel@2@U?$less@VName@Imf@@@std@@V?$allocator@U?$pair@$$CBVName@Imf@@UChannel@2@@std@@@5@$0A@@std@@@std@@@std@@_N@2@PAU_Node@?$_Tree_nod@V?$_Tmap_traits@VName@Imf@@UChannel@2@U?$less@VName@Imf@@@std@@V?$allocator@U?$pair@$$CBVName@Imf@@UChannel@2@@std@@@5@$0A@@std@@@2@_N@Z 100077b0 f i ImfChannelList.obj
 0001:00006930       ??$construct@AAV?$basic_string@DU?$char_traits@D@std@@V?$allocator@D@2@@std@@@?$allocator@V?$basic_string@DU?$char_traits@D@std@@V?$allocator@D@2@@std@@@std@@QAEXPAV?$basic_string@DU?$char_traits@D@std@@V?$allocator@D@2@@1@AAV21@@Z 10007930 f i ImfChannelList.obj
 0001:00006990       ??AChannelList@Imf@@QAEAAUChannel@1@QBD@Z 10007990 f   ImfChannelList.obj
 0001:00006990       ??AChannelList@Imf@@QBEABUChannel@1@QBD@Z 10007990 f   ImfChannelList.obj
 0001:00006b00       ??AChannelList@Imf@@QAEAAUChannel@1@ABV?$basic_string@DU?$char_traits@D@std@@V?$allocator@D@2@@std@@@Z 10007b00 f   ImfChannelList.obj
 0001:00006b00       ??AChannelList@Imf@@QBEABUChannel@1@ABV?$basic_string@DU?$char_traits@D@std@@V?$allocator@D@2@@std@@@Z 10007b00 f   ImfChannelList.obj
 0001:00006b20       ?findChannel@ChannelList@Imf@@QBEPBUChannel@2@QBD@Z 10007b20 f   ImfChannelList.obj
 0001:00006b20       ?findChannel@ChannelList@Imf@@QAEPAUChannel@2@QBD@Z 10007b20 f   ImfChannelList.obj
 0001:00006ba0       ?findChannel@ChannelList@Imf@@QBEPBUChannel@2@ABV?$basic_string@DU?$char_traits@D@std@@V?$allocator@D@2@@std@@@Z 10007ba0 f   ImfChannelList.obj
 0001:00006ba0       ?findChannel@ChannelList@Imf@@QAEPAUChannel@2@ABV?$basic_string@DU?$char_traits@D@std@@V?$allocator@D@2@@std@@@Z 10007ba0 f   ImfChannelList.obj
 0001:00006c30       ?find@ChannelList@Imf@@QAE?AVIterator@12@QBD@Z 10007c30 f   ImfChannelList.obj
 0001:00006c30       ?find@ChannelList@Imf@@QBE?AVConstIterator@12@QBD@Z 10007c30 f   ImfChannelList.obj
 0001:00006ca0       ?find@ChannelList@Imf@@QBE?AVConstIterator@12@ABV?$basic_string@DU?$char_traits@D@std@@V?$allocator@D@2@@std@@@Z 10007ca0 f   ImfChannelList.obj
 0001:00006ca0       ?find@ChannelList@Imf@@QAE?AVIterator@12@ABV?$basic_string@DU?$char_traits@D@std@@V?$allocator@D@2@@std@@@Z 10007ca0 f   ImfChannelList.obj
 0001:00006d10       ??0?$basic_string@DU?$char_traits@D@std@@V?$allocator@D@2@@std@@QAE@PBD@Z 10007d10 f i ImfChannelList.obj
 0001:00006d50       ?assign@?$basic_string@DU?$char_traits@D@std@@V?$allocator@D@2@@std@@QAEAAV12@$$QAV12@@Z 10007d50 f i ImfChannelList.obj
 0001:00006dd0       ?append@?$basic_string@DU?$char_traits@D@std@@V?$allocator@D@2@@std@@QAEAAV12@ABV12@@Z 10007dd0 f i ImfChannelList.obj
 0001:00006dd0       ??Y?$basic_string@DU?$char_traits@D@std@@V?$allocator@D@2@@std@@QAEAAV01@ABV01@@Z 10007dd0 f i ImfChannelList.obj
 0001:00006df0       ??$_Dest_val@V?$allocator@V?$basic_string@DU?$char_traits@D@std@@V?$allocator@D@2@@std@@@std@@V?$basic_string@DU?$char_traits@D@std@@V?$allocator@D@2@@2@@std@@YAXAAV?$allocator@V?$basic_string@DU?$char_traits@D@std@@V?$allocator@D@2@@std@@@0@PAV?$basic_string@DU?$char_traits@D@std@@V?$allocator@D@2@@0@@Z 10007df0 f i ImfChannelList.obj
 0001:00006e20       ?_Insert@?$_Tree@V?$_Tmap_traits@VName@Imf@@UChannel@2@U?$less@VName@Imf@@@std@@V?$allocator@U?$pair@$$CBVName@Imf@@UChannel@2@@std@@@5@$0A@@std@@@std@@QAE?AV?$_Tree_iterator@V?$_Tree_val@V?$_Tmap_traits@VName@Imf@@UChannel@2@U?$less@VName@Imf@@@std@@V?$allocator@U?$pair@$$CBVName@Imf@@UChannel@2@@std@@@5@$0A@@std@@@std@@@2@V?$_Tree_const_iterator@V?$_Tree_val@V?$_Tmap_traits@VName@Imf@@UChannel@2@U?$less@VName@Imf@@@std@@V?$allocator@U?$pair@$$CBVName@Imf@@UChannel@2@@std@@@5@$0A@@std@@@std@@@2@PAU_Node@?$_Tree_nod@V?$_Tmap_traits@VName@Imf@@UChannel@2@U?$less@VName@Imf@@@std@@V?$allocator@U?$pair@$$CBVName@Imf@@UChannel@2@@std@@@5@$0A@@std@@@2@@Z 10007e20 f i ImfChannelList.obj
 0001:00006fd0       ?_Insert@?$_Tree@V?$_Tset_traits@V?$basic_string@DU?$char_traits@D@std@@V?$allocator@D@2@@std@@U?$less@V?$basic_string@DU?$char_traits@D@std@@V?$allocator@D@2@@std@@@2@V?$allocator@V?$basic_string@DU?$char_traits@D@std@@V?$allocator@D@2@@std@@@2@$0A@@std@@@std@@IAE?AV?$_Tree_const_iterator@V?$_Tree_val@V?$_Tset_traits@V?$basic_string@DU?$char_traits@D@std@@V?$allocator@D@2@@std@@U?$less@V?$basic_string@DU?$char_traits@D@std@@V?$allocator@D@2@@std@@@2@V?$allocator@V?$basic_string@DU?$char_traits@D@std@@V?$allocator@D@2@@std@@@2@$0A@@std@@@std@@@2@_NPAU_Node@?$_Tree_nod@V?$_Tset_traits@V?$basic_string@DU?$char_traits@D@std@@V?$allocator@D@2@@std@@U?$less@V?$basic_string@DU?$char_traits@D@std@@V?$allocator@D@2@@std@@@2@V?$allocator@V?$basic_string@DU?$char_traits@D@std@@V?$allocator@D@2@@std@@@2@$0A@@std@@@2@1@Z 10007fd0 f i ImfChannelList.obj
 0001:00007220       ??$_Cons_val@V?$allocator@V?$basic_string@DU?$char_traits@D@std@@V?$allocator@D@2@@std@@@std@@V?$basic_string@DU?$char_traits@D@std@@V?$allocator@D@2@@2@AAV32@@std@@YAXAAV?$allocator@V?$basic_string@DU?$char_traits@D@std@@V?$allocator@D@2@@std@@@0@PAV?$basic_string@DU?$char_traits@D@std@@V?$allocator@D@2@@0@AAV20@@Z 10008220 f i ImfChannelList.obj
 0001:00007280       ??0?$basic_string@DU?$char_traits@D@std@@V?$allocator@D@2@@std@@QAE@$$QAV01@@Z 10008280 f i ImfChannelList.obj
 0001:000072b0       ?_Erase@?$_Tree@V?$_Tset_traits@V?$basic_string@DU?$char_traits@D@std@@V?$allocator@D@2@@std@@U?$less@V?$basic_string@DU?$char_traits@D@std@@V?$allocator@D@2@@std@@@2@V?$allocator@V?$basic_string@DU?$char_traits@D@std@@V?$allocator@D@2@@std@@@2@$0A@@std@@@std@@IAEXPAU_Node@?$_Tree_nod@V?$_Tset_traits@V?$basic_string@DU?$char_traits@D@std@@V?$allocator@D@2@@std@@U?$less@V?$basic_string@DU?$char_traits@D@std@@V?$allocator@D@2@@std@@@2@V?$allocator@V?$basic_string@DU?$char_traits@D@std@@V?$allocator@D@2@@std@@@2@$0A@@std@@@2@@Z 100082b0 f i ImfChannelList.obj
 0001:00007310       ??$?HDU?$char_traits@D@std@@V?$allocator@D@1@@std@@YA?AV?$basic_string@DU?$char_traits@D@std@@V?$allocator@D@2@@0@ABV10@D@Z 10008310 f i ImfChannelList.obj
 0001:000073d0       ??$insert@U?$pair@$$CBVName@Imf@@UChannel@2@@std@@@?$_Tree@V?$_Tmap_traits@VName@Imf@@UChannel@2@U?$less@VName@Imf@@@std@@V?$allocator@U?$pair@$$CBVName@Imf@@UChannel@2@@std@@@5@$0A@@std@@@std@@QAE?AV?$_Tree_iterator@V?$_Tree_val@V?$_Tmap_traits@VName@Imf@@UChannel@2@U?$less@VName@Imf@@@std@@V?$allocator@U?$pair@$$CBVName@Imf@@UChannel@2@@std@@@5@$0A@@std@@@std@@@1@V?$_Tree_const_iterator@V?$_Tree_val@V?$_Tmap_traits@VName@Imf@@UChannel@2@U?$less@VName@Imf@@@std@@V?$allocator@U?$pair@$$CBVName@Imf@@UChannel@2@@std@@@5@$0A@@std@@@std@@@1@$$QAU?$pair@$$CBVName@Imf@@UChannel@2@@1@@Z 100083d0 f i ImfChannelList.obj
 0001:00007400       ?_Linsert@?$_Tree@V?$_Tset_traits@V?$basic_string@DU?$char_traits@D@std@@V?$allocator@D@2@@std@@U?$less@V?$basic_string@DU?$char_traits@D@std@@V?$allocator@D@2@@std@@@2@V?$allocator@V?$basic_string@DU?$char_traits@D@std@@V?$allocator@D@2@@std@@@2@$0A@@std@@@std@@QAE?AU?$pair@V?$_Tree_const_iterator@V?$_Tree_val@V?$_Tset_traits@V?$basic_string@DU?$char_traits@D@std@@V?$allocator@D@2@@std@@U?$less@V?$basic_string@DU?$char_traits@D@std@@V?$allocator@D@2@@std@@@2@V?$allocator@V?$basic_string@DU?$char_traits@D@std@@V?$allocator@D@2@@std@@@2@$0A@@std@@@std@@@std@@_N@2@PAU_Node@?$_Tree_nod@V?$_Tset_traits@V?$basic_string@DU?$char_traits@D@std@@V?$allocator@D@2@@std@@U?$less@V?$basic_string@DU?$char_traits@D@std@@V?$allocator@D@2@@std@@@2@V?$allocator@V?$basic_string@DU?$char_traits@D@std@@V?$allocator@D@2@@std@@@2@$0A@@std@@@2@_N@Z 10008400 f i ImfChannelList.obj
 0001:000075c0       ??$_Buynode@AAV?$basic_string@DU?$char_traits@D@std@@V?$allocator@D@2@@std@@@?$_Tree_val@V?$_Tset_traits@V?$basic_string@DU?$char_traits@D@std@@V?$allocator@D@2@@std@@U?$less@V?$basic_string@DU?$char_traits@D@std@@V?$allocator@D@2@@std@@@2@V?$allocator@V?$basic_string@DU?$char_traits@D@std@@V?$allocator@D@2@@std@@@2@$0A@@std@@@std@@QAEPAU_Node@?$_Tree_nod@V?$_Tset_traits@V?$basic_string@DU?$char_traits@D@std@@V?$allocator@D@2@@std@@U?$less@V?$basic_string@DU?$char_traits@D@std@@V?$allocator@D@2@@std@@@2@V?$allocator@V?$basic_string@DU?$char_traits@D@std@@V?$allocator@D@2@@std@@@2@$0A@@std@@@1@AAV?$basic_string@DU?$char_traits@D@std@@V?$allocator@D@2@@1@@Z 100085c0 f i ImfChannelList.obj
 0001:000076a0       ?channelsInLayer@ChannelList@Imf@@QAEXABV?$basic_string@DU?$char_traits@D@std@@V?$allocator@D@2@@std@@AAVIterator@12@1@Z 100086a0 f   ImfChannelList.obj
 0001:00007710       ?channelsInLayer@ChannelList@Imf@@QBEXABV?$basic_string@DU?$char_traits@D@std@@V?$allocator@D@2@@std@@AAVConstIterator@12@1@Z 10008710 f   ImfChannelList.obj
 0001:00007780       ??A?$map@VName@Imf@@UChannel@2@U?$less@VName@Imf@@@std@@V?$allocator@U?$pair@$$CBVName@Imf@@UChannel@2@@std@@@5@@std@@QAEAAUChannel@Imf@@ABVName@3@@Z 10008780 f i ImfChannelList.obj
 0001:00007840       ?clear@?$_Tree@V?$_Tset_traits@V?$basic_string@DU?$char_traits@D@std@@V?$allocator@D@2@@std@@U?$less@V?$basic_string@DU?$char_traits@D@std@@V?$allocator@D@2@@std@@@2@V?$allocator@V?$basic_string@DU?$char_traits@D@std@@V?$allocator@D@2@@std@@@2@$0A@@std@@@std@@QAEXXZ 10008840 f i ImfChannelList.obj
 0001:00007870       ??$insert@AAV?$basic_string@DU?$char_traits@D@std@@V?$allocator@D@2@@std@@@?$_Tree@V?$_Tset_traits@V?$basic_string@DU?$char_traits@D@std@@V?$allocator@D@2@@std@@U?$less@V?$basic_string@DU?$char_traits@D@std@@V?$allocator@D@2@@std@@@2@V?$allocator@V?$basic_string@DU?$char_traits@D@std@@V?$allocator@D@2@@std@@@2@$0A@@std@@@std@@QAE?AU?$pair@V?$_Tree_const_iterator@V?$_Tree_val@V?$_Tset_traits@V?$basic_string@DU?$char_traits@D@std@@V?$allocator@D@2@@std@@U?$less@V?$basic_string@DU?$char_traits@D@std@@V?$allocator@D@2@@std@@@2@V?$allocator@V?$basic_string@DU?$char_traits@D@std@@V?$allocator@D@2@@std@@@2@$0A@@std@@@std@@@std@@_N@1@AAV?$basic_string@DU?$char_traits@D@std@@V?$allocator@D@2@@1@@Z 10008870 f i ImfChannelList.obj
 0001:000078a0       ?insert@ChannelList@Imf@@QAEXQBDABUChannel@2@@Z 100088a0 f   ImfChannelList.obj
 0001:00007a20       ?insert@ChannelList@Imf@@QAEXABV?$basic_string@DU?$char_traits@D@std@@V?$allocator@D@2@@std@@ABUChannel@2@@Z 10008a20 f   ImfChannelList.obj
 0001:00007a40       ?layers@ChannelList@Imf@@QBEXAAV?$set@V?$basic_string@DU?$char_traits@D@std@@V?$allocator@D@2@@std@@U?$less@V?$basic_string@DU?$char_traits@D@std@@V?$allocator@D@2@@std@@@2@V?$allocator@V?$basic_string@DU?$char_traits@D@std@@V?$allocator@D@2@@std@@@2@@std@@@Z 10008a40 f   ImfChannelList.obj
 0001:00007c10       ??0InputExc@Iex@@QAE@AAV?$basic_stringstream@DU?$char_traits@D@std@@V?$allocator@D@2@@std@@@Z 10008c10 f i ImfChannelListAttribute.obj
 0001:00007c30       ?staticTypeName@?$TypedAttribute@VChannelList@Imf@@@Imf@@SAPBDXZ 10008c30 f   ImfChannelListAttribute.obj
 0001:00007c40       ??$write@UStreamIO@Imf@@VOStream@2@@Xdr@Imf@@YAXAAVOStream@1@QBD@Z 10008c40 f i ImfChannelListAttribute.obj
 0001:00007c80       ??$write@UStreamIO@Imf@@VOStream@2@@Xdr@Imf@@YAXAAVOStream@1@_N@Z 10008c80 f i ImfChannelListAttribute.obj
 0001:00007ca0       ??$pad@UStreamIO@Imf@@VOStream@2@@Xdr@Imf@@YAXAAVOStream@1@H@Z 10008ca0 f i ImfChannelListAttribute.obj
 0001:00007cd0       ??$read@UStreamIO@Imf@@VIStream@2@@Xdr@Imf@@YAXAAVIStream@1@HQAD@Z 10008cd0 f i ImfChannelListAttribute.obj
 0001:00007d00       ??$read@UStreamIO@Imf@@VIStream@2@@Xdr@Imf@@YAXAAVIStream@1@AA_N@Z 10008d00 f i ImfChannelListAttribute.obj
 0001:00007d30       ??$skip@UStreamIO@Imf@@VIStream@2@@Xdr@Imf@@YAXAAVIStream@1@H@Z 10008d30 f i ImfChannelListAttribute.obj
 0001:00007da0       ?writeValueTo@?$TypedAttribute@VChannelList@Imf@@@Imf@@UBEXAAVOStream@2@H@Z 10008da0 f   ImfChannelListAttribute.obj
 0001:00007f60       ??$checkIsNullTerminated@$0BAA@@?A0x1f5ff9f2@Imf@@YAXAAY0BAA@$$CBDPBD@Z 10008f60 f i ImfHeader.obj
 0001:00007f60       ??$checkIsNullTerminated@$0BAA@@?A0xac196fcb@Imf@@YAXAAY0BAA@$$CBDPBD@Z 10008f60 f i ImfChannelListAttribute.obj
 0001:000080c0       ?readValueFrom@?$TypedAttribute@VChannelList@Imf@@@Imf@@UAEXAAVIStream@2@HH@Z 100090c0 f   ImfChannelListAttribute.obj
 0001:00008250       ??0SingMatrixExc@Imath@@QAE@PBD@Z 10009250 f i ImfChromaticities.obj
 0001:00008270       ?smallest@?$limits@M@Imath@@SAMXZ 10009270 f i ImfChromaticities.obj
 0001:00008280       ??A?$Matrix44@M@Imath@@QBEPBMH@Z 10009280 f i ImfCRgbaFile.obj
 0001:00008280       ??A?$Matrix44@M@Imath@@QAEPAMH@Z 10009280 f i ImfChromaticities.obj
 0001:00008290       ??0?$Matrix44@M@Imath@@QAE@ABV01@@Z 10009290 f i ImfChromaticities.obj
 0001:00008290       ??4?$Matrix44@M@Imath@@QAEABV01@ABV01@@Z 10009290 f i ImfCRgbaFile.obj
 0001:00008300       ??0?$Matrix44@M@Imath@@QAE@XZ 10009300 f i ImfChromaticities.obj
 0001:00008330       ??0?$Matrix44@M@Imath@@QAE@MMMMMMMMMMMMMMMM@Z 10009330 f i ImfChromaticities.obj
 0001:000083e0       ?gjInverse@?$Matrix44@M@Imath@@QBE?AV12@_N@Z 100093e0 f i ImfChromaticities.obj
 0001:00008cb0       ??$abs@M@Imath@@YAMM@Z     10009cb0 f i ImfChromaticities.obj
 0001:00008ce0       ??0Chromaticities@Imf@@QAE@ABV?$Vec2@M@Imath@@000@Z 10009ce0 f   ImfChromaticities.obj
 0001:00008d20       ?RGBtoXYZ@Imf@@YA?AV?$Matrix44@M@Imath@@UChromaticities@1@M@Z 10009d20 f   ImfChromaticities.obj
 0001:00009040       ??0Chromaticities@Imf@@QAE@ABU01@@Z 1000a040 f i ImfChromaticities.obj
 0001:00009040       ??4Chromaticities@Imf@@QAEAAU01@ABU01@@Z 1000a040 f i ImfHeader.obj
 0001:00009080       ?inverse@?$Matrix44@M@Imath@@QBE?AV12@_N@Z 1000a080 f i ImfChromaticities.obj
 0001:000095c0       ??0SingMatrixExc@Imath@@QAE@ABV01@@Z 1000a5c0 f i ImfChromaticities.obj
 0001:000095e0       ?XYZtoRGB@Imf@@YA?AV?$Matrix44@M@Imath@@UChromaticities@1@M@Z 1000a5e0 f   ImfChromaticities.obj
 0001:00009930       ?staticTypeName@?$TypedAttribute@UChromaticities@Imf@@@Imf@@SAPBDXZ 1000a930 f   ImfChromaticitiesAttribute.obj
 0001:00009940       ?writeValueTo@?$TypedAttribute@UChromaticities@Imf@@@Imf@@UBEXAAVOStream@2@H@Z 1000a940 f   ImfChromaticitiesAttribute.obj
 0001:00009b00       ?readValueFrom@?$TypedAttribute@UChromaticities@Imf@@@Imf@@UAEXAAVIStream@2@HH@Z 1000ab00 f   ImfChromaticitiesAttribute.obj
 0001:00009cf0       ?staticTypeName@?$TypedAttribute@W4Compression@Imf@@@Imf@@SAPBDXZ 1000acf0 f   ImfCompressionAttribute.obj
 0001:00009d00       ??$write@UStreamIO@Imf@@VOStream@2@@Xdr@Imf@@YAXAAVOStream@1@E@Z 1000ad00 f i ImfCompressionAttribute.obj
 0001:00009d00       ??$write@UStreamIO@Imf@@VOStream@2@@Xdr@Imf@@YAXAAVOStream@1@D@Z 1000ad00 f i ImfStringAttribute.obj
 0001:00009d20       ??$read@UStreamIO@Imf@@VIStream@2@@Xdr@Imf@@YAXAAVIStream@1@AAE@Z 1000ad20 f i ImfCompressionAttribute.obj
 0001:00009d20       ??$read@UStreamIO@Imf@@VIStream@2@@Xdr@Imf@@YAXAAVIStream@1@AAD@Z 1000ad20 f i ImfStringAttribute.obj
 0001:00009d40       ??0Compressor@Imf@@QAE@ABVHeader@1@@Z 1000ad40 f   ImfCompressor.obj
 0001:00009d60       ??1Compressor@Imf@@UAE@XZ  1000ad60 f   ImfCompressor.obj
 0001:00009d70       ?compressTile@Compressor@Imf@@UAEHPBDHV?$Box@V?$Vec2@H@Imath@@@Imath@@AAPBD@Z 1000ad70 f   ImfCompressor.obj
 0001:00009d90       ?uncompressTile@Compressor@Imf@@UAEHPBDHV?$Box@V?$Vec2@H@Imath@@@Imath@@AAPBD@Z 1000ad90 f   ImfCompressor.obj
 0001:00009db0       ?isValidCompression@Imf@@YA_NW4Compression@1@@Z 1000adb0 f   ImfCompressor.obj
 0001:00009dd0       ?newCompressor@Imf@@YAPAVCompressor@1@W4Compression@1@IABVHeader@1@@Z 1000add0 f   ImfCompressor.obj
 0001:00009fb0       ??_GCompressor@Imf@@UAEPAXI@Z 1000afb0 f i ImfCompressor.obj
 0001:00009fb0       ??_ECompressor@Imf@@UAEPAXI@Z 1000afb0 f i ImfCompressor.obj
 0001:00009fe0       ?newTileCompressor@Imf@@YAPAVCompressor@1@W4Compression@1@IIABVHeader@1@@Z 1000afe0 f   ImfCompressor.obj
 0001:0000a1d0       ?isNegative@?A0xd34937d7@Imf@@YA_NM@Z 1000b1d0 f i ImfConvert.obj
 0001:0000a1f0       ?isNan@?A0xd34937d7@Imf@@YA_NM@Z 1000b1f0 f i ImfConvert.obj
 0001:0000a220       ?isInfinity@?A0xd34937d7@Imf@@YA_NM@Z 1000b220 f i ImfConvert.obj
 0001:0000a250       ?isFinite@?A0xd34937d7@Imf@@YA_NM@Z 1000b250 f i ImfConvert.obj
 0001:0000a280       ?halfToUint@Imf@@YAIVhalf@@@Z 1000b280 f   ImfConvert.obj
 0001:0000a2f0       ?floatToUint@Imf@@YAIM@Z   1000b2f0 f   ImfConvert.obj
 0001:0000a370       ?uintToHalf@Imf@@YA?AVhalf@@I@Z 1000b370 f   ImfConvert.obj
 0001:0000a3c0       ?floatToHalf@Imf@@YA?AVhalf@@M@Z 1000b3c0 f   ImfConvert.obj
 0001:0000a430       ??0roundNBit@Imf@@QAE@H@Z  1000b430 f i ImfCRgbaFile.obj
 0001:0000a440       ??RroundNBit@Imf@@QAE?AVhalf@@V2@@Z 1000b440 f i ImfCRgbaFile.obj
 0001:0000a460       ?setErrorMessage@?A0xa29ce62f@@YAXABVexception@std@@@Z 1000b460 f   ImfCRgbaFile.obj
 0001:0000a490       _ImfFloatToHalf            1000b490 f   ImfCRgbaFile.obj
 0001:0000a4c0       _ImfFloatToHalfArray       1000b4c0 f   ImfCRgbaFile.obj
 0001:0000a500       _ImfHalfToFloat            1000b500 f   ImfCRgbaFile.obj
 0001:0000a520       _ImfHalfToFloatArray       1000b520 f   ImfCRgbaFile.obj
 0001:0000a5d0       ??_GHeader@Imf@@QAEPAXI@Z  1000b5d0 f i ImfCRgbaFile.obj
 0001:0000a600       _ImfCopyHeader             1000b600 f   ImfCRgbaFile.obj
 0001:0000a690       _ImfHeaderSetPixelAspectRatio 1000b690 f   ImfCRgbaFile.obj
 0001:0000a6b0       _ImfHeaderPixelAspectRatio 1000b6b0 f   ImfCRgbaFile.obj
 0001:0000a6c0       _ImfHeaderSetScreenWindowWidth 1000b6c0 f   ImfCRgbaFile.obj
 0001:0000a6e0       _ImfHeaderScreenWindowWidth 1000b6e0 f   ImfCRgbaFile.obj
 0001:0000a6f0       _ImfHeaderSetLineOrder     1000b6f0 f   ImfCRgbaFile.obj
 0001:0000a710       _ImfHeaderLineOrder        1000b710 f   ImfCRgbaFile.obj
 0001:0000a720       _ImfHeaderSetCompression   1000b720 f   ImfCRgbaFile.obj
 0001:0000a740       _ImfHeaderCompression      1000b740 f   ImfCRgbaFile.obj
 0001:0000a750       _ImfOpenOutputFile         1000b750 f   ImfCRgbaFile.obj
 0001:0000a7f0       _ImfCloseTiledInputFile    1000b7f0 f   ImfCRgbaFile.obj
 0001:0000a7f0       _ImfCloseInputFile         1000b7f0 f   ImfCRgbaFile.obj
 0001:0000a7f0       _ImfCloseTiledOutputFile   1000b7f0 f   ImfCRgbaFile.obj
 0001:0000a7f0       _ImfCloseOutputFile        1000b7f0 f   ImfCRgbaFile.obj
 0001:0000a870       _ImfOutputSetFrameBuffer   1000b870 f   ImfCRgbaFile.obj
 0001:0000a900       _ImfOutputWritePixels      1000b900 f   ImfCRgbaFile.obj
 0001:0000a980       _ImfOutputCurrentScanLine  1000b980 f   ImfCRgbaFile.obj
 0001:0000a990       _ImfInputHeader            1000b990 f   ImfCRgbaFile.obj
 0001:0000a990       _ImfOutputHeader           1000b990 f   ImfCRgbaFile.obj
 0001:0000a990       _ImfTiledInputHeader       1000b990 f   ImfCRgbaFile.obj
 0001:0000a990       _ImfTiledOutputHeader      1000b990 f   ImfCRgbaFile.obj
 0001:0000a9a0       _ImfOutputChannels         1000b9a0 f   ImfCRgbaFile.obj
 0001:0000a9b0       _ImfOpenTiledOutputFile    1000b9b0 f   ImfCRgbaFile.obj
 0001:0000aa60       _ImfTiledOutputSetFrameBuffer 1000ba60 f   ImfCRgbaFile.obj
 0001:0000aaf0       _ImfTiledOutputWriteTile   1000baf0 f   ImfCRgbaFile.obj
 0001:0000ab80       _ImfTiledOutputWriteTiles  1000bb80 f   ImfCRgbaFile.obj
 0001:0000ac10       _ImfTiledOutputChannels    1000bc10 f   ImfCRgbaFile.obj
 0001:0000ac20       _ImfTiledOutputLevelRoundingMode 1000bc20 f   ImfCRgbaFile.obj
 0001:0000ac30       _ImfOpenInputFile          1000bc30 f   ImfCRgbaFile.obj
 0001:0000acd0       _ImfInputSetFrameBuffer    1000bcd0 f   ImfCRgbaFile.obj
 0001:0000ad60       _ImfInputReadPixels        1000bd60 f   ImfCRgbaFile.obj
 0001:0000ade0       _ImfInputChannels          1000bde0 f   ImfCRgbaFile.obj
 0001:0000adf0       _ImfInputFileName          1000bdf0 f   ImfCRgbaFile.obj
 0001:0000ae00       _ImfOpenTiledInputFile     1000be00 f   ImfCRgbaFile.obj
 0001:0000aea0       _ImfTiledInputSetFrameBuffer 1000bea0 f   ImfCRgbaFile.obj
 0001:0000af30       _ImfTiledInputReadTile     1000bf30 f   ImfCRgbaFile.obj
 0001:0000afc0       _ImfTiledInputReadTiles    1000bfc0 f   ImfCRgbaFile.obj
 0001:0000b050       _ImfTiledInputChannels     1000c050 f   ImfCRgbaFile.obj
 0001:0000b060       _ImfTiledInputFileName     1000c060 f   ImfCRgbaFile.obj
 0001:0000b070       _ImfTiledInputTileXSize    1000c070 f   ImfCRgbaFile.obj
 0001:0000b080       _ImfTiledInputTileYSize    1000c080 f   ImfCRgbaFile.obj
 0001:0000b080       _ImfTiledOutputTileXSize   1000c080 f   ImfCRgbaFile.obj
 0001:0000b090       _ImfTiledOutputTileYSize   1000c090 f   ImfCRgbaFile.obj
 0001:0000b090       _ImfTiledInputLevelMode    1000c090 f   ImfCRgbaFile.obj
 0001:0000b0a0       _ImfTiledInputLevelRoundingMode 1000c0a0 f   ImfCRgbaFile.obj
 0001:0000b0a0       _ImfTiledOutputLevelMode   1000c0a0 f   ImfCRgbaFile.obj
 0001:0000b0b0       _ImfApplyLut               1000c0b0 f   ImfCRgbaFile.obj
 0001:0000b0d0       _ImfErrorMessage           1000c0d0 f   ImfCRgbaFile.obj
 0001:0000b0e0       ??0?$Vec3@H@Imath@@QAE@HHH@Z 1000c0e0 f i ImfCRgbaFile.obj
 0001:0000b100       ??4?$Vec3@H@Imath@@QAEABV01@ABV01@@Z 1000c100 f i ImfCRgbaFile.obj
 0001:0000b100       ??0?$Vec3@H@Imath@@QAE@ABV01@@Z 1000c100 f i ImfCRgbaFile.obj
 0001:0000b120       ??0?$Vec2@M@Imath@@QAE@MM@Z 1000c120 f i ImfCRgbaFile.obj
 0001:0000b140       ??4?$Vec2@M@Imath@@QAEABV01@ABV01@@Z 1000c140 f i ImfCRgbaFile.obj
 0001:0000b140       ??0?$Vec2@M@Imath@@QAE@ABV01@@Z 1000c140 f i ImfChromaticities.obj
 0001:0000b160       ??0?$TypedAttribute@H@Imf@@QAE@ABH@Z 1000c160 f i ImfCRgbaFile.obj
 0001:0000b180       ??1?$TypedAttribute@H@Imf@@UAE@XZ 1000c180 f i ImfCRgbaFile.obj
 0001:0000b190       ?typeName@?$TypedAttribute@H@Imf@@UBEPBDXZ 1000c190 f i ImfCRgbaFile.obj
 0001:0000b1a0       ??1?$TypedAttribute@V?$Box@V?$Vec2@H@Imath@@@Imath@@@Imf@@UAE@XZ 1000c1a0 f i ImfCRgbaFile.obj
 0001:0000b1b0       ?min@?$limits@H@Imath@@SAHXZ 1000c1b0 f i ImfCRgbaFile.obj
 0001:0000b1b0       ?baseTypeMin@?$Vec2@H@Imath@@SAHXZ 1000c1b0 f i ImfCRgbaFile.obj
 0001:0000b1c0       ?typeName@?$TypedAttribute@V?$Box@V?$Vec2@H@Imath@@@Imath@@@Imf@@UBEPBDXZ 1000c1c0 f i ImfCRgbaFile.obj
 0001:0000b1d0       ??1?$TypedAttribute@V?$Box@V?$Vec2@M@Imath@@@Imath@@@Imf@@UAE@XZ 1000c1d0 f i ImfCRgbaFile.obj
 0001:0000b1e0       ?baseTypeMax@?$Vec2@M@Imath@@SAMXZ 1000c1e0 f i ImfCRgbaFile.obj
 0001:0000b1e0       ?max@?$limits@M@Imath@@SAMXZ 1000c1e0 f i ImfCRgbaFile.obj
 0001:0000b1f0       ?typeName@?$TypedAttribute@V?$Box@V?$Vec2@M@Imath@@@Imath@@@Imf@@UBEPBDXZ 1000c1f0 f i ImfCRgbaFile.obj
 0001:0000b200       ??0?$TypedAttribute@V?$Vec2@H@Imath@@@Imf@@QAE@ABV?$Vec2@H@Imath@@@Z 1000c200 f i ImfCRgbaFile.obj
 0001:0000b230       ??1?$TypedAttribute@V?$Vec2@H@Imath@@@Imf@@UAE@XZ 1000c230 f i ImfCRgbaFile.obj
 0001:0000b240       ?typeName@?$TypedAttribute@V?$Vec2@H@Imath@@@Imf@@UBEPBDXZ 1000c240 f i ImfCRgbaFile.obj
 0001:0000b250       ??1?$TypedAttribute@V?$Vec2@M@Imath@@@Imf@@UAE@XZ 1000c250 f i ImfCRgbaFile.obj
 0001:0000b260       ?value@?$TypedAttribute@V?$Vec3@H@Imath@@@Imf@@QBEABV?$Vec3@H@Imath@@XZ 1000c260 f i ImfCRgbaFile.obj
 0001:0000b260       ?value@?$TypedAttribute@VChannelList@Imf@@@Imf@@QAEAAVChannelList@2@XZ 1000c260 f i ImfHeader.obj
 0001:0000b260       ?value@?$TypedAttribute@W4Compression@Imf@@@Imf@@QAEAAW4Compression@2@XZ 1000c260 f i ImfHeader.obj
 0001:0000b260       ?value@?$TypedAttribute@V?$Matrix33@M@Imath@@@Imf@@QBEABV?$Matrix33@M@Imath@@XZ 1000c260 f i ImfCRgbaFile.obj
 0001:0000b260       ?value@?$TypedAttribute@V?$Vec3@M@Imath@@@Imf@@QBEABV?$Vec3@M@Imath@@XZ 1000c260 f i ImfCRgbaFile.obj
 0001:0000b260       ?value@?$TypedAttribute@V?$Matrix44@M@Imath@@@Imf@@QBEABV?$Matrix44@M@Imath@@XZ 1000c260 f i ImfCRgbaFile.obj
 0001:0000b260       ?value@?$TypedAttribute@W4Compression@Imf@@@Imf@@QBEABW4Compression@2@XZ 1000c260 f i ImfHeader.obj
 0001:0000b260       ?value@?$TypedAttribute@V?$Box@V?$Vec2@M@Imath@@@Imath@@@Imf@@QBEABV?$Box@V?$Vec2@M@Imath@@@Imath@@XZ 1000c260 f i ImfCRgbaFile.obj
 0001:0000b260       ?value@?$TypedAttribute@V?$basic_string@DU?$char_traits@D@std@@V?$allocator@D@2@@std@@@Imf@@QBEABV?$basic_string@DU?$char_traits@D@std@@V?$allocator@D@2@@std@@XZ 1000c260 f i ImfCRgbaFile.obj
 0001:0000b260       ?value@?$TypedAttribute@V?$Vec2@H@Imath@@@Imf@@QAEAAV?$Vec2@H@Imath@@XZ 1000c260 f i ImfCRgbaFile.obj
 0001:0000b260       ?value@?$TypedAttribute@V?$Box@V?$Vec2@M@Imath@@@Imath@@@Imf@@QAEAAV?$Box@V?$Vec2@M@Imath@@@Imath@@XZ 1000c260 f i ImfCRgbaFile.obj
 0001:0000b260       ?value@?$TypedAttribute@M@Imf@@QAEAAMXZ 1000c260 f i ImfAttribute.obj
 0001:0000b260       ?value@?$TypedAttribute@UChromaticities@Imf@@@Imf@@QBEABUChromaticities@2@XZ 1000c260 f i ImfStandardAttributes.obj
 0001:0000b260       ?value@?$TypedAttribute@VKeyCode@Imf@@@Imf@@QAEAAVKeyCode@2@XZ 1000c260 f i ImfStandardAttributes.obj
 0001:0000b260       ?value@?$TypedAttribute@W4LineOrder@Imf@@@Imf@@QAEAAW4LineOrder@2@XZ 1000c260 f i ImfHeader.obj
 0001:0000b260       ?value@?$TypedAttribute@M@Imf@@QBEABMXZ 1000c260 f i ImfAttribute.obj
 0001:0000b260       ?value@?$TypedAttribute@V?$Vec3@M@Imath@@@Imf@@QAEAAV?$Vec3@M@Imath@@XZ 1000c260 f i ImfCRgbaFile.obj
 0001:0000b260       ?value@?$TypedAttribute@W4Envmap@Imf@@@Imf@@QAEAAW4Envmap@2@XZ 1000c260 f i ImfStandardAttributes.obj
 0001:0000b260       ?value@?$TypedAttribute@V?$Box@V?$Vec2@H@Imath@@@Imath@@@Imf@@QAEAAV?$Box@V?$Vec2@H@Imath@@@Imath@@XZ 1000c260 f i ImfCRgbaFile.obj
 0001:0000b260       ?value@?$TypedAttribute@V?$Box@V?$Vec2@H@Imath@@@Imath@@@Imf@@QBEABV?$Box@V?$Vec2@H@Imath@@@Imath@@XZ 1000c260 f i ImfCRgbaFile.obj
 0001:0000b260       ?value@?$TypedAttribute@UChromaticities@Imf@@@Imf@@QAEAAUChromaticities@2@XZ 1000c260 f i ImfStandardAttributes.obj
 0001:0000b260       ?value@?$TypedAttribute@VPreviewImage@Imf@@@Imf@@QAEAAVPreviewImage@2@XZ 1000c260 f i ImfHeader.obj
 0001:0000b260       ?value@?$TypedAttribute@VRational@Imf@@@Imf@@QAEAAVRational@2@XZ 1000c260 f i ImfStandardAttributes.obj
 0001:0000b260       ?value@?$TypedAttribute@V?$vector@V?$basic_string@DU?$char_traits@D@std@@V?$allocator@D@2@@std@@V?$allocator@V?$basic_string@DU?$char_traits@D@std@@V?$allocator@D@2@@std@@@2@@std@@@Imf@@QAEAAV?$vector@V?$basic_string@DU?$char_traits@D@std@@V?$allocator@D@2@@std@@V?$allocator@V?$basic_string@DU?$char_traits@D@std@@V?$allocator@D@2@@std@@@2@@std@@XZ 1000c260 f i ImfStandardAttributes.obj
 0001:0000b260       ?value@?$TypedAttribute@VTimeCode@Imf@@@Imf@@QBEABVTimeCode@2@XZ 1000c260 f i ImfStandardAttributes.obj
 0001:0000b260       ?value@?$TypedAttribute@VRational@Imf@@@Imf@@QBEABVRational@2@XZ 1000c260 f i ImfStandardAttributes.obj
 0001:0000b260       ?value@?$TypedAttribute@V?$Vec2@H@Imath@@@Imf@@QBEABV?$Vec2@H@Imath@@XZ 1000c260 f i ImfCRgbaFile.obj
 0001:0000b260       ?value@?$TypedAttribute@V?$Vec3@H@Imath@@@Imf@@QAEAAV?$Vec3@H@Imath@@XZ 1000c260 f i ImfCRgbaFile.obj
 0001:0000b260       ?value@?$TypedAttribute@VTileDescription@Imf@@@Imf@@QBEABVTileDescription@2@XZ 1000c260 f i ImfHeader.obj
 0001:0000b260       ?value@?$TypedAttribute@VTileDescription@Imf@@@Imf@@QAEAAVTileDescription@2@XZ 1000c260 f i ImfHeader.obj
 0001:0000b260       ?value@?$TypedAttribute@V?$Matrix44@M@Imath@@@Imf@@QAEAAV?$Matrix44@M@Imath@@XZ 1000c260 f i ImfCRgbaFile.obj
 0001:0000b260       ?value@?$TypedAttribute@V?$Matrix33@M@Imath@@@Imf@@QAEAAV?$Matrix33@M@Imath@@XZ 1000c260 f i ImfCRgbaFile.obj
 0001:0000b260       ?value@?$TypedAttribute@VTimeCode@Imf@@@Imf@@QAEAAVTimeCode@2@XZ 1000c260 f i ImfStandardAttributes.obj
 0001:0000b260       ?value@?$TypedAttribute@VPreviewImage@Imf@@@Imf@@QBEABVPreviewImage@2@XZ 1000c260 f i ImfHeader.obj
 0001:0000b260       ?value@?$TypedAttribute@VChannelList@Imf@@@Imf@@QBEABVChannelList@2@XZ 1000c260 f i ImfHeader.obj
 0001:0000b260       ?value@?$TypedAttribute@V?$Vec2@M@Imath@@@Imf@@QAEAAV?$Vec2@M@Imath@@XZ 1000c260 f i ImfCRgbaFile.obj
 0001:0000b260       ?value@?$TypedAttribute@V?$vector@V?$basic_string@DU?$char_traits@D@std@@V?$allocator@D@2@@std@@V?$allocator@V?$basic_string@DU?$char_traits@D@std@@V?$allocator@D@2@@std@@@2@@std@@@Imf@@QBEABV?$vector@V?$basic_string@DU?$char_traits@D@std@@V?$allocator@D@2@@std@@V?$allocator@V?$basic_string@DU?$char_traits@D@std@@V?$allocator@D@2@@std@@@2@@std@@XZ 1000c260 f i ImfStandardAttributes.obj
 0001:0000b260       ?value@?$TypedAttribute@V?$basic_string@DU?$char_traits@D@std@@V?$allocator@D@2@@std@@@Imf@@QAEAAV?$basic_string@DU?$char_traits@D@std@@V?$allocator@D@2@@std@@XZ 1000c260 f i ImfCRgbaFile.obj
 0001:0000b260       ?value@?$TypedAttribute@VKeyCode@Imf@@@Imf@@QBEABVKeyCode@2@XZ 1000c260 f i ImfStandardAttributes.obj
 0001:0000b260       ?value@?$TypedAttribute@W4LineOrder@Imf@@@Imf@@QBEABW4LineOrder@2@XZ 1000c260 f i ImfHeader.obj
 0001:0000b260       ?value@?$TypedAttribute@V?$Vec2@M@Imath@@@Imf@@QBEABV?$Vec2@M@Imath@@XZ 1000c260 f i ImfCRgbaFile.obj
 0001:0000b260       ?value@?$TypedAttribute@H@Imf@@QBEABHXZ 1000c260 f i ImfCRgbaFile.obj
 0001:0000b260       ?value@?$TypedAttribute@W4Envmap@Imf@@@Imf@@QBEABW4Envmap@2@XZ 1000c260 f i ImfStandardAttributes.obj
 0001:0000b260       ?value@?$TypedAttribute@H@Imf@@QAEAAHXZ 1000c260 f i ImfCRgbaFile.obj
 0001:0000b270       ?typeName@?$TypedAttribute@V?$Vec2@M@Imath@@@Imf@@UBEPBDXZ 1000c270 f i ImfCRgbaFile.obj
 0001:0000b280       ??1?$TypedAttribute@V?$Vec3@H@Imath@@@Imf@@UAE@XZ 1000c280 f i ImfCRgbaFile.obj
 0001:0000b290       ?typeName@?$TypedAttribute@V?$Vec3@H@Imath@@@Imf@@UBEPBDXZ 1000c290 f i ImfCRgbaFile.obj
 0001:0000b2a0       ??0?$Vec3@M@Imath@@QAE@MMM@Z 1000c2a0 f i ImfCRgbaFile.obj
 0001:0000b2d0       ??1?$TypedAttribute@V?$Vec3@M@Imath@@@Imf@@UAE@XZ 1000c2d0 f i ImfCRgbaFile.obj
 0001:0000b2e0       ?typeName@?$TypedAttribute@V?$Vec3@M@Imath@@@Imf@@UBEPBDXZ 1000c2e0 f i ImfCRgbaFile.obj
 0001:0000b2f0       ??1?$TypedAttribute@V?$Matrix33@M@Imath@@@Imf@@UAE@XZ 1000c2f0 f i ImfCRgbaFile.obj
 0001:0000b300       ?typeName@?$TypedAttribute@V?$Matrix33@M@Imath@@@Imf@@UBEPBDXZ 1000c300 f i ImfCRgbaFile.obj
 0001:0000b310       ??0?$Matrix44@M@Imath@@QAE@QAY03$$CBM@Z 1000c310 f i ImfCRgbaFile.obj
 0001:0000b330       ??1?$TypedAttribute@V?$Matrix44@M@Imath@@@Imf@@UAE@XZ 1000c330 f i ImfCRgbaFile.obj
 0001:0000b340       ?typeName@?$TypedAttribute@V?$Matrix44@M@Imath@@@Imf@@UBEPBDXZ 1000c340 f i ImfCRgbaFile.obj
 0001:0000b350       ??$?0M@?$Vec2@H@Imath@@QAE@ABV?$Vec2@M@1@@Z 1000c350 f i ImfCRgbaFile.obj
 0001:0000b370       ??$typedAttribute@V?$TypedAttribute@H@Imf@@@Header@Imf@@QBEABV?$TypedAttribute@H@1@QBD@Z 1000c370 f i ImfCRgbaFile.obj
 0001:0000b370       ??$typedAttribute@V?$TypedAttribute@H@Imf@@@Header@Imf@@QAEAAV?$TypedAttribute@H@1@QBD@Z 1000c370 f i ImfCRgbaFile.obj
 0001:0000b3e0       ??$typedAttribute@V?$TypedAttribute@M@Imf@@@Header@Imf@@QBEABV?$TypedAttribute@M@1@QBD@Z 1000c3e0 f i ImfCRgbaFile.obj
 0001:0000b3e0       ??$typedAttribute@V?$TypedAttribute@M@Imf@@@Header@Imf@@QAEAAV?$TypedAttribute@M@1@QBD@Z 1000c3e0 f i ImfCRgbaFile.obj
 0001:0000b450       ??$typedAttribute@V?$TypedAttribute@N@Imf@@@Header@Imf@@QAEAAV?$TypedAttribute@N@1@QBD@Z 1000c450 f i ImfCRgbaFile.obj
 0001:0000b450       ??$typedAttribute@V?$TypedAttribute@N@Imf@@@Header@Imf@@QBEABV?$TypedAttribute@N@1@QBD@Z 1000c450 f i ImfCRgbaFile.obj
 0001:0000b4c0       ??$typedAttribute@V?$TypedAttribute@V?$basic_string@DU?$char_traits@D@std@@V?$allocator@D@2@@std@@@Imf@@@Header@Imf@@QAEAAV?$TypedAttribute@V?$basic_string@DU?$char_traits@D@std@@V?$allocator@D@2@@std@@@1@QBD@Z 1000c4c0 f i ImfCRgbaFile.obj
 0001:0000b4c0       ??$typedAttribute@V?$TypedAttribute@V?$basic_string@DU?$char_traits@D@std@@V?$allocator@D@2@@std@@@Imf@@@Header@Imf@@QBEABV?$TypedAttribute@V?$basic_string@DU?$char_traits@D@std@@V?$allocator@D@2@@std@@@1@QBD@Z 1000c4c0 f i ImfCRgbaFile.obj
 0001:0000b530       ??$typedAttribute@V?$TypedAttribute@V?$Box@V?$Vec2@H@Imath@@@Imath@@@Imf@@@Header@Imf@@QAEAAV?$TypedAttribute@V?$Box@V?$Vec2@H@Imath@@@Imath@@@1@QBD@Z 1000c530 f i ImfCRgbaFile.obj
 0001:0000b530       ??$typedAttribute@V?$TypedAttribute@V?$Box@V?$Vec2@H@Imath@@@Imath@@@Imf@@@Header@Imf@@QBEABV?$TypedAttribute@V?$Box@V?$Vec2@H@Imath@@@Imath@@@1@QBD@Z 1000c530 f i ImfCRgbaFile.obj
 0001:0000b5a0       ??$typedAttribute@V?$TypedAttribute@V?$Box@V?$Vec2@M@Imath@@@Imath@@@Imf@@@Header@Imf@@QAEAAV?$TypedAttribute@V?$Box@V?$Vec2@M@Imath@@@Imath@@@1@QBD@Z 1000c5a0 f i ImfCRgbaFile.obj
 0001:0000b5a0       ??$typedAttribute@V?$TypedAttribute@V?$Box@V?$Vec2@M@Imath@@@Imath@@@Imf@@@Header@Imf@@QBEABV?$TypedAttribute@V?$Box@V?$Vec2@M@Imath@@@Imath@@@1@QBD@Z 1000c5a0 f i ImfCRgbaFile.obj
 0001:0000b610       ??$typedAttribute@V?$TypedAttribute@V?$Vec2@H@Imath@@@Imf@@@Header@Imf@@QAEAAV?$TypedAttribute@V?$Vec2@H@Imath@@@1@QBD@Z 1000c610 f i ImfCRgbaFile.obj
 0001:0000b610       ??$typedAttribute@V?$TypedAttribute@V?$Vec2@H@Imath@@@Imf@@@Header@Imf@@QBEABV?$TypedAttribute@V?$Vec2@H@Imath@@@1@QBD@Z 1000c610 f i ImfCRgbaFile.obj
 0001:0000b680       ??$typedAttribute@V?$TypedAttribute@V?$Vec2@M@Imath@@@Imf@@@Header@Imf@@QBEABV?$TypedAttribute@V?$Vec2@M@Imath@@@1@QBD@Z 1000c680 f i ImfCRgbaFile.obj
 0001:0000b680       ??$typedAttribute@V?$TypedAttribute@V?$Vec2@M@Imath@@@Imf@@@Header@Imf@@QAEAAV?$TypedAttribute@V?$Vec2@M@Imath@@@1@QBD@Z 1000c680 f i ImfCRgbaFile.obj
 0001:0000b6f0       ??$typedAttribute@V?$TypedAttribute@V?$Vec3@H@Imath@@@Imf@@@Header@Imf@@QBEABV?$TypedAttribute@V?$Vec3@H@Imath@@@1@QBD@Z 1000c6f0 f i ImfCRgbaFile.obj
 0001:0000b6f0       ??$typedAttribute@V?$TypedAttribute@V?$Vec3@H@Imath@@@Imf@@@Header@Imf@@QAEAAV?$TypedAttribute@V?$Vec3@H@Imath@@@1@QBD@Z 1000c6f0 f i ImfCRgbaFile.obj
 0001:0000b760       ??$typedAttribute@V?$TypedAttribute@V?$Vec3@M@Imath@@@Imf@@@Header@Imf@@QBEABV?$TypedAttribute@V?$Vec3@M@Imath@@@1@QBD@Z 1000c760 f i ImfCRgbaFile.obj
 0001:0000b760       ??$typedAttribute@V?$TypedAttribute@V?$Vec3@M@Imath@@@Imf@@@Header@Imf@@QAEAAV?$TypedAttribute@V?$Vec3@M@Imath@@@1@QBD@Z 1000c760 f i ImfCRgbaFile.obj
 0001:0000b7d0       ??$typedAttribute@V?$TypedAttribute@V?$Matrix33@M@Imath@@@Imf@@@Header@Imf@@QBEABV?$TypedAttribute@V?$Matrix33@M@Imath@@@1@QBD@Z 1000c7d0 f i ImfCRgbaFile.obj
 0001:0000b7d0       ??$typedAttribute@V?$TypedAttribute@V?$Matrix33@M@Imath@@@Imf@@@Header@Imf@@QAEAAV?$TypedAttribute@V?$Matrix33@M@Imath@@@1@QBD@Z 1000c7d0 f i ImfCRgbaFile.obj
 0001:0000b840       ??$typedAttribute@V?$TypedAttribute@V?$Matrix44@M@Imath@@@Imf@@@Header@Imf@@QAEAAV?$TypedAttribute@V?$Matrix44@M@Imath@@@1@QBD@Z 1000c840 f i ImfCRgbaFile.obj
 0001:0000b840       ??$typedAttribute@V?$TypedAttribute@V?$Matrix44@M@Imath@@@Imf@@@Header@Imf@@QBEABV?$TypedAttribute@V?$Matrix44@M@Imath@@@1@QBD@Z 1000c840 f i ImfCRgbaFile.obj
 0001:0000b8b0       ??_G?$TypedAttribute@H@Imf@@UAEPAXI@Z 1000c8b0 f i ImfCRgbaFile.obj
 0001:0000b8b0       ??_E?$TypedAttribute@H@Imf@@UAEPAXI@Z 1000c8b0 f i ImfCRgbaFile.obj
 0001:0000b8e0       ??_E?$TypedAttribute@V?$Box@V?$Vec2@H@Imath@@@Imath@@@Imf@@UAEPAXI@Z 1000c8e0 f i ImfCRgbaFile.obj
 0001:0000b8e0       ??_G?$TypedAttribute@V?$Box@V?$Vec2@H@Imath@@@Imath@@@Imf@@UAEPAXI@Z 1000c8e0 f i ImfCRgbaFile.obj
 0001:0000b910       ??_E?$TypedAttribute@V?$Box@V?$Vec2@M@Imath@@@Imath@@@Imf@@UAEPAXI@Z 1000c910 f i ImfCRgbaFile.obj
 0001:0000b910       ??_G?$TypedAttribute@V?$Box@V?$Vec2@M@Imath@@@Imath@@@Imf@@UAEPAXI@Z 1000c910 f i ImfCRgbaFile.obj
 0001:0000b940       ??_E?$TypedAttribute@V?$Vec2@H@Imath@@@Imf@@UAEPAXI@Z 1000c940 f i ImfCRgbaFile.obj
 0001:0000b940       ??_G?$TypedAttribute@V?$Vec2@H@Imath@@@Imf@@UAEPAXI@Z 1000c940 f i ImfCRgbaFile.obj
 0001:0000b970       ??_E?$TypedAttribute@V?$Vec2@M@Imath@@@Imf@@UAEPAXI@Z 1000c970 f i ImfCRgbaFile.obj
 0001:0000b970       ??_G?$TypedAttribute@V?$Vec2@M@Imath@@@Imf@@UAEPAXI@Z 1000c970 f i ImfCRgbaFile.obj
 0001:0000b9a0       ??_G?$TypedAttribute@V?$Vec3@H@Imath@@@Imf@@UAEPAXI@Z 1000c9a0 f i ImfCRgbaFile.obj
 0001:0000b9a0       ??_E?$TypedAttribute@V?$Vec3@H@Imath@@@Imf@@UAEPAXI@Z 1000c9a0 f i ImfCRgbaFile.obj
 0001:0000b9d0       ??_G?$TypedAttribute@V?$Vec3@M@Imath@@@Imf@@UAEPAXI@Z 1000c9d0 f i ImfCRgbaFile.obj
 0001:0000b9d0       ??_E?$TypedAttribute@V?$Vec3@M@Imath@@@Imf@@UAEPAXI@Z 1000c9d0 f i ImfCRgbaFile.obj
 0001:0000ba00       ??_G?$TypedAttribute@V?$Matrix33@M@Imath@@@Imf@@UAEPAXI@Z 1000ca00 f i ImfCRgbaFile.obj
 0001:0000ba00       ??_E?$TypedAttribute@V?$Matrix33@M@Imath@@@Imf@@UAEPAXI@Z 1000ca00 f i ImfCRgbaFile.obj
 0001:0000ba30       ??_E?$TypedAttribute@V?$Matrix44@M@Imath@@@Imf@@UAEPAXI@Z 1000ca30 f i ImfCRgbaFile.obj
 0001:0000ba30       ??_G?$TypedAttribute@V?$Matrix44@M@Imath@@@Imf@@UAEPAXI@Z 1000ca30 f i ImfCRgbaFile.obj
 0001:0000ba60       ??0?$TypedAttribute@H@Imf@@QAE@XZ 1000ca60 f i ImfCRgbaFile.obj
 0001:0000ba80       ??0?$TypedAttribute@V?$Vec2@H@Imath@@@Imf@@QAE@XZ 1000ca80 f i ImfCRgbaFile.obj
 0001:0000baa0       ??0?$TypedAttribute@V?$Vec2@M@Imath@@@Imf@@QAE@XZ 1000caa0 f i ImfCRgbaFile.obj
 0001:0000bac0       ??4?$Vec3@M@Imath@@QAEABV01@ABV01@@Z 1000cac0 f i ImfCRgbaFile.obj
 0001:0000bac0       ??0?$Vec3@M@Imath@@QAE@ABV01@@Z 1000cac0 f i ImfCRgbaFile.obj
 0001:0000bae0       ??4?$Matrix33@M@Imath@@QAEABV01@ABV01@@Z 1000cae0 f i ImfCRgbaFile.obj
 0001:0000bae0       ??0?$Matrix33@M@Imath@@QAE@QAY02$$CBM@Z 1000cae0 f i ImfCRgbaFile.obj
 0001:0000bae0       ??0?$Matrix33@M@Imath@@QAE@ABV01@@Z 1000cae0 f i ImfCRgbaFile.obj
 0001:0000bb20       ??_H@YGXPAXIHP6EPAX0@Z@Z   1000cb20 f i ImfCRgbaFile.obj
 0001:0000bb50       ?cast@?$TypedAttribute@H@Imf@@SAABV12@ABVAttribute@2@@Z 1000cb50 f i ImfCRgbaFile.obj
 0001:0000bb50       ?cast@?$TypedAttribute@H@Imf@@SAPBV12@PBVAttribute@2@@Z 1000cb50 f i ImfCRgbaFile.obj
 0001:0000bbb0       ?cast@?$TypedAttribute@V?$Box@V?$Vec2@M@Imath@@@Imath@@@Imf@@SAPBV12@PBVAttribute@2@@Z 1000cbb0 f i ImfCRgbaFile.obj
 0001:0000bbb0       ?cast@?$TypedAttribute@V?$Box@V?$Vec2@M@Imath@@@Imath@@@Imf@@SAABV12@ABVAttribute@2@@Z 1000cbb0 f i ImfCRgbaFile.obj
 0001:0000bc10       ?cast@?$TypedAttribute@V?$Vec3@M@Imath@@@Imf@@SAPBV12@PBVAttribute@2@@Z 1000cc10 f i ImfCRgbaFile.obj
 0001:0000bc10       ?cast@?$TypedAttribute@V?$Vec3@M@Imath@@@Imf@@SAABV12@ABVAttribute@2@@Z 1000cc10 f i ImfCRgbaFile.obj
 0001:0000bc70       ??0?$Matrix33@M@Imath@@QAE@XZ 1000cc70 f i ImfCRgbaFile.obj
 0001:0000bcb0       ?cast@?$TypedAttribute@V?$Matrix33@M@Imath@@@Imf@@SAPBV12@PBVAttribute@2@@Z 1000ccb0 f i ImfCRgbaFile.obj
 0001:0000bcb0       ?cast@?$TypedAttribute@V?$Matrix33@M@Imath@@@Imf@@SAABV12@ABVAttribute@2@@Z 1000ccb0 f i ImfCRgbaFile.obj
 0001:0000bd10       ?cast@?$TypedAttribute@V?$Matrix44@M@Imath@@@Imf@@SAPBV12@PBVAttribute@2@@Z 1000cd10 f i ImfCRgbaFile.obj
 0001:0000bd10       ?cast@?$TypedAttribute@V?$Matrix44@M@Imath@@@Imf@@SAABV12@ABVAttribute@2@@Z 1000cd10 f i ImfCRgbaFile.obj
 0001:0000bd70       ?max@?$limits@H@Imath@@SAHXZ 1000cd70 f i ImfCRgbaFile.obj
 0001:0000bd70       ?baseTypeMax@?$Vec2@H@Imath@@SAHXZ 1000cd70 f i ImfCRgbaFile.obj
 0001:0000bd80       ?baseTypeMin@?$Vec2@M@Imath@@SAMXZ 1000cd80 f i ImfCRgbaFile.obj
 0001:0000bd80       ?min@?$limits@M@Imath@@SAMXZ 1000cd80 f i ImfCRgbaFile.obj
 0001:0000bd90       ??0?$Vec2@H@Imath@@QAE@H@Z 1000cd90 f i ImfCRgbaFile.obj
 0001:0000bdb0       ??0?$Vec2@M@Imath@@QAE@M@Z 1000cdb0 f i ImfCRgbaFile.obj
 0001:0000bdd0       _ImfNewHeader              1000cdd0 f   ImfCRgbaFile.obj
 0001:0000be90       _ImfDeleteHeader           1000ce90 f   ImfCRgbaFile.obj
 0001:0000beb0       _ImfHeaderDataWindow       1000ceb0 f   ImfCRgbaFile.obj
 0001:0000bee0       _ImfHeaderSetScreenWindowCenter 1000cee0 f   ImfCRgbaFile.obj
 0001:0000bf00       _ImfHeaderScreenWindowCenter 1000cf00 f   ImfCRgbaFile.obj
 0001:0000bf40       _ImfHeaderSetIntAttribute  1000cf40 f   ImfCRgbaFile.obj
 0001:0000c060       _ImfHeaderIntAttribute     1000d060 f   ImfCRgbaFile.obj
 0001:0000c120       _ImfHeaderSetFloatAttribute 1000d120 f   ImfCRgbaFile.obj
 0001:0000c240       _ImfHeaderSetDoubleAttribute 1000d240 f   ImfCRgbaFile.obj
 0001:0000c360       _ImfHeaderFloatAttribute   1000d360 f   ImfCRgbaFile.obj
 0001:0000c420       _ImfHeaderDoubleAttribute  1000d420 f   ImfCRgbaFile.obj
 0001:0000c4e0       _ImfHeaderBox2iAttribute   1000d4e0 f   ImfCRgbaFile.obj
 0001:0000c5c0       _ImfHeaderBox2fAttribute   1000d5c0 f   ImfCRgbaFile.obj
 0001:0000c6a0       _ImfHeaderSetV2iAttribute  1000d6a0 f   ImfCRgbaFile.obj
 0001:0000c7d0       _ImfHeaderV2iAttribute     1000d7d0 f   ImfCRgbaFile.obj
 0001:0000c8a0       _ImfHeaderV2fAttribute     1000d8a0 f   ImfCRgbaFile.obj
 0001:0000c970       _ImfHeaderV3iAttribute     1000d970 f   ImfCRgbaFile.obj
 0001:0000ca40       _ImfHeaderV3fAttribute     1000da40 f   ImfCRgbaFile.obj
 0001:0000cb10       _ImfHeaderM33fAttribute    1000db10 f   ImfCRgbaFile.obj
 0001:0000cc00       _ImfHeaderM44fAttribute    1000dc00 f   ImfCRgbaFile.obj
 0001:0000cd20       ?copy@?$TypedAttribute@H@Imf@@UBEPAVAttribute@2@XZ 1000dd20 f i ImfCRgbaFile.obj
 0001:0000cda0       ??0?$TypedAttribute@V?$Box@V?$Vec2@H@Imath@@@Imath@@@Imf@@QAE@ABV?$Box@V?$Vec2@H@Imath@@@Imath@@@Z 1000dda0 f i ImfCRgbaFile.obj
 0001:0000cde0       ??0?$Box@V?$Vec2@M@Imath@@@Imath@@QAE@ABV?$Vec2@M@1@0@Z 1000dde0 f i ImfCRgbaFile.obj
 0001:0000ce10       ?copy@?$TypedAttribute@V?$Vec2@H@Imath@@@Imf@@UBEPAVAttribute@2@XZ 1000de10 f i ImfCRgbaFile.obj
 0001:0000ce90       ??0?$TypedAttribute@V?$Vec2@M@Imath@@@Imf@@QAE@ABV?$Vec2@M@Imath@@@Z 1000de90 f i ImfCRgbaFile.obj
 0001:0000cec0       ?copy@?$TypedAttribute@V?$Vec2@M@Imath@@@Imf@@UBEPAVAttribute@2@XZ 1000dec0 f i ImfCRgbaFile.obj
 0001:0000cf40       ??0?$TypedAttribute@V?$Vec3@H@Imath@@@Imf@@QAE@ABV?$Vec3@H@Imath@@@Z 1000df40 f i ImfCRgbaFile.obj
 0001:0000cf70       ??0?$TypedAttribute@V?$Vec3@M@Imath@@@Imf@@QAE@ABV?$Vec3@M@Imath@@@Z 1000df70 f i ImfCRgbaFile.obj
 0001:0000cfa0       ??0?$TypedAttribute@V?$Matrix33@M@Imath@@@Imf@@QAE@ABV?$Matrix33@M@Imath@@@Z 1000dfa0 f i ImfCRgbaFile.obj
 0001:0000cff0       ??0?$TypedAttribute@V?$Matrix44@M@Imath@@@Imf@@QAE@ABV?$Matrix44@M@Imath@@@Z 1000dff0 f i ImfCRgbaFile.obj
 0001:0000d020       ??4?$Box@V?$Vec2@M@Imath@@@Imath@@QAEAAV01@ABV01@@Z 1000e020 f i ImfCRgbaFile.obj
 0001:0000d020       ??0?$Box@V?$Vec2@M@Imath@@@Imath@@QAE@ABV01@@Z 1000e020 f i ImfCRgbaFile.obj
 0001:0000d050       ?cast@?$TypedAttribute@V?$Box@V?$Vec2@H@Imath@@@Imath@@@Imf@@SAPBV12@PBVAttribute@2@@Z 1000e050 f i ImfCRgbaFile.obj
 0001:0000d050       ?cast@?$TypedAttribute@V?$Box@V?$Vec2@H@Imath@@@Imath@@@Imf@@SAABV12@ABVAttribute@2@@Z 1000e050 f i ImfCRgbaFile.obj
 0001:0000d0b0       ?cast@?$TypedAttribute@V?$Vec2@H@Imath@@@Imf@@SAABV12@ABVAttribute@2@@Z 1000e0b0 f i ImfCRgbaFile.obj
 0001:0000d0b0       ?cast@?$TypedAttribute@V?$Vec2@H@Imath@@@Imf@@SAPBV12@PBVAttribute@2@@Z 1000e0b0 f i ImfCRgbaFile.obj
 0001:0000d110       ?cast@?$TypedAttribute@V?$Vec2@M@Imath@@@Imf@@SAABV12@ABVAttribute@2@@Z 1000e110 f i ImfCRgbaFile.obj
 0001:0000d110       ?cast@?$TypedAttribute@V?$Vec2@M@Imath@@@Imf@@SAPBV12@PBVAttribute@2@@Z 1000e110 f i ImfCRgbaFile.obj
 0001:0000d170       ??0?$TypedAttribute@V?$Vec3@H@Imath@@@Imf@@QAE@XZ 1000e170 f i ImfCRgbaFile.obj
 0001:0000d190       ?cast@?$TypedAttribute@V?$Vec3@H@Imath@@@Imf@@SAPBV12@PBVAttribute@2@@Z 1000e190 f i ImfCRgbaFile.obj
 0001:0000d190       ?cast@?$TypedAttribute@V?$Vec3@H@Imath@@@Imf@@SAABV12@ABVAttribute@2@@Z 1000e190 f i ImfCRgbaFile.obj
 0001:0000d1f0       ??0?$TypedAttribute@V?$Vec3@M@Imath@@@Imf@@QAE@XZ 1000e1f0 f i ImfCRgbaFile.obj
 0001:0000d210       ??0?$TypedAttribute@V?$Matrix33@M@Imath@@@Imf@@QAE@XZ 1000e210 f i ImfCRgbaFile.obj
 0001:0000d260       ??0?$TypedAttribute@V?$Matrix44@M@Imath@@@Imf@@QAE@XZ 1000e260 f i ImfCRgbaFile.obj
 0001:0000d2a0       ??$?0P6A?AVhalf@@V0@@Z@?$halfFunction@Vhalf@@@@QAE@P6A?AVhalf@@V1@@Z000000@Z 1000e2a0 f i ImfCRgbaFile.obj
 0001:0000d3f0       ??$?0UroundNBit@Imf@@@?$halfFunction@Vhalf@@@@QAE@UroundNBit@Imf@@Vhalf@@11111@Z 1000e3f0 f i ImfCRgbaFile.obj
 0001:0000d550       ?makeEmpty@?$Box@V?$Vec2@H@Imath@@@Imath@@QAEXXZ 1000e550 f i ImfCRgbaFile.obj
 0001:0000d570       ?makeEmpty@?$Box@V?$Vec2@M@Imath@@@Imath@@QAEXXZ 1000e570 f i ImfCRgbaFile.obj
 0001:0000d5a0       _ImfHeaderSetDisplayWindow 1000e5a0 f   ImfCRgbaFile.obj
 0001:0000d5d0       _ImfHeaderDisplayWindow    1000e5d0 f   ImfCRgbaFile.obj
 0001:0000d600       _ImfHeaderSetDataWindow    1000e600 f   ImfCRgbaFile.obj
 0001:0000d630       _ImfHeaderStringAttribute  1000e630 f   ImfCRgbaFile.obj
 0001:0000d700       _ImfHeaderSetBox2iAttribute 1000e700 f   ImfCRgbaFile.obj
 0001:0000d850       _ImfHeaderSetV2fAttribute  1000e850 f   ImfCRgbaFile.obj
 0001:0000d990       _ImfHeaderSetV3iAttribute  1000e990 f   ImfCRgbaFile.obj
 0001:0000dac0       _ImfHeaderSetV3fAttribute  1000eac0 f   ImfCRgbaFile.obj
 0001:0000dc10       _ImfHeaderSetM33fAttribute 1000ec10 f   ImfCRgbaFile.obj
 0001:0000ddf0       _ImfHeaderSetM44fAttribute 1000edf0 f   ImfCRgbaFile.obj
 0001:0000e010       ??_GRgbaLut@Imf@@QAEPAXI@Z 1000f010 f i ImfCRgbaFile.obj
 0001:0000e010       ??_GBufferedTile@?A0x39e5c904@Imf@@QAEPAXI@Z 1000f010 f i ImfTiledOutputFile.obj
 0001:0000e040       ?writeValueTo@?$TypedAttribute@H@Imf@@UBEXAAVOStream@2@H@Z 1000f040 f i ImfCRgbaFile.obj
 0001:0000e080       ?readValueFrom@?$TypedAttribute@H@Imf@@UAEXAAVIStream@2@HH@Z 1000f080 f i ImfCRgbaFile.obj
 0001:0000e0c0       ?copyValueFrom@?$TypedAttribute@H@Imf@@UAEXABVAttribute@2@@Z 1000f0c0 f i ImfCRgbaFile.obj
 0001:0000e130       ?copyValueFrom@?$TypedAttribute@V?$Box@V?$Vec2@H@Imath@@@Imath@@@Imf@@UAEXABVAttribute@2@@Z 1000f130 f i ImfCRgbaFile.obj
 0001:0000e1b0       ??0?$TypedAttribute@V?$Box@V?$Vec2@M@Imath@@@Imath@@@Imf@@QAE@ABV?$Box@V?$Vec2@M@Imath@@@Imath@@@Z 1000f1b0 f i ImfCRgbaFile.obj
 0001:0000e1f0       ?copyValueFrom@?$TypedAttribute@V?$Box@V?$Vec2@M@Imath@@@Imath@@@Imf@@UAEXABVAttribute@2@@Z 1000f1f0 f i ImfCRgbaFile.obj
 0001:0000e270       ?copyValueFrom@?$TypedAttribute@V?$Vec2@H@Imath@@@Imf@@UAEXABVAttribute@2@@Z 1000f270 f i ImfCRgbaFile.obj
 0001:0000e2e0       ?copyValueFrom@?$TypedAttribute@V?$Vec2@M@Imath@@@Imf@@UAEXABVAttribute@2@@Z 1000f2e0 f i ImfCRgbaFile.obj
 0001:0000e350       ?copy@?$TypedAttribute@V?$Vec3@H@Imath@@@Imf@@UBEPAVAttribute@2@XZ 1000f350 f i ImfCRgbaFile.obj
 0001:0000e3d0       ?copyValueFrom@?$TypedAttribute@V?$Vec3@H@Imath@@@Imf@@UAEXABVAttribute@2@@Z 1000f3d0 f i ImfCRgbaFile.obj
 0001:0000e450       ?copy@?$TypedAttribute@V?$Vec3@M@Imath@@@Imf@@UBEPAVAttribute@2@XZ 1000f450 f i ImfCRgbaFile.obj
 0001:0000e4d0       ?copyValueFrom@?$TypedAttribute@V?$Vec3@M@Imath@@@Imf@@UAEXABVAttribute@2@@Z 1000f4d0 f i ImfCRgbaFile.obj
 0001:0000e550       ?copy@?$TypedAttribute@V?$Matrix33@M@Imath@@@Imf@@UBEPAVAttribute@2@XZ 1000f550 f i ImfCRgbaFile.obj
 0001:0000e600       ?copyValueFrom@?$TypedAttribute@V?$Matrix33@M@Imath@@@Imf@@UAEXABVAttribute@2@@Z 1000f600 f i ImfCRgbaFile.obj
 0001:0000e6a0       ?copy@?$TypedAttribute@V?$Matrix44@M@Imath@@@Imf@@UBEPAVAttribute@2@XZ 1000f6a0 f i ImfCRgbaFile.obj
 0001:0000e750       ?copyValueFrom@?$TypedAttribute@V?$Matrix44@M@Imath@@@Imf@@UAEXABVAttribute@2@@Z 1000f750 f i ImfCRgbaFile.obj
 0001:0000e7c0       ??$?0P6A?AVhalf@@V0@@Z@RgbaLut@Imf@@QAE@P6A?AVhalf@@V2@@ZW4RgbaChannels@1@@Z 1000f7c0 f i ImfCRgbaFile.obj
 0001:0000e860       ??$?0UroundNBit@Imf@@@RgbaLut@Imf@@QAE@UroundNBit@1@W4RgbaChannels@1@@Z 1000f860 f i ImfCRgbaFile.obj
 0001:0000e900       ??0?$Box@V?$Vec2@H@Imath@@@Imath@@QAE@XZ 1000f900 f i ImfCRgbaFile.obj
 0001:0000e920       ??0?$Box@V?$Vec2@M@Imath@@@Imath@@QAE@XZ 1000f920 f i ImfCRgbaFile.obj
 0001:0000e950       _ImfHeaderSetBox2fAttribute 1000f950 f   ImfCRgbaFile.obj
 0001:0000ead0       _ImfNewRound12logLut       1000fad0 f   ImfCRgbaFile.obj
 0001:0000eb60       _ImfNewRoundNBitLut        1000fb60 f   ImfCRgbaFile.obj
 0001:0000ebf0       _ImfDeleteLut              1000fbf0 f   ImfCRgbaFile.obj
 0001:0000ec10       ??1?$TypedAttribute@V?$basic_string@DU?$char_traits@D@std@@V?$allocator@D@2@@std@@@Imf@@UAE@XZ 1000fc10 f i ImfCRgbaFile.obj
 0001:0000ec50       ?typeName@?$TypedAttribute@V?$basic_string@DU?$char_traits@D@std@@V?$allocator@D@2@@std@@@Imf@@UBEPBDXZ 1000fc50 f i ImfCRgbaFile.obj
 0001:0000ec60       ?cast@?$TypedAttribute@V?$basic_string@DU?$char_traits@D@std@@V?$allocator@D@2@@std@@@Imf@@SAABV12@ABVAttribute@2@@Z 1000fc60 f i ImfCRgbaFile.obj
 0001:0000ec60       ?cast@?$TypedAttribute@V?$basic_string@DU?$char_traits@D@std@@V?$allocator@D@2@@std@@@Imf@@SAPBV12@PBVAttribute@2@@Z 1000fc60 f i ImfCRgbaFile.obj
 0001:0000ecc0       ??_G?$TypedAttribute@V?$basic_string@DU?$char_traits@D@std@@V?$allocator@D@2@@std@@@Imf@@UAEPAXI@Z 1000fcc0 f i ImfCRgbaFile.obj
 0001:0000ecc0       ??_E?$TypedAttribute@V?$basic_string@DU?$char_traits@D@std@@V?$allocator@D@2@@std@@@Imf@@UAEPAXI@Z 1000fcc0 f i ImfCRgbaFile.obj
 0001:0000ed10       ??0?$TypedAttribute@V?$basic_string@DU?$char_traits@D@std@@V?$allocator@D@2@@std@@@Imf@@QAE@XZ 1000fd10 f i ImfCRgbaFile.obj
 0001:0000ed40       ??0?$TypedAttribute@V?$Box@V?$Vec2@H@Imath@@@Imath@@@Imf@@QAE@XZ 1000fd40 f i ImfCRgbaFile.obj
 0001:0000ed70       ??0?$TypedAttribute@V?$Box@V?$Vec2@M@Imath@@@Imath@@@Imf@@QAE@XZ 1000fd70 f i ImfCRgbaFile.obj
 0001:0000edb0       ?copy@?$TypedAttribute@V?$basic_string@DU?$char_traits@D@std@@V?$allocator@D@2@@std@@@Imf@@UBEPAVAttribute@2@XZ 1000fdb0 f i ImfCRgbaFile.obj
 0001:0000ee40       ?copy@?$TypedAttribute@V?$Box@V?$Vec2@H@Imath@@@Imath@@@Imf@@UBEPAVAttribute@2@XZ 1000fe40 f i ImfCRgbaFile.obj
 0001:0000eed0       ?copy@?$TypedAttribute@V?$Box@V?$Vec2@M@Imath@@@Imath@@@Imf@@UBEPAVAttribute@2@XZ 1000fed0 f i ImfCRgbaFile.obj
 0001:0000ef70       ??0?$TypedAttribute@V?$basic_string@DU?$char_traits@D@std@@V?$allocator@D@2@@std@@@Imf@@QAE@ABV?$basic_string@DU?$char_traits@D@std@@V?$allocator@D@2@@std@@@Z 1000ff70 f i ImfCRgbaFile.obj
 0001:0000efe0       ?copyValueFrom@?$TypedAttribute@V?$basic_string@DU?$char_traits@D@std@@V?$allocator@D@2@@std@@@Imf@@UAEXABVAttribute@2@@Z 1000ffe0 f i ImfCRgbaFile.obj
 0001:0000f060       ?assign@?$basic_string@DU?$char_traits@D@std@@V?$allocator@D@2@@std@@QAEAAV12@PBD@Z 10010060 f i ImfChannelList.obj
 0001:0000f060       ??4?$basic_string@DU?$char_traits@D@std@@V?$allocator@D@2@@std@@QAEAAV01@PBD@Z 10010060 f i ImfCRgbaFile.obj
 0001:0000f090       _ImfHeaderSetStringAttribute 10010090 f   ImfCRgbaFile.obj
 0001:0000f280       ?staticTypeName@?$TypedAttribute@N@Imf@@SAPBDXZ 10010280 f   ImfDoubleAttribute.obj
 0001:0000f290       _fabsf                     10010290 f i ImfEnvmap.obj
 0001:0000f290       ?abs@@YAMM@Z               10010290 f i ImfEnvmap.obj
 0001:0000f2a0       _sinf                      100102a0 f i ImfEnvmap.obj
 0001:0000f2a0       ?sin@@YAMM@Z               100102a0 f i ImfEnvmap.obj
 0001:0000f2c0       ?sqrt@@YAMM@Z              100102c0 f i ImfEnvmap.obj
 0001:0000f2c0       ?sqrt@?$Math@M@Imath@@SAMM@Z 100102c0 f i ImfEnvmap.obj
 0001:0000f2c0       _sqrtf                     100102c0 f i ImfEnvmap.obj
 0001:0000f2e0       _acosf                     100102e0 f i ImfEnvmap.obj
 0001:0000f2e0       ?acos@@YAMM@Z              100102e0 f i ImfEnvmap.obj
 0001:0000f300       _asinf                     10010300 f i ImfEnvmap.obj
 0001:0000f300       ?asin@@YAMM@Z              10010300 f i ImfEnvmap.obj
 0001:0000f320       _atan2f                    10010320 f i ImfEnvmap.obj
 0001:0000f320       ?atan2@@YAMMM@Z            10010320 f i ImfEnvmap.obj
 0001:0000f340       _cosf                      10010340 f i ImfEnvmap.obj
 0001:0000f340       ?cos@@YAMM@Z               10010340 f i ImfEnvmap.obj
 0001:0000f360       ??$sign@M@Imath@@YAHM@Z    10010360 f i ImfEnvmap.obj
 0001:0000f390       ?dot@?$Vec3@M@Imath@@QBEMABV12@@Z 10010390 f i ImfEnvmap.obj
 0001:0000f3c0       ?lengthTiny@?$Vec3@M@Imath@@ABEMXZ 100103c0 f i ImfEnvmap.obj
 0001:0000f4d0       ?latLong@LatLongMap@Imf@@YA?AV?$Vec2@M@Imath@@ABV?$Box@V?$Vec2@H@Imath@@@4@ABV34@@Z 100104d0 f   ImfEnvmap.obj
 0001:0000f580       ?pixelPosition@LatLongMap@Imf@@YA?AV?$Vec2@M@Imath@@ABV?$Box@V?$Vec2@H@Imath@@@4@ABV34@@Z 10010580 f   ImfEnvmap.obj
 0001:0000f630       ?direction@LatLongMap@Imf@@YA?AV?$Vec3@M@Imath@@ABV?$Box@V?$Vec2@H@Imath@@@4@ABV?$Vec2@M@4@@Z 10010630 f   ImfEnvmap.obj
 0001:0000f730       ?sizeOfFace@CubeMap@Imf@@YAHABV?$Box@V?$Vec2@H@Imath@@@Imath@@@Z 10010730 f   ImfEnvmap.obj
 0001:0000f770       ?faceAndPixelPosition@CubeMap@Imf@@YAXABV?$Vec3@M@Imath@@ABV?$Box@V?$Vec2@H@Imath@@@4@AAW4CubeMapFace@2@AAV?$Vec2@M@4@@Z 10010770 f   ImfEnvmap.obj
 0001:0000f9e0       ?direction@CubeMap@Imf@@YA?AV?$Vec3@M@Imath@@W4CubeMapFace@2@ABV?$Box@V?$Vec2@H@Imath@@@4@ABV?$Vec2@M@4@@Z 100109e0 f   ImfEnvmap.obj
 0001:0000fb50       ?length@?$Vec3@M@Imath@@QBEMXZ 10010b50 f i ImfEnvmap.obj
 0001:0000fc90       ?latLong@LatLongMap@Imf@@YA?AV?$Vec2@M@Imath@@ABV?$Vec3@M@4@@Z 10010c90 f   ImfEnvmap.obj
 0001:0000ffc0       ?pixelPosition@LatLongMap@Imf@@YA?AV?$Vec2@M@Imath@@ABV?$Box@V?$Vec2@H@Imath@@@4@ABV?$Vec3@M@4@@Z 10010fc0 f   ImfEnvmap.obj
 0001:00010090       ?dataWindowForFace@CubeMap@Imf@@YA?AV?$Box@V?$Vec2@H@Imath@@@Imath@@W4CubeMapFace@2@ABV34@@Z 10011090 f   ImfEnvmap.obj
 0001:000100f0       ?pixelPosition@CubeMap@Imf@@YA?AV?$Vec2@M@Imath@@W4CubeMapFace@2@ABV?$Box@V?$Vec2@H@Imath@@@4@V34@@Z 100110f0 f   ImfEnvmap.obj
 0001:00010230       ?staticTypeName@?$TypedAttribute@W4Envmap@Imf@@@Imf@@SAPBDXZ 10011230 f   ImfEnvmapAttribute.obj
 0001:00010240       ?writeValueTo@?$TypedAttribute@W4Envmap@Imf@@@Imf@@UBEXAAVOStream@2@H@Z 10011240 f   ImfEnvmapAttribute.obj
 0001:00010240       ?writeValueTo@?$TypedAttribute@W4LineOrder@Imf@@@Imf@@UBEXAAVOStream@2@H@Z 10011240 f   ImfLineOrderAttribute.obj
 0001:00010240       ?writeValueTo@?$TypedAttribute@W4Compression@Imf@@@Imf@@UBEXAAVOStream@2@H@Z 10011240 f   ImfCompressionAttribute.obj
 0001:00010260       ?staticTypeName@?$TypedAttribute@M@Imf@@SAPBDXZ 10011260 f   ImfFloatAttribute.obj
 0001:00010270       ??0Slice@Imf@@QAE@W4PixelType@1@PADIIHHN_N2@Z 10011270 f   ImfFrameBuffer.obj
 0001:000102c0       ?_Isnil@?$_Tree_val@V?$_Tmap_traits@VName@Imf@@USlice@2@U?$less@VName@Imf@@@std@@V?$allocator@U?$pair@$$CBVName@Imf@@USlice@2@@std@@@5@$0A@@std@@@std@@SAAADPAU_Node@?$_Tree_nod@V?$_Tmap_traits@VName@Imf@@USlice@2@U?$less@VName@Imf@@@std@@V?$allocator@U?$pair@$$CBVName@Imf@@USlice@2@@std@@@5@$0A@@std@@@2@@Z 100112c0 f i ImfFrameBuffer.obj
 0001:000102d0       ?_Min@?$_Tree_val@V?$_Tmap_traits@VName@Imf@@USlice@2@U?$less@VName@Imf@@@std@@V?$allocator@U?$pair@$$CBVName@Imf@@USlice@2@@std@@@5@$0A@@std@@@std@@SAPAU_Node@?$_Tree_nod@V?$_Tmap_traits@VName@Imf@@USlice@2@U?$less@VName@Imf@@@std@@V?$allocator@U?$pair@$$CBVName@Imf@@USlice@2@@std@@@5@$0A@@std@@@2@PAU342@@Z 100112d0 f i ImfFrameBuffer.obj
 0001:000102f0       ??D?$_Tree_iterator@V?$_Tree_val@V?$_Tmap_traits@VName@Imf@@USlice@2@U?$less@VName@Imf@@@std@@V?$allocator@U?$pair@$$CBVName@Imf@@USlice@2@@std@@@5@$0A@@std@@@std@@@std@@QBEAAU?$pair@$$CBVName@Imf@@USlice@2@@1@XZ 100112f0 f i ImfFrameBuffer.obj
 0001:000102f0       ??C?$_Tree_iterator@V?$_Tree_val@V?$_Tmap_traits@VName@Imf@@USlice@2@U?$less@VName@Imf@@@std@@V?$allocator@U?$pair@$$CBVName@Imf@@USlice@2@@std@@@5@$0A@@std@@@std@@@std@@QBEPAU?$pair@$$CBVName@Imf@@USlice@2@@1@XZ 100112f0 f i ImfFrameBuffer.obj
 0001:000102f0       ??D?$_Tree_unchecked_const_iterator@V?$_Tree_val@V?$_Tmap_traits@VName@Imf@@USlice@2@U?$less@VName@Imf@@@std@@V?$allocator@U?$pair@$$CBVName@Imf@@USlice@2@@std@@@5@$0A@@std@@@std@@U_Iterator_base0@2@@std@@QBEABU?$pair@$$CBVName@Imf@@USlice@2@@1@XZ 100112f0 f i ImfFrameBuffer.obj
 0001:000102f0       ??D?$_Tree_const_iterator@V?$_Tree_val@V?$_Tmap_traits@VName@Imf@@USlice@2@U?$less@VName@Imf@@@std@@V?$allocator@U?$pair@$$CBVName@Imf@@USlice@2@@std@@@5@$0A@@std@@@std@@@std@@QBEABU?$pair@$$CBVName@Imf@@USlice@2@@1@XZ 100112f0 f i ImfFrameBuffer.obj
 0001:000102f0       ?name@ConstIterator@FrameBuffer@Imf@@QBEPBDXZ 100112f0 f i ImfInputFile.obj
 0001:000102f0       ??C?$_Tree_unchecked_const_iterator@V?$_Tree_val@V?$_Tmap_traits@VName@Imf@@USlice@2@U?$less@VName@Imf@@@std@@V?$allocator@U?$pair@$$CBVName@Imf@@USlice@2@@std@@@5@$0A@@std@@@std@@U_Iterator_base0@2@@std@@QBEPBU?$pair@$$CBVName@Imf@@USlice@2@@1@XZ 100112f0 f i ImfFrameBuffer.obj
 0001:00010300       ?_Lrotate@?$_Tree@V?$_Tmap_traits@VName@Imf@@USlice@2@U?$less@VName@Imf@@@std@@V?$allocator@U?$pair@$$CBVName@Imf@@USlice@2@@std@@@5@$0A@@std@@@std@@IAEXPAU_Node@?$_Tree_nod@V?$_Tmap_traits@VName@Imf@@USlice@2@U?$less@VName@Imf@@@std@@V?$allocator@U?$pair@$$CBVName@Imf@@USlice@2@@std@@@5@$0A@@std@@@2@@Z 10011300 f i ImfFrameBuffer.obj
 0001:00010360       ?_Rrotate@?$_Tree@V?$_Tmap_traits@VName@Imf@@USlice@2@U?$less@VName@Imf@@@std@@V?$allocator@U?$pair@$$CBVName@Imf@@USlice@2@@std@@@5@$0A@@std@@@std@@IAEXPAU_Node@?$_Tree_nod@V?$_Tmap_traits@VName@Imf@@USlice@2@U?$less@VName@Imf@@@std@@V?$allocator@U?$pair@$$CBVName@Imf@@USlice@2@@std@@@5@$0A@@std@@@2@@Z 10011360 f i ImfFrameBuffer.obj
 0001:000103c0       ?_Color@?$_Tree_val@V?$_Tmap_traits@VName@Imf@@USlice@2@U?$less@VName@Imf@@@std@@V?$allocator@U?$pair@$$CBVName@Imf@@USlice@2@@std@@@5@$0A@@std@@@std@@SAAADPAU_Node@?$_Tree_nod@V?$_Tmap_traits@VName@Imf@@USlice@2@U?$less@VName@Imf@@@std@@V?$allocator@U?$pair@$$CBVName@Imf@@USlice@2@@std@@@5@$0A@@std@@@2@@Z 100113c0 f i ImfFrameBuffer.obj
 0001:000103d0       ?_Max@?$_Tree_val@V?$_Tmap_traits@VName@Imf@@USlice@2@U?$less@VName@Imf@@@std@@V?$allocator@U?$pair@$$CBVName@Imf@@USlice@2@@std@@@5@$0A@@std@@@std@@SAPAU_Node@?$_Tree_nod@V?$_Tmap_traits@VName@Imf@@USlice@2@U?$less@VName@Imf@@@std@@V?$allocator@U?$pair@$$CBVName@Imf@@USlice@2@@std@@@5@$0A@@std@@@2@PAU342@@Z 100113d0 f i ImfFrameBuffer.obj
 0001:00010400       ??$_Unchecked@PAPA_K@std@@YAPAPA_KPAPA_K@Z 10011400 f i ImfHuf.obj
 0001:00010400       ??$addressof@U?$pair@$$CBVName@Imf@@UChannel@2@@std@@@std@@YAPAU?$pair@$$CBVName@Imf@@UChannel@2@@0@AAU10@@Z 10011400 f i ImfChannelList.obj
 0001:00010400       ??$forward@AAU?$pair@$$CBVName@Imf@@UChannel@2@@std@@@std@@YAAAU?$pair@$$CBVName@Imf@@UChannel@2@@0@AAU10@@Z 10011400 f i ImfHeader.obj
 0001:00010400       ??$addressof@V?$basic_string@DU?$char_traits@D@std@@V?$allocator@D@2@@std@@@std@@YAPAV?$basic_string@DU?$char_traits@D@std@@V?$allocator@D@2@@0@AAV10@@Z 10011400 f i ImfChannelList.obj
 0001:00010400       ?_Left@?$_Tree_val@V?$_Tmap_traits@VName@Imf@@PAVAttribute@2@U?$less@VName@Imf@@@std@@V?$allocator@U?$pair@$$CBVName@Imf@@PAVAttribute@2@@std@@@5@$0A@@std@@@std@@SAAAPAU_Node@?$_Tree_nod@V?$_Tmap_traits@VName@Imf@@PAVAttribute@2@U?$less@VName@Imf@@@std@@V?$allocator@U?$pair@$$CBVName@Imf@@PAVAttribute@2@@std@@@5@$0A@@std@@@2@PAU342@@Z 10011400 f i ImfHeader.obj
 0001:00010400       ?_Left@?$_Tree_val@V?$_Tset_traits@V?$basic_string@DU?$char_traits@D@std@@V?$allocator@D@2@@std@@U?$less@V?$basic_string@DU?$char_traits@D@std@@V?$allocator@D@2@@std@@@2@V?$allocator@V?$basic_string@DU?$char_traits@D@std@@V?$allocator@D@2@@std@@@2@$0A@@std@@@std@@SAAAPAU_Node@?$_Tree_nod@V?$_Tset_traits@V?$basic_string@DU?$char_traits@D@std@@V?$allocator@D@2@@std@@U?$less@V?$basic_string@DU?$char_traits@D@std@@V?$allocator@D@2@@std@@@2@V?$allocator@V?$basic_string@DU?$char_traits@D@std@@V?$allocator@D@2@@std@@@2@$0A@@std@@@2@PAU342@@Z 10011400 f i ImfChannelList.obj
 0001:00010400       ??$forward@U?$pair@$$CBVName@Imf@@PAVAttribute@2@@std@@@std@@YA$$QAU?$pair@$$CBVName@Imf@@PAVAttribute@2@@0@AAU10@@Z 10011400 f i ImfHeader.obj
 0001:00010400       ??$forward@AAV?$_Tree_const_iterator@V?$_Tree_val@V?$_Tset_traits@V?$basic_string@DU?$char_traits@D@std@@V?$allocator@D@2@@std@@U?$less@V?$basic_string@DU?$char_traits@D@std@@V?$allocator@D@2@@std@@@2@V?$allocator@V?$basic_string@DU?$char_traits@D@std@@V?$allocator@D@2@@std@@@2@$0A@@std@@@std@@@std@@@std@@YAAAV?$_Tree_const_iterator@V?$_Tree_val@V?$_Tset_traits@V?$basic_string@DU?$char_traits@D@std@@V?$allocator@D@2@@std@@U?$less@V?$basic_string@DU?$char_traits@D@std@@V?$allocator@D@2@@std@@@2@V?$allocator@V?$basic_string@DU?$char_traits@D@std@@V?$allocator@D@2@@std@@@2@$0A@@std@@@std@@@0@AAV10@@Z 10011400 f i ImfChannelList.obj
 0001:00010400       ??$forward@QBD@std@@YA$$QBQBDABQBD@Z 10011400 f i ImfAttribute.obj
 0001:00010400       ??$forward@AAUInSliceInfo@?A0xcbf8ace6@Imf@@@std@@YAAAUInSliceInfo@?A0xcbf8ace6@Imf@@AAU123@@Z 10011400 f i ImfScanLineInputFile.obj
 0001:00010400       ??$forward@AB_K@std@@YAAB_KAB_K@Z 10011400 f i ImfTiledInputFile.obj
 0001:00010400       ?outfile@?A0xa29ce62f@@YAPBVTiledRgbaOutputFile@Imf@@PBUImfTiledOutputFile@@@Z 10011400 f i ImfCRgbaFile.obj
 0001:00010400       ??$forward@AAQBD@std@@YAAAQBDAAQBD@Z 10011400 f i ImfAttribute.obj
 0001:00010400       ??$move@AAV?$_Tree_iterator@V?$_Tree_val@V?$_Tmap_traits@VName@Imf@@UChannel@2@U?$less@VName@Imf@@@std@@V?$allocator@U?$pair@$$CBVName@Imf@@UChannel@2@@std@@@5@$0A@@std@@@std@@@std@@@std@@YA$$QAV?$_Tree_iterator@V?$_Tree_val@V?$_Tmap_traits@VName@Imf@@UChannel@2@U?$less@VName@Imf@@@std@@V?$allocator@U?$pair@$$CBVName@Imf@@UChannel@2@@std@@@5@$0A@@std@@@std@@@0@AAV10@@Z 10011400 f i ImfChannelList.obj
 0001:00010400       ??$move@AAPAUBufferedTile@?A0x39e5c904@Imf@@@std@@YA$$QAPAUBufferedTile@?A0x39e5c904@Imf@@AAPAU123@@Z 10011400 f i ImfTiledOutputFile.obj
 0001:00010400       ?outfile@?A0xa29ce62f@@YAPAVRgbaOutputFile@Imf@@PAUImfOutputFile@@@Z 10011400 f i ImfCRgbaFile.obj
 0001:00010400       ??$_Kfn@$$CBUTileCoord@?A0x39e5c904@Imf@@PAUBufferedTile@23@@?$_Tmap_traits@UTileCoord@?A0x39e5c904@Imf@@PAUBufferedTile@23@U?$less@UTileCoord@?A0x39e5c904@Imf@@@std@@V?$allocator@U?$pair@$$CBUTileCoord@?A0x39e5c904@Imf@@PAUBufferedTile@23@@std@@@6@$0A@@std@@SAABUTileCoord@?A0x39e5c904@Imf@@ABU?$pair@$$CBUTileCoord@?A0x39e5c904@Imf@@PAUBufferedTile@23@@1@@Z 10011400 f i ImfTiledOutputFile.obj
 0001:00010400       ??$move@AAPAVAttribute@Imf@@@std@@YA$$QAPAVAttribute@Imf@@AAPAV12@@Z 10011400 f i ImfHeader.obj
 0001:00010400       ?_Left@?$_Tree_val@V?$_Tmap_traits@VName@Imf@@UChannel@2@U?$less@VName@Imf@@@std@@V?$allocator@U?$pair@$$CBVName@Imf@@UChannel@2@@std@@@5@$0A@@std@@@std@@SAAAPAU_Node@?$_Tree_nod@V?$_Tmap_traits@VName@Imf@@UChannel@2@U?$less@VName@Imf@@@std@@V?$allocator@U?$pair@$$CBVName@Imf@@UChannel@2@@std@@@5@$0A@@std@@@2@PAU342@@Z 10011400 f i ImfB44Compressor.obj
 0001:00010400       ??$move@AAUInSliceInfo@?A0xcbf8ace6@Imf@@@std@@YA$$QAUInSliceInfo@?A0xcbf8ace6@Imf@@AAU123@@Z 10011400 f i ImfScanLineInputFile.obj
 0001:00010400       ?header@?A0xa29ce62f@@YAPAVHeader@Imf@@PAUImfHeader@@@Z 10011400 f i ImfCRgbaFile.obj
 0001:00010400       ??$forward@V?$allocator@D@std@@@std@@YA$$QAV?$allocator@D@0@AAV10@@Z 10011400 f i ImfChannelList.obj
 0001:00010400       ??$move@ABQBD@std@@YA$$QBQBDABQBD@Z 10011400 f i ImfAttribute.obj
 0001:00010400       ??$move@AAUTInSliceInfo@?A0xf6fcebb6@Imf@@@std@@YA$$QAUTInSliceInfo@?A0xf6fcebb6@Imf@@AAU123@@Z 10011400 f i ImfTiledInputFile.obj
 0001:00010400       ??$move@AAV?$_Tree_iterator@V?$_Tree_val@V?$_Tmap_traits@UTileCoord@?A0x39e5c904@Imf@@PAUBufferedTile@23@U?$less@UTileCoord@?A0x39e5c904@Imf@@@std@@V?$allocator@U?$pair@$$CBUTileCoord@?A0x39e5c904@Imf@@PAUBufferedTile@23@@std@@@6@$0A@@std@@@std@@@std@@@std@@YA$$QAV?$_Tree_iterator@V?$_Tree_val@V?$_Tmap_traits@UTileCoord@?A0x39e5c904@Imf@@PAUBufferedTile@23@U?$less@UTileCoord@?A0x39e5c904@Imf@@@std@@V?$allocator@U?$pair@$$CBUTileCoord@?A0x39e5c904@Imf@@PAUBufferedTile@23@@std@@@6@$0A@@std@@@std@@@0@AAV10@@Z 10011400 f i ImfTiledOutputFile.obj
 0001:00010400       ??$forward@AAV?$_Tree_iterator@V?$_Tree_val@V?$_Tmap_traits@VName@Imf@@UChannel@2@U?$less@VName@Imf@@@std@@V?$allocator@U?$pair@$$CBVName@Imf@@UChannel@2@@std@@@5@$0A@@std@@@std@@@std@@@std@@YAAAV?$_Tree_iterator@V?$_Tree_val@V?$_Tmap_traits@VName@Imf@@UChannel@2@U?$less@VName@Imf@@@std@@V?$allocator@U?$pair@$$CBVName@Imf@@UChannel@2@@std@@@5@$0A@@std@@@std@@@0@AAV10@@Z 10011400 f i ImfChannelList.obj
 0001:00010400       ??$addressof@V?$vector@_KV?$allocator@_K@std@@@std@@@std@@YAPAV?$vector@_KV?$allocator@_K@std@@@0@AAV10@@Z 10011400 f i ImfTiledInputFile.obj
 0001:00010400       ??$forward@_K@std@@YA$$QA_KAA_K@Z 10011400 f i ImfTiledInputFile.obj
 0001:00010400       ??$addressof@U?$pair@$$CBVName@Imf@@PAVAttribute@2@@std@@@std@@YAPAU?$pair@$$CBVName@Imf@@PAVAttribute@2@@0@AAU10@@Z 10011400 f i ImfHeader.obj
 0001:00010400       ??$move@AAV?$basic_string@DU?$char_traits@D@std@@V?$allocator@D@2@@std@@@std@@YA$$QAV?$basic_string@DU?$char_traits@D@std@@V?$allocator@D@2@@0@AAV10@@Z 10011400 f i ImfHeader.obj
 0001:00010400       ??$forward@U?$pair@$$CBVName@Imf@@UChannel@2@@std@@@std@@YA$$QAU?$pair@$$CBVName@Imf@@UChannel@2@@0@AAU10@@Z 10011400 f i ImfChannelList.obj
 0001:00010400       ??$addressof@U?$pair@$$CBUTileCoord@?A0x39e5c904@Imf@@PAUBufferedTile@23@@std@@@std@@YAPAU?$pair@$$CBUTileCoord@?A0x39e5c904@Imf@@PAUBufferedTile@23@@0@AAU10@@Z 10011400 f i ImfTiledOutputFile.obj
 0001:00010400       ?infile@?A0xa29ce62f@@YAPBVRgbaInputFile@Imf@@PBUImfInputFile@@@Z 10011400 f i ImfCRgbaFile.obj
 0001:00010400       ??$forward@_N@std@@YA$$QA_NAA_N@Z 10011400 f i ImfAttribute.obj
 0001:00010400       ??$move@AAUOutSliceInfo@?A0xf57f9ec6@Imf@@@std@@YA$$QAUOutSliceInfo@?A0xf57f9ec6@Imf@@AAU123@@Z 10011400 f i ImfOutputFile.obj
 0001:00010400       ??$_Kfn@QBDP6APAVAttribute@Imf@@XZ@?$_Tmap_traits@PBDP6APAVAttribute@Imf@@XZUNameCompare@?A0x0779e1ad@2@V?$allocator@U?$pair@QBDP6APAVAttribute@Imf@@XZ@std@@@std@@$0A@@std@@SAABQBDABU?$pair@QBDP6APAVAttribute@Imf@@XZ@1@@Z 10011400 f i ImfAttribute.obj
 0001:00010400       ??$forward@V?$vector@V?$basic_string@DU?$char_traits@D@std@@V?$allocator@D@2@@std@@V?$allocator@V?$basic_string@DU?$char_traits@D@std@@V?$allocator@D@2@@std@@@2@@std@@@std@@YA$$QAV?$vector@V?$basic_string@DU?$char_traits@D@std@@V?$allocator@D@2@@std@@V?$allocator@V?$basic_string@DU?$char_traits@D@std@@V?$allocator@D@2@@std@@@2@@0@AAV10@@Z 10011400 f i ImfMultiView.obj
 0001:00010400       ??$forward@AAU?$pair@$$CBVName@Imf@@USlice@2@@std@@@std@@YAAAU?$pair@$$CBVName@Imf@@USlice@2@@0@AAU10@@Z 10011400 f i ImfInputFile.obj
 0001:00010400       ??$forward@AAV?$_Tree_iterator@V?$_Tree_val@V?$_Tmap_traits@VName@Imf@@PAVAttribute@2@U?$less@VName@Imf@@@std@@V?$allocator@U?$pair@$$CBVName@Imf@@PAVAttribute@2@@std@@@5@$0A@@std@@@std@@@std@@@std@@YAAAV?$_Tree_iterator@V?$_Tree_val@V?$_Tmap_traits@VName@Imf@@PAVAttribute@2@U?$less@VName@Imf@@@std@@V?$allocator@U?$pair@$$CBVName@Imf@@PAVAttribute@2@@std@@@5@$0A@@std@@@std@@@0@AAV10@@Z 10011400 f i ImfHeader.obj
 0001:00010400       ??$move@AAV?$vector@_KV?$allocator@_K@std@@@std@@@std@@YA$$QAV?$vector@_KV?$allocator@_K@std@@@0@AAV10@@Z 10011400 f i ImfTiledInputFile.obj
 0001:00010400       ??$addressof@U?$pair@$$CBVName@Imf@@USlice@2@@std@@@std@@YAPAU?$pair@$$CBVName@Imf@@USlice@2@@0@AAU10@@Z 10011400 f i ImfFrameBuffer.obj
 0001:00010400       ?_Left@?$_Tree_val@V?$_Tmap_traits@VName@Imf@@USlice@2@U?$less@VName@Imf@@@std@@V?$allocator@U?$pair@$$CBVName@Imf@@USlice@2@@std@@@5@$0A@@std@@@std@@SAAAPAU_Node@?$_Tree_nod@V?$_Tmap_traits@VName@Imf@@USlice@2@U?$less@VName@Imf@@@std@@V?$allocator@U?$pair@$$CBVName@Imf@@USlice@2@@std@@@5@$0A@@std@@@2@PAU342@@Z 10011400 f i ImfFrameBuffer.obj
 0001:00010400       ??$forward@ABV?$basic_string@DU?$char_traits@D@std@@V?$allocator@D@2@@std@@@std@@YAABV?$basic_string@DU?$char_traits@D@std@@V?$allocator@D@2@@0@ABV10@@Z 10011400 f i ImfMultiView.obj
 0001:00010400       ??$addressof@UTInSliceInfo@?A0xf6fcebb6@Imf@@@std@@YAPAUTInSliceInfo@?A0xf6fcebb6@Imf@@AAU123@@Z 10011400 f i ImfTiledInputFile.obj
 0001:00010400       ??$addressof@UTOutSliceInfo@?A0x39e5c904@Imf@@@std@@YAPAUTOutSliceInfo@?A0x39e5c904@Imf@@AAU123@@Z 10011400 f i ImfTiledOutputFile.obj
 0001:00010400       ??$forward@AAP6APAVAttribute@Imf@@XZ@std@@YAAAP6APAVAttribute@Imf@@XZAAP6APAV12@XZ@Z 10011400 f i ImfAttribute.obj
 0001:00010400       ??$_Kfn@$$CBVName@Imf@@USlice@2@@?$_Tmap_traits@VName@Imf@@USlice@2@U?$less@VName@Imf@@@std@@V?$allocator@U?$pair@$$CBVName@Imf@@USlice@2@@std@@@5@$0A@@std@@SAABVName@Imf@@ABU?$pair@$$CBVName@Imf@@USlice@2@@1@@Z 10011400 f i ImfFrameBuffer.obj
 0001:00010400       ??$addressof@$$CBV?$basic_string@DU?$char_traits@D@std@@V?$allocator@D@2@@std@@@std@@YAPBV?$basic_string@DU?$char_traits@D@std@@V?$allocator@D@2@@0@ABV10@@Z 10011400 f i ImfMultiView.obj
 0001:00010400       ??$forward@AAV?$_Tree_iterator@V?$_Tree_val@V?$_Tmap_traits@PBDP6APAVAttribute@Imf@@XZUNameCompare@?A0x0779e1ad@2@V?$allocator@U?$pair@QBDP6APAVAttribute@Imf@@XZ@std@@@std@@$0A@@std@@@std@@@std@@@std@@YAAAV?$_Tree_iterator@V?$_Tree_val@V?$_Tmap_traits@PBDP6APAVAttribute@Imf@@XZUNameCompare@?A0x0779e1ad@2@V?$allocator@U?$pair@QBDP6APAVAttribute@Imf@@XZ@std@@@std@@$0A@@std@@@std@@@0@AAV10@@Z 10011400 f i ImfAttribute.obj
 0001:00010400       ??$move@AAUTOutSliceInfo@?A0x39e5c904@Imf@@@std@@YA$$QAUTOutSliceInfo@?A0x39e5c904@Imf@@AAU123@@Z 10011400 f i ImfTiledOutputFile.obj
 0001:00010400       ??$forward@ABVName@Imf@@@std@@YAABVName@Imf@@ABV12@@Z 10011400 f i ImfHeader.obj
 0001:00010400       ??$forward@U?$pair@QBDP6APAVAttribute@Imf@@XZ@std@@@std@@YA$$QAU?$pair@QBDP6APAVAttribute@Imf@@XZ@0@AAU10@@Z 10011400 f i ImfAttribute.obj
 0001:00010400       ??$_Kfn@$$CBVName@Imf@@UChannel@2@@?$_Tmap_traits@VName@Imf@@UChannel@2@U?$less@VName@Imf@@@std@@V?$allocator@U?$pair@$$CBVName@Imf@@UChannel@2@@std@@@5@$0A@@std@@SAABVName@Imf@@ABU?$pair@$$CBVName@Imf@@UChannel@2@@1@@Z 10011400 f i ImfChannelList.obj
 0001:00010400       ??$move@AAP6APAVAttribute@Imf@@XZ@std@@YA$$QAP6APAVAttribute@Imf@@XZAAP6APAV12@XZ@Z 10011400 f i ImfAttribute.obj
 0001:00010400       ??$forward@UTInSliceInfo@?A0xf6fcebb6@Imf@@@std@@YA$$QAUTInSliceInfo@?A0xf6fcebb6@Imf@@AAU123@@Z 10011400 f i ImfTiledInputFile.obj
 0001:00010400       ??$move@AAV?$_Tree_iterator@V?$_Tree_val@V?$_Tmap_traits@PBDP6APAVAttribute@Imf@@XZUNameCompare@?A0x0779e1ad@2@V?$allocator@U?$pair@QBDP6APAVAttribute@Imf@@XZ@std@@@std@@$0A@@std@@@std@@@std@@@std@@YA$$QAV?$_Tree_iterator@V?$_Tree_val@V?$_Tmap_traits@PBDP6APAVAttribute@Imf@@XZUNameCompare@?A0x0779e1ad@2@V?$allocator@U?$pair@QBDP6APAVAttribute@Imf@@XZ@std@@@std@@$0A@@std@@@std@@@0@AAV10@@Z 10011400 f i ImfAttribute.obj
 0001:00010400       ??$_Iter_cat@V?$_Tree_iterator@V?$_Tree_val@V?$_Tmap_traits@PBDP6APAVAttribute@Imf@@XZUNameCompare@?A0x0779e1ad@2@V?$allocator@U?$pair@QBDP6APAVAttribute@Imf@@XZ@std@@@std@@$0A@@std@@@std@@@std@@@std@@YA?AUbidirectional_iterator_tag@0@ABV?$_Tree_iterator@V?$_Tree_val@V?$_Tmap_traits@PBDP6APAVAttribute@Imf@@XZUNameCompare@?A0x0779e1ad@2@V?$allocator@U?$pair@QBDP6APAVAttribute@Imf@@XZ@std@@@std@@$0A@@std@@@std@@@0@@Z 10011400 f i ImfAttribute.obj
 0001:00010400       ?infile@?A0xa29ce62f@@YAPAVRgbaInputFile@Imf@@PAUImfInputFile@@@Z 10011400 f i ImfCRgbaFile.obj
 0001:00010400       ??$_Kfn@$$CBVName@Imf@@PAVAttribute@2@@?$_Tmap_traits@VName@Imf@@PAVAttribute@2@U?$less@VName@Imf@@@std@@V?$allocator@U?$pair@$$CBVName@Imf@@PAVAttribute@2@@std@@@5@$0A@@std@@SAABVName@Imf@@ABU?$pair@$$CBVName@Imf@@PAVAttribute@2@@1@@Z 10011400 f i ImfHeader.obj
 0001:00010400       ?infile@?A0xa29ce62f@@YAPBVTiledRgbaInputFile@Imf@@PBUImfTiledInputFile@@@Z 10011400 f i ImfCRgbaFile.obj
 0001:00010400       ??$forward@AAUOutSliceInfo@?A0xf57f9ec6@Imf@@@std@@YAAAUOutSliceInfo@?A0xf57f9ec6@Imf@@AAU123@@Z 10011400 f i ImfOutputFile.obj
 0001:00010400       ??$forward@$$CBVName@Imf@@@std@@YA$$QBVName@Imf@@ABV12@@Z 10011400 f i ImfChannelList.obj
 0001:00010400       ??$forward@V?$basic_string@DU?$char_traits@D@std@@V?$allocator@D@2@@std@@@std@@YA$$QAV?$basic_string@DU?$char_traits@D@std@@V?$allocator@D@2@@0@AAV10@@Z 10011400 f i ImfChannelList.obj
 0001:00010400       ??$forward@$$CBUTileCoord@?A0x39e5c904@Imf@@@std@@YA$$QBUTileCoord@?A0x39e5c904@Imf@@ABU123@@Z 10011400 f i ImfTiledOutputFile.obj
 0001:00010400       ??$forward@U?$pair@$$CBUTileCoord@?A0x39e5c904@Imf@@PAUBufferedTile@23@@std@@@std@@YA$$QAU?$pair@$$CBUTileCoord@?A0x39e5c904@Imf@@PAUBufferedTile@23@@0@AAU10@@Z 10011400 f i ImfTiledOutputFile.obj
 0001:00010400       ??$addressof@UInSliceInfo@?A0xcbf8ace6@Imf@@@std@@YAPAUInSliceInfo@?A0xcbf8ace6@Imf@@AAU123@@Z 10011400 f i ImfScanLineInputFile.obj
 0001:00010400       ??$forward@UInSliceInfo@?A0xcbf8ace6@Imf@@@std@@YA$$QAUInSliceInfo@?A0xcbf8ace6@Imf@@AAU123@@Z 10011400 f i ImfScanLineInputFile.obj
 0001:00010400       ??$forward@PAVAttribute@Imf@@@std@@YA$$QAPAVAttribute@Imf@@AAPAV12@@Z 10011400 f i ImfHeader.obj
 0001:00010400       ??$forward@AAV?$basic_string@DU?$char_traits@D@std@@V?$allocator@D@2@@std@@@std@@YAAAV?$basic_string@DU?$char_traits@D@std@@V?$allocator@D@2@@0@AAV10@@Z 10011400 f i ImfChannelList.obj
 0001:00010400       ??$move@AAV?$_Tree_const_iterator@V?$_Tree_val@V?$_Tset_traits@V?$basic_string@DU?$char_traits@D@std@@V?$allocator@D@2@@std@@U?$less@V?$basic_string@DU?$char_traits@D@std@@V?$allocator@D@2@@std@@@2@V?$allocator@V?$basic_string@DU?$char_traits@D@std@@V?$allocator@D@2@@std@@@2@$0A@@std@@@std@@@std@@@std@@YA$$QAV?$_Tree_const_iterator@V?$_Tree_val@V?$_Tset_traits@V?$basic_string@DU?$char_traits@D@std@@V?$allocator@D@2@@std@@U?$less@V?$basic_string@DU?$char_traits@D@std@@V?$allocator@D@2@@std@@@2@V?$allocator@V?$basic_string@DU?$char_traits@D@std@@V?$allocator@D@2@@std@@@2@$0A@@std@@@std@@@0@AAV10@@Z 10011400 f i ImfChannelList.obj
 0001:00010400       ??$forward@AAUSlice@Imf@@@std@@YAAAUSlice@Imf@@AAU12@@Z 10011400 f i ImfInputFile.obj
 0001:00010400       ??$_Move@AAPA_K@std@@YA$$QAPA_KAAPA_K@Z 10011400 f i ImfHuf.obj
 0001:00010400       ?_Left@?$_Tree_val@V?$_Tmap_traits@UTileCoord@?A0x39e5c904@Imf@@PAUBufferedTile@23@U?$less@UTileCoord@?A0x39e5c904@Imf@@@std@@V?$allocator@U?$pair@$$CBUTileCoord@?A0x39e5c904@Imf@@PAUBufferedTile@23@@std@@@6@$0A@@std@@@std@@SAAAPAU_Node@?$_Tree_nod@V?$_Tmap_traits@UTileCoord@?A0x39e5c904@Imf@@PAUBufferedTile@23@U?$less@UTileCoord@?A0x39e5c904@Imf@@@std@@V?$allocator@U?$pair@$$CBUTileCoord@?A0x39e5c904@Imf@@PAUBufferedTile@23@@std@@@6@$0A@@std@@@2@PAU342@@Z 10011400 f i ImfTiledOutputFile.obj
 0001:00010400       ??$forward@PAUBufferedTile@?A0x39e5c904@Imf@@@std@@YA$$QAPAUBufferedTile@?A0x39e5c904@Imf@@AAPAU123@@Z 10011400 f i ImfTiledOutputFile.obj
 0001:00010400       ??$move@AAV?$_Tree_iterator@V?$_Tree_val@V?$_Tmap_traits@VName@Imf@@USlice@2@U?$less@VName@Imf@@@std@@V?$allocator@U?$pair@$$CBVName@Imf@@USlice@2@@std@@@5@$0A@@std@@@std@@@std@@@std@@YA$$QAV?$_Tree_iterator@V?$_Tree_val@V?$_Tmap_traits@VName@Imf@@USlice@2@U?$less@VName@Imf@@@std@@V?$allocator@U?$pair@$$CBVName@Imf@@USlice@2@@std@@@5@$0A@@std@@@std@@@0@AAV10@@Z 10011400 f i ImfFrameBuffer.obj
 0001:00010400       ??$forward@UOutSliceInfo@?A0xf57f9ec6@Imf@@@std@@YA$$QAUOutSliceInfo@?A0xf57f9ec6@Imf@@AAU123@@Z 10011400 f i ImfOutputFile.obj
 0001:00010400       ??$addressof@_K@std@@YAPA_KAA_K@Z 10011400 f i ImfTiledInputFile.obj
 0001:00010400       ??$forward@AAUChannel@Imf@@@std@@YAAAUChannel@Imf@@AAU12@@Z 10011400 f i ImfHeader.obj
 0001:00010400       ??$forward@USlice@Imf@@@std@@YA$$QAUSlice@Imf@@AAU12@@Z 10011400 f i ImfFrameBuffer.obj
 0001:00010400       ??$forward@P6APAVAttribute@Imf@@XZ@std@@YA$$QAP6APAVAttribute@Imf@@XZAAP6APAV12@XZ@Z 10011400 f i ImfAttribute.obj
 0001:00010400       ??$move@ABVName@Imf@@@std@@YA$$QBVName@Imf@@ABV12@@Z 10011400 f i ImfChannelList.obj
 0001:00010400       ?infile@?A0xa29ce62f@@YAPAVTiledRgbaInputFile@Imf@@PAUImfTiledInputFile@@@Z 10011400 f i ImfCRgbaFile.obj
 0001:00010400       ??$forward@AAV?$_Tree_iterator@V?$_Tree_val@V?$_Tmap_traits@VName@Imf@@USlice@2@U?$less@VName@Imf@@@std@@V?$allocator@U?$pair@$$CBVName@Imf@@USlice@2@@std@@@5@$0A@@std@@@std@@@std@@@std@@YAAAV?$_Tree_iterator@V?$_Tree_val@V?$_Tmap_traits@VName@Imf@@USlice@2@U?$less@VName@Imf@@@std@@V?$allocator@U?$pair@$$CBVName@Imf@@USlice@2@@std@@@5@$0A@@std@@@std@@@0@AAV10@@Z 10011400 f i ImfFrameBuffer.obj
 0001:00010400       ??$move@AAV?$_Tree_iterator@V?$_Tree_val@V?$_Tmap_traits@VName@Imf@@PAVAttribute@2@U?$less@VName@Imf@@@std@@V?$allocator@U?$pair@$$CBVName@Imf@@PAVAttribute@2@@std@@@5@$0A@@std@@@std@@@std@@@std@@YA$$QAV?$_Tree_iterator@V?$_Tree_val@V?$_Tmap_traits@VName@Imf@@PAVAttribute@2@U?$less@VName@Imf@@@std@@V?$allocator@U?$pair@$$CBVName@Imf@@PAVAttribute@2@@std@@@5@$0A@@std@@@std@@@0@AAV10@@Z 10011400 f i ImfHeader.obj
 0001:00010400       ??$forward@AAV?$vector@_KV?$allocator@_K@std@@@std@@@std@@YAAAV?$vector@_KV?$allocator@_K@std@@@0@AAV10@@Z 10011400 f i ImfTiledInputFile.obj
 0001:00010400       ??$move@AA_N@std@@YA$$QA_NAA_N@Z 10011400 f i ImfAttribute.obj
 0001:00010400       ??$forward@U?$pair@$$CBVName@Imf@@USlice@2@@std@@@std@@YA$$QAU?$pair@$$CBVName@Imf@@USlice@2@@0@AAU10@@Z 10011400 f i ImfFrameBuffer.obj
 0001:00010400       ??$forward@V?$vector@_KV?$allocator@_K@std@@@std@@@std@@YA$$QAV?$vector@_KV?$allocator@_K@std@@@0@AAV10@@Z 10011400 f i ImfTiledInputFile.obj
 0001:00010400       ??$forward@AAUTOutSliceInfo@?A0x39e5c904@Imf@@@std@@YAAAUTOutSliceInfo@?A0x39e5c904@Imf@@AAU123@@Z 10011400 f i ImfTiledOutputFile.obj
 0001:00010400       ??$_Move@AAH@std@@YA$$QAHAAH@Z 10011400 f i ImfTiledInputFile.obj
 0001:00010400       ??$move@AAUChannel@Imf@@@std@@YA$$QAUChannel@Imf@@AAU12@@Z 10011400 f i ImfChannelList.obj
 0001:00010400       ??$addressof@U?$pair@QBDP6APAVAttribute@Imf@@XZ@std@@@std@@YAPAU?$pair@QBDP6APAVAttribute@Imf@@XZ@0@AAU10@@Z 10011400 f i ImfAttribute.obj
 0001:00010400       ??$forward@AAUTInSliceInfo@?A0xf6fcebb6@Imf@@@std@@YAAAUTInSliceInfo@?A0xf6fcebb6@Imf@@AAU123@@Z 10011400 f i ImfTiledInputFile.obj
 0001:00010400       ?header@?A0xa29ce62f@@YAPBVHeader@Imf@@PBUImfHeader@@@Z 10011400 f i ImfCRgbaFile.obj
 0001:00010400       ??$forward@V?$vector@V?$vector@_KV?$allocator@_K@std@@@std@@V?$allocator@V?$vector@_KV?$allocator@_K@std@@@std@@@2@@std@@@std@@YA$$QAV?$vector@V?$vector@_KV?$allocator@_K@std@@@std@@V?$allocator@V?$vector@_KV?$allocator@_K@std@@@std@@@2@@0@AAV10@@Z 10011400 f i ImfTiledInputFile.obj
 0001:00010400       ??$forward@UTOutSliceInfo@?A0x39e5c904@Imf@@@std@@YA$$QAUTOutSliceInfo@?A0x39e5c904@Imf@@AAU123@@Z 10011400 f i ImfTiledOutputFile.obj
 0001:00010400       ??$move@AAUSlice@Imf@@@std@@YA$$QAUSlice@Imf@@AAU12@@Z 10011400 f i ImfFrameBuffer.obj
 0001:00010400       ??$forward@AAV?$_Tree_iterator@V?$_Tree_val@V?$_Tmap_traits@UTileCoord@?A0x39e5c904@Imf@@PAUBufferedTile@23@U?$less@UTileCoord@?A0x39e5c904@Imf@@@std@@V?$allocator@U?$pair@$$CBUTileCoord@?A0x39e5c904@Imf@@PAUBufferedTile@23@@std@@@6@$0A@@std@@@std@@@std@@@std@@YAAAV?$_Tree_iterator@V?$_Tree_val@V?$_Tmap_traits@UTileCoord@?A0x39e5c904@Imf@@PAUBufferedTile@23@U?$less@UTileCoord@?A0x39e5c904@Imf@@@std@@V?$allocator@U?$pair@$$CBUTileCoord@?A0x39e5c904@Imf@@PAUBufferedTile@23@@std@@@6@$0A@@std@@@std@@@0@AAV10@@Z 10011400 f i ImfTiledOutputFile.obj
 0001:00010400       ?outfile@?A0xa29ce62f@@YAPBVRgbaOutputFile@Imf@@PBUImfOutputFile@@@Z 10011400 f i ImfCRgbaFile.obj
 0001:00010400       ??$forward@UChannel@Imf@@@std@@YA$$QAUChannel@Imf@@AAU12@@Z 10011400 f i ImfChannelList.obj
 0001:00010400       ??$addressof@UOutSliceInfo@?A0xf57f9ec6@Imf@@@std@@YAPAUOutSliceInfo@?A0xf57f9ec6@Imf@@AAU123@@Z 10011400 f i ImfOutputFile.obj
 0001:00010400       ?_Left@?$_Tree_val@V?$_Tmap_traits@PBDP6APAVAttribute@Imf@@XZUNameCompare@?A0x0779e1ad@2@V?$allocator@U?$pair@QBDP6APAVAttribute@Imf@@XZ@std@@@std@@$0A@@std@@@std@@SAAAPAU_Node@?$_Tree_nod@V?$_Tmap_traits@PBDP6APAVAttribute@Imf@@XZUNameCompare@?A0x0779e1ad@2@V?$allocator@U?$pair@QBDP6APAVAttribute@Imf@@XZ@std@@@std@@$0A@@std@@@2@PAU342@@Z 10011400 f i ImfAttribute.obj
 0001:00010400       ??$forward@ABV?$vector@_KV?$allocator@_K@std@@@std@@@std@@YAABV?$vector@_KV?$allocator@_K@std@@@0@ABV10@@Z 10011400 f i ImfTiledInputFile.obj
 0001:00010400       ??$move@ABUTileCoord@?A0x39e5c904@Imf@@@std@@YA$$QBUTileCoord@?A0x39e5c904@Imf@@ABU123@@Z 10011400 f i ImfTiledOutputFile.obj
 0001:00010400       ?_Kfn@?$_Tset_traits@V?$basic_string@DU?$char_traits@D@std@@V?$allocator@D@2@@std@@U?$less@V?$basic_string@DU?$char_traits@D@std@@V?$allocator@D@2@@std@@@2@V?$allocator@V?$basic_string@DU?$char_traits@D@std@@V?$allocator@D@2@@std@@@2@$0A@@std@@SAABV?$basic_string@DU?$char_traits@D@std@@V?$allocator@D@2@@2@ABV32@@Z 10011400 f i ImfChannelList.obj
 0001:00010400       ?outfile@?A0xa29ce62f@@YAPAVTiledRgbaOutputFile@Imf@@PAUImfTiledOutputFile@@@Z 10011400 f i ImfCRgbaFile.obj
 0001:00010400       ??$forward@AAV?$vector@V?$vector@_KV?$allocator@_K@std@@@std@@V?$allocator@V?$vector@_KV?$allocator@_K@std@@@std@@@2@@std@@@std@@YAAAV?$vector@V?$vector@_KV?$allocator@_K@std@@@std@@V?$allocator@V?$vector@_KV?$allocator@_K@std@@@std@@@2@@0@AAV10@@Z 10011400 f i ImfTiledInputFile.obj
 0001:00010400       ??$move@AAV?$vector@V?$vector@_KV?$allocator@_K@std@@@std@@V?$allocator@V?$vector@_KV?$allocator@_K@std@@@std@@@2@@std@@@std@@YA$$QAV?$vector@V?$vector@_KV?$allocator@_K@std@@@std@@V?$allocator@V?$vector@_KV?$allocator@_K@std@@@std@@@2@@0@AAV10@@Z 10011400 f i ImfTiledInputFile.obj
 0001:00010400       ??$_Move@AAD@std@@YA$$QADAAD@Z 10011400 f i ImfAttribute.obj
 0001:00010410       ??$_Allocate@U_Node@?$_Tree_nod@V?$_Tmap_traits@VName@Imf@@USlice@2@U?$less@VName@Imf@@@std@@V?$allocator@U?$pair@$$CBVName@Imf@@USlice@2@@std@@@5@$0A@@std@@@std@@@std@@YAPAU_Node@?$_Tree_nod@V?$_Tmap_traits@VName@Imf@@USlice@2@U?$less@VName@Imf@@@std@@V?$allocator@U?$pair@$$CBVName@Imf@@USlice@2@@std@@@5@$0A@@std@@@0@IPAU120@@Z 10011410 f i ImfFrameBuffer.obj
 0001:00010470       ?_Key@?$_Tree_val@V?$_Tmap_traits@VName@Imf@@USlice@2@U?$less@VName@Imf@@@std@@V?$allocator@U?$pair@$$CBVName@Imf@@USlice@2@@std@@@5@$0A@@std@@@std@@SAAAVName@Imf@@PAU_Node@?$_Tree_nod@V?$_Tmap_traits@VName@Imf@@USlice@2@U?$less@VName@Imf@@@std@@V?$allocator@U?$pair@$$CBVName@Imf@@USlice@2@@std@@@5@$0A@@std@@@2@@Z 10011470 f i ImfFrameBuffer.obj
 0001:00010470       ?_Myval@?$_Tree_val@V?$_Tmap_traits@VName@Imf@@USlice@2@U?$less@VName@Imf@@@std@@V?$allocator@U?$pair@$$CBVName@Imf@@USlice@2@@std@@@5@$0A@@std@@@std@@SAAAU?$pair@$$CBVName@Imf@@USlice@2@@2@PAU_Node@?$_Tree_nod@V?$_Tmap_traits@VName@Imf@@USlice@2@U?$less@VName@Imf@@@std@@V?$allocator@U?$pair@$$CBVName@Imf@@USlice@2@@std@@@5@$0A@@std@@@2@@Z 10011470 f i ImfFrameBuffer.obj
 0001:00010480       ??E?$_Tree_unchecked_const_iterator@V?$_Tree_val@V?$_Tmap_traits@VName@Imf@@USlice@2@U?$less@VName@Imf@@@std@@V?$allocator@U?$pair@$$CBVName@Imf@@USlice@2@@std@@@5@$0A@@std@@@std@@U_Iterator_base0@2@@std@@QAEAAV01@XZ 10011480 f i ImfFrameBuffer.obj
 0001:000104e0       ?_Lbound@?$_Tree@V?$_Tmap_traits@VName@Imf@@USlice@2@U?$less@VName@Imf@@@std@@V?$allocator@U?$pair@$$CBVName@Imf@@USlice@2@@std@@@5@$0A@@std@@@std@@IBEPAU_Node@?$_Tree_nod@V?$_Tmap_traits@VName@Imf@@USlice@2@U?$less@VName@Imf@@@std@@V?$allocator@U?$pair@$$CBVName@Imf@@USlice@2@@std@@@5@$0A@@std@@@2@ABVName@Imf@@@Z 100114e0 f i ImfFrameBuffer.obj
 0001:000104e0       ?_Lbound@?$_Tree@V?$_Tmap_traits@VName@Imf@@USlice@2@U?$less@VName@Imf@@@std@@V?$allocator@U?$pair@$$CBVName@Imf@@USlice@2@@std@@@5@$0A@@std@@@std@@IAEPAU_Node@?$_Tree_nod@V?$_Tmap_traits@VName@Imf@@USlice@2@U?$less@VName@Imf@@@std@@V?$allocator@U?$pair@$$CBVName@Imf@@USlice@2@@std@@@5@$0A@@std@@@2@ABVName@Imf@@@Z 100114e0 f i ImfFrameBuffer.obj
 0001:00010550       ?max_size@?$allocator@U?$pair@$$CBVName@Imf@@USlice@2@@std@@@std@@QBEIXZ 10011550 f i ImfFrameBuffer.obj
 0001:00010550       ?max_size@?$_Tree@V?$_Tmap_traits@VName@Imf@@USlice@2@U?$less@VName@Imf@@@std@@V?$allocator@U?$pair@$$CBVName@Imf@@USlice@2@@std@@@5@$0A@@std@@@std@@QBEIXZ 10011550 f i ImfFrameBuffer.obj
 0001:00010560       ??F?$_Tree_unchecked_const_iterator@V?$_Tree_val@V?$_Tmap_traits@VName@Imf@@USlice@2@U?$less@VName@Imf@@@std@@V?$allocator@U?$pair@$$CBVName@Imf@@USlice@2@@std@@@5@$0A@@std@@@std@@U_Iterator_base0@2@@std@@QAEAAV01@XZ 10011560 f i ImfFrameBuffer.obj
 0001:000105e0       ?allocate@?$allocator@U_Node@?$_Tree_nod@V?$_Tmap_traits@VName@Imf@@USlice@2@U?$less@VName@Imf@@@std@@V?$allocator@U?$pair@$$CBVName@Imf@@USlice@2@@std@@@5@$0A@@std@@@std@@@std@@QAEPAU_Node@?$_Tree_nod@V?$_Tmap_traits@VName@Imf@@USlice@2@U?$less@VName@Imf@@@std@@V?$allocator@U?$pair@$$CBVName@Imf@@USlice@2@@std@@@5@$0A@@std@@@2@I@Z 100115e0 f i ImfFrameBuffer.obj
 0001:00010640       ??E?$_Tree_const_iterator@V?$_Tree_val@V?$_Tmap_traits@VName@Imf@@USlice@2@U?$less@VName@Imf@@@std@@V?$allocator@U?$pair@$$CBVName@Imf@@USlice@2@@std@@@5@$0A@@std@@@std@@@std@@QAEAAV01@XZ 10011640 f i ImfFrameBuffer.obj
 0001:00010640       ??EConstIterator@FrameBuffer@Imf@@QAEAAV012@XZ 10011640 f i ImfInputFile.obj
 0001:00010640       ??EIterator@FrameBuffer@Imf@@QAEAAV012@XZ 10011640 f i ImfInputFile.obj
 0001:00010640       ??E?$_Tree_iterator@V?$_Tree_val@V?$_Tmap_traits@VName@Imf@@USlice@2@U?$less@VName@Imf@@@std@@V?$allocator@U?$pair@$$CBVName@Imf@@USlice@2@@std@@@5@$0A@@std@@@std@@@std@@QAEAAV01@XZ 10011640 f i ImfInputFile.obj
 0001:00010650       ?lower_bound@?$_Tree@V?$_Tmap_traits@VName@Imf@@USlice@2@U?$less@VName@Imf@@@std@@V?$allocator@U?$pair@$$CBVName@Imf@@USlice@2@@std@@@5@$0A@@std@@@std@@QAE?AV?$_Tree_iterator@V?$_Tree_val@V?$_Tmap_traits@VName@Imf@@USlice@2@U?$less@VName@Imf@@@std@@V?$allocator@U?$pair@$$CBVName@Imf@@USlice@2@@std@@@5@$0A@@std@@@std@@@2@ABVName@Imf@@@Z 10011650 f i ImfFrameBuffer.obj
 0001:00010650       ?lower_bound@?$_Tree@V?$_Tmap_traits@VName@Imf@@USlice@2@U?$less@VName@Imf@@@std@@V?$allocator@U?$pair@$$CBVName@Imf@@USlice@2@@std@@@5@$0A@@std@@@std@@QBE?AV?$_Tree_const_iterator@V?$_Tree_val@V?$_Tmap_traits@VName@Imf@@USlice@2@U?$less@VName@Imf@@@std@@V?$allocator@U?$pair@$$CBVName@Imf@@USlice@2@@std@@@5@$0A@@std@@@std@@@2@ABVName@Imf@@@Z 10011650 f i ImfFrameBuffer.obj
 0001:00010670       ??0?$pair@$$CBVName@Imf@@USlice@2@@std@@QAE@ABVName@Imf@@$$QAUSlice@3@@Z 10011670 f i ImfFrameBuffer.obj
 0001:00010670       ??$?0ABVName@Imf@@AAUSlice@1@@?$_Pair_base@$$CBVName@Imf@@USlice@2@@std@@QAE@ABVName@Imf@@AAUSlice@3@@Z 10011670 f i ImfInputFile.obj
 0001:00010670       ??0?$_Pair_base@$$CBVName@Imf@@USlice@2@@std@@QAE@$$QBVName@Imf@@$$QAUSlice@3@@Z 10011670 f i ImfFrameBuffer.obj
 0001:00010670       ??0?$_Pair_base@$$CBVName@Imf@@USlice@2@@std@@QAE@ABVName@Imf@@$$QAUSlice@3@@Z 10011670 f i ImfFrameBuffer.obj
 0001:000106d0       ??F?$_Tree_const_iterator@V?$_Tree_val@V?$_Tmap_traits@VName@Imf@@USlice@2@U?$less@VName@Imf@@@std@@V?$allocator@U?$pair@$$CBVName@Imf@@USlice@2@@std@@@5@$0A@@std@@@std@@@std@@QAEAAV01@XZ 100116d0 f i ImfFrameBuffer.obj
 0001:000106d0       ??F?$_Tree_iterator@V?$_Tree_val@V?$_Tmap_traits@VName@Imf@@USlice@2@U?$less@VName@Imf@@@std@@V?$allocator@U?$pair@$$CBVName@Imf@@USlice@2@@std@@@5@$0A@@std@@@std@@@std@@QAEAAV01@XZ 100116d0 f i ImfFrameBuffer.obj
 0001:000106e0       ?_Buynode@?$_Tree_val@V?$_Tmap_traits@VName@Imf@@USlice@2@U?$less@VName@Imf@@@std@@V?$allocator@U?$pair@$$CBVName@Imf@@USlice@2@@std@@@5@$0A@@std@@@std@@QAEPAU_Node@?$_Tree_nod@V?$_Tmap_traits@VName@Imf@@USlice@2@U?$less@VName@Imf@@@std@@V?$allocator@U?$pair@$$CBVName@Imf@@USlice@2@@std@@@5@$0A@@std@@@2@XZ 100116e0 f i ImfFrameBuffer.obj
 0001:00010740       ??$?0$$CBVName@Imf@@USlice@1@@?$pair@$$CBVName@Imf@@USlice@2@@std@@QAE@AAU01@@Z 10011740 f i ImfInputFile.obj
 0001:00010740       ??$?0$$CBVName@Imf@@USlice@1@@?$pair@$$CBVName@Imf@@USlice@2@@std@@QAE@$$QAU01@@Z 10011740 f i ImfFrameBuffer.obj
 0001:000107b0       ?_Insert@?$_Tree@V?$_Tmap_traits@VName@Imf@@USlice@2@U?$less@VName@Imf@@@std@@V?$allocator@U?$pair@$$CBVName@Imf@@USlice@2@@std@@@5@$0A@@std@@@std@@IAE?AV?$_Tree_iterator@V?$_Tree_val@V?$_Tmap_traits@VName@Imf@@USlice@2@U?$less@VName@Imf@@@std@@V?$allocator@U?$pair@$$CBVName@Imf@@USlice@2@@std@@@5@$0A@@std@@@std@@@2@_NPAU_Node@?$_Tree_nod@V?$_Tmap_traits@VName@Imf@@USlice@2@U?$less@VName@Imf@@@std@@V?$allocator@U?$pair@$$CBVName@Imf@@USlice@2@@std@@@5@$0A@@std@@@2@1@Z 100117b0 f i ImfFrameBuffer.obj
 0001:000109c0       ??AFrameBuffer@Imf@@QAEAAUSlice@1@QBD@Z 100119c0 f   ImfFrameBuffer.obj
 0001:000109c0       ??AFrameBuffer@Imf@@QBEABUSlice@1@QBD@Z 100119c0 f   ImfFrameBuffer.obj
 0001:00010b30       ??AFrameBuffer@Imf@@QAEAAUSlice@1@ABV?$basic_string@DU?$char_traits@D@std@@V?$allocator@D@2@@std@@@Z 10011b30 f   ImfFrameBuffer.obj
 0001:00010b30       ??AFrameBuffer@Imf@@QBEABUSlice@1@ABV?$basic_string@DU?$char_traits@D@std@@V?$allocator@D@2@@std@@@Z 10011b30 f   ImfFrameBuffer.obj
 0001:00010b50       ?find@FrameBuffer@Imf@@QBE?AVConstIterator@12@ABV?$basic_string@DU?$char_traits@D@std@@V?$allocator@D@2@@std@@@Z 10011b50 f   ImfFrameBuffer.obj
 0001:00010b50       ?find@FrameBuffer@Imf@@QAE?AVIterator@12@ABV?$basic_string@DU?$char_traits@D@std@@V?$allocator@D@2@@std@@@Z 10011b50 f   ImfFrameBuffer.obj
 0001:00010bc0       ?find@?$_Tree@V?$_Tmap_traits@VName@Imf@@USlice@2@U?$less@VName@Imf@@@std@@V?$allocator@U?$pair@$$CBVName@Imf@@USlice@2@@std@@@5@$0A@@std@@@std@@QAE?AV?$_Tree_iterator@V?$_Tree_val@V?$_Tmap_traits@VName@Imf@@USlice@2@U?$less@VName@Imf@@@std@@V?$allocator@U?$pair@$$CBVName@Imf@@USlice@2@@std@@@5@$0A@@std@@@std@@@2@ABVName@Imf@@@Z 10011bc0 f i ImfFrameBuffer.obj
 0001:00010bc0       ?find@?$_Tree@V?$_Tmap_traits@VName@Imf@@USlice@2@U?$less@VName@Imf@@@std@@V?$allocator@U?$pair@$$CBVName@Imf@@USlice@2@@std@@@5@$0A@@std@@@std@@QBE?AV?$_Tree_const_iterator@V?$_Tree_val@V?$_Tmap_traits@VName@Imf@@USlice@2@U?$less@VName@Imf@@@std@@V?$allocator@U?$pair@$$CBVName@Imf@@USlice@2@@std@@@5@$0A@@std@@@std@@@2@ABVName@Imf@@@Z 10011bc0 f i ImfFrameBuffer.obj
 0001:00010c30       ?_Linsert@?$_Tree@V?$_Tmap_traits@VName@Imf@@USlice@2@U?$less@VName@Imf@@@std@@V?$allocator@U?$pair@$$CBVName@Imf@@USlice@2@@std@@@5@$0A@@std@@@std@@QAE?AU?$pair@V?$_Tree_iterator@V?$_Tree_val@V?$_Tmap_traits@VName@Imf@@USlice@2@U?$less@VName@Imf@@@std@@V?$allocator@U?$pair@$$CBVName@Imf@@USlice@2@@std@@@5@$0A@@std@@@std@@@std@@_N@2@PAU_Node@?$_Tree_nod@V?$_Tmap_traits@VName@Imf@@USlice@2@U?$less@VName@Imf@@@std@@V?$allocator@U?$pair@$$CBVName@Imf@@USlice@2@@std@@@5@$0A@@std@@@2@_N@Z 10011c30 f i ImfFrameBuffer.obj
 0001:00010db0       ?findSlice@FrameBuffer@Imf@@QAEPAUSlice@2@QBD@Z 10011db0 f   ImfFrameBuffer.obj
 0001:00010db0       ?findSlice@FrameBuffer@Imf@@QBEPBUSlice@2@QBD@Z 10011db0 f   ImfFrameBuffer.obj
 0001:00010e30       ?findSlice@FrameBuffer@Imf@@QAEPAUSlice@2@ABV?$basic_string@DU?$char_traits@D@std@@V?$allocator@D@2@@std@@@Z 10011e30 f   ImfFrameBuffer.obj
 0001:00010e30       ?findSlice@FrameBuffer@Imf@@QBEPBUSlice@2@ABV?$basic_string@DU?$char_traits@D@std@@V?$allocator@D@2@@std@@@Z 10011e30 f   ImfFrameBuffer.obj
 0001:00010ec0       ?find@FrameBuffer@Imf@@QAE?AVIterator@12@QBD@Z 10011ec0 f   ImfFrameBuffer.obj
 0001:00010ec0       ?find@FrameBuffer@Imf@@QBE?AVConstIterator@12@QBD@Z 10011ec0 f   ImfFrameBuffer.obj
 0001:00010f30       ?_Insert@?$_Tree@V?$_Tmap_traits@VName@Imf@@USlice@2@U?$less@VName@Imf@@@std@@V?$allocator@U?$pair@$$CBVName@Imf@@USlice@2@@std@@@5@$0A@@std@@@std@@QAE?AV?$_Tree_iterator@V?$_Tree_val@V?$_Tmap_traits@VName@Imf@@USlice@2@U?$less@VName@Imf@@@std@@V?$allocator@U?$pair@$$CBVName@Imf@@USlice@2@@std@@@5@$0A@@std@@@std@@@2@V?$_Tree_const_iterator@V?$_Tree_val@V?$_Tmap_traits@VName@Imf@@USlice@2@U?$less@VName@Imf@@@std@@V?$allocator@U?$pair@$$CBVName@Imf@@USlice@2@@std@@@5@$0A@@std@@@std@@@2@PAU_Node@?$_Tree_nod@V?$_Tmap_traits@VName@Imf@@USlice@2@U?$less@VName@Imf@@@std@@V?$allocator@U?$pair@$$CBVName@Imf@@USlice@2@@std@@@5@$0A@@std@@@2@@Z 10011f30 f i ImfFrameBuffer.obj
 0001:000110e0       ??$_Buynode@U?$pair@$$CBVName@Imf@@USlice@2@@std@@@?$_Tree_val@V?$_Tmap_traits@VName@Imf@@USlice@2@U?$less@VName@Imf@@@std@@V?$allocator@U?$pair@$$CBVName@Imf@@USlice@2@@std@@@5@$0A@@std@@@std@@QAEPAU_Node@?$_Tree_nod@V?$_Tmap_traits@VName@Imf@@USlice@2@U?$less@VName@Imf@@@std@@V?$allocator@U?$pair@$$CBVName@Imf@@USlice@2@@std@@@5@$0A@@std@@@1@$$QAU?$pair@$$CBVName@Imf@@USlice@2@@1@@Z 100120e0 f i ImfFrameBuffer.obj
 0001:000110e0       ??$_Buynode@AAU?$pair@$$CBVName@Imf@@USlice@2@@std@@@?$_Tree_val@V?$_Tmap_traits@VName@Imf@@USlice@2@U?$less@VName@Imf@@@std@@V?$allocator@U?$pair@$$CBVName@Imf@@USlice@2@@std@@@5@$0A@@std@@@std@@QAEPAU_Node@?$_Tree_nod@V?$_Tmap_traits@VName@Imf@@USlice@2@U?$less@VName@Imf@@@std@@V?$allocator@U?$pair@$$CBVName@Imf@@USlice@2@@std@@@5@$0A@@std@@@1@AAU?$pair@$$CBVName@Imf@@USlice@2@@1@@Z 100120e0 f i ImfInputFile.obj
 0001:00011160       ??$insert@U?$pair@$$CBVName@Imf@@USlice@2@@std@@@?$_Tree@V?$_Tmap_traits@VName@Imf@@USlice@2@U?$less@VName@Imf@@@std@@V?$allocator@U?$pair@$$CBVName@Imf@@USlice@2@@std@@@5@$0A@@std@@@std@@QAE?AV?$_Tree_iterator@V?$_Tree_val@V?$_Tmap_traits@VName@Imf@@USlice@2@U?$less@VName@Imf@@@std@@V?$allocator@U?$pair@$$CBVName@Imf@@USlice@2@@std@@@5@$0A@@std@@@std@@@1@V?$_Tree_const_iterator@V?$_Tree_val@V?$_Tmap_traits@VName@Imf@@USlice@2@U?$less@VName@Imf@@@std@@V?$allocator@U?$pair@$$CBVName@Imf@@USlice@2@@std@@@5@$0A@@std@@@std@@@1@$$QAU?$pair@$$CBVName@Imf@@USlice@2@@1@@Z 10012160 f i ImfFrameBuffer.obj
 0001:00011190       ??A?$map@VName@Imf@@USlice@2@U?$less@VName@Imf@@@std@@V?$allocator@U?$pair@$$CBVName@Imf@@USlice@2@@std@@@5@@std@@QAEAAUSlice@Imf@@ABVName@3@@Z 10012190 f i ImfFrameBuffer.obj
 0001:00011280       ?insert@FrameBuffer@Imf@@QAEXQBDABUSlice@2@@Z 10012280 f   ImfFrameBuffer.obj
 0001:00011430       ?insert@FrameBuffer@Imf@@QAEXABV?$basic_string@DU?$char_traits@D@std@@V?$allocator@D@2@@std@@ABUSlice@2@@Z 10012430 f   ImfFrameBuffer.obj
 0001:00011450       ??BRational@Imf@@QBENXZ    10012450 f i ImfFramesPerSecond.obj
 0001:00011470       ?fps_23_976@Imf@@YA?AVRational@1@XZ 10012470 f i ImfFramesPerSecond.obj
 0001:00011490       ?fps_29_97@Imf@@YA?AVRational@1@XZ 10012490 f i ImfFramesPerSecond.obj
 0001:000114b0       ?fps_47_952@Imf@@YA?AVRational@1@XZ 100124b0 f i ImfFramesPerSecond.obj
 0001:000114d0       ?fps_59_94@Imf@@YA?AVRational@1@XZ 100124d0 f i ImfFramesPerSecond.obj
 0001:000114f0       ??$abs@N@Imath@@YANN@Z     100124f0 f i ImfFramesPerSecond.obj
 0001:00011500       ?guessExactFps@Imf@@YA?AVRational@1@ABV21@@Z 10012500 f   ImfFramesPerSecond.obj
 0001:000115e0       ?guessExactFps@Imf@@YA?AVRational@1@N@Z 100125e0 f   ImfFramesPerSecond.obj
 0001:00011610       ??0TileDescription@Imf@@QAE@IIW4LevelMode@1@W4LevelRoundingMode@1@@Z 10012610 f i ImfHeader.obj
 0001:00011610       ??0TileCoord@?A0x39e5c904@Imf@@QAE@HHHH@Z 10012610 f i ImfTiledOutputFile.obj
 0001:00011630       ??0ArgExc@Iex@@QAE@PBD@Z   10012630 f i ImfHeader.obj
 0001:00011650       ??0TypeExc@Iex@@QAE@AAV?$basic_stringstream@DU?$char_traits@D@std@@V?$allocator@D@2@@std@@@Z 10012650 f i ImfHeader.obj
 0001:00011670       ??0ConstIterator@Header@Imf@@QAE@ABVIterator@12@@Z 10012670 f i ImfCRgbaFile.obj
 0001:00011670       ??0ConstIterator@FrameBuffer@Imf@@QAE@ABVIterator@12@@Z 10012670 f i ImfInputFile.obj
 0001:00011670       ??0Iterator@ChannelList@Imf@@QAE@ABV?$_Tree_iterator@V?$_Tree_val@V?$_Tmap_traits@VName@Imf@@UChannel@2@U?$less@VName@Imf@@@std@@V?$allocator@U?$pair@$$CBVName@Imf@@UChannel@2@@std@@@5@$0A@@std@@@std@@@std@@@Z 10012670 f i ImfChannelList.obj
 0001:00011670       ??0ConstIterator@Header@Imf@@QAE@ABV?$_Tree_const_iterator@V?$_Tree_val@V?$_Tmap_traits@VName@Imf@@PAVAttribute@2@U?$less@VName@Imf@@@std@@V?$allocator@U?$pair@$$CBVName@Imf@@PAVAttribute@2@@std@@@5@$0A@@std@@@std@@@std@@@Z 10012670 f i ImfHeader.obj
 0001:00011670       ??0ConstIterator@ChannelList@Imf@@QAE@ABV?$_Tree_const_iterator@V?$_Tree_val@V?$_Tmap_traits@VName@Imf@@UChannel@2@U?$less@VName@Imf@@@std@@V?$allocator@U?$pair@$$CBVName@Imf@@UChannel@2@@std@@@5@$0A@@std@@@std@@@std@@@Z 10012670 f i ImfChannelList.obj
 0001:00011670       ??0Iterator@FrameBuffer@Imf@@QAE@ABV?$_Tree_iterator@V?$_Tree_val@V?$_Tmap_traits@VName@Imf@@USlice@2@U?$less@VName@Imf@@@std@@V?$allocator@U?$pair@$$CBVName@Imf@@USlice@2@@std@@@5@$0A@@std@@@std@@@std@@@Z 10012670 f i ImfFrameBuffer.obj
 0001:00011670       ??0Iterator@Header@Imf@@QAE@ABV?$_Tree_iterator@V?$_Tree_val@V?$_Tmap_traits@VName@Imf@@PAVAttribute@2@U?$less@VName@Imf@@@std@@V?$allocator@U?$pair@$$CBVName@Imf@@PAVAttribute@2@@std@@@5@$0A@@std@@@std@@@std@@@Z 10012670 f i ImfHeader.obj
 0001:00011670       ??0ConstIterator@ChannelList@Imf@@QAE@ABVIterator@12@@Z 10012670 f i ImfChannelList.obj
 0001:00011670       ??0ConstIterator@FrameBuffer@Imf@@QAE@ABV?$_Tree_const_iterator@V?$_Tree_val@V?$_Tmap_traits@VName@Imf@@USlice@2@U?$less@VName@Imf@@@std@@V?$allocator@U?$pair@$$CBVName@Imf@@USlice@2@@std@@@5@$0A@@std@@@std@@@std@@@Z 10012670 f i ImfFrameBuffer.obj
 0001:00011680       ?getVersion@Imf@@YAHH@Z    10012680 f i ImfHeader.obj
 0001:00011690       ?getFlags@Imf@@YAHH@Z      10012690 f i ImfHeader.obj
 0001:000116a0       ?supportsFlags@Imf@@YA_NH@Z 100126a0 f i ImfHeader.obj
 0001:000116c0       ??0Rational@Imf@@QAE@XZ    100126c0 f i ImfHeader.obj
 0001:000116d0       ?setMaxImageSize@Header@Imf@@SAXHH@Z 100126d0 f   ImfHeader.obj
 0001:000116f0       ?setMaxTileSize@Header@Imf@@SAXHH@Z 100126f0 f   ImfHeader.obj
 0001:00011710       ?_Color@?$_Tree_val@V?$_Tmap_traits@VName@Imf@@PAVAttribute@2@U?$less@VName@Imf@@@std@@V?$allocator@U?$pair@$$CBVName@Imf@@PAVAttribute@2@@std@@@5@$0A@@std@@@std@@SAAADPAU_Node@?$_Tree_nod@V?$_Tmap_traits@VName@Imf@@PAVAttribute@2@U?$less@VName@Imf@@@std@@V?$allocator@U?$pair@$$CBVName@Imf@@PAVAttribute@2@@std@@@5@$0A@@std@@@2@@Z 10012710 f i ImfHeader.obj
 0001:00011720       ?_Isnil@?$_Tree_val@V?$_Tmap_traits@VName@Imf@@PAVAttribute@2@U?$less@VName@Imf@@@std@@V?$allocator@U?$pair@$$CBVName@Imf@@PAVAttribute@2@@std@@@5@$0A@@std@@@std@@SAAADPAU_Node@?$_Tree_nod@V?$_Tmap_traits@VName@Imf@@PAVAttribute@2@U?$less@VName@Imf@@@std@@V?$allocator@U?$pair@$$CBVName@Imf@@PAVAttribute@2@@std@@@5@$0A@@std@@@2@@Z 10012720 f i ImfHeader.obj
 0001:00011730       ?_Parent@?$_Tree_val@V?$_Tmap_traits@PBDP6APAVAttribute@Imf@@XZUNameCompare@?A0x0779e1ad@2@V?$allocator@U?$pair@QBDP6APAVAttribute@Imf@@XZ@std@@@std@@$0A@@std@@@std@@SAAAPAU_Node@?$_Tree_nod@V?$_Tmap_traits@PBDP6APAVAttribute@Imf@@XZUNameCompare@?A0x0779e1ad@2@V?$allocator@U?$pair@QBDP6APAVAttribute@Imf@@XZ@std@@@std@@$0A@@std@@@2@PAU342@@Z 10012730 f i ImfAttribute.obj
 0001:00011730       ?_Parent@?$_Tree_val@V?$_Tmap_traits@VName@Imf@@UChannel@2@U?$less@VName@Imf@@@std@@V?$allocator@U?$pair@$$CBVName@Imf@@UChannel@2@@std@@@5@$0A@@std@@@std@@SAAAPAU_Node@?$_Tree_nod@V?$_Tmap_traits@VName@Imf@@UChannel@2@U?$less@VName@Imf@@@std@@V?$allocator@U?$pair@$$CBVName@Imf@@UChannel@2@@std@@@5@$0A@@std@@@2@PAU342@@Z 10012730 f i ImfB44Compressor.obj
 0001:00011730       ?_Parent@?$_Tree_val@V?$_Tmap_traits@UTileCoord@?A0x39e5c904@Imf@@PAUBufferedTile@23@U?$less@UTileCoord@?A0x39e5c904@Imf@@@std@@V?$allocator@U?$pair@$$CBUTileCoord@?A0x39e5c904@Imf@@PAUBufferedTile@23@@std@@@6@$0A@@std@@@std@@SAAAPAU_Node@?$_Tree_nod@V?$_Tmap_traits@UTileCoord@?A0x39e5c904@Imf@@PAUBufferedTile@23@U?$less@UTileCoord@?A0x39e5c904@Imf@@@std@@V?$allocator@U?$pair@$$CBUTileCoord@?A0x39e5c904@Imf@@PAUBufferedTile@23@@std@@@6@$0A@@std@@@2@PAU342@@Z 10012730 f i ImfTiledOutputFile.obj
 0001:00011730       ?_Parent@?$_Tree_val@V?$_Tmap_traits@VName@Imf@@PAVAttribute@2@U?$less@VName@Imf@@@std@@V?$allocator@U?$pair@$$CBVName@Imf@@PAVAttribute@2@@std@@@5@$0A@@std@@@std@@SAAAPAU_Node@?$_Tree_nod@V?$_Tmap_traits@VName@Imf@@PAVAttribute@2@U?$less@VName@Imf@@@std@@V?$allocator@U?$pair@$$CBVName@Imf@@PAVAttribute@2@@std@@@5@$0A@@std@@@2@PAU342@@Z 10012730 f i ImfHeader.obj
 0001:00011730       ?_Parent@?$_Tree_val@V?$_Tmap_traits@VName@Imf@@USlice@2@U?$less@VName@Imf@@@std@@V?$allocator@U?$pair@$$CBVName@Imf@@USlice@2@@std@@@5@$0A@@std@@@std@@SAAAPAU_Node@?$_Tree_nod@V?$_Tmap_traits@VName@Imf@@USlice@2@U?$less@VName@Imf@@@std@@V?$allocator@U?$pair@$$CBVName@Imf@@USlice@2@@std@@@5@$0A@@std@@@2@PAU342@@Z 10012730 f i ImfFrameBuffer.obj
 0001:00011730       ?_Parent@?$_Tree_val@V?$_Tset_traits@V?$basic_string@DU?$char_traits@D@std@@V?$allocator@D@2@@std@@U?$less@V?$basic_string@DU?$char_traits@D@std@@V?$allocator@D@2@@std@@@2@V?$allocator@V?$basic_string@DU?$char_traits@D@std@@V?$allocator@D@2@@std@@@2@$0A@@std@@@std@@SAAAPAU_Node@?$_Tree_nod@V?$_Tset_traits@V?$basic_string@DU?$char_traits@D@std@@V?$allocator@D@2@@std@@U?$less@V?$basic_string@DU?$char_traits@D@std@@V?$allocator@D@2@@std@@@2@V?$allocator@V?$basic_string@DU?$char_traits@D@std@@V?$allocator@D@2@@std@@@2@$0A@@std@@@2@PAU342@@Z 10012730 f i ImfChannelList.obj
 0001:00011740       ?_Right@?$_Tree_val@V?$_Tmap_traits@VName@Imf@@PAVAttribute@2@U?$less@VName@Imf@@@std@@V?$allocator@U?$pair@$$CBVName@Imf@@PAVAttribute@2@@std@@@5@$0A@@std@@@std@@SAAAPAU_Node@?$_Tree_nod@V?$_Tmap_traits@VName@Imf@@PAVAttribute@2@U?$less@VName@Imf@@@std@@V?$allocator@U?$pair@$$CBVName@Imf@@PAVAttribute@2@@std@@@5@$0A@@std@@@2@PAU342@@Z 10012740 f i ImfHeader.obj
 0001:00011740       ?_Right@?$_Tree_val@V?$_Tset_traits@V?$basic_string@DU?$char_traits@D@std@@V?$allocator@D@2@@std@@U?$less@V?$basic_string@DU?$char_traits@D@std@@V?$allocator@D@2@@std@@@2@V?$allocator@V?$basic_string@DU?$char_traits@D@std@@V?$allocator@D@2@@std@@@2@$0A@@std@@@std@@SAAAPAU_Node@?$_Tree_nod@V?$_Tset_traits@V?$basic_string@DU?$char_traits@D@std@@V?$allocator@D@2@@std@@U?$less@V?$basic_string@DU?$char_traits@D@std@@V?$allocator@D@2@@std@@@2@V?$allocator@V?$basic_string@DU?$char_traits@D@std@@V?$allocator@D@2@@std@@@2@$0A@@std@@@2@PAU342@@Z 10012740 f i ImfChannelList.obj
 0001:00011740       ?_Right@?$_Tree_val@V?$_Tmap_traits@VName@Imf@@UChannel@2@U?$less@VName@Imf@@@std@@V?$allocator@U?$pair@$$CBVName@Imf@@UChannel@2@@std@@@5@$0A@@std@@@std@@SAAAPAU_Node@?$_Tree_nod@V?$_Tmap_traits@VName@Imf@@UChannel@2@U?$less@VName@Imf@@@std@@V?$allocator@U?$pair@$$CBVName@Imf@@UChannel@2@@std@@@5@$0A@@std@@@2@PAU342@@Z 10012740 f i ImfB44Compressor.obj
 0001:00011740       ?_Right@?$_Tree_val@V?$_Tmap_traits@PBDP6APAVAttribute@Imf@@XZUNameCompare@?A0x0779e1ad@2@V?$allocator@U?$pair@QBDP6APAVAttribute@Imf@@XZ@std@@@std@@$0A@@std@@@std@@SAAAPAU_Node@?$_Tree_nod@V?$_Tmap_traits@PBDP6APAVAttribute@Imf@@XZUNameCompare@?A0x0779e1ad@2@V?$allocator@U?$pair@QBDP6APAVAttribute@Imf@@XZ@std@@@std@@$0A@@std@@@2@PAU342@@Z 10012740 f i ImfAttribute.obj
 0001:00011740       ?_Right@?$_Tree_val@V?$_Tmap_traits@VName@Imf@@USlice@2@U?$less@VName@Imf@@@std@@V?$allocator@U?$pair@$$CBVName@Imf@@USlice@2@@std@@@5@$0A@@std@@@std@@SAAAPAU_Node@?$_Tree_nod@V?$_Tmap_traits@VName@Imf@@USlice@2@U?$less@VName@Imf@@@std@@V?$allocator@U?$pair@$$CBVName@Imf@@USlice@2@@std@@@5@$0A@@std@@@2@PAU342@@Z 10012740 f i ImfFrameBuffer.obj
 0001:00011740       ?_Right@?$_Tree_val@V?$_Tmap_traits@UTileCoord@?A0x39e5c904@Imf@@PAUBufferedTile@23@U?$less@UTileCoord@?A0x39e5c904@Imf@@@std@@V?$allocator@U?$pair@$$CBUTileCoord@?A0x39e5c904@Imf@@PAUBufferedTile@23@@std@@@6@$0A@@std@@@std@@SAAAPAU_Node@?$_Tree_nod@V?$_Tmap_traits@UTileCoord@?A0x39e5c904@Imf@@PAUBufferedTile@23@U?$less@UTileCoord@?A0x39e5c904@Imf@@@std@@V?$allocator@U?$pair@$$CBUTileCoord@?A0x39e5c904@Imf@@PAUBufferedTile@23@@std@@@6@$0A@@std@@@2@PAU342@@Z 10012740 f i ImfTiledOutputFile.obj
 0001:00011750       ?_Max@?$_Tree_val@V?$_Tmap_traits@VName@Imf@@PAVAttribute@2@U?$less@VName@Imf@@@std@@V?$allocator@U?$pair@$$CBVName@Imf@@PAVAttribute@2@@std@@@5@$0A@@std@@@std@@SAPAU_Node@?$_Tree_nod@V?$_Tmap_traits@VName@Imf@@PAVAttribute@2@U?$less@VName@Imf@@@std@@V?$allocator@U?$pair@$$CBVName@Imf@@PAVAttribute@2@@std@@@5@$0A@@std@@@2@PAU342@@Z 10012750 f i ImfHeader.obj
 0001:00011780       ?_Min@?$_Tree_val@V?$_Tmap_traits@VName@Imf@@PAVAttribute@2@U?$less@VName@Imf@@@std@@V?$allocator@U?$pair@$$CBVName@Imf@@PAVAttribute@2@@std@@@5@$0A@@std@@@std@@SAPAU_Node@?$_Tree_nod@V?$_Tmap_traits@VName@Imf@@PAVAttribute@2@U?$less@VName@Imf@@@std@@V?$allocator@U?$pair@$$CBVName@Imf@@PAVAttribute@2@@std@@@5@$0A@@std@@@2@PAU342@@Z 10012780 f i ImfHeader.obj
 0001:000117a0       ??0?$TypedAttribute@W4Compression@Imf@@@Imf@@QAE@ABW4Compression@1@@Z 100127a0 f i ImfHeader.obj
 0001:000117c0       ??1?$TypedAttribute@W4Compression@Imf@@@Imf@@UAE@XZ 100127c0 f i ImfHeader.obj
 0001:000117d0       ?typeName@?$TypedAttribute@W4Compression@Imf@@@Imf@@UBEPBDXZ 100127d0 f i ImfHeader.obj
 0001:000117e0       ??0?$TypedAttribute@W4LineOrder@Imf@@@Imf@@QAE@ABW4LineOrder@1@@Z 100127e0 f i ImfHeader.obj
 0001:00011800       ??1?$TypedAttribute@W4LineOrder@Imf@@@Imf@@UAE@XZ 10012800 f i ImfHeader.obj
 0001:00011810       ?typeName@?$TypedAttribute@W4LineOrder@Imf@@@Imf@@UBEPBDXZ 10012810 f i ImfHeader.obj
 0001:00011820       ??0?$TypedAttribute@VPreviewImage@Imf@@@Imf@@QAE@ABVPreviewImage@1@@Z 10012820 f i ImfHeader.obj
 0001:00011880       ??1?$TypedAttribute@VPreviewImage@Imf@@@Imf@@UAE@XZ 10012880 f i ImfHeader.obj
 0001:000118e0       ?typeName@?$TypedAttribute@VPreviewImage@Imf@@@Imf@@UBEPBDXZ 100128e0 f i ImfHeader.obj
 0001:000118f0       ??0?$TypedAttribute@VTileDescription@Imf@@@Imf@@QAE@ABVTileDescription@1@@Z 100128f0 f i ImfHeader.obj
 0001:00011920       ??1?$TypedAttribute@VTileDescription@Imf@@@Imf@@UAE@XZ 10012920 f i ImfHeader.obj
 0001:00011930       ?typeName@?$TypedAttribute@VTileDescription@Imf@@@Imf@@UBEPBDXZ 10012930 f i ImfHeader.obj
 0001:00011940       ??0?$allocator@U?$pair@$$CBVName@Imf@@USlice@2@@std@@@std@@QAE@ABV01@@Z 10012940 f i ImfInputFile.obj
 0001:00011940       ??$?0U?$pair@$$CBUTileCoord@?A0x39e5c904@Imf@@PAUBufferedTile@23@@std@@@?$allocator@U_Node@?$_Tree_nod@V?$_Tmap_traits@UTileCoord@?A0x39e5c904@Imf@@PAUBufferedTile@23@U?$less@UTileCoord@?A0x39e5c904@Imf@@@std@@V?$allocator@U?$pair@$$CBUTileCoord@?A0x39e5c904@Imf@@PAUBufferedTile@23@@std@@@6@$0A@@std@@@std@@@std@@QAE@ABV?$allocator@U?$pair@$$CBUTileCoord@?A0x39e5c904@Imf@@PAUBufferedTile@23@@std@@@1@@Z 10012940 f i ImfTiledOutputFile.obj
 0001:00011940       ??0?$_String_val@DV?$allocator@D@std@@@std@@QAE@V?$allocator@D@1@@Z 10012940 f i ImfAttribute.obj
 0001:00011940       ??0?$allocator@UTInSliceInfo@?A0xf6fcebb6@Imf@@@std@@QAE@ABV01@@Z 10012940 f i ImfTiledInputFile.obj
 0001:00011940       ??0?$allocator@PAULineBuffer@?A0xf57f9ec6@Imf@@@std@@QAE@ABV01@@Z 10012940 f i ImfOutputFile.obj
 0001:00011940       ??0?$_Tmap_traits@VName@Imf@@USlice@2@U?$less@VName@Imf@@@std@@V?$allocator@U?$pair@$$CBVName@Imf@@USlice@2@@std@@@5@$0A@@std@@QAE@U?$less@VName@Imf@@@1@@Z 10012940 f i ImfInputFile.obj
 0001:00011940       ??0?$_Tmap_traits@VName@Imf@@PAVAttribute@2@U?$less@VName@Imf@@@std@@V?$allocator@U?$pair@$$CBVName@Imf@@PAVAttribute@2@@std@@@5@$0A@@std@@QAE@U?$less@VName@Imf@@@1@@Z 10012940 f i ImfHeader.obj
 0001:00011940       ??0?$allocator@V?$vector@V?$vector@_KV?$allocator@_K@std@@@std@@V?$allocator@V?$vector@_KV?$allocator@_K@std@@@std@@@2@@std@@@std@@QAE@ABV01@@Z 10012940 f i ImfTileOffsets.obj
 0001:00011940       ??$?0U?$pair@$$CBVName@Imf@@USlice@2@@std@@@?$allocator@U_Node@?$_Tree_nod@V?$_Tmap_traits@VName@Imf@@USlice@2@U?$less@VName@Imf@@@std@@V?$allocator@U?$pair@$$CBVName@Imf@@USlice@2@@std@@@5@$0A@@std@@@std@@@std@@QAE@ABV?$allocator@U?$pair@$$CBVName@Imf@@USlice@2@@std@@@1@@Z 10012940 f i ImfInputFile.obj
 0001:00011940       ??0?$allocator@PAUTileBuffer@?A0x39e5c904@Imf@@@std@@QAE@ABV01@@Z 10012940 f i ImfTiledOutputFile.obj
 0001:00011940       ??0?$allocator@U?$pair@$$CBVName@Imf@@UChannel@2@@std@@@std@@QAE@ABV01@@Z 10012940 f i ImfHeader.obj
 0001:00011940       ??0?$allocator@UInSliceInfo@?A0xcbf8ace6@Imf@@@std@@QAE@ABV01@@Z 10012940 f i ImfScanLineInputFile.obj
 0001:00011940       ??$?0U?$pair@QBDP6APAVAttribute@Imf@@XZ@std@@@?$allocator@U_Node@?$_Tree_nod@V?$_Tmap_traits@PBDP6APAVAttribute@Imf@@XZUNameCompare@?A0x0779e1ad@2@V?$allocator@U?$pair@QBDP6APAVAttribute@Imf@@XZ@std@@@std@@$0A@@std@@@std@@@std@@QAE@ABV?$allocator@U?$pair@QBDP6APAVAttribute@Imf@@XZ@std@@@1@@Z 10012940 f i ImfAttribute.obj
 0001:00011940       ??0?$allocator@U?$pair@QBDP6APAVAttribute@Imf@@XZ@std@@@std@@QAE@ABV01@@Z 10012940 f i ImfAttribute.obj
 0001:00011940       ??0?$_Tmap_traits@PBDP6APAVAttribute@Imf@@XZUNameCompare@?A0x0779e1ad@2@V?$allocator@U?$pair@QBDP6APAVAttribute@Imf@@XZ@std@@@std@@$0A@@std@@QAE@UNameCompare@?A0x0779e1ad@Imf@@@Z 10012940 f i ImfAttribute.obj
 0001:00011940       ??0?$allocator@I@std@@QAE@ABV01@@Z 10012940 f i ImfOutputFile.obj
 0001:00011940       ??0?$_Tmap_traits@VName@Imf@@UChannel@2@U?$less@VName@Imf@@@std@@V?$allocator@U?$pair@$$CBVName@Imf@@UChannel@2@@std@@@5@$0A@@std@@QAE@U?$less@VName@Imf@@@1@@Z 10012940 f i ImfHeader.obj
 0001:00011940       ??0?$allocator@D@std@@QAE@ABV01@@Z 10012940 f i ImfAttribute.obj
 0001:00011940       ??0?$allocator@UTOutSliceInfo@?A0x39e5c904@Imf@@@std@@QAE@ABV01@@Z 10012940 f i ImfTiledOutputFile.obj
 0001:00011940       ??0?$allocator@V?$basic_string@DU?$char_traits@D@std@@V?$allocator@D@2@@std@@@std@@QAE@ABV01@@Z 10012940 f i ImfHeader.obj
 0001:00011940       ??0?$allocator@_K@std@@QAE@ABV01@@Z 10012940 f i ImfOutputFile.obj
 0001:00011940       ??0?$_Tmap_traits@UTileCoord@?A0x39e5c904@Imf@@PAUBufferedTile@23@U?$less@UTileCoord@?A0x39e5c904@Imf@@@std@@V?$allocator@U?$pair@$$CBUTileCoord@?A0x39e5c904@Imf@@PAUBufferedTile@23@@std@@@6@$0A@@std@@QAE@U?$less@UTileCoord@?A0x39e5c904@Imf@@@1@@Z 10012940 f i ImfTiledOutputFile.obj
 0001:00011940       ??$?0U?$pair@$$CBVName@Imf@@UChannel@2@@std@@@?$allocator@U_Node@?$_Tree_nod@V?$_Tmap_traits@VName@Imf@@UChannel@2@U?$less@VName@Imf@@@std@@V?$allocator@U?$pair@$$CBVName@Imf@@UChannel@2@@std@@@5@$0A@@std@@@std@@@std@@QAE@ABV?$allocator@U?$pair@$$CBVName@Imf@@UChannel@2@@std@@@1@@Z 10012940 f i ImfHeader.obj
 0001:00011940       ??0?$allocator@U?$pair@$$CBUTileCoord@?A0x39e5c904@Imf@@PAUBufferedTile@23@@std@@@std@@QAE@ABV01@@Z 10012940 f i ImfTiledOutputFile.obj
 0001:00011940       ??0?$allocator@PAUTileBuffer@?A0xf6fcebb6@Imf@@@std@@QAE@ABV01@@Z 10012940 f i ImfTiledInputFile.obj
 0001:00011940       ??0?$allocator@UOutSliceInfo@?A0xf57f9ec6@Imf@@@std@@QAE@ABV01@@Z 10012940 f i ImfOutputFile.obj
 0001:00011940       ??0?$allocator@U?$pair@$$CBVName@Imf@@PAVAttribute@2@@std@@@std@@QAE@ABV01@@Z 10012940 f i ImfHeader.obj
 0001:00011940       ??$?0U?$pair@$$CBVName@Imf@@PAVAttribute@2@@std@@@?$allocator@U_Node@?$_Tree_nod@V?$_Tmap_traits@VName@Imf@@PAVAttribute@2@U?$less@VName@Imf@@@std@@V?$allocator@U?$pair@$$CBVName@Imf@@PAVAttribute@2@@std@@@5@$0A@@std@@@std@@@std@@QAE@ABV?$allocator@U?$pair@$$CBVName@Imf@@PAVAttribute@2@@std@@@1@@Z 10012940 f i ImfHeader.obj
 0001:00011940       ??0?$allocator@V?$vector@_KV?$allocator@_K@std@@@std@@@std@@QAE@ABV01@@Z 10012940 f i ImfTiledInputFile.obj
 0001:00011940       ??0?$allocator@PAULineBuffer@?A0xcbf8ace6@Imf@@@std@@QAE@ABV01@@Z 10012940 f i ImfScanLineInputFile.obj
 0001:00011950       ??$_Allocate@U_Node@?$_Tree_nod@V?$_Tmap_traits@VName@Imf@@PAVAttribute@2@U?$less@VName@Imf@@@std@@V?$allocator@U?$pair@$$CBVName@Imf@@PAVAttribute@2@@std@@@5@$0A@@std@@@std@@@std@@YAPAU_Node@?$_Tree_nod@V?$_Tmap_traits@VName@Imf@@PAVAttribute@2@U?$less@VName@Imf@@@std@@V?$allocator@U?$pair@$$CBVName@Imf@@PAVAttribute@2@@std@@@5@$0A@@std@@@0@IPAU120@@Z 10012950 f i ImfHeader.obj
 0001:000119b0       ??_G?$TypedAttribute@W4Compression@Imf@@@Imf@@UAEPAXI@Z 100129b0 f i ImfHeader.obj
 0001:000119b0       ??_E?$TypedAttribute@W4Compression@Imf@@@Imf@@UAEPAXI@Z 100129b0 f i ImfHeader.obj
 0001:000119e0       ??_E?$TypedAttribute@W4LineOrder@Imf@@@Imf@@UAEPAXI@Z 100129e0 f i ImfHeader.obj
 0001:000119e0       ??_G?$TypedAttribute@W4LineOrder@Imf@@@Imf@@UAEPAXI@Z 100129e0 f i ImfHeader.obj
 0001:00011a10       ??_G?$TypedAttribute@VPreviewImage@Imf@@@Imf@@UAEPAXI@Z 10012a10 f i ImfHeader.obj
 0001:00011a10       ??_E?$TypedAttribute@VPreviewImage@Imf@@@Imf@@UAEPAXI@Z 10012a10 f i ImfHeader.obj
 0001:00011a80       ??_E?$TypedAttribute@VTileDescription@Imf@@@Imf@@UAEPAXI@Z 10012a80 f i ImfHeader.obj
 0001:00011a80       ??_G?$TypedAttribute@VTileDescription@Imf@@@Imf@@UAEPAXI@Z 10012a80 f i ImfHeader.obj
 0001:00011ab0       ??F?$_Tree_unchecked_const_iterator@V?$_Tree_val@V?$_Tmap_traits@VName@Imf@@PAVAttribute@2@U?$less@VName@Imf@@@std@@V?$allocator@U?$pair@$$CBVName@Imf@@PAVAttribute@2@@std@@@5@$0A@@std@@@std@@U_Iterator_base0@2@@std@@QAEAAV01@XZ 10012ab0 f i ImfHeader.obj
 0001:00011b30       ??0?$TypedAttribute@W4Compression@Imf@@@Imf@@QAE@XZ 10012b30 f i ImfHeader.obj
 0001:00011b50       ?makeNewAttribute@?$TypedAttribute@W4Compression@Imf@@@Imf@@SAPAVAttribute@2@XZ 10012b50 f i ImfHeader.obj
 0001:00011bd0       ??0?$TypedAttribute@W4Envmap@Imf@@@Imf@@QAE@XZ 10012bd0 f i ImfHeader.obj
 0001:00011bf0       ??1?$TypedAttribute@W4Envmap@Imf@@@Imf@@UAE@XZ 10012bf0 f i ImfHeader.obj
 0001:00011c00       ?typeName@?$TypedAttribute@W4Envmap@Imf@@@Imf@@UBEPBDXZ 10012c00 f i ImfHeader.obj
 0001:00011c10       ??_G?$TypedAttribute@W4Envmap@Imf@@@Imf@@UAEPAXI@Z 10012c10 f i ImfHeader.obj
 0001:00011c10       ??_E?$TypedAttribute@W4Envmap@Imf@@@Imf@@UAEPAXI@Z 10012c10 f i ImfHeader.obj
 0001:00011c40       ?makeNewAttribute@?$TypedAttribute@W4Envmap@Imf@@@Imf@@SAPAVAttribute@2@XZ 10012c40 f i ImfHeader.obj
 0001:00011cc0       ?makeNewAttribute@?$TypedAttribute@H@Imf@@SAPAVAttribute@2@XZ 10012cc0 f i ImfHeader.obj
 0001:00011d40       ??0?$TypedAttribute@VKeyCode@Imf@@@Imf@@QAE@XZ 10012d40 f i ImfHeader.obj
 0001:00011db0       ??1?$TypedAttribute@VKeyCode@Imf@@@Imf@@UAE@XZ 10012db0 f i ImfHeader.obj
 0001:00011dc0       ?typeName@?$TypedAttribute@VKeyCode@Imf@@@Imf@@UBEPBDXZ 10012dc0 f i ImfHeader.obj
 0001:00011dd0       ??_E?$TypedAttribute@VKeyCode@Imf@@@Imf@@UAEPAXI@Z 10012dd0 f i ImfHeader.obj
 0001:00011dd0       ??_G?$TypedAttribute@VKeyCode@Imf@@@Imf@@UAEPAXI@Z 10012dd0 f i ImfHeader.obj
 0001:00011e00       ?makeNewAttribute@?$TypedAttribute@VKeyCode@Imf@@@Imf@@SAPAVAttribute@2@XZ 10012e00 f i ImfHeader.obj
 0001:00011e90       ??0?$TypedAttribute@W4LineOrder@Imf@@@Imf@@QAE@XZ 10012e90 f i ImfHeader.obj
 0001:00011eb0       ?makeNewAttribute@?$TypedAttribute@W4LineOrder@Imf@@@Imf@@SAPAVAttribute@2@XZ 10012eb0 f i ImfHeader.obj
 0001:00011f30       ??0?$TypedAttribute@VPreviewImage@Imf@@@Imf@@QAE@XZ 10012f30 f i ImfHeader.obj
 0001:00011f90       ?makeNewAttribute@?$TypedAttribute@VPreviewImage@Imf@@@Imf@@SAPAVAttribute@2@XZ 10012f90 f i ImfHeader.obj
 0001:00012020       ??0?$TypedAttribute@VRational@Imf@@@Imf@@QAE@XZ 10013020 f i ImfHeader.obj
 0001:00012040       ??1?$TypedAttribute@VRational@Imf@@@Imf@@UAE@XZ 10013040 f i ImfHeader.obj
 0001:00012050       ?typeName@?$TypedAttribute@VRational@Imf@@@Imf@@UBEPBDXZ 10013050 f i ImfHeader.obj
 0001:00012060       ??_G?$TypedAttribute@VRational@Imf@@@Imf@@UAEPAXI@Z 10013060 f i ImfHeader.obj
 0001:00012060       ??_E?$TypedAttribute@VRational@Imf@@@Imf@@UAEPAXI@Z 10013060 f i ImfHeader.obj
 0001:00012090       ?makeNewAttribute@?$TypedAttribute@VRational@Imf@@@Imf@@SAPAVAttribute@2@XZ 10013090 f i ImfHeader.obj
 0001:00012110       ??0?$TypedAttribute@VTileDescription@Imf@@@Imf@@QAE@XZ 10013110 f i ImfHeader.obj
 0001:00012140       ?makeNewAttribute@?$TypedAttribute@VTileDescription@Imf@@@Imf@@SAPAVAttribute@2@XZ 10013140 f i ImfHeader.obj
 0001:000121d0       ??0?$TypedAttribute@VTimeCode@Imf@@@Imf@@QAE@XZ 100131d0 f i ImfHeader.obj
 0001:00012230       ??1?$TypedAttribute@VTimeCode@Imf@@@Imf@@UAE@XZ 10013230 f i ImfHeader.obj
 0001:00012240       ?typeName@?$TypedAttribute@VTimeCode@Imf@@@Imf@@UBEPBDXZ 10013240 f i ImfHeader.obj
 0001:00012250       ??_E?$TypedAttribute@VTimeCode@Imf@@@Imf@@UAEPAXI@Z 10013250 f i ImfHeader.obj
 0001:00012250       ??_G?$TypedAttribute@VTimeCode@Imf@@@Imf@@UAEPAXI@Z 10013250 f i ImfHeader.obj
 0001:00012280       ?makeNewAttribute@?$TypedAttribute@VTimeCode@Imf@@@Imf@@SAPAVAttribute@2@XZ 10013280 f i ImfHeader.obj
 0001:000122f0       ?makeNewAttribute@?$TypedAttribute@V?$Vec2@H@Imath@@@Imf@@SAPAVAttribute@2@XZ 100132f0 f i ImfHeader.obj
 0001:00012350       ?cast@?$TypedAttribute@W4Envmap@Imf@@@Imf@@SAPBV12@PBVAttribute@2@@Z 10013350 f i ImfHeader.obj
 0001:00012350       ?cast@?$TypedAttribute@W4Envmap@Imf@@@Imf@@SAABV12@ABVAttribute@2@@Z 10013350 f i ImfHeader.obj
 0001:000123b0       ??0?$Matrix33@N@Imath@@QAE@XZ 100133b0 f i ImfHeader.obj
 0001:000123e0       ??0?$Matrix44@N@Imath@@QAE@XZ 100133e0 f i ImfHeader.obj
 0001:00012420       ?cast@?$TypedAttribute@VPreviewImage@Imf@@@Imf@@SAABV12@ABVAttribute@2@@Z 10013420 f i ImfHeader.obj
 0001:00012420       ?cast@?$TypedAttribute@VPreviewImage@Imf@@@Imf@@SAPBV12@PBVAttribute@2@@Z 10013420 f i ImfHeader.obj
 0001:00012480       ?cast@?$TypedAttribute@VTimeCode@Imf@@@Imf@@SAPBV12@PBVAttribute@2@@Z 10013480 f i ImfHeader.obj
 0001:00012480       ?cast@?$TypedAttribute@VTimeCode@Imf@@@Imf@@SAABV12@ABVAttribute@2@@Z 10013480 f i ImfHeader.obj
 0001:000124e0       ??0?$_Tree_unchecked_const_iterator@V?$_Tree_val@V?$_Tmap_traits@UTileCoord@?A0x39e5c904@Imf@@PAUBufferedTile@23@U?$less@UTileCoord@?A0x39e5c904@Imf@@@std@@V?$allocator@U?$pair@$$CBUTileCoord@?A0x39e5c904@Imf@@PAUBufferedTile@23@@std@@@6@$0A@@std@@@std@@U_Iterator_base0@2@@std@@QAE@XZ 100134e0 f i ImfTiledOutputFile.obj
 0001:000124e0       ??0?$_Tree_const_iterator@V?$_Tree_val@V?$_Tmap_traits@VName@Imf@@PAVAttribute@2@U?$less@VName@Imf@@@std@@V?$allocator@U?$pair@$$CBVName@Imf@@PAVAttribute@2@@std@@@5@$0A@@std@@@std@@@std@@QAE@XZ 100134e0 f i ImfHeader.obj
 0001:000124e0       ??0?$_Tree_const_iterator@V?$_Tree_val@V?$_Tmap_traits@UTileCoord@?A0x39e5c904@Imf@@PAUBufferedTile@23@U?$less@UTileCoord@?A0x39e5c904@Imf@@@std@@V?$allocator@U?$pair@$$CBUTileCoord@?A0x39e5c904@Imf@@PAUBufferedTile@23@@std@@@6@$0A@@std@@@std@@@std@@QAE@XZ 100134e0 f i ImfTiledOutputFile.obj
 0001:000124e0       ??0?$_Tree_const_iterator@V?$_Tree_val@V?$_Tmap_traits@VName@Imf@@UChannel@2@U?$less@VName@Imf@@@std@@V?$allocator@U?$pair@$$CBVName@Imf@@UChannel@2@@std@@@5@$0A@@std@@@std@@@std@@QAE@XZ 100134e0 f i ImfChannelList.obj
 0001:000124e0       ??0?$_Tree_const_iterator@V?$_Tree_val@V?$_Tmap_traits@VName@Imf@@USlice@2@U?$less@VName@Imf@@@std@@V?$allocator@U?$pair@$$CBVName@Imf@@USlice@2@@std@@@5@$0A@@std@@@std@@@std@@QAE@XZ 100134e0 f i ImfFrameBuffer.obj
 0001:000124e0       ??0?$_Tree_unchecked_const_iterator@V?$_Tree_val@V?$_Tmap_traits@VName@Imf@@PAVAttribute@2@U?$less@VName@Imf@@@std@@V?$allocator@U?$pair@$$CBVName@Imf@@PAVAttribute@2@@std@@@5@$0A@@std@@@std@@U_Iterator_base0@2@@std@@QAE@XZ 100134e0 f i ImfHeader.obj
 0001:000124e0       ??0?$_Tree_unchecked_const_iterator@V?$_Tree_val@V?$_Tmap_traits@VName@Imf@@USlice@2@U?$less@VName@Imf@@@std@@V?$allocator@U?$pair@$$CBVName@Imf@@USlice@2@@std@@@5@$0A@@std@@@std@@U_Iterator_base0@2@@std@@QAE@XZ 100134e0 f i ImfFrameBuffer.obj
 0001:000124e0       ??0?$Array@D@Imf@@QAE@XZ   100134e0 f i ImfOpaqueAttribute.obj
 0001:000124e0       ??0?$_Tree_unchecked_const_iterator@V?$_Tree_val@V?$_Tmap_traits@VName@Imf@@UChannel@2@U?$less@VName@Imf@@@std@@V?$allocator@U?$pair@$$CBVName@Imf@@UChannel@2@@std@@@5@$0A@@std@@@std@@U_Iterator_base0@2@@std@@QAE@XZ 100134e0 f i ImfChannelList.obj
 0001:000124f0       ??1?$basic_ostringstream@DU?$char_traits@D@std@@V?$allocator@D@2@@std@@UAE@XZ 100134f0 f i ImfHeader.obj
 0001:00012570       ?_Key@?$_Tree_val@V?$_Tmap_traits@UTileCoord@?A0x39e5c904@Imf@@PAUBufferedTile@23@U?$less@UTileCoord@?A0x39e5c904@Imf@@@std@@V?$allocator@U?$pair@$$CBUTileCoord@?A0x39e5c904@Imf@@PAUBufferedTile@23@@std@@@6@$0A@@std@@@std@@SAAAUTileCoord@?A0x39e5c904@Imf@@PAU_Node@?$_Tree_nod@V?$_Tmap_traits@UTileCoord@?A0x39e5c904@Imf@@PAUBufferedTile@23@U?$less@UTileCoord@?A0x39e5c904@Imf@@@std@@V?$allocator@U?$pair@$$CBUTileCoord@?A0x39e5c904@Imf@@PAUBufferedTile@23@@std@@@6@$0A@@std@@@2@@Z 10013570 f i ImfTiledOutputFile.obj
 0001:00012570       ?_Myval@?$_Tree_val@V?$_Tset_traits@V?$basic_string@DU?$char_traits@D@std@@V?$allocator@D@2@@std@@U?$less@V?$basic_string@DU?$char_traits@D@std@@V?$allocator@D@2@@std@@@2@V?$allocator@V?$basic_string@DU?$char_traits@D@std@@V?$allocator@D@2@@std@@@2@$0A@@std@@@std@@SAAAV?$basic_string@DU?$char_traits@D@std@@V?$allocator@D@2@@2@PAU_Node@?$_Tree_nod@V?$_Tset_traits@V?$basic_string@DU?$char_traits@D@std@@V?$allocator@D@2@@std@@U?$less@V?$basic_string@DU?$char_traits@D@std@@V?$allocator@D@2@@std@@@2@V?$allocator@V?$basic_string@DU?$char_traits@D@std@@V?$allocator@D@2@@std@@@2@$0A@@std@@@2@@Z 10013570 f i ImfChannelList.obj
 0001:00012570       ?_Myval@?$_Tree_val@V?$_Tmap_traits@VName@Imf@@UChannel@2@U?$less@VName@Imf@@@std@@V?$allocator@U?$pair@$$CBVName@Imf@@UChannel@2@@std@@@5@$0A@@std@@@std@@SAAAU?$pair@$$CBVName@Imf@@UChannel@2@@2@PAU_Node@?$_Tree_nod@V?$_Tmap_traits@VName@Imf@@UChannel@2@U?$less@VName@Imf@@@std@@V?$allocator@U?$pair@$$CBVName@Imf@@UChannel@2@@std@@@5@$0A@@std@@@2@@Z 10013570 f i ImfB44Compressor.obj
 0001:00012570       ?_Key@?$_Tree_val@V?$_Tmap_traits@PBDP6APAVAttribute@Imf@@XZUNameCompare@?A0x0779e1ad@2@V?$allocator@U?$pair@QBDP6APAVAttribute@Imf@@XZ@std@@@std@@$0A@@std@@@std@@SAAAPBDPAU_Node@?$_Tree_nod@V?$_Tmap_traits@PBDP6APAVAttribute@Imf@@XZUNameCompare@?A0x0779e1ad@2@V?$allocator@U?$pair@QBDP6APAVAttribute@Imf@@XZ@std@@@std@@$0A@@std@@@2@@Z 10013570 f i ImfAttribute.obj
 0001:00012570       ?_Myval@?$_Tree_val@V?$_Tmap_traits@UTileCoord@?A0x39e5c904@Imf@@PAUBufferedTile@23@U?$less@UTileCoord@?A0x39e5c904@Imf@@@std@@V?$allocator@U?$pair@$$CBUTileCoord@?A0x39e5c904@Imf@@PAUBufferedTile@23@@std@@@6@$0A@@std@@@std@@SAAAU?$pair@$$CBUTileCoord@?A0x39e5c904@Imf@@PAUBufferedTile@23@@2@PAU_Node@?$_Tree_nod@V?$_Tmap_traits@UTileCoord@?A0x39e5c904@Imf@@PAUBufferedTile@23@U?$less@UTileCoord@?A0x39e5c904@Imf@@@std@@V?$allocator@U?$pair@$$CBUTileCoord@?A0x39e5c904@Imf@@PAUBufferedTile@23@@std@@@6@$0A@@std@@@2@@Z 10013570 f i ImfTiledOutputFile.obj
 0001:00012570       ?_Myval@?$_Tree_val@V?$_Tmap_traits@PBDP6APAVAttribute@Imf@@XZUNameCompare@?A0x0779e1ad@2@V?$allocator@U?$pair@QBDP6APAVAttribute@Imf@@XZ@std@@@std@@$0A@@std@@@std@@SAAAU?$pair@QBDP6APAVAttribute@Imf@@XZ@2@PAU_Node@?$_Tree_nod@V?$_Tmap_traits@PBDP6APAVAttribute@Imf@@XZUNameCompare@?A0x0779e1ad@2@V?$allocator@U?$pair@QBDP6APAVAttribute@Imf@@XZ@std@@@std@@$0A@@std@@@2@@Z 10013570 f i ImfAttribute.obj
 0001:00012570       ?_Myval@?$_Tree_val@V?$_Tmap_traits@VName@Imf@@PAVAttribute@2@U?$less@VName@Imf@@@std@@V?$allocator@U?$pair@$$CBVName@Imf@@PAVAttribute@2@@std@@@5@$0A@@std@@@std@@SAAAU?$pair@$$CBVName@Imf@@PAVAttribute@2@@2@PAU_Node@?$_Tree_nod@V?$_Tmap_traits@VName@Imf@@PAVAttribute@2@U?$less@VName@Imf@@@std@@V?$allocator@U?$pair@$$CBVName@Imf@@PAVAttribute@2@@std@@@5@$0A@@std@@@2@@Z 10013570 f i ImfHeader.obj
 0001:00012570       ?_Key@?$_Tree_val@V?$_Tmap_traits@VName@Imf@@UChannel@2@U?$less@VName@Imf@@@std@@V?$allocator@U?$pair@$$CBVName@Imf@@UChannel@2@@std@@@5@$0A@@std@@@std@@SAAAVName@Imf@@PAU_Node@?$_Tree_nod@V?$_Tmap_traits@VName@Imf@@UChannel@2@U?$less@VName@Imf@@@std@@V?$allocator@U?$pair@$$CBVName@Imf@@UChannel@2@@std@@@5@$0A@@std@@@2@@Z 10013570 f i ImfChannelList.obj
 0001:00012570       ?_Key@?$_Tree_val@V?$_Tmap_traits@VName@Imf@@PAVAttribute@2@U?$less@VName@Imf@@@std@@V?$allocator@U?$pair@$$CBVName@Imf@@PAVAttribute@2@@std@@@5@$0A@@std@@@std@@SAAAVName@Imf@@PAU_Node@?$_Tree_nod@V?$_Tmap_traits@VName@Imf@@PAVAttribute@2@U?$less@VName@Imf@@@std@@V?$allocator@U?$pair@$$CBVName@Imf@@PAVAttribute@2@@std@@@5@$0A@@std@@@2@@Z 10013570 f i ImfHeader.obj
 0001:00012570       ?_Key@?$_Tree_val@V?$_Tset_traits@V?$basic_string@DU?$char_traits@D@std@@V?$allocator@D@2@@std@@U?$less@V?$basic_string@DU?$char_traits@D@std@@V?$allocator@D@2@@std@@@2@V?$allocator@V?$basic_string@DU?$char_traits@D@std@@V?$allocator@D@2@@std@@@2@$0A@@std@@@std@@SAAAV?$basic_string@DU?$char_traits@D@std@@V?$allocator@D@2@@2@PAU_Node@?$_Tree_nod@V?$_Tset_traits@V?$basic_string@DU?$char_traits@D@std@@V?$allocator@D@2@@std@@U?$less@V?$basic_string@DU?$char_traits@D@std@@V?$allocator@D@2@@std@@@2@V?$allocator@V?$basic_string@DU?$char_traits@D@std@@V?$allocator@D@2@@std@@@2@$0A@@std@@@2@@Z 10013570 f i ImfChannelList.obj
 0001:00012580       ??E?$_Tree_unchecked_const_iterator@V?$_Tree_val@V?$_Tmap_traits@VName@Imf@@PAVAttribute@2@U?$less@VName@Imf@@@std@@V?$allocator@U?$pair@$$CBVName@Imf@@PAVAttribute@2@@std@@@5@$0A@@std@@@std@@U_Iterator_base0@2@@std@@QAEAAV01@XZ 10013580 f i ImfHeader.obj
 0001:000125e0       ?_Rrotate@?$_Tree@V?$_Tmap_traits@VName@Imf@@PAVAttribute@2@U?$less@VName@Imf@@@std@@V?$allocator@U?$pair@$$CBVName@Imf@@PAVAttribute@2@@std@@@5@$0A@@std@@@std@@IAEXPAU_Node@?$_Tree_nod@V?$_Tmap_traits@VName@Imf@@PAVAttribute@2@U?$less@VName@Imf@@@std@@V?$allocator@U?$pair@$$CBVName@Imf@@PAVAttribute@2@@std@@@5@$0A@@std@@@2@@Z 100135e0 f i ImfHeader.obj
 0001:00012640       ?allocate@?$allocator@U_Node@?$_Tree_nod@V?$_Tmap_traits@VName@Imf@@PAVAttribute@2@U?$less@VName@Imf@@@std@@V?$allocator@U?$pair@$$CBVName@Imf@@PAVAttribute@2@@std@@@5@$0A@@std@@@std@@@std@@QAEPAU_Node@?$_Tree_nod@V?$_Tmap_traits@VName@Imf@@PAVAttribute@2@U?$less@VName@Imf@@@std@@V?$allocator@U?$pair@$$CBVName@Imf@@PAVAttribute@2@@std@@@5@$0A@@std@@@2@I@Z 10013640 f i ImfHeader.obj
 0001:000126a0       ?copy@?$TypedAttribute@W4Compression@Imf@@@Imf@@UBEPAVAttribute@2@XZ 100136a0 f i ImfHeader.obj
 0001:00012720       ?registerAttributeType@?$TypedAttribute@W4Compression@Imf@@@Imf@@SAXXZ 10013720 f i ImfHeader.obj
 0001:00012740       ?copy@?$TypedAttribute@W4Envmap@Imf@@@Imf@@UBEPAVAttribute@2@XZ 10013740 f i ImfHeader.obj
 0001:000127c0       ?registerAttributeType@?$TypedAttribute@W4Envmap@Imf@@@Imf@@SAXXZ 100137c0 f i ImfHeader.obj
 0001:000127e0       ?registerAttributeType@?$TypedAttribute@H@Imf@@SAXXZ 100137e0 f i ImfHeader.obj
 0001:00012800       ?copy@?$TypedAttribute@VKeyCode@Imf@@@Imf@@UBEPAVAttribute@2@XZ 10013800 f i ImfHeader.obj
 0001:00012890       ?registerAttributeType@?$TypedAttribute@VKeyCode@Imf@@@Imf@@SAXXZ 10013890 f i ImfHeader.obj
 0001:000128b0       ?copy@?$TypedAttribute@W4LineOrder@Imf@@@Imf@@UBEPAVAttribute@2@XZ 100138b0 f i ImfHeader.obj
 0001:00012930       ?registerAttributeType@?$TypedAttribute@W4LineOrder@Imf@@@Imf@@SAXXZ 10013930 f i ImfHeader.obj
 0001:00012950       ?copy@?$TypedAttribute@VPreviewImage@Imf@@@Imf@@UBEPAVAttribute@2@XZ 10013950 f i ImfHeader.obj
 0001:000129e0       ?registerAttributeType@?$TypedAttribute@VPreviewImage@Imf@@@Imf@@SAXXZ 100139e0 f i ImfHeader.obj
 0001:00012a00       ?copy@?$TypedAttribute@VRational@Imf@@@Imf@@UBEPAVAttribute@2@XZ 10013a00 f i ImfHeader.obj
 0001:00012a90       ?registerAttributeType@?$TypedAttribute@VRational@Imf@@@Imf@@SAXXZ 10013a90 f i ImfHeader.obj
 0001:00012ab0       ?copy@?$TypedAttribute@VTileDescription@Imf@@@Imf@@UBEPAVAttribute@2@XZ 10013ab0 f i ImfHeader.obj
 0001:00012b40       ?registerAttributeType@?$TypedAttribute@VTileDescription@Imf@@@Imf@@SAXXZ 10013b40 f i ImfHeader.obj
 0001:00012b60       ?copy@?$TypedAttribute@VTimeCode@Imf@@@Imf@@UBEPAVAttribute@2@XZ 10013b60 f i ImfHeader.obj
 0001:00012bf0       ?registerAttributeType@?$TypedAttribute@VTimeCode@Imf@@@Imf@@SAXXZ 10013bf0 f i ImfHeader.obj
 0001:00012c10       ?registerAttributeType@?$TypedAttribute@V?$Vec2@H@Imath@@@Imf@@SAXXZ 10013c10 f i ImfHeader.obj
 0001:00012c30       ?max_size@?$allocator@U?$pair@$$CBVName@Imf@@PAVAttribute@2@@std@@@std@@QBEIXZ 10013c30 f i ImfHeader.obj
 0001:00012c30       ?max_size@?$_Tree@V?$_Tmap_traits@VName@Imf@@PAVAttribute@2@U?$less@VName@Imf@@@std@@V?$allocator@U?$pair@$$CBVName@Imf@@PAVAttribute@2@@std@@@5@$0A@@std@@@std@@QBEIXZ 10013c30 f i ImfHeader.obj
 0001:00012c40       ??F?$_Tree_const_iterator@V?$_Tree_val@V?$_Tmap_traits@VName@Imf@@PAVAttribute@2@U?$less@VName@Imf@@@std@@V?$allocator@U?$pair@$$CBVName@Imf@@PAVAttribute@2@@std@@@5@$0A@@std@@@std@@@std@@QAEAAV01@XZ 10013c40 f i ImfHeader.obj
 0001:00012c40       ??F?$_Tree_iterator@V?$_Tree_val@V?$_Tmap_traits@VName@Imf@@PAVAttribute@2@U?$less@VName@Imf@@@std@@V?$allocator@U?$pair@$$CBVName@Imf@@PAVAttribute@2@@std@@@5@$0A@@std@@@std@@@std@@QAEAAV01@XZ 10013c40 f i ImfHeader.obj
 0001:00012c50       ??0?$_Tree_nod@V?$_Tmap_traits@UTileCoord@?A0x39e5c904@Imf@@PAUBufferedTile@23@U?$less@UTileCoord@?A0x39e5c904@Imf@@@std@@V?$allocator@U?$pair@$$CBUTileCoord@?A0x39e5c904@Imf@@PAUBufferedTile@23@@std@@@6@$0A@@std@@@std@@QAE@ABU?$less@UTileCoord@?A0x39e5c904@Imf@@@1@V?$allocator@U?$pair@$$CBUTileCoord@?A0x39e5c904@Imf@@PAUBufferedTile@23@@std@@@1@@Z 10013c50 f i ImfTiledOutputFile.obj
 0001:00012c50       ??0?$_Tree_nod@V?$_Tmap_traits@VName@Imf@@UChannel@2@U?$less@VName@Imf@@@std@@V?$allocator@U?$pair@$$CBVName@Imf@@UChannel@2@@std@@@5@$0A@@std@@@std@@QAE@ABU?$less@VName@Imf@@@1@V?$allocator@U?$pair@$$CBVName@Imf@@UChannel@2@@std@@@1@@Z 10013c50 f i ImfHeader.obj
 0001:00012c50       ??0?$_Tree_nod@V?$_Tmap_traits@VName@Imf@@PAVAttribute@2@U?$less@VName@Imf@@@std@@V?$allocator@U?$pair@$$CBVName@Imf@@PAVAttribute@2@@std@@@5@$0A@@std@@@std@@QAE@ABU?$less@VName@Imf@@@1@V?$allocator@U?$pair@$$CBVName@Imf@@PAVAttribute@2@@std@@@1@@Z 10013c50 f i ImfHeader.obj
 0001:00012c50       ??0?$_Tree_nod@V?$_Tmap_traits@PBDP6APAVAttribute@Imf@@XZUNameCompare@?A0x0779e1ad@2@V?$allocator@U?$pair@QBDP6APAVAttribute@Imf@@XZ@std@@@std@@$0A@@std@@@std@@QAE@ABUNameCompare@?A0x0779e1ad@Imf@@V?$allocator@U?$pair@QBDP6APAVAttribute@Imf@@XZ@std@@@1@@Z 10013c50 f i ImfAttribute.obj
 0001:00012c50       ??0?$_Tree_nod@V?$_Tmap_traits@VName@Imf@@USlice@2@U?$less@VName@Imf@@@std@@V?$allocator@U?$pair@$$CBVName@Imf@@USlice@2@@std@@@5@$0A@@std@@@std@@QAE@ABU?$less@VName@Imf@@@1@V?$allocator@U?$pair@$$CBVName@Imf@@USlice@2@@std@@@1@@Z 10013c50 f i ImfInputFile.obj
 0001:00012c60       ??0?$TypedAttribute@UChromaticities@Imf@@@Imf@@QAE@XZ 10013c60 f i ImfHeader.obj
 0001:00012d30       ??1?$TypedAttribute@UChromaticities@Imf@@@Imf@@UAE@XZ 10013d30 f i ImfHeader.obj
 0001:00012d40       ?typeName@?$TypedAttribute@UChromaticities@Imf@@@Imf@@UBEPBDXZ 10013d40 f i ImfHeader.obj
 0001:00012d50       ??_G?$TypedAttribute@UChromaticities@Imf@@@Imf@@UAEPAXI@Z 10013d50 f i ImfHeader.obj
 0001:00012d50       ??_E?$TypedAttribute@UChromaticities@Imf@@@Imf@@UAEPAXI@Z 10013d50 f i ImfHeader.obj
 0001:00012d80       ?cast@?$TypedAttribute@UChromaticities@Imf@@@Imf@@SAPBV12@PBVAttribute@2@@Z 10013d80 f i ImfHeader.obj
 0001:00012d80       ?cast@?$TypedAttribute@UChromaticities@Imf@@@Imf@@SAABV12@ABVAttribute@2@@Z 10013d80 f i ImfHeader.obj
 0001:00012de0       ?makeNewAttribute@?$TypedAttribute@UChromaticities@Imf@@@Imf@@SAPAVAttribute@2@XZ 10013de0 f i ImfHeader.obj
 0001:00012e50       ?cast@?$TypedAttribute@W4Compression@Imf@@@Imf@@SAPBV12@PBVAttribute@2@@Z 10013e50 f i ImfHeader.obj
 0001:00012e50       ?cast@?$TypedAttribute@W4Compression@Imf@@@Imf@@SAABV12@ABVAttribute@2@@Z 10013e50 f i ImfHeader.obj
 0001:00012eb0       ?cast@?$TypedAttribute@VKeyCode@Imf@@@Imf@@SAABV12@ABVAttribute@2@@Z 10013eb0 f i ImfHeader.obj
 0001:00012eb0       ?cast@?$TypedAttribute@VKeyCode@Imf@@@Imf@@SAPBV12@PBVAttribute@2@@Z 10013eb0 f i ImfHeader.obj
 0001:00012f10       ?cast@?$TypedAttribute@W4LineOrder@Imf@@@Imf@@SAPBV12@PBVAttribute@2@@Z 10013f10 f i ImfHeader.obj
 0001:00012f10       ?cast@?$TypedAttribute@W4LineOrder@Imf@@@Imf@@SAABV12@ABVAttribute@2@@Z 10013f10 f i ImfHeader.obj
 0001:00012f70       ?makeNewAttribute@?$TypedAttribute@V?$Matrix33@M@Imath@@@Imf@@SAPAVAttribute@2@XZ 10013f70 f i ImfHeader.obj
 0001:00013020       ??0?$TypedAttribute@V?$Matrix33@N@Imath@@@Imf@@QAE@XZ 10014020 f i ImfHeader.obj
 0001:00013060       ??1?$TypedAttribute@V?$Matrix33@N@Imath@@@Imf@@UAE@XZ 10014060 f i ImfHeader.obj
 0001:00013070       ?typeName@?$TypedAttribute@V?$Matrix33@N@Imath@@@Imf@@UBEPBDXZ 10014070 f i ImfHeader.obj
 0001:00013080       ??_G?$TypedAttribute@V?$Matrix33@N@Imath@@@Imf@@UAEPAXI@Z 10014080 f i ImfHeader.obj
 0001:00013080       ??_E?$TypedAttribute@V?$Matrix33@N@Imath@@@Imf@@UAEPAXI@Z 10014080 f i ImfHeader.obj
 0001:000130b0       ??4?$Matrix33@N@Imath@@QAEABV01@ABV01@@Z 100140b0 f i ImfHeader.obj
 0001:000130d0       ?cast@?$TypedAttribute@V?$Matrix33@N@Imath@@@Imf@@SAPBV12@PBVAttribute@2@@Z 100140d0 f i ImfHeader.obj
 0001:000130d0       ?cast@?$TypedAttribute@V?$Matrix33@N@Imath@@@Imf@@SAABV12@ABVAttribute@2@@Z 100140d0 f i ImfHeader.obj
 0001:00013130       ?makeNewAttribute@?$TypedAttribute@V?$Matrix33@N@Imath@@@Imf@@SAPAVAttribute@2@XZ 10014130 f i ImfHeader.obj
 0001:000131d0       ?makeNewAttribute@?$TypedAttribute@V?$Matrix44@M@Imath@@@Imf@@SAPAVAttribute@2@XZ 100141d0 f i ImfHeader.obj
 0001:00013270       ??0?$TypedAttribute@V?$Matrix44@N@Imath@@@Imf@@QAE@XZ 10014270 f i ImfHeader.obj
 0001:000132c0       ??1?$TypedAttribute@V?$Matrix44@N@Imath@@@Imf@@UAE@XZ 100142c0 f i ImfHeader.obj
 0001:000132d0       ?typeName@?$TypedAttribute@V?$Matrix44@N@Imath@@@Imf@@UBEPBDXZ 100142d0 f i ImfHeader.obj
 0001:000132e0       ??_E?$TypedAttribute@V?$Matrix44@N@Imath@@@Imf@@UAEPAXI@Z 100142e0 f i ImfHeader.obj
 0001:000132e0       ??_G?$TypedAttribute@V?$Matrix44@N@Imath@@@Imf@@UAEPAXI@Z 100142e0 f i ImfHeader.obj
 0001:00013310       ??4?$Matrix44@N@Imath@@QAEABV01@ABV01@@Z 10014310 f i ImfHeader.obj
 0001:00013380       ?cast@?$TypedAttribute@V?$Matrix44@N@Imath@@@Imf@@SAPBV12@PBVAttribute@2@@Z 10014380 f i ImfHeader.obj
 0001:00013380       ?cast@?$TypedAttribute@V?$Matrix44@N@Imath@@@Imf@@SAABV12@ABVAttribute@2@@Z 10014380 f i ImfHeader.obj
 0001:000133e0       ?makeNewAttribute@?$TypedAttribute@V?$Matrix44@N@Imath@@@Imf@@SAPAVAttribute@2@XZ 100143e0 f i ImfHeader.obj
 0001:00013490       ?cast@?$TypedAttribute@VRational@Imf@@@Imf@@SAABV12@ABVAttribute@2@@Z 10014490 f i ImfHeader.obj
 0001:00013490       ?cast@?$TypedAttribute@VRational@Imf@@@Imf@@SAPBV12@PBVAttribute@2@@Z 10014490 f i ImfHeader.obj
 0001:000134f0       ?cast@?$TypedAttribute@VTileDescription@Imf@@@Imf@@SAABV12@ABVAttribute@2@@Z 100144f0 f i ImfHeader.obj
 0001:000134f0       ?cast@?$TypedAttribute@VTileDescription@Imf@@@Imf@@SAPBV12@PBVAttribute@2@@Z 100144f0 f i ImfHeader.obj
 0001:00013550       ?makeNewAttribute@?$TypedAttribute@V?$Vec2@M@Imath@@@Imf@@SAPAVAttribute@2@XZ 10014550 f i ImfHeader.obj
 0001:000135b0       ??0?$TypedAttribute@V?$Vec2@N@Imath@@@Imf@@QAE@XZ 100145b0 f i ImfHeader.obj
 0001:000135d0       ??1?$TypedAttribute@V?$Vec2@N@Imath@@@Imf@@UAE@XZ 100145d0 f i ImfHeader.obj
 0001:000135e0       ?typeName@?$TypedAttribute@V?$Vec2@N@Imath@@@Imf@@UBEPBDXZ 100145e0 f i ImfHeader.obj
 0001:000135f0       ??_G?$TypedAttribute@V?$Vec2@N@Imath@@@Imf@@UAEPAXI@Z 100145f0 f i ImfHeader.obj
 0001:000135f0       ??_E?$TypedAttribute@V?$Vec2@N@Imath@@@Imf@@UAEPAXI@Z 100145f0 f i ImfHeader.obj
 0001:00013620       ??4?$Vec2@N@Imath@@QAEABV01@ABV01@@Z 10014620 f i ImfHeader.obj
 0001:00013640       ?cast@?$TypedAttribute@V?$Vec2@N@Imath@@@Imf@@SAPBV12@PBVAttribute@2@@Z 10014640 f i ImfHeader.obj
 0001:00013640       ?cast@?$TypedAttribute@V?$Vec2@N@Imath@@@Imf@@SAABV12@ABVAttribute@2@@Z 10014640 f i ImfHeader.obj
 0001:000136a0       ?makeNewAttribute@?$TypedAttribute@V?$Vec2@N@Imath@@@Imf@@SAPAVAttribute@2@XZ 100146a0 f i ImfHeader.obj
 0001:00013700       ?makeNewAttribute@?$TypedAttribute@V?$Vec3@H@Imath@@@Imf@@SAPAVAttribute@2@XZ 10014700 f i ImfHeader.obj
 0001:00013760       ?makeNewAttribute@?$TypedAttribute@V?$Vec3@M@Imath@@@Imf@@SAPAVAttribute@2@XZ 10014760 f i ImfHeader.obj
 0001:000137c0       ??0?$TypedAttribute@V?$Vec3@N@Imath@@@Imf@@QAE@XZ 100147c0 f i ImfHeader.obj
 0001:000137e0       ??1?$TypedAttribute@V?$Vec3@N@Imath@@@Imf@@UAE@XZ 100147e0 f i ImfHeader.obj
 0001:000137f0       ?typeName@?$TypedAttribute@V?$Vec3@N@Imath@@@Imf@@UBEPBDXZ 100147f0 f i ImfHeader.obj
 0001:00013800       ??_G?$TypedAttribute@V?$Vec3@N@Imath@@@Imf@@UAEPAXI@Z 10014800 f i ImfHeader.obj
 0001:00013800       ??_E?$TypedAttribute@V?$Vec3@N@Imath@@@Imf@@UAEPAXI@Z 10014800 f i ImfHeader.obj
 0001:00013830       ??4?$Vec3@N@Imath@@QAEABV01@ABV01@@Z 10014830 f i ImfHeader.obj
 0001:00013850       ?cast@?$TypedAttribute@V?$Vec3@N@Imath@@@Imf@@SAPBV12@PBVAttribute@2@@Z 10014850 f i ImfHeader.obj
 0001:00013850       ?cast@?$TypedAttribute@V?$Vec3@N@Imath@@@Imf@@SAABV12@ABVAttribute@2@@Z 10014850 f i ImfHeader.obj
 0001:000138b0       ?makeNewAttribute@?$TypedAttribute@V?$Vec3@N@Imath@@@Imf@@SAPAVAttribute@2@XZ 100148b0 f i ImfHeader.obj
 0001:00013910       ?_Buynode@?$_Tree_val@V?$_Tmap_traits@VName@Imf@@PAVAttribute@2@U?$less@VName@Imf@@@std@@V?$allocator@U?$pair@$$CBVName@Imf@@PAVAttribute@2@@std@@@5@$0A@@std@@@std@@QAEPAU_Node@?$_Tree_nod@V?$_Tmap_traits@VName@Imf@@PAVAttribute@2@U?$less@VName@Imf@@@std@@V?$allocator@U?$pair@$$CBVName@Imf@@PAVAttribute@2@@std@@@5@$0A@@std@@@2@XZ 10014910 f i ImfHeader.obj
 0001:00013970       ??0?$_Pair_base@$$CBVName@Imf@@PAVAttribute@2@@std@@QAE@$$QBVName@Imf@@$$QAPAVAttribute@3@@Z 10014970 f i ImfHeader.obj
 0001:00013970       ??0?$pair@$$CBVName@Imf@@PAVAttribute@2@@std@@QAE@ABVName@Imf@@$$QAPAVAttribute@3@@Z 10014970 f i ImfHeader.obj
 0001:00013970       ??0?$_Pair_base@$$CBVName@Imf@@PAVAttribute@2@@std@@QAE@ABVName@Imf@@$$QAPAVAttribute@3@@Z 10014970 f i ImfHeader.obj
 0001:000139a0       ??_D?$basic_ostringstream@DU?$char_traits@D@std@@V?$allocator@D@2@@std@@QAEXXZ 100149a0 f i ImfHeader.obj
 0001:00013a40       ?name@Iterator@ChannelList@Imf@@QBEPBDXZ 10014a40 f i ImfChannelList.obj
 0001:00013a40       ??D?$_Tree_iterator@V?$_Tree_val@V?$_Tmap_traits@VName@Imf@@UChannel@2@U?$less@VName@Imf@@@std@@V?$allocator@U?$pair@$$CBVName@Imf@@UChannel@2@@std@@@5@$0A@@std@@@std@@@std@@QBEAAU?$pair@$$CBVName@Imf@@UChannel@2@@1@XZ 10014a40 f i ImfChannelList.obj
 0001:00013a40       ??D?$_Tree_iterator@V?$_Tree_val@V?$_Tmap_traits@VName@Imf@@PAVAttribute@2@U?$less@VName@Imf@@@std@@V?$allocator@U?$pair@$$CBVName@Imf@@PAVAttribute@2@@std@@@5@$0A@@std@@@std@@@std@@QBEAAU?$pair@$$CBVName@Imf@@PAVAttribute@2@@1@XZ 10014a40 f i ImfHeader.obj
 0001:00013a40       ??D?$_Tree_unchecked_const_iterator@V?$_Tree_val@V?$_Tmap_traits@PBDP6APAVAttribute@Imf@@XZUNameCompare@?A0x0779e1ad@2@V?$allocator@U?$pair@QBDP6APAVAttribute@Imf@@XZ@std@@@std@@$0A@@std@@@std@@U_Iterator_base0@2@@std@@QBEABU?$pair@QBDP6APAVAttribute@Imf@@XZ@1@XZ 10014a40 f i ImfAttribute.obj
 0001:00013a40       ??C?$_Tree_iterator@V?$_Tree_val@V?$_Tmap_traits@UTileCoord@?A0x39e5c904@Imf@@PAUBufferedTile@23@U?$less@UTileCoord@?A0x39e5c904@Imf@@@std@@V?$allocator@U?$pair@$$CBUTileCoord@?A0x39e5c904@Imf@@PAUBufferedTile@23@@std@@@6@$0A@@std@@@std@@@std@@QBEPAU?$pair@$$CBUTileCoord@?A0x39e5c904@Imf@@PAUBufferedTile@23@@1@XZ 10014a40 f i ImfTiledOutputFile.obj
 0001:00013a40       ??D?$_Tree_iterator@V?$_Tree_val@V?$_Tmap_traits@UTileCoord@?A0x39e5c904@Imf@@PAUBufferedTile@23@U?$less@UTileCoord@?A0x39e5c904@Imf@@@std@@V?$allocator@U?$pair@$$CBUTileCoord@?A0x39e5c904@Imf@@PAUBufferedTile@23@@std@@@6@$0A@@std@@@std@@@std@@QBEAAU?$pair@$$CBUTileCoord@?A0x39e5c904@Imf@@PAUBufferedTile@23@@1@XZ 10014a40 f i ImfTiledOutputFile.obj
 0001:00013a40       ??C?$_Tree_unchecked_const_iterator@V?$_Tree_val@V?$_Tmap_traits@VName@Imf@@PAVAttribute@2@U?$less@VName@Imf@@@std@@V?$allocator@U?$pair@$$CBVName@Imf@@PAVAttribute@2@@std@@@5@$0A@@std@@@std@@U_Iterator_base0@2@@std@@QBEPBU?$pair@$$CBVName@Imf@@PAVAttribute@2@@1@XZ 10014a40 f i ImfHeader.obj
 0001:00013a40       ??D?$_Tree_const_iterator@V?$_Tree_val@V?$_Tmap_traits@VName@Imf@@UChannel@2@U?$less@VName@Imf@@@std@@V?$allocator@U?$pair@$$CBVName@Imf@@UChannel@2@@std@@@5@$0A@@std@@@std@@@std@@QBEABU?$pair@$$CBVName@Imf@@UChannel@2@@1@XZ 10014a40 f i ImfChannelList.obj
 0001:00013a40       ??D?$_Tree_const_iterator@V?$_Tree_val@V?$_Tmap_traits@VName@Imf@@PAVAttribute@2@U?$less@VName@Imf@@@std@@V?$allocator@U?$pair@$$CBVName@Imf@@PAVAttribute@2@@std@@@5@$0A@@std@@@std@@@std@@QBEABU?$pair@$$CBVName@Imf@@PAVAttribute@2@@1@XZ 10014a40 f i ImfHeader.obj
 0001:00013a40       ??C?$_Tree_unchecked_const_iterator@V?$_Tree_val@V?$_Tmap_traits@VName@Imf@@UChannel@2@U?$less@VName@Imf@@@std@@V?$allocator@U?$pair@$$CBVName@Imf@@UChannel@2@@std@@@5@$0A@@std@@@std@@U_Iterator_base0@2@@std@@QBEPBU?$pair@$$CBVName@Imf@@UChannel@2@@1@XZ 10014a40 f i ImfB44Compressor.obj
 0001:00013a40       ?name@ConstIterator@Header@Imf@@QBEPBDXZ 10014a40 f i ImfHeader.obj
 0001:00013a40       ?name@ConstIterator@ChannelList@Imf@@QBEPBDXZ 10014a40 f i ImfChannelList.obj
 0001:00013a40       ??C?$_Tree_unchecked_const_iterator@V?$_Tree_val@V?$_Tmap_traits@PBDP6APAVAttribute@Imf@@XZUNameCompare@?A0x0779e1ad@2@V?$allocator@U?$pair@QBDP6APAVAttribute@Imf@@XZ@std@@@std@@$0A@@std@@@std@@U_Iterator_base0@2@@std@@QBEPBU?$pair@QBDP6APAVAttribute@Imf@@XZ@1@XZ 10014a40 f i ImfAttribute.obj
 0001:00013a40       ??D?$_Tree_const_iterator@V?$_Tree_val@V?$_Tmap_traits@UTileCoord@?A0x39e5c904@Imf@@PAUBufferedTile@23@U?$less@UTileCoord@?A0x39e5c904@Imf@@@std@@V?$allocator@U?$pair@$$CBUTileCoord@?A0x39e5c904@Imf@@PAUBufferedTile@23@@std@@@6@$0A@@std@@@std@@@std@@QBEABU?$pair@$$CBUTileCoord@?A0x39e5c904@Imf@@PAUBufferedTile@23@@1@XZ 10014a40 f i ImfTiledOutputFile.obj
 0001:00013a40       ??D?$_Tree_unchecked_const_iterator@V?$_Tree_val@V?$_Tmap_traits@VName@Imf@@UChannel@2@U?$less@VName@Imf@@@std@@V?$allocator@U?$pair@$$CBVName@Imf@@UChannel@2@@std@@@5@$0A@@std@@@std@@U_Iterator_base0@2@@std@@QBEABU?$pair@$$CBVName@Imf@@UChannel@2@@1@XZ 10014a40 f i ImfB44Compressor.obj
 0001:00013a40       ??C?$_Tree_iterator@V?$_Tree_val@V?$_Tmap_traits@VName@Imf@@PAVAttribute@2@U?$less@VName@Imf@@@std@@V?$allocator@U?$pair@$$CBVName@Imf@@PAVAttribute@2@@std@@@5@$0A@@std@@@std@@@std@@QBEPAU?$pair@$$CBVName@Imf@@PAVAttribute@2@@1@XZ 10014a40 f i ImfHeader.obj
 0001:00013a40       ??C?$_Tree_iterator@V?$_Tree_val@V?$_Tmap_traits@VName@Imf@@UChannel@2@U?$less@VName@Imf@@@std@@V?$allocator@U?$pair@$$CBVName@Imf@@UChannel@2@@std@@@5@$0A@@std@@@std@@@std@@QBEPAU?$pair@$$CBVName@Imf@@UChannel@2@@1@XZ 10014a40 f i ImfChannelList.obj
 0001:00013a40       ??D?$_Tree_unchecked_const_iterator@V?$_Tree_val@V?$_Tmap_traits@VName@Imf@@PAVAttribute@2@U?$less@VName@Imf@@@std@@V?$allocator@U?$pair@$$CBVName@Imf@@PAVAttribute@2@@std@@@5@$0A@@std@@@std@@U_Iterator_base0@2@@std@@QBEABU?$pair@$$CBVName@Imf@@PAVAttribute@2@@1@XZ 10014a40 f i ImfHeader.obj
 0001:00013a50       ??_E?$basic_ostringstream@DU?$char_traits@D@std@@V?$allocator@D@2@@std@@UAEPAXI@Z 10014a50 f i ImfHeader.obj
 0001:00013a50       ??_G?$basic_ostringstream@DU?$char_traits@D@std@@V?$allocator@D@2@@std@@UAEPAXI@Z 10014a50 f i ImfHeader.obj
 0001:00013a80       ??E?$_Tree_const_iterator@V?$_Tree_val@V?$_Tmap_traits@VName@Imf@@PAVAttribute@2@U?$less@VName@Imf@@@std@@V?$allocator@U?$pair@$$CBVName@Imf@@PAVAttribute@2@@std@@@5@$0A@@std@@@std@@@std@@QAE?AV01@H@Z 10014a80 f i ImfHeader.obj
 0001:00013aa0       ?_Lbound@?$_Tree@V?$_Tmap_traits@VName@Imf@@PAVAttribute@2@U?$less@VName@Imf@@@std@@V?$allocator@U?$pair@$$CBVName@Imf@@PAVAttribute@2@@std@@@5@$0A@@std@@@std@@IAEPAU_Node@?$_Tree_nod@V?$_Tmap_traits@VName@Imf@@PAVAttribute@2@U?$less@VName@Imf@@@std@@V?$allocator@U?$pair@$$CBVName@Imf@@PAVAttribute@2@@std@@@5@$0A@@std@@@2@ABVName@Imf@@@Z 10014aa0 f i ImfHeader.obj
 0001:00013aa0       ?_Lbound@?$_Tree@V?$_Tmap_traits@VName@Imf@@PAVAttribute@2@U?$less@VName@Imf@@@std@@V?$allocator@U?$pair@$$CBVName@Imf@@PAVAttribute@2@@std@@@5@$0A@@std@@@std@@IBEPAU_Node@?$_Tree_nod@V?$_Tmap_traits@VName@Imf@@PAVAttribute@2@U?$less@VName@Imf@@@std@@V?$allocator@U?$pair@$$CBVName@Imf@@PAVAttribute@2@@std@@@5@$0A@@std@@@2@ABVName@Imf@@@Z 10014aa0 f i ImfHeader.obj
 0001:00013b10       ?_Lrotate@?$_Tree@V?$_Tmap_traits@VName@Imf@@PAVAttribute@2@U?$less@VName@Imf@@@std@@V?$allocator@U?$pair@$$CBVName@Imf@@PAVAttribute@2@@std@@@5@$0A@@std@@@std@@IAEXPAU_Node@?$_Tree_nod@V?$_Tmap_traits@VName@Imf@@PAVAttribute@2@U?$less@VName@Imf@@@std@@V?$allocator@U?$pair@$$CBVName@Imf@@PAVAttribute@2@@std@@@5@$0A@@std@@@2@@Z 10014b10 f i ImfHeader.obj
 0001:00013b70       ??0?$_Tree@V?$_Tmap_traits@VName@Imf@@PAVAttribute@2@U?$less@VName@Imf@@@std@@V?$allocator@U?$pair@$$CBVName@Imf@@PAVAttribute@2@@std@@@5@$0A@@std@@@std@@QAE@ABU?$less@VName@Imf@@@1@ABV?$allocator@U?$pair@$$CBVName@Imf@@PAVAttribute@2@@std@@@1@@Z 10014b70 f i ImfHeader.obj
 0001:00013b70       ??0?$_Tree_val@V?$_Tmap_traits@VName@Imf@@PAVAttribute@2@U?$less@VName@Imf@@@std@@V?$allocator@U?$pair@$$CBVName@Imf@@PAVAttribute@2@@std@@@5@$0A@@std@@@std@@QAE@ABU?$less@VName@Imf@@@1@V?$allocator@U?$pair@$$CBVName@Imf@@PAVAttribute@2@@std@@@1@@Z 10014b70 f i ImfHeader.obj
 0001:00013bf0       ?copy@?$TypedAttribute@UChromaticities@Imf@@@Imf@@UBEPAVAttribute@2@XZ 10014bf0 f i ImfHeader.obj
 0001:00013c60       ?copyValueFrom@?$TypedAttribute@UChromaticities@Imf@@@Imf@@UAEXABVAttribute@2@@Z 10014c60 f i ImfHeader.obj
 0001:00013d00       ?registerAttributeType@?$TypedAttribute@UChromaticities@Imf@@@Imf@@SAXXZ 10014d00 f i ImfHeader.obj
 0001:00013d20       ?copyValueFrom@?$TypedAttribute@W4Compression@Imf@@@Imf@@UAEXABVAttribute@2@@Z 10014d20 f i ImfHeader.obj
 0001:00013d90       ?copyValueFrom@?$TypedAttribute@W4Envmap@Imf@@@Imf@@UAEXABVAttribute@2@@Z 10014d90 f i ImfHeader.obj
 0001:00013e00       ?copyValueFrom@?$TypedAttribute@VKeyCode@Imf@@@Imf@@UAEXABVAttribute@2@@Z 10014e00 f i ImfHeader.obj
 0001:00013e70       ?copyValueFrom@?$TypedAttribute@W4LineOrder@Imf@@@Imf@@UAEXABVAttribute@2@@Z 10014e70 f i ImfHeader.obj
 0001:00013ee0       ?registerAttributeType@?$TypedAttribute@V?$Matrix33@M@Imath@@@Imf@@SAXXZ 10014ee0 f i ImfHeader.obj
 0001:00013f00       ?copy@?$TypedAttribute@V?$Matrix33@N@Imath@@@Imf@@UBEPAVAttribute@2@XZ 10014f00 f i ImfHeader.obj
 0001:00013fa0       ?copyValueFrom@?$TypedAttribute@V?$Matrix33@N@Imath@@@Imf@@UAEXABVAttribute@2@@Z 10014fa0 f i ImfHeader.obj
 0001:00014020       ?registerAttributeType@?$TypedAttribute@V?$Matrix33@N@Imath@@@Imf@@SAXXZ 10015020 f i ImfHeader.obj
 0001:00014040       ?registerAttributeType@?$TypedAttribute@V?$Matrix44@M@Imath@@@Imf@@SAXXZ 10015040 f i ImfHeader.obj
 0001:00014060       ?copy@?$TypedAttribute@V?$Matrix44@N@Imath@@@Imf@@UBEPAVAttribute@2@XZ 10015060 f i ImfHeader.obj
 0001:00014110       ?copyValueFrom@?$TypedAttribute@V?$Matrix44@N@Imath@@@Imf@@UAEXABVAttribute@2@@Z 10015110 f i ImfHeader.obj
 0001:00014180       ?registerAttributeType@?$TypedAttribute@V?$Matrix44@N@Imath@@@Imf@@SAXXZ 10015180 f i ImfHeader.obj
 0001:000141a0       ?copyValueFrom@?$TypedAttribute@VPreviewImage@Imf@@@Imf@@UAEXABVAttribute@2@@Z 100151a0 f i ImfHeader.obj
 0001:00014210       ?copyValueFrom@?$TypedAttribute@VRational@Imf@@@Imf@@UAEXABVAttribute@2@@Z 10015210 f i ImfHeader.obj
 0001:00014280       ?copyValueFrom@?$TypedAttribute@VTileDescription@Imf@@@Imf@@UAEXABVAttribute@2@@Z 10015280 f i ImfHeader.obj
 0001:00014300       ?copyValueFrom@?$TypedAttribute@VTimeCode@Imf@@@Imf@@UAEXABVAttribute@2@@Z 10015300 f i ImfHeader.obj
 0001:00014370       ?registerAttributeType@?$TypedAttribute@V?$Vec2@M@Imath@@@Imf@@SAXXZ 10015370 f i ImfHeader.obj
 0001:00014390       ?copy@?$TypedAttribute@V?$Vec2@N@Imath@@@Imf@@UBEPAVAttribute@2@XZ 10015390 f i ImfHeader.obj
 0001:00014410       ?copyValueFrom@?$TypedAttribute@V?$Vec2@N@Imath@@@Imf@@UAEXABVAttribute@2@@Z 10015410 f i ImfHeader.obj
 0001:00014480       ?registerAttributeType@?$TypedAttribute@V?$Vec2@N@Imath@@@Imf@@SAXXZ 10015480 f i ImfHeader.obj
 0001:000144a0       ?registerAttributeType@?$TypedAttribute@V?$Vec3@H@Imath@@@Imf@@SAXXZ 100154a0 f i ImfHeader.obj
 0001:000144c0       ?registerAttributeType@?$TypedAttribute@V?$Vec3@M@Imath@@@Imf@@SAXXZ 100154c0 f i ImfHeader.obj
 0001:000144e0       ?copy@?$TypedAttribute@V?$Vec3@N@Imath@@@Imf@@UBEPAVAttribute@2@XZ 100154e0 f i ImfHeader.obj
 0001:00014560       ?copyValueFrom@?$TypedAttribute@V?$Vec3@N@Imath@@@Imf@@UAEXABVAttribute@2@@Z 10015560 f i ImfHeader.obj
 0001:000145e0       ?registerAttributeType@?$TypedAttribute@V?$Vec3@N@Imath@@@Imf@@SAXXZ 100155e0 f i ImfHeader.obj
 0001:00014600       ?_Insert@?$_Tree@V?$_Tmap_traits@VName@Imf@@PAVAttribute@2@U?$less@VName@Imf@@@std@@V?$allocator@U?$pair@$$CBVName@Imf@@PAVAttribute@2@@std@@@5@$0A@@std@@@std@@IAE?AV?$_Tree_iterator@V?$_Tree_val@V?$_Tmap_traits@VName@Imf@@PAVAttribute@2@U?$less@VName@Imf@@@std@@V?$allocator@U?$pair@$$CBVName@Imf@@PAVAttribute@2@@std@@@5@$0A@@std@@@std@@@2@_NPAU_Node@?$_Tree_nod@V?$_Tmap_traits@VName@Imf@@PAVAttribute@2@U?$less@VName@Imf@@@std@@V?$allocator@U?$pair@$$CBVName@Imf@@PAVAttribute@2@@std@@@5@$0A@@std@@@2@1@Z 10015600 f i ImfHeader.obj
 0001:00014810       ??0?$vector@PAUTileBuffer@?A0x39e5c904@Imf@@V?$allocator@PAUTileBuffer@?A0x39e5c904@Imf@@@std@@@std@@QAE@XZ 10015810 f i ImfTiledOutputFile.obj
 0001:00014810       ??0?$vector@PAUTileBuffer@?A0xf6fcebb6@Imf@@V?$allocator@PAUTileBuffer@?A0xf6fcebb6@Imf@@@std@@@std@@QAE@XZ 10015810 f i ImfTiledInputFile.obj
 0001:00014810       ??0?$vector@UTOutSliceInfo@?A0x39e5c904@Imf@@V?$allocator@UTOutSliceInfo@?A0x39e5c904@Imf@@@std@@@std@@QAE@XZ 10015810 f i ImfTiledOutputFile.obj
 0001:00014810       ??0?$vector@_KV?$allocator@_K@std@@@std@@QAE@XZ 10015810 f i ImfOutputFile.obj
 0001:00014810       ??0?$vector@UTInSliceInfo@?A0xf6fcebb6@Imf@@V?$allocator@UTInSliceInfo@?A0xf6fcebb6@Imf@@@std@@@std@@QAE@XZ 10015810 f i ImfTiledInputFile.obj
 0001:00014810       ??0?$vector@V?$basic_string@DU?$char_traits@D@std@@V?$allocator@D@2@@std@@V?$allocator@V?$basic_string@DU?$char_traits@D@std@@V?$allocator@D@2@@std@@@2@@std@@QAE@XZ 10015810 f i ImfHeader.obj
 0001:00014810       ??0?$vector@V?$vector@_KV?$allocator@_K@std@@@std@@V?$allocator@V?$vector@_KV?$allocator@_K@std@@@std@@@2@@std@@QAE@XZ 10015810 f i ImfTileOffsets.obj
 0001:00014810       ??0?$vector@UInSliceInfo@?A0xcbf8ace6@Imf@@V?$allocator@UInSliceInfo@?A0xcbf8ace6@Imf@@@std@@@std@@QAE@XZ 10015810 f i ImfScanLineInputFile.obj
 0001:00014810       ??0?$vector@UOutSliceInfo@?A0xf57f9ec6@Imf@@V?$allocator@UOutSliceInfo@?A0xf57f9ec6@Imf@@@std@@@std@@QAE@XZ 10015810 f i ImfOutputFile.obj
 0001:00014810       ??0?$vector@IV?$allocator@I@std@@@std@@QAE@XZ 10015810 f i ImfOutputFile.obj
 0001:00014810       ??0?$vector@V?$vector@V?$vector@_KV?$allocator@_K@std@@@std@@V?$allocator@V?$vector@_KV?$allocator@_K@std@@@std@@@2@@std@@V?$allocator@V?$vector@V?$vector@_KV?$allocator@_K@std@@@std@@V?$allocator@V?$vector@_KV?$allocator@_K@std@@@std@@@2@@std@@@2@@std@@QAE@XZ 10015810 f i ImfTileOffsets.obj
 0001:00014810       ??0?$vector@PAULineBuffer@?A0xcbf8ace6@Imf@@V?$allocator@PAULineBuffer@?A0xcbf8ace6@Imf@@@std@@@std@@QAE@XZ 10015810 f i ImfScanLineInputFile.obj
 0001:00014810       ??0?$vector@PAULineBuffer@?A0xf57f9ec6@Imf@@V?$allocator@PAULineBuffer@?A0xf57f9ec6@Imf@@@std@@@std@@QAE@XZ 10015810 f i ImfOutputFile.obj
 0001:00014820       ??$?0$$CBVName@Imf@@PAVAttribute@1@@?$pair@$$CBVName@Imf@@PAVAttribute@2@@std@@QAE@$$QAU01@@Z 10015820 f i ImfHeader.obj
 0001:00014850       ?attribute@ConstIterator@Header@Imf@@QBEABVAttribute@3@XZ 10015850 f i ImfHeader.obj
 0001:00014860       ??1StdOSStream@Imf@@UAE@XZ 10015860 f i ImfHeader.obj
 0001:000148c0       ??E?$_Tree_iterator@V?$_Tree_val@V?$_Tmap_traits@VName@Imf@@PAVAttribute@2@U?$less@VName@Imf@@@std@@V?$allocator@U?$pair@$$CBVName@Imf@@PAVAttribute@2@@std@@@5@$0A@@std@@@std@@@std@@QAEAAV01@XZ 100158c0 f i ImfHeader.obj
 0001:000148c0       ??EConstIterator@Header@Imf@@QAEAAV012@XZ 100158c0 f i ImfHeader.obj
 0001:000148c0       ??E?$_Tree_const_iterator@V?$_Tree_val@V?$_Tmap_traits@VName@Imf@@PAVAttribute@2@U?$less@VName@Imf@@@std@@V?$allocator@U?$pair@$$CBVName@Imf@@PAVAttribute@2@@std@@@5@$0A@@std@@@std@@@std@@QAEAAV01@XZ 100158c0 f i ImfHeader.obj
 0001:000148d0       ?erase@?$_Tree@V?$_Tmap_traits@VName@Imf@@PAVAttribute@2@U?$less@VName@Imf@@@std@@V?$allocator@U?$pair@$$CBVName@Imf@@PAVAttribute@2@@std@@@5@$0A@@std@@@std@@QAE?AV?$_Tree_iterator@V?$_Tree_val@V?$_Tmap_traits@VName@Imf@@PAVAttribute@2@U?$less@VName@Imf@@@std@@V?$allocator@U?$pair@$$CBVName@Imf@@PAVAttribute@2@@std@@@5@$0A@@std@@@std@@@2@V?$_Tree_const_iterator@V?$_Tree_val@V?$_Tmap_traits@VName@Imf@@PAVAttribute@2@U?$less@VName@Imf@@@std@@V?$allocator@U?$pair@$$CBVName@Imf@@PAVAttribute@2@@std@@@5@$0A@@std@@@std@@@2@@Z 100158d0 f i ImfHeader.obj
 0001:00014bb0       ?lower_bound@?$_Tree@V?$_Tmap_traits@VName@Imf@@PAVAttribute@2@U?$less@VName@Imf@@@std@@V?$allocator@U?$pair@$$CBVName@Imf@@PAVAttribute@2@@std@@@5@$0A@@std@@@std@@QBE?AV?$_Tree_const_iterator@V?$_Tree_val@V?$_Tmap_traits@VName@Imf@@PAVAttribute@2@U?$less@VName@Imf@@@std@@V?$allocator@U?$pair@$$CBVName@Imf@@PAVAttribute@2@@std@@@5@$0A@@std@@@std@@@2@ABVName@Imf@@@Z 10015bb0 f i ImfHeader.obj
 0001:00014bb0       ?lower_bound@?$_Tree@V?$_Tmap_traits@VName@Imf@@PAVAttribute@2@U?$less@VName@Imf@@@std@@V?$allocator@U?$pair@$$CBVName@Imf@@PAVAttribute@2@@std@@@5@$0A@@std@@@std@@QAE?AV?$_Tree_iterator@V?$_Tree_val@V?$_Tmap_traits@VName@Imf@@PAVAttribute@2@U?$less@VName@Imf@@@std@@V?$allocator@U?$pair@$$CBVName@Imf@@PAVAttribute@2@@std@@@5@$0A@@std@@@std@@@2@ABVName@Imf@@@Z 10015bb0 f i ImfHeader.obj
 0001:00014bd0       ?_Erase@?$_Tree@V?$_Tmap_traits@VName@Imf@@PAVAttribute@2@U?$less@VName@Imf@@@std@@V?$allocator@U?$pair@$$CBVName@Imf@@PAVAttribute@2@@std@@@5@$0A@@std@@@std@@IAEXPAU_Node@?$_Tree_nod@V?$_Tmap_traits@VName@Imf@@PAVAttribute@2@U?$less@VName@Imf@@@std@@V?$allocator@U?$pair@$$CBVName@Imf@@PAVAttribute@2@@std@@@5@$0A@@std@@@2@@Z 10015bd0 f i ImfHeader.obj
 0001:00014c10       ?_Linsert@?$_Tree@V?$_Tmap_traits@VName@Imf@@PAVAttribute@2@U?$less@VName@Imf@@@std@@V?$allocator@U?$pair@$$CBVName@Imf@@PAVAttribute@2@@std@@@5@$0A@@std@@@std@@QAE?AU?$pair@V?$_Tree_iterator@V?$_Tree_val@V?$_Tmap_traits@VName@Imf@@PAVAttribute@2@U?$less@VName@Imf@@@std@@V?$allocator@U?$pair@$$CBVName@Imf@@PAVAttribute@2@@std@@@5@$0A@@std@@@std@@@std@@_N@2@PAU_Node@?$_Tree_nod@V?$_Tmap_traits@VName@Imf@@PAVAttribute@2@U?$less@VName@Imf@@@std@@V?$allocator@U?$pair@$$CBVName@Imf@@PAVAttribute@2@@std@@@5@$0A@@std@@@2@_N@Z 10015c10 f i ImfHeader.obj
 0001:00014d90       ??0?$_Tree@V?$_Tmap_traits@VName@Imf@@UChannel@2@U?$less@VName@Imf@@@std@@V?$allocator@U?$pair@$$CBVName@Imf@@UChannel@2@@std@@@5@$0A@@std@@@std@@QAE@ABU?$less@VName@Imf@@@1@ABV?$allocator@U?$pair@$$CBVName@Imf@@UChannel@2@@std@@@1@@Z 10015d90 f i ImfHeader.obj
 0001:00014d90       ??0?$_Tree_val@V?$_Tmap_traits@VName@Imf@@UChannel@2@U?$less@VName@Imf@@@std@@V?$allocator@U?$pair@$$CBVName@Imf@@UChannel@2@@std@@@5@$0A@@std@@@std@@QAE@ABU?$less@VName@Imf@@@1@V?$allocator@U?$pair@$$CBVName@Imf@@UChannel@2@@std@@@1@@Z 10015d90 f i ImfHeader.obj
 0001:00014e10       ?erase@?$_Tree@V?$_Tmap_traits@VName@Imf@@UChannel@2@U?$less@VName@Imf@@@std@@V?$allocator@U?$pair@$$CBVName@Imf@@UChannel@2@@std@@@5@$0A@@std@@@std@@QAE?AV?$_Tree_iterator@V?$_Tree_val@V?$_Tmap_traits@VName@Imf@@UChannel@2@U?$less@VName@Imf@@@std@@V?$allocator@U?$pair@$$CBVName@Imf@@UChannel@2@@std@@@5@$0A@@std@@@std@@@2@V?$_Tree_const_iterator@V?$_Tree_val@V?$_Tmap_traits@VName@Imf@@UChannel@2@U?$less@VName@Imf@@@std@@V?$allocator@U?$pair@$$CBVName@Imf@@UChannel@2@@std@@@5@$0A@@std@@@std@@@2@@Z 10015e10 f i ImfHeader.obj
 0001:000150f0       ??E?$_Tree_const_iterator@V?$_Tree_val@V?$_Tmap_traits@VName@Imf@@UChannel@2@U?$less@VName@Imf@@@std@@V?$allocator@U?$pair@$$CBVName@Imf@@UChannel@2@@std@@@5@$0A@@std@@@std@@@std@@QAE?AV01@H@Z 100160f0 f i ImfHeader.obj
 0001:00015110       ?_Erase@?$_Tree@V?$_Tmap_traits@VName@Imf@@UChannel@2@U?$less@VName@Imf@@@std@@V?$allocator@U?$pair@$$CBVName@Imf@@UChannel@2@@std@@@5@$0A@@std@@@std@@IAEXPAU_Node@?$_Tree_nod@V?$_Tmap_traits@VName@Imf@@UChannel@2@U?$less@VName@Imf@@@std@@V?$allocator@U?$pair@$$CBVName@Imf@@UChannel@2@@std@@@5@$0A@@std@@@2@@Z 10016110 f i ImfHeader.obj
 0001:00015150       ?makeNewAttribute@?$TypedAttribute@V?$Box@V?$Vec2@H@Imath@@@Imath@@@Imf@@SAPAVAttribute@2@XZ 10016150 f i ImfHeader.obj
 0001:000151d0       ?makeNewAttribute@?$TypedAttribute@V?$Box@V?$Vec2@M@Imath@@@Imath@@@Imf@@SAPAVAttribute@2@XZ 100161d0 f i ImfHeader.obj
 0001:00015250       ?makeNewAttribute@?$TypedAttribute@V?$basic_string@DU?$char_traits@D@std@@V?$allocator@D@2@@std@@@Imf@@SAPAVAttribute@2@XZ 10016250 f i ImfHeader.obj
 0001:000152e0       ?construct@?$allocator@U?$pair@$$CBVName@Imf@@PAVAttribute@2@@std@@@std@@QAEXPAU?$pair@$$CBVName@Imf@@PAVAttribute@2@@2@$$QAU32@@Z 100162e0 f i ImfHeader.obj
 0001:00015310       ?find@?$_Tree@V?$_Tmap_traits@VName@Imf@@PAVAttribute@2@U?$less@VName@Imf@@@std@@V?$allocator@U?$pair@$$CBVName@Imf@@PAVAttribute@2@@std@@@5@$0A@@std@@@std@@QBE?AV?$_Tree_const_iterator@V?$_Tree_val@V?$_Tmap_traits@VName@Imf@@PAVAttribute@2@U?$less@VName@Imf@@@std@@V?$allocator@U?$pair@$$CBVName@Imf@@PAVAttribute@2@@std@@@5@$0A@@std@@@std@@@2@ABVName@Imf@@@Z 10016310 f i ImfHeader.obj
 0001:00015310       ?find@?$_Tree@V?$_Tmap_traits@VName@Imf@@PAVAttribute@2@U?$less@VName@Imf@@@std@@V?$allocator@U?$pair@$$CBVName@Imf@@PAVAttribute@2@@std@@@5@$0A@@std@@@std@@QAE?AV?$_Tree_iterator@V?$_Tree_val@V?$_Tmap_traits@VName@Imf@@PAVAttribute@2@U?$less@VName@Imf@@@std@@V?$allocator@U?$pair@$$CBVName@Imf@@PAVAttribute@2@@std@@@5@$0A@@std@@@std@@@2@ABVName@Imf@@@Z 10016310 f i ImfHeader.obj
 0001:00015380       ?clear@?$_Tree@V?$_Tmap_traits@VName@Imf@@PAVAttribute@2@U?$less@VName@Imf@@@std@@V?$allocator@U?$pair@$$CBVName@Imf@@PAVAttribute@2@@std@@@5@$0A@@std@@@std@@QAEXXZ 10016380 f i ImfHeader.obj
 0001:000153e0       ?registerAttributeType@?$TypedAttribute@V?$Box@V?$Vec2@H@Imath@@@Imath@@@Imf@@SAXXZ 100163e0 f i ImfHeader.obj
 0001:00015400       ?registerAttributeType@?$TypedAttribute@V?$Box@V?$Vec2@M@Imath@@@Imath@@@Imf@@SAXXZ 10016400 f i ImfHeader.obj
 0001:00015420       ?registerAttributeType@?$TypedAttribute@V?$basic_string@DU?$char_traits@D@std@@V?$allocator@D@2@@std@@@Imf@@SAXXZ 10016420 f i ImfHeader.obj
 0001:00015440       ??$findTypedAttribute@V?$TypedAttribute@VTileDescription@Imf@@@Imf@@@Header@Imf@@QBEPBV?$TypedAttribute@VTileDescription@Imf@@@1@QBD@Z 10016440 f i ImfHeader.obj
 0001:000154e0       ??$findTypedAttribute@V?$TypedAttribute@VPreviewImage@Imf@@@Imf@@@Header@Imf@@QBEPBV?$TypedAttribute@VPreviewImage@Imf@@@1@QBD@Z 100164e0 f i ImfHeader.obj
 0001:00015580       ?_Insert@?$_Tree@V?$_Tmap_traits@VName@Imf@@PAVAttribute@2@U?$less@VName@Imf@@@std@@V?$allocator@U?$pair@$$CBVName@Imf@@PAVAttribute@2@@std@@@5@$0A@@std@@@std@@QAE?AV?$_Tree_iterator@V?$_Tree_val@V?$_Tmap_traits@VName@Imf@@PAVAttribute@2@U?$less@VName@Imf@@@std@@V?$allocator@U?$pair@$$CBVName@Imf@@PAVAttribute@2@@std@@@5@$0A@@std@@@std@@@2@V?$_Tree_const_iterator@V?$_Tree_val@V?$_Tmap_traits@VName@Imf@@PAVAttribute@2@U?$less@VName@Imf@@@std@@V?$allocator@U?$pair@$$CBVName@Imf@@PAVAttribute@2@@std@@@5@$0A@@std@@@std@@@2@PAU_Node@?$_Tree_nod@V?$_Tmap_traits@VName@Imf@@PAVAttribute@2@U?$less@VName@Imf@@@std@@V?$allocator@U?$pair@$$CBVName@Imf@@PAVAttribute@2@@std@@@5@$0A@@std@@@2@@Z 10016580 f i ImfHeader.obj
 0001:00015730       ?clear@?$_Tree@V?$_Tmap_traits@VName@Imf@@UChannel@2@U?$less@VName@Imf@@@std@@V?$allocator@U?$pair@$$CBVName@Imf@@UChannel@2@@std@@@5@$0A@@std@@@std@@QAEXXZ 10016730 f i ImfHeader.obj
 0001:00015790       ??$_Cons_val@V?$allocator@U?$pair@$$CBVName@Imf@@PAVAttribute@2@@std@@@std@@U?$pair@$$CBVName@Imf@@PAVAttribute@2@@2@U32@@std@@YAXAAV?$allocator@U?$pair@$$CBVName@Imf@@PAVAttribute@2@@std@@@0@PAU?$pair@$$CBVName@Imf@@PAVAttribute@2@@0@$$QAU20@@Z 10016790 f i ImfHeader.obj
 0001:000157c0       ??AHeader@Imf@@QBEABVAttribute@1@QBD@Z 100167c0 f   ImfHeader.obj
 0001:000157c0       ??AHeader@Imf@@QAEAAVAttribute@1@QBD@Z 100167c0 f   ImfHeader.obj
 0001:00015930       ??AHeader@Imf@@QBEABVAttribute@1@ABV?$basic_string@DU?$char_traits@D@std@@V?$allocator@D@2@@std@@@Z 10016930 f   ImfHeader.obj
 0001:00015930       ??AHeader@Imf@@QAEAAVAttribute@1@ABV?$basic_string@DU?$char_traits@D@std@@V?$allocator@D@2@@std@@@Z 10016930 f   ImfHeader.obj
 0001:00015950       ?find@Header@Imf@@QBE?AVConstIterator@12@QBD@Z 10016950 f   ImfHeader.obj
 0001:00015950       ?find@Header@Imf@@QAE?AVIterator@12@QBD@Z 10016950 f   ImfHeader.obj
 0001:000159c0       ?find@Header@Imf@@QAE?AVIterator@12@ABV?$basic_string@DU?$char_traits@D@std@@V?$allocator@D@2@@std@@@Z 100169c0 f   ImfHeader.obj
 0001:000159c0       ?find@Header@Imf@@QBE?AVConstIterator@12@ABV?$basic_string@DU?$char_traits@D@std@@V?$allocator@D@2@@std@@@Z 100169c0 f   ImfHeader.obj
 0001:00015a30       ?displayWindow@Header@Imf@@QAEAAV?$Box@V?$Vec2@H@Imath@@@Imath@@XZ 10016a30 f   ImfHeader.obj
 0001:00015a30       ?displayWindow@Header@Imf@@QBEABV?$Box@V?$Vec2@H@Imath@@@Imath@@XZ 10016a30 f   ImfHeader.obj
 0001:00015a40       ?dataWindow@Header@Imf@@QAEAAV?$Box@V?$Vec2@H@Imath@@@Imath@@XZ 10016a40 f   ImfHeader.obj
 0001:00015a40       ?dataWindow@Header@Imf@@QBEABV?$Box@V?$Vec2@H@Imath@@@Imath@@XZ 10016a40 f   ImfHeader.obj
 0001:00015a50       ?pixelAspectRatio@Header@Imf@@QBEABMXZ 10016a50 f   ImfHeader.obj
 0001:00015a50       ?pixelAspectRatio@Header@Imf@@QAEAAMXZ 10016a50 f   ImfHeader.obj
 0001:00015a60       ?screenWindowCenter@Header@Imf@@QAEAAV?$Vec2@M@Imath@@XZ 10016a60 f   ImfHeader.obj
 0001:00015a60       ?screenWindowCenter@Header@Imf@@QBEABV?$Vec2@M@Imath@@XZ 10016a60 f   ImfHeader.obj
 0001:00015a70       ?screenWindowWidth@Header@Imf@@QAEAAMXZ 10016a70 f   ImfHeader.obj
 0001:00015a70       ?screenWindowWidth@Header@Imf@@QBEABMXZ 10016a70 f   ImfHeader.obj
 0001:00015a80       ?channels@Header@Imf@@QAEAAVChannelList@2@XZ 10016a80 f   ImfHeader.obj
 0001:00015a80       ?channels@Header@Imf@@QBEABVChannelList@2@XZ 10016a80 f   ImfHeader.obj
 0001:00015a90       ?lineOrder@Header@Imf@@QBEABW4LineOrder@2@XZ 10016a90 f   ImfHeader.obj
 0001:00015a90       ?lineOrder@Header@Imf@@QAEAAW4LineOrder@2@XZ 10016a90 f   ImfHeader.obj
 0001:00015aa0       ?compression@Header@Imf@@QBEABW4Compression@2@XZ 10016aa0 f   ImfHeader.obj
 0001:00015aa0       ?compression@Header@Imf@@QAEAAW4Compression@2@XZ 10016aa0 f   ImfHeader.obj
 0001:00015ab0       ?hasTileDescription@Header@Imf@@QBE_NXZ 10016ab0 f   ImfHeader.obj
 0001:00015ad0       ?hasPreviewImage@Header@Imf@@QBE_NXZ 10016ad0 f   ImfHeader.obj
 0001:00015af0       ?erase@?$_Tree@V?$_Tmap_traits@VName@Imf@@PAVAttribute@2@U?$less@VName@Imf@@@std@@V?$allocator@U?$pair@$$CBVName@Imf@@PAVAttribute@2@@std@@@5@$0A@@std@@@std@@QAE?AV?$_Tree_iterator@V?$_Tree_val@V?$_Tmap_traits@VName@Imf@@PAVAttribute@2@U?$less@VName@Imf@@@std@@V?$allocator@U?$pair@$$CBVName@Imf@@PAVAttribute@2@@std@@@5@$0A@@std@@@std@@@2@V?$_Tree_const_iterator@V?$_Tree_val@V?$_Tmap_traits@VName@Imf@@PAVAttribute@2@U?$less@VName@Imf@@@std@@V?$allocator@U?$pair@$$CBVName@Imf@@PAVAttribute@2@@std@@@5@$0A@@std@@@std@@@2@0@Z 10016af0 f i ImfHeader.obj
 0001:00015bb0       ??0?$basic_string@DU?$char_traits@D@std@@V?$allocator@D@2@@std@@QAE@PBDI@Z 10016bb0 f i ImfHeader.obj
 0001:00015be0       ?_Tidy@?$_Tree@V?$_Tmap_traits@VName@Imf@@PAVAttribute@2@U?$less@VName@Imf@@@std@@V?$allocator@U?$pair@$$CBVName@Imf@@PAVAttribute@2@@std@@@5@$0A@@std@@@std@@IAEXXZ 10016be0 f i ImfHeader.obj
 0001:00015c00       ??$typedAttribute@V?$TypedAttribute@VTileDescription@Imf@@@Imf@@@Header@Imf@@QBEABV?$TypedAttribute@VTileDescription@Imf@@@1@QBD@Z 10016c00 f i ImfHeader.obj
 0001:00015c00       ??$typedAttribute@V?$TypedAttribute@VTileDescription@Imf@@@Imf@@@Header@Imf@@QAEAAV?$TypedAttribute@VTileDescription@Imf@@@1@QBD@Z 10016c00 f i ImfHeader.obj
 0001:00015c70       ??$typedAttribute@V?$TypedAttribute@VPreviewImage@Imf@@@Imf@@@Header@Imf@@QBEABV?$TypedAttribute@VPreviewImage@Imf@@@1@QBD@Z 10016c70 f i ImfHeader.obj
 0001:00015c70       ??$typedAttribute@V?$TypedAttribute@VPreviewImage@Imf@@@Imf@@@Header@Imf@@QAEAAV?$TypedAttribute@VPreviewImage@Imf@@@1@QBD@Z 10016c70 f i ImfHeader.obj
 0001:00015ce0       ?erase@?$_Tree@V?$_Tmap_traits@VName@Imf@@UChannel@2@U?$less@VName@Imf@@@std@@V?$allocator@U?$pair@$$CBVName@Imf@@UChannel@2@@std@@@5@$0A@@std@@@std@@QAE?AV?$_Tree_iterator@V?$_Tree_val@V?$_Tmap_traits@VName@Imf@@UChannel@2@U?$less@VName@Imf@@@std@@V?$allocator@U?$pair@$$CBVName@Imf@@UChannel@2@@std@@@5@$0A@@std@@@std@@@2@V?$_Tree_const_iterator@V?$_Tree_val@V?$_Tmap_traits@VName@Imf@@UChannel@2@U?$less@VName@Imf@@@std@@V?$allocator@U?$pair@$$CBVName@Imf@@UChannel@2@@std@@@5@$0A@@std@@@std@@@2@0@Z 10016ce0 f i ImfHeader.obj
 0001:00015da0       ??$_Buynode@U?$pair@$$CBVName@Imf@@PAVAttribute@2@@std@@@?$_Tree_val@V?$_Tmap_traits@VName@Imf@@PAVAttribute@2@U?$less@VName@Imf@@@std@@V?$allocator@U?$pair@$$CBVName@Imf@@PAVAttribute@2@@std@@@5@$0A@@std@@@std@@QAEPAU_Node@?$_Tree_nod@V?$_Tmap_traits@VName@Imf@@PAVAttribute@2@U?$less@VName@Imf@@@std@@V?$allocator@U?$pair@$$CBVName@Imf@@PAVAttribute@2@@std@@@5@$0A@@std@@@1@$$QAU?$pair@$$CBVName@Imf@@PAVAttribute@2@@1@@Z 10016da0 f i ImfHeader.obj
 0001:00015e30       ?usesLongNames@?A0x1f5ff9f2@Imf@@YA_NABVHeader@2@@Z 10016e30 f   ImfHeader.obj
 0001:00015f60       ?tileDescription@Header@Imf@@QBEABVTileDescription@2@XZ 10016f60 f   ImfHeader.obj
 0001:00015f60       ?tileDescription@Header@Imf@@QAEAAVTileDescription@2@XZ 10016f60 f   ImfHeader.obj
 0001:00015fd0       ?previewImage@Header@Imf@@QBEABVPreviewImage@2@XZ 10016fd0 f   ImfHeader.obj
 0001:00015fd0       ?previewImage@Header@Imf@@QAEAAVPreviewImage@2@XZ 10016fd0 f   ImfHeader.obj
 0001:00016040       ?sanityCheck@Header@Imf@@QBEX_N@Z 10017040 f   ImfHeader.obj
 0001:00016f50       ??$insert@U?$pair@$$CBVName@Imf@@PAVAttribute@2@@std@@@?$_Tree@V?$_Tmap_traits@VName@Imf@@PAVAttribute@2@U?$less@VName@Imf@@@std@@V?$allocator@U?$pair@$$CBVName@Imf@@PAVAttribute@2@@std@@@5@$0A@@std@@@std@@QAE?AV?$_Tree_iterator@V?$_Tree_val@V?$_Tmap_traits@VName@Imf@@PAVAttribute@2@U?$less@VName@Imf@@@std@@V?$allocator@U?$pair@$$CBVName@Imf@@PAVAttribute@2@@std@@@5@$0A@@std@@@std@@@1@V?$_Tree_const_iterator@V?$_Tree_val@V?$_Tmap_traits@VName@Imf@@PAVAttribute@2@U?$less@VName@Imf@@@std@@V?$allocator@U?$pair@$$CBVName@Imf@@PAVAttribute@2@@std@@@5@$0A@@std@@@std@@@1@$$QAU?$pair@$$CBVName@Imf@@PAVAttribute@2@@1@@Z 10017f50 f i ImfHeader.obj
 0001:00016f80       ?_Tidy@?$_Tree@V?$_Tmap_traits@VName@Imf@@UChannel@2@U?$less@VName@Imf@@@std@@V?$allocator@U?$pair@$$CBVName@Imf@@UChannel@2@@std@@@5@$0A@@std@@@std@@IAEXXZ 10017f80 f i ImfHeader.obj
 0001:00016fa0       ??1?$_Tree@V?$_Tmap_traits@VName@Imf@@PAVAttribute@2@U?$less@VName@Imf@@@std@@V?$allocator@U?$pair@$$CBVName@Imf@@PAVAttribute@2@@std@@@5@$0A@@std@@@std@@QAE@XZ 10017fa0 f i ImfHeader.obj
 0001:00016fa0       ??1?$map@VName@Imf@@PAVAttribute@2@U?$less@VName@Imf@@@std@@V?$allocator@U?$pair@$$CBVName@Imf@@PAVAttribute@2@@std@@@5@@std@@QAE@XZ 10017fa0 f i ImfHeader.obj
 0001:00017000       ??1Header@Imf@@QAE@XZ      10018000 f   ImfHeader.obj
 0001:000170e0       ??0?$map@VName@Imf@@PAVAttribute@2@U?$less@VName@Imf@@@std@@V?$allocator@U?$pair@$$CBVName@Imf@@PAVAttribute@2@@std@@@5@@std@@QAE@XZ 100180e0 f i ImfHeader.obj
 0001:00017160       ??A?$map@VName@Imf@@PAVAttribute@2@U?$less@VName@Imf@@@std@@V?$allocator@U?$pair@$$CBVName@Imf@@PAVAttribute@2@@std@@@5@@std@@QAEAAPAVAttribute@Imf@@ABVName@3@@Z 10018160 f i ImfHeader.obj
 0001:00017210       ?str@?$basic_stringbuf@DU?$char_traits@D@std@@V?$allocator@D@2@@std@@QBE?AV?$basic_string@DU?$char_traits@D@std@@V?$allocator@D@2@@2@XZ 10018210 f i ImfHeader.obj
 0001:00017340       ??$_Destroy_range@V?$allocator@V?$basic_string@DU?$char_traits@D@std@@V?$allocator@D@2@@std@@@std@@@std@@YAXPAV?$basic_string@DU?$char_traits@D@std@@V?$allocator@D@2@@0@0AAV?$allocator@V?$basic_string@DU?$char_traits@D@std@@V?$allocator@D@2@@std@@@0@U_Nonscalar_ptr_iterator_tag@0@@Z 10018340 f i ImfHeader.obj
 0001:00017380       ?insert@Header@Imf@@QAEXQBDABVAttribute@2@@Z 10018380 f   ImfHeader.obj
 0001:00017700       ?insert@Header@Imf@@QAEXABV?$basic_string@DU?$char_traits@D@std@@V?$allocator@D@2@@std@@ABVAttribute@2@@Z 10018700 f   ImfHeader.obj
 0001:00017720       ?setTileDescription@Header@Imf@@QAEXABVTileDescription@2@@Z 10018720 f   ImfHeader.obj
 0001:000177b0       ?setPreviewImage@Header@Imf@@QAEXABVPreviewImage@2@@Z 100187b0 f   ImfHeader.obj
 0001:00017850       ?readFrom@Header@Imf@@QAEXAAVIStream@2@AAH@Z 10018850 f   ImfHeader.obj
 0001:00017e50       ?str@?$basic_ostringstream@DU?$char_traits@D@std@@V?$allocator@D@2@@std@@QBE?AV?$basic_string@DU?$char_traits@D@std@@V?$allocator@D@2@@2@XZ 10018e50 f i ImfHeader.obj
 0001:00017e80       ??1?$_Tree@V?$_Tmap_traits@VName@Imf@@UChannel@2@U?$less@VName@Imf@@@std@@V?$allocator@U?$pair@$$CBVName@Imf@@UChannel@2@@std@@@5@$0A@@std@@@std@@QAE@XZ 10018e80 f i ImfHeader.obj
 0001:00017e80       ??1?$map@VName@Imf@@UChannel@2@U?$less@VName@Imf@@@std@@V?$allocator@U?$pair@$$CBVName@Imf@@UChannel@2@@std@@@5@@std@@QAE@XZ 10018e80 f i ImfHeader.obj
 0001:00017e80       ??1ChannelList@Imf@@QAE@XZ 10018e80 f i ImfHeader.obj
 0001:00017ee0       ??0ChannelList@Imf@@QAE@XZ 10018ee0 f i ImfHeader.obj
 0001:00017ee0       ??0?$map@VName@Imf@@UChannel@2@U?$less@VName@Imf@@@std@@V?$allocator@U?$pair@$$CBVName@Imf@@UChannel@2@@std@@@5@@std@@QAE@XZ 10018ee0 f i ImfHeader.obj
 0001:00017f60       ??$_Destroy_range@V?$allocator@V?$basic_string@DU?$char_traits@D@std@@V?$allocator@D@2@@std@@@std@@@std@@YAXPAV?$basic_string@DU?$char_traits@D@std@@V?$allocator@D@2@@0@0AAV?$allocator@V?$basic_string@DU?$char_traits@D@std@@V?$allocator@D@2@@std@@@0@@Z 10018f60 f i ImfHeader.obj
 0001:00017f80       ?str@StdOSStream@Imf@@QBE?AV?$basic_string@DU?$char_traits@D@std@@V?$allocator@D@2@@std@@XZ 10018f80 f i ImfHeader.obj
 0001:00017fb0       ??0Header@Imf@@QAE@ABV01@@Z 10018fb0 f   ImfHeader.obj
 0001:000180e0       ??4Header@Imf@@QAEAAV01@ABV01@@Z 100190e0 f   ImfHeader.obj
 0001:000181c0       ?writeTo@Header@Imf@@QBE_KAAVOStream@2@_N@Z 100191c0 f   ImfHeader.obj
 0001:00018550       ?_Destroy@?$vector@V?$basic_string@DU?$char_traits@D@std@@V?$allocator@D@2@@std@@V?$allocator@V?$basic_string@DU?$char_traits@D@std@@V?$allocator@D@2@@std@@@2@@std@@IAEXPAV?$basic_string@DU?$char_traits@D@std@@V?$allocator@D@2@@2@0@Z 10019550 f i ImfHeader.obj
 0001:00018570       ?_Tidy@?$vector@V?$basic_string@DU?$char_traits@D@std@@V?$allocator@D@2@@std@@V?$allocator@V?$basic_string@DU?$char_traits@D@std@@V?$allocator@D@2@@std@@@2@@std@@IAEXXZ 10019570 f i ImfHeader.obj
 0001:00018570       ??1?$vector@V?$basic_string@DU?$char_traits@D@std@@V?$allocator@D@2@@std@@V?$allocator@V?$basic_string@DU?$char_traits@D@std@@V?$allocator@D@2@@std@@@2@@std@@QAE@XZ 10019570 f i ImfHeader.obj
 0001:000185c0       ??0?$TypedAttribute@VChannelList@Imf@@@Imf@@QAE@XZ 100195c0 f i ImfHeader.obj
 0001:00018680       ?typeName@?$TypedAttribute@VChannelList@Imf@@@Imf@@UBEPBDXZ 10019680 f i ImfHeader.obj
 0001:00018690       ?cast@?$TypedAttribute@VChannelList@Imf@@@Imf@@SAPBV12@PBVAttribute@2@@Z 10019690 f i ImfHeader.obj
 0001:00018690       ?cast@?$TypedAttribute@VChannelList@Imf@@@Imf@@SAABV12@ABVAttribute@2@@Z 10019690 f i ImfHeader.obj
 0001:000186f0       ??$?0$$CBVName@Imf@@UChannel@1@@?$pair@$$CBVName@Imf@@UChannel@2@@std@@QAE@AAU01@@Z 100196f0 f i ImfHeader.obj
 0001:000186f0       ??$?0$$CBVName@Imf@@UChannel@1@@?$pair@$$CBVName@Imf@@UChannel@2@@std@@QAE@$$QAU01@@Z 100196f0 f i ImfChannelList.obj
 0001:00018730       ??$_Cons_val@V?$allocator@U?$pair@$$CBVName@Imf@@UChannel@2@@std@@@std@@U?$pair@$$CBVName@Imf@@UChannel@2@@2@U32@@std@@YAXAAV?$allocator@U?$pair@$$CBVName@Imf@@UChannel@2@@std@@@0@PAU?$pair@$$CBVName@Imf@@UChannel@2@@0@$$QAU20@@Z 10019730 f i ImfChannelList.obj
 0001:00018730       ??$_Cons_val@V?$allocator@U?$pair@$$CBVName@Imf@@UChannel@2@@std@@@std@@U?$pair@$$CBVName@Imf@@UChannel@2@@2@AAU32@@std@@YAXAAV?$allocator@U?$pair@$$CBVName@Imf@@UChannel@2@@std@@@0@PAU?$pair@$$CBVName@Imf@@UChannel@2@@0@AAU20@@Z 10019730 f i ImfHeader.obj
 0001:00018770       ??$_Buynode@AAU?$pair@$$CBVName@Imf@@UChannel@2@@std@@@?$_Tree_val@V?$_Tmap_traits@VName@Imf@@UChannel@2@U?$less@VName@Imf@@@std@@V?$allocator@U?$pair@$$CBVName@Imf@@UChannel@2@@std@@@5@$0A@@std@@@std@@QAEPAU_Node@?$_Tree_nod@V?$_Tmap_traits@VName@Imf@@UChannel@2@U?$less@VName@Imf@@@std@@V?$allocator@U?$pair@$$CBVName@Imf@@UChannel@2@@std@@@5@$0A@@std@@@1@AAU?$pair@$$CBVName@Imf@@UChannel@2@@1@@Z 10019770 f i ImfHeader.obj
 0001:00018770       ??$_Buynode@U?$pair@$$CBVName@Imf@@UChannel@2@@std@@@?$_Tree_val@V?$_Tmap_traits@VName@Imf@@UChannel@2@U?$less@VName@Imf@@@std@@V?$allocator@U?$pair@$$CBVName@Imf@@UChannel@2@@std@@@5@$0A@@std@@@std@@QAEPAU_Node@?$_Tree_nod@V?$_Tmap_traits@VName@Imf@@UChannel@2@U?$less@VName@Imf@@@std@@V?$allocator@U?$pair@$$CBVName@Imf@@UChannel@2@@std@@@5@$0A@@std@@@1@$$QAU?$pair@$$CBVName@Imf@@UChannel@2@@1@@Z 10019770 f i ImfChannelList.obj
 0001:00018810       ?_Copy@?$_Tree@V?$_Tmap_traits@VName@Imf@@UChannel@2@U?$less@VName@Imf@@@std@@V?$allocator@U?$pair@$$CBVName@Imf@@UChannel@2@@std@@@5@$0A@@std@@@std@@IAEPAU_Node@?$_Tree_nod@V?$_Tmap_traits@VName@Imf@@UChannel@2@U?$less@VName@Imf@@@std@@V?$allocator@U?$pair@$$CBVName@Imf@@UChannel@2@@std@@@5@$0A@@std@@@2@PAU342@0@Z 10019810 f i ImfHeader.obj
 0001:000188d0       ?_Copy@?$_Tree@V?$_Tmap_traits@VName@Imf@@UChannel@2@U?$less@VName@Imf@@@std@@V?$allocator@U?$pair@$$CBVName@Imf@@UChannel@2@@std@@@5@$0A@@std@@@std@@IAEXABV12@@Z 100198d0 f i ImfHeader.obj
 0001:00018960       ??1?$TypedAttribute@VChannelList@Imf@@@Imf@@UAE@XZ 10019960 f i ImfHeader.obj
 0001:000189e0       ?copy@?$TypedAttribute@VChannelList@Imf@@@Imf@@UBEPAVAttribute@2@XZ 100199e0 f i ImfHeader.obj
 0001:00018a50       ??_G?$TypedAttribute@VChannelList@Imf@@@Imf@@UAEPAXI@Z 10019a50 f i ImfHeader.obj
 0001:00018a50       ??_E?$TypedAttribute@VChannelList@Imf@@@Imf@@UAEPAXI@Z 10019a50 f i ImfHeader.obj
 0001:00018af0       ??4ChannelList@Imf@@QAEAAV01@ABV01@@Z 10019af0 f i ImfHeader.obj
 0001:00018af0       ??4?$map@VName@Imf@@UChannel@2@U?$less@VName@Imf@@@std@@V?$allocator@U?$pair@$$CBVName@Imf@@UChannel@2@@std@@@5@@std@@QAEAAV01@ABV01@@Z 10019af0 f i ImfHeader.obj
 0001:00018af0       ??4?$_Tree@V?$_Tmap_traits@VName@Imf@@UChannel@2@U?$less@VName@Imf@@@std@@V?$allocator@U?$pair@$$CBVName@Imf@@UChannel@2@@std@@@5@$0A@@std@@@std@@QAEAAV01@ABV01@@Z 10019af0 f i ImfHeader.obj
 0001:00018b20       ?makeNewAttribute@?$TypedAttribute@VChannelList@Imf@@@Imf@@SAPAVAttribute@2@XZ 10019b20 f i ImfHeader.obj
 0001:00018b90       ??0?$TypedAttribute@V?$vector@V?$basic_string@DU?$char_traits@D@std@@V?$allocator@D@2@@std@@V?$allocator@V?$basic_string@DU?$char_traits@D@std@@V?$allocator@D@2@@std@@@2@@std@@@Imf@@QAE@XZ 10019b90 f i ImfHeader.obj
 0001:00018bb0       ?typeName@?$TypedAttribute@V?$vector@V?$basic_string@DU?$char_traits@D@std@@V?$allocator@D@2@@std@@V?$allocator@V?$basic_string@DU?$char_traits@D@std@@V?$allocator@D@2@@std@@@2@@std@@@Imf@@UBEPBDXZ 10019bb0 f i ImfHeader.obj
 0001:00018bc0       ?cast@?$TypedAttribute@V?$vector@V?$basic_string@DU?$char_traits@D@std@@V?$allocator@D@2@@std@@V?$allocator@V?$basic_string@DU?$char_traits@D@std@@V?$allocator@D@2@@std@@@2@@std@@@Imf@@SAPBV12@PBVAttribute@2@@Z 10019bc0 f i ImfHeader.obj
 0001:00018bc0       ?cast@?$TypedAttribute@V?$vector@V?$basic_string@DU?$char_traits@D@std@@V?$allocator@D@2@@std@@V?$allocator@V?$basic_string@DU?$char_traits@D@std@@V?$allocator@D@2@@std@@@2@@std@@@Imf@@SAABV12@ABVAttribute@2@@Z 10019bc0 f i ImfHeader.obj
 0001:00018c20       ??8?$_Tree_const_iterator@V?$_Tree_val@V?$_Tset_traits@V?$basic_string@DU?$char_traits@D@std@@V?$allocator@D@2@@std@@U?$less@V?$basic_string@DU?$char_traits@D@std@@V?$allocator@D@2@@std@@@2@V?$allocator@V?$basic_string@DU?$char_traits@D@std@@V?$allocator@D@2@@std@@@2@$0A@@std@@@std@@@std@@QBE_NABV01@@Z 10019c20 f i ImfChannelList.obj
 0001:00018c20       ??8?$_Vector_const_iterator@V?$_Vector_val@V?$basic_string@DU?$char_traits@D@std@@V?$allocator@D@2@@std@@V?$allocator@V?$basic_string@DU?$char_traits@D@std@@V?$allocator@D@2@@std@@@2@@std@@@std@@QBE_NABV01@@Z 10019c20 f i ImfHeader.obj
 0001:00018c20       ??8?$_Vector_const_iterator@V?$_Vector_val@UInSliceInfo@?A0xcbf8ace6@Imf@@V?$allocator@UInSliceInfo@?A0xcbf8ace6@Imf@@@std@@@std@@@std@@QBE_NABV01@@Z 10019c20 f i ImfScanLineInputFile.obj
 0001:00018c20       ??8?$_Vector_const_iterator@V?$_Vector_val@PAULineBuffer@?A0xf57f9ec6@Imf@@V?$allocator@PAULineBuffer@?A0xf57f9ec6@Imf@@@std@@@std@@@std@@QBE_NABV01@@Z 10019c20 f i ImfOutputFile.obj
 0001:00018c20       ??8?$_Vector_const_iterator@V?$_Vector_val@PAUTileBuffer@?A0x39e5c904@Imf@@V?$allocator@PAUTileBuffer@?A0x39e5c904@Imf@@@std@@@std@@@std@@QBE_NABV01@@Z 10019c20 f i ImfTiledOutputFile.obj
 0001:00018c20       ??8?$_Vector_const_iterator@V?$_Vector_val@PAULineBuffer@?A0xcbf8ace6@Imf@@V?$allocator@PAULineBuffer@?A0xcbf8ace6@Imf@@@std@@@std@@@std@@QBE_NABV01@@Z 10019c20 f i ImfScanLineInputFile.obj
 0001:00018c20       ??8?$_Tree_const_iterator@V?$_Tree_val@V?$_Tmap_traits@VName@Imf@@UChannel@2@U?$less@VName@Imf@@@std@@V?$allocator@U?$pair@$$CBVName@Imf@@UChannel@2@@std@@@5@$0A@@std@@@std@@@std@@QBE_NABV01@@Z 10019c20 f i ImfB44Compressor.obj
 0001:00018c20       ??8?$_Tree_const_iterator@V?$_Tree_val@V?$_Tmap_traits@PBDP6APAVAttribute@Imf@@XZUNameCompare@?A0x0779e1ad@2@V?$allocator@U?$pair@QBDP6APAVAttribute@Imf@@XZ@std@@@std@@$0A@@std@@@std@@@std@@QBE_NABV01@@Z 10019c20 f i ImfAttribute.obj
 0001:00018c20       ??8?$_Vector_const_iterator@V?$_Vector_val@_KV?$allocator@_K@std@@@std@@@std@@QBE_NABV01@@Z 10019c20 f i ImfOutputFile.obj
 0001:00018c20       ??8?$_Vector_const_iterator@V?$_Vector_val@UTOutSliceInfo@?A0x39e5c904@Imf@@V?$allocator@UTOutSliceInfo@?A0x39e5c904@Imf@@@std@@@std@@@std@@QBE_NABV01@@Z 10019c20 f i ImfTiledOutputFile.obj
 0001:00018c20       ??8?$_Tree_const_iterator@V?$_Tree_val@V?$_Tmap_traits@VName@Imf@@PAVAttribute@2@U?$less@VName@Imf@@@std@@V?$allocator@U?$pair@$$CBVName@Imf@@PAVAttribute@2@@std@@@5@$0A@@std@@@std@@@std@@QBE_NABV01@@Z 10019c20 f i ImfCRgbaFile.obj
 0001:00018c20       ??8?$_Tree_const_iterator@V?$_Tree_val@V?$_Tmap_traits@VName@Imf@@USlice@2@U?$less@VName@Imf@@@std@@V?$allocator@U?$pair@$$CBVName@Imf@@USlice@2@@std@@@5@$0A@@std@@@std@@@std@@QBE_NABV01@@Z 10019c20 f i ImfFrameBuffer.obj
 0001:00018c20       ??8?$_Vector_const_iterator@V?$_Vector_val@IV?$allocator@I@std@@@std@@@std@@QBE_NABV01@@Z 10019c20 f i ImfMisc.obj
 0001:00018c20       ??8?$_Vector_const_iterator@V?$_Vector_val@UTInSliceInfo@?A0xf6fcebb6@Imf@@V?$allocator@UTInSliceInfo@?A0xf6fcebb6@Imf@@@std@@@std@@@std@@QBE_NABV01@@Z 10019c20 f i ImfTiledInputFile.obj
 0001:00018c20       ??8?$_Vector_const_iterator@V?$_Vector_val@UOutSliceInfo@?A0xf57f9ec6@Imf@@V?$allocator@UOutSliceInfo@?A0xf57f9ec6@Imf@@@std@@@std@@@std@@QBE_NABV01@@Z 10019c20 f i ImfOutputFile.obj
 0001:00018c20       ??8?$_Vector_const_iterator@V?$_Vector_val@PAUTileBuffer@?A0xf6fcebb6@Imf@@V?$allocator@PAUTileBuffer@?A0xf6fcebb6@Imf@@@std@@@std@@@std@@QBE_NABV01@@Z 10019c20 f i ImfTiledInputFile.obj
 0001:00018c20       ??8?$_Tree_const_iterator@V?$_Tree_val@V?$_Tmap_traits@UTileCoord@?A0x39e5c904@Imf@@PAUBufferedTile@23@U?$less@UTileCoord@?A0x39e5c904@Imf@@@std@@V?$allocator@U?$pair@$$CBUTileCoord@?A0x39e5c904@Imf@@PAUBufferedTile@23@@std@@@6@$0A@@std@@@std@@@std@@QBE_NABV01@@Z 10019c20 f i ImfTiledOutputFile.obj
 0001:00018c20       ??8?$_Vector_const_iterator@V?$_Vector_val@V?$vector@_KV?$allocator@_K@std@@@std@@V?$allocator@V?$vector@_KV?$allocator@_K@std@@@std@@@2@@std@@@std@@QBE_NABV01@@Z 10019c20 f i ImfTiledInputFile.obj
 0001:00018c20       ??8?$_Vector_const_iterator@V?$_Vector_val@V?$vector@V?$vector@_KV?$allocator@_K@std@@@std@@V?$allocator@V?$vector@_KV?$allocator@_K@std@@@std@@@2@@std@@V?$allocator@V?$vector@V?$vector@_KV?$allocator@_K@std@@@std@@V?$allocator@V?$vector@_KV?$allocator@_K@std@@@std@@@2@@std@@@2@@std@@@std@@QBE_NABV01@@Z 10019c20 f i ImfTiledInputFile.obj
 0001:00018c40       ?end@FrameBuffer@Imf@@QBE?AVConstIterator@12@XZ 10019c40 f i ImfFrameBuffer.obj
 0001:00018c40       ?end@?$vector@UTOutSliceInfo@?A0x39e5c904@Imf@@V?$allocator@UTOutSliceInfo@?A0x39e5c904@Imf@@@std@@@std@@QAE?AV?$_Vector_iterator@V?$_Vector_val@UTOutSliceInfo@?A0x39e5c904@Imf@@V?$allocator@UTOutSliceInfo@?A0x39e5c904@Imf@@@std@@@std@@@2@XZ 10019c40 f i ImfTiledOutputFile.obj
 0001:00018c40       ?end@ChannelList@Imf@@QAE?AVIterator@12@XZ 10019c40 f i ImfChannelList.obj
 0001:00018c40       ?end@?$vector@PAULineBuffer@?A0xcbf8ace6@Imf@@V?$allocator@PAULineBuffer@?A0xcbf8ace6@Imf@@@std@@@std@@QAE?AV?$_Vector_iterator@V?$_Vector_val@PAULineBuffer@?A0xcbf8ace6@Imf@@V?$allocator@PAULineBuffer@?A0xcbf8ace6@Imf@@@std@@@std@@@2@XZ 10019c40 f i ImfScanLineInputFile.obj
 0001:00018c40       ?end@?$_Tree@V?$_Tmap_traits@VName@Imf@@PAVAttribute@2@U?$less@VName@Imf@@@std@@V?$allocator@U?$pair@$$CBVName@Imf@@PAVAttribute@2@@std@@@5@$0A@@std@@@std@@QBE?AV?$_Tree_const_iterator@V?$_Tree_val@V?$_Tmap_traits@VName@Imf@@PAVAttribute@2@U?$less@VName@Imf@@@std@@V?$allocator@U?$pair@$$CBVName@Imf@@PAVAttribute@2@@std@@@5@$0A@@std@@@std@@@2@XZ 10019c40 f i ImfHeader.obj
 0001:00018c40       ?end@?$_Tree@V?$_Tmap_traits@VName@Imf@@PAVAttribute@2@U?$less@VName@Imf@@@std@@V?$allocator@U?$pair@$$CBVName@Imf@@PAVAttribute@2@@std@@@5@$0A@@std@@@std@@QAE?AV?$_Tree_iterator@V?$_Tree_val@V?$_Tmap_traits@VName@Imf@@PAVAttribute@2@U?$less@VName@Imf@@@std@@V?$allocator@U?$pair@$$CBVName@Imf@@PAVAttribute@2@@std@@@5@$0A@@std@@@std@@@2@XZ 10019c40 f i ImfHeader.obj
 0001:00018c40       ?end@?$vector@V?$basic_string@DU?$char_traits@D@std@@V?$allocator@D@2@@std@@V?$allocator@V?$basic_string@DU?$char_traits@D@std@@V?$allocator@D@2@@std@@@2@@std@@QAE?AV?$_Vector_iterator@V?$_Vector_val@V?$basic_string@DU?$char_traits@D@std@@V?$allocator@D@2@@std@@V?$allocator@V?$basic_string@DU?$char_traits@D@std@@V?$allocator@D@2@@std@@@2@@std@@@2@XZ 10019c40 f i ImfHeader.obj
 0001:00018c40       ?end@?$_Tree@V?$_Tmap_traits@UTileCoord@?A0x39e5c904@Imf@@PAUBufferedTile@23@U?$less@UTileCoord@?A0x39e5c904@Imf@@@std@@V?$allocator@U?$pair@$$CBUTileCoord@?A0x39e5c904@Imf@@PAUBufferedTile@23@@std@@@6@$0A@@std@@@std@@QAE?AV?$_Tree_iterator@V?$_Tree_val@V?$_Tmap_traits@UTileCoord@?A0x39e5c904@Imf@@PAUBufferedTile@23@U?$less@UTileCoord@?A0x39e5c904@Imf@@@std@@V?$allocator@U?$pair@$$CBUTileCoord@?A0x39e5c904@Imf@@PAUBufferedTile@23@@std@@@6@$0A@@std@@@std@@@2@XZ 10019c40 f i ImfTiledOutputFile.obj
 0001:00018c40       ?end@Header@Imf@@QBE?AVConstIterator@12@XZ 10019c40 f i ImfHeader.obj
 0001:00018c40       ?end@?$vector@V?$vector@_KV?$allocator@_K@std@@@std@@V?$allocator@V?$vector@_KV?$allocator@_K@std@@@std@@@2@@std@@QAE?AV?$_Vector_iterator@V?$_Vector_val@V?$vector@_KV?$allocator@_K@std@@@std@@V?$allocator@V?$vector@_KV?$allocator@_K@std@@@std@@@2@@std@@@2@XZ 10019c40 f i ImfTiledInputFile.obj
 0001:00018c40       ?end@?$vector@V?$vector@_KV?$allocator@_K@std@@@std@@V?$allocator@V?$vector@_KV?$allocator@_K@std@@@std@@@2@@std@@QBE?AV?$_Vector_const_iterator@V?$_Vector_val@V?$vector@_KV?$allocator@_K@std@@@std@@V?$allocator@V?$vector@_KV?$allocator@_K@std@@@std@@@2@@std@@@2@XZ 10019c40 f i ImfTiledInputFile.obj
 0001:00018c40       ?end@?$_Tree@V?$_Tmap_traits@VName@Imf@@USlice@2@U?$less@VName@Imf@@@std@@V?$allocator@U?$pair@$$CBVName@Imf@@USlice@2@@std@@@5@$0A@@std@@@std@@QAE?AV?$_Tree_iterator@V?$_Tree_val@V?$_Tmap_traits@VName@Imf@@USlice@2@U?$less@VName@Imf@@@std@@V?$allocator@U?$pair@$$CBVName@Imf@@USlice@2@@std@@@5@$0A@@std@@@std@@@2@XZ 10019c40 f i ImfFrameBuffer.obj
 0001:00018c40       ?end@?$vector@PAUTileBuffer@?A0x39e5c904@Imf@@V?$allocator@PAUTileBuffer@?A0x39e5c904@Imf@@@std@@@std@@QAE?AV?$_Vector_iterator@V?$_Vector_val@PAUTileBuffer@?A0x39e5c904@Imf@@V?$allocator@PAUTileBuffer@?A0x39e5c904@Imf@@@std@@@std@@@2@XZ 10019c40 f i ImfTiledOutputFile.obj
 0001:00018c40       ?end@?$_Tree@V?$_Tmap_traits@VName@Imf@@USlice@2@U?$less@VName@Imf@@@std@@V?$allocator@U?$pair@$$CBVName@Imf@@USlice@2@@std@@@5@$0A@@std@@@std@@QBE?AV?$_Tree_const_iterator@V?$_Tree_val@V?$_Tmap_traits@VName@Imf@@USlice@2@U?$less@VName@Imf@@@std@@V?$allocator@U?$pair@$$CBVName@Imf@@USlice@2@@std@@@5@$0A@@std@@@std@@@2@XZ 10019c40 f i ImfFrameBuffer.obj
 0001:00018c40       ?end@FrameBuffer@Imf@@QAE?AVIterator@12@XZ 10019c40 f i ImfFrameBuffer.obj
 0001:00018c40       ?end@?$vector@V?$vector@V?$vector@_KV?$allocator@_K@std@@@std@@V?$allocator@V?$vector@_KV?$allocator@_K@std@@@std@@@2@@std@@V?$allocator@V?$vector@V?$vector@_KV?$allocator@_K@std@@@std@@V?$allocator@V?$vector@_KV?$allocator@_K@std@@@std@@@2@@std@@@2@@std@@QAE?AV?$_Vector_iterator@V?$_Vector_val@V?$vector@V?$vector@_KV?$allocator@_K@std@@@std@@V?$allocator@V?$vector@_KV?$allocator@_K@std@@@std@@@2@@std@@V?$allocator@V?$vector@V?$vector@_KV?$allocator@_K@std@@@std@@V?$allocator@V?$vector@_KV?$allocator@_K@std@@@std@@@2@@std@@@2@@std@@@2@XZ 10019c40 f i ImfTiledInputFile.obj
 0001:00018c40       ?end@?$vector@IV?$allocator@I@std@@@std@@QAE?AV?$_Vector_iterator@V?$_Vector_val@IV?$allocator@I@std@@@std@@@2@XZ 10019c40 f i ImfMisc.obj
 0001:00018c40       ?end@?$vector@PAUTileBuffer@?A0xf6fcebb6@Imf@@V?$allocator@PAUTileBuffer@?A0xf6fcebb6@Imf@@@std@@@std@@QAE?AV?$_Vector_iterator@V?$_Vector_val@PAUTileBuffer@?A0xf6fcebb6@Imf@@V?$allocator@PAUTileBuffer@?A0xf6fcebb6@Imf@@@std@@@std@@@2@XZ 10019c40 f i ImfTiledInputFile.obj
 0001:00018c40       ?end@?$vector@UTInSliceInfo@?A0xf6fcebb6@Imf@@V?$allocator@UTInSliceInfo@?A0xf6fcebb6@Imf@@@std@@@std@@QAE?AV?$_Vector_iterator@V?$_Vector_val@UTInSliceInfo@?A0xf6fcebb6@Imf@@V?$allocator@UTInSliceInfo@?A0xf6fcebb6@Imf@@@std@@@std@@@2@XZ 10019c40 f i ImfTiledInputFile.obj
 0001:00018c40       ?end@ChannelList@Imf@@QBE?AVConstIterator@12@XZ 10019c40 f i ImfChannelList.obj
 0001:00018c40       ?end@?$_Tree@V?$_Tmap_traits@VName@Imf@@UChannel@2@U?$less@VName@Imf@@@std@@V?$allocator@U?$pair@$$CBVName@Imf@@UChannel@2@@std@@@5@$0A@@std@@@std@@QAE?AV?$_Tree_iterator@V?$_Tree_val@V?$_Tmap_traits@VName@Imf@@UChannel@2@U?$less@VName@Imf@@@std@@V?$allocator@U?$pair@$$CBVName@Imf@@UChannel@2@@std@@@5@$0A@@std@@@std@@@2@XZ 10019c40 f i ImfChannelList.obj
 0001:00018c40       ?end@?$vector@UOutSliceInfo@?A0xf57f9ec6@Imf@@V?$allocator@UOutSliceInfo@?A0xf57f9ec6@Imf@@@std@@@std@@QAE?AV?$_Vector_iterator@V?$_Vector_val@UOutSliceInfo@?A0xf57f9ec6@Imf@@V?$allocator@UOutSliceInfo@?A0xf57f9ec6@Imf@@@std@@@std@@@2@XZ 10019c40 f i ImfOutputFile.obj
 0001:00018c40       ?end@?$_Tree@V?$_Tmap_traits@PBDP6APAVAttribute@Imf@@XZUNameCompare@?A0x0779e1ad@2@V?$allocator@U?$pair@QBDP6APAVAttribute@Imf@@XZ@std@@@std@@$0A@@std@@@std@@QAE?AV?$_Tree_iterator@V?$_Tree_val@V?$_Tmap_traits@PBDP6APAVAttribute@Imf@@XZUNameCompare@?A0x0779e1ad@2@V?$allocator@U?$pair@QBDP6APAVAttribute@Imf@@XZ@std@@@std@@$0A@@std@@@std@@@2@XZ 10019c40 f i ImfAttribute.obj
 0001:00018c40       ?end@?$vector@V?$basic_string@DU?$char_traits@D@std@@V?$allocator@D@2@@std@@V?$allocator@V?$basic_string@DU?$char_traits@D@std@@V?$allocator@D@2@@std@@@2@@std@@QBE?AV?$_Vector_const_iterator@V?$_Vector_val@V?$basic_string@DU?$char_traits@D@std@@V?$allocator@D@2@@std@@V?$allocator@V?$basic_string@DU?$char_traits@D@std@@V?$allocator@D@2@@std@@@2@@std@@@2@XZ 10019c40 f i ImfStandardAttributes.obj
 0001:00018c40       ?end@?$vector@PAULineBuffer@?A0xf57f9ec6@Imf@@V?$allocator@PAULineBuffer@?A0xf57f9ec6@Imf@@@std@@@std@@QAE?AV?$_Vector_iterator@V?$_Vector_val@PAULineBuffer@?A0xf57f9ec6@Imf@@V?$allocator@PAULineBuffer@?A0xf57f9ec6@Imf@@@std@@@std@@@2@XZ 10019c40 f i ImfOutputFile.obj
 0001:00018c40       ?end@?$vector@UInSliceInfo@?A0xcbf8ace6@Imf@@V?$allocator@UInSliceInfo@?A0xcbf8ace6@Imf@@@std@@@std@@QAE?AV?$_Vector_iterator@V?$_Vector_val@UInSliceInfo@?A0xcbf8ace6@Imf@@V?$allocator@UInSliceInfo@?A0xcbf8ace6@Imf@@@std@@@std@@@2@XZ 10019c40 f i ImfScanLineInputFile.obj
 0001:00018c40       ?end@?$vector@_KV?$allocator@_K@std@@@std@@QAE?AV?$_Vector_iterator@V?$_Vector_val@_KV?$allocator@_K@std@@@std@@@2@XZ 10019c40 f i ImfOutputFile.obj
 0001:00018c40       ?end@?$_Tree@V?$_Tmap_traits@VName@Imf@@UChannel@2@U?$less@VName@Imf@@@std@@V?$allocator@U?$pair@$$CBVName@Imf@@UChannel@2@@std@@@5@$0A@@std@@@std@@QBE?AV?$_Tree_const_iterator@V?$_Tree_val@V?$_Tmap_traits@VName@Imf@@UChannel@2@U?$less@VName@Imf@@@std@@V?$allocator@U?$pair@$$CBVName@Imf@@UChannel@2@@std@@@5@$0A@@std@@@std@@@2@XZ 10019c40 f i ImfChannelList.obj
 0001:00018c40       ?end@?$vector@_KV?$allocator@_K@std@@@std@@QBE?AV?$_Vector_const_iterator@V?$_Vector_val@_KV?$allocator@_K@std@@@std@@@2@XZ 10019c40 f i ImfTiledInputFile.obj
 0001:00018c40       ?end@Header@Imf@@QAE?AVIterator@12@XZ 10019c40 f i ImfHeader.obj
 0001:00018c50       ??9?$_Vector_const_iterator@V?$_Vector_val@UTOutSliceInfo@?A0x39e5c904@Imf@@V?$allocator@UTOutSliceInfo@?A0x39e5c904@Imf@@@std@@@std@@@std@@QBE_NABV01@@Z 10019c50 f i ImfTiledOutputFile.obj
 0001:00018c50       ??9?$_Tree_const_iterator@V?$_Tree_val@V?$_Tmap_traits@VName@Imf@@UChannel@2@U?$less@VName@Imf@@@std@@V?$allocator@U?$pair@$$CBVName@Imf@@UChannel@2@@std@@@5@$0A@@std@@@std@@@std@@QBE_NABV01@@Z 10019c50 f i ImfHeader.obj
 0001:00018c50       ??9?$_Tree_const_iterator@V?$_Tree_val@V?$_Tmap_traits@UTileCoord@?A0x39e5c904@Imf@@PAUBufferedTile@23@U?$less@UTileCoord@?A0x39e5c904@Imf@@@std@@V?$allocator@U?$pair@$$CBUTileCoord@?A0x39e5c904@Imf@@PAUBufferedTile@23@@std@@@6@$0A@@std@@@std@@@std@@QBE_NABV01@@Z 10019c50 f i ImfTiledOutputFile.obj
 0001:00018c50       ??9?$_Vector_const_iterator@V?$_Vector_val@UTInSliceInfo@?A0xf6fcebb6@Imf@@V?$allocator@UTInSliceInfo@?A0xf6fcebb6@Imf@@@std@@@std@@@std@@QBE_NABV01@@Z 10019c50 f i ImfTiledInputFile.obj
 0001:00018c50       ??9?$_Vector_const_iterator@V?$_Vector_val@PAULineBuffer@?A0xcbf8ace6@Imf@@V?$allocator@PAULineBuffer@?A0xcbf8ace6@Imf@@@std@@@std@@@std@@QBE_NABV01@@Z 10019c50 f i ImfScanLineInputFile.obj
 0001:00018c50       ??9?$_Tree_const_iterator@V?$_Tree_val@V?$_Tmap_traits@VName@Imf@@USlice@2@U?$less@VName@Imf@@@std@@V?$allocator@U?$pair@$$CBVName@Imf@@USlice@2@@std@@@5@$0A@@std@@@std@@@std@@QBE_NABV01@@Z 10019c50 f i ImfInputFile.obj
 0001:00018c50       ??9?$_Vector_const_iterator@V?$_Vector_val@PAUTileBuffer@?A0xf6fcebb6@Imf@@V?$allocator@PAUTileBuffer@?A0xf6fcebb6@Imf@@@std@@@std@@@std@@QBE_NABV01@@Z 10019c50 f i ImfTiledInputFile.obj
 0001:00018c50       ??9?$_Vector_const_iterator@V?$_Vector_val@V?$vector@V?$vector@_KV?$allocator@_K@std@@@std@@V?$allocator@V?$vector@_KV?$allocator@_K@std@@@std@@@2@@std@@V?$allocator@V?$vector@V?$vector@_KV?$allocator@_K@std@@@std@@V?$allocator@V?$vector@_KV?$allocator@_K@std@@@std@@@2@@std@@@2@@std@@@std@@QBE_NABV01@@Z 10019c50 f i ImfTiledInputFile.obj
 0001:00018c50       ??9?$_Vector_const_iterator@V?$_Vector_val@V?$basic_string@DU?$char_traits@D@std@@V?$allocator@D@2@@std@@V?$allocator@V?$basic_string@DU?$char_traits@D@std@@V?$allocator@D@2@@std@@@2@@std@@@std@@QBE_NABV01@@Z 10019c50 f i ImfHeader.obj
 0001:00018c50       ??9?$_Vector_const_iterator@V?$_Vector_val@_KV?$allocator@_K@std@@@std@@@std@@QBE_NABV01@@Z 10019c50 f i ImfOutputFile.obj
 0001:00018c50       ??9?$_Vector_const_iterator@V?$_Vector_val@PAUTileBuffer@?A0x39e5c904@Imf@@V?$allocator@PAUTileBuffer@?A0x39e5c904@Imf@@@std@@@std@@@std@@QBE_NABV01@@Z 10019c50 f i ImfTiledOutputFile.obj
 0001:00018c50       ??9?$_Vector_const_iterator@V?$_Vector_val@UInSliceInfo@?A0xcbf8ace6@Imf@@V?$allocator@UInSliceInfo@?A0xcbf8ace6@Imf@@@std@@@std@@@std@@QBE_NABV01@@Z 10019c50 f i ImfScanLineInputFile.obj
 0001:00018c50       ??9?$_Tree_const_iterator@V?$_Tree_val@V?$_Tmap_traits@PBDP6APAVAttribute@Imf@@XZUNameCompare@?A0x0779e1ad@2@V?$allocator@U?$pair@QBDP6APAVAttribute@Imf@@XZ@std@@@std@@$0A@@std@@@std@@@std@@QBE_NABV01@@Z 10019c50 f i ImfAttribute.obj
 0001:00018c50       ??9?$_Vector_const_iterator@V?$_Vector_val@UOutSliceInfo@?A0xf57f9ec6@Imf@@V?$allocator@UOutSliceInfo@?A0xf57f9ec6@Imf@@@std@@@std@@@std@@QBE_NABV01@@Z 10019c50 f i ImfOutputFile.obj
 0001:00018c50       ??9?$_Vector_const_iterator@V?$_Vector_val@IV?$allocator@I@std@@@std@@@std@@QBE_NABV01@@Z 10019c50 f i ImfMisc.obj
 0001:00018c50       ??9?$_Vector_const_iterator@V?$_Vector_val@V?$vector@_KV?$allocator@_K@std@@@std@@V?$allocator@V?$vector@_KV?$allocator@_K@std@@@std@@@2@@std@@@std@@QBE_NABV01@@Z 10019c50 f i ImfTiledInputFile.obj
 0001:00018c50       ??9?$_Vector_const_iterator@V?$_Vector_val@PAULineBuffer@?A0xf57f9ec6@Imf@@V?$allocator@PAULineBuffer@?A0xf57f9ec6@Imf@@@std@@@std@@@std@@QBE_NABV01@@Z 10019c50 f i ImfOutputFile.obj
 0001:00018c50       ??9?$_Tree_const_iterator@V?$_Tree_val@V?$_Tmap_traits@VName@Imf@@PAVAttribute@2@U?$less@VName@Imf@@@std@@V?$allocator@U?$pair@$$CBVName@Imf@@PAVAttribute@2@@std@@@5@$0A@@std@@@std@@@std@@QBE_NABV01@@Z 10019c50 f i ImfHeader.obj
 0001:00018c70       ??$_Copy_impl@PAV?$basic_string@DU?$char_traits@D@std@@V?$allocator@D@2@@std@@PAV12@@std@@YAPAV?$basic_string@DU?$char_traits@D@std@@V?$allocator@D@2@@0@PAV10@00U_Nonscalar_ptr_iterator_tag@0@@Z 10019c70 f i ImfHeader.obj
 0001:00018cb0       ??4?$basic_string@DU?$char_traits@D@std@@V?$allocator@D@2@@std@@QAEAAV01@$$QAV01@@Z 10019cb0 f i ImfHeader.obj
 0001:00018cc0       ??$_Copy_impl@PAV?$basic_string@DU?$char_traits@D@std@@V?$allocator@D@2@@std@@PAV12@@std@@YAPAV?$basic_string@DU?$char_traits@D@std@@V?$allocator@D@2@@0@PAV10@00@Z 10019cc0 f i ImfHeader.obj
 0001:00018cf0       ??$_Move@PAV?$basic_string@DU?$char_traits@D@std@@V?$allocator@D@2@@std@@PAV12@@std@@YAPAV?$basic_string@DU?$char_traits@D@std@@V?$allocator@D@2@@0@PAV10@00U_Nonscalar_ptr_iterator_tag@0@@Z 10019cf0 f i ImfHeader.obj
 0001:00018d80       ??$_Move@PAV?$basic_string@DU?$char_traits@D@std@@V?$allocator@D@2@@std@@PAV12@@std@@YAPAV?$basic_string@DU?$char_traits@D@std@@V?$allocator@D@2@@0@PAV10@00@Z 10019d80 f i ImfHeader.obj
 0001:00018da0       ??$_Uninit_copy@PAV?$basic_string@DU?$char_traits@D@std@@V?$allocator@D@2@@std@@PAV12@V?$allocator@V?$basic_string@DU?$char_traits@D@std@@V?$allocator@D@2@@std@@@2@@std@@YAPAV?$basic_string@DU?$char_traits@D@std@@V?$allocator@D@2@@0@PAV10@00AAV?$allocator@V?$basic_string@DU?$char_traits@D@std@@V?$allocator@D@2@@std@@@0@U_Nonscalar_ptr_iterator_tag@0@@Z 10019da0 f i ImfHeader.obj
 0001:00018e50       ??$_Uninitialized_copy@PAV?$basic_string@DU?$char_traits@D@std@@V?$allocator@D@2@@std@@PAV12@V?$allocator@V?$basic_string@DU?$char_traits@D@std@@V?$allocator@D@2@@std@@@2@@std@@YAPAV?$basic_string@DU?$char_traits@D@std@@V?$allocator@D@2@@0@PAV10@00AAV?$allocator@V?$basic_string@DU?$char_traits@D@std@@V?$allocator@D@2@@std@@@0@@Z 10019e50 f i ImfHeader.obj
 0001:00018e80       ?erase@?$vector@V?$basic_string@DU?$char_traits@D@std@@V?$allocator@D@2@@std@@V?$allocator@V?$basic_string@DU?$char_traits@D@std@@V?$allocator@D@2@@std@@@2@@std@@QAE?AV?$_Vector_iterator@V?$_Vector_val@V?$basic_string@DU?$char_traits@D@std@@V?$allocator@D@2@@std@@V?$allocator@V?$basic_string@DU?$char_traits@D@std@@V?$allocator@D@2@@std@@@2@@std@@@2@V?$_Vector_const_iterator@V?$_Vector_val@V?$basic_string@DU?$char_traits@D@std@@V?$allocator@D@2@@std@@V?$allocator@V?$basic_string@DU?$char_traits@D@std@@V?$allocator@D@2@@std@@@2@@std@@@2@0@Z 10019e80 f i ImfHeader.obj
 0001:00018ed0       ??$_Ucopy@PAV?$basic_string@DU?$char_traits@D@std@@V?$allocator@D@2@@std@@@?$vector@V?$basic_string@DU?$char_traits@D@std@@V?$allocator@D@2@@std@@V?$allocator@V?$basic_string@DU?$char_traits@D@std@@V?$allocator@D@2@@std@@@2@@std@@IAEPAV?$basic_string@DU?$char_traits@D@std@@V?$allocator@D@2@@1@PAV21@00@Z 10019ed0 f i ImfHeader.obj
 0001:00018f00       ?clear@?$vector@V?$basic_string@DU?$char_traits@D@std@@V?$allocator@D@2@@std@@V?$allocator@V?$basic_string@DU?$char_traits@D@std@@V?$allocator@D@2@@std@@@2@@std@@QAEXXZ 10019f00 f i ImfHeader.obj
 0001:00018f40       ?makeNewAttribute@?$TypedAttribute@V?$vector@V?$basic_string@DU?$char_traits@D@std@@V?$allocator@D@2@@std@@V?$allocator@V?$basic_string@DU?$char_traits@D@std@@V?$allocator@D@2@@std@@@2@@std@@@Imf@@SAPAVAttribute@2@XZ 10019f40 f i ImfHeader.obj
 0001:00018fc0       ?initialize@?A0x1f5ff9f2@Imf@@YAXAAVHeader@2@ABV?$Box@V?$Vec2@H@Imath@@@Imath@@1MABV?$Vec2@M@5@MW4LineOrder@2@W4Compression@2@@Z 10019fc0 f   ImfHeader.obj
 0001:000192b0       ?copyValueFrom@?$TypedAttribute@VChannelList@Imf@@@Imf@@UAEXABVAttribute@2@@Z 1001a2b0 f i ImfHeader.obj
 0001:00019340       ?registerAttributeType@?$TypedAttribute@VChannelList@Imf@@@Imf@@SAXXZ 1001a340 f i ImfHeader.obj
 0001:00019360       ??1?$TypedAttribute@V?$vector@V?$basic_string@DU?$char_traits@D@std@@V?$allocator@D@2@@std@@V?$allocator@V?$basic_string@DU?$char_traits@D@std@@V?$allocator@D@2@@std@@@2@@std@@@Imf@@UAE@XZ 1001a360 f i ImfHeader.obj
 0001:000193c0       ?copy@?$TypedAttribute@V?$vector@V?$basic_string@DU?$char_traits@D@std@@V?$allocator@D@2@@std@@V?$allocator@V?$basic_string@DU?$char_traits@D@std@@V?$allocator@D@2@@std@@@2@@std@@@Imf@@UBEPAVAttribute@2@XZ 1001a3c0 f i ImfHeader.obj
 0001:00019440       ?registerAttributeType@?$TypedAttribute@V?$vector@V?$basic_string@DU?$char_traits@D@std@@V?$allocator@D@2@@std@@V?$allocator@V?$basic_string@DU?$char_traits@D@std@@V?$allocator@D@2@@std@@@2@@std@@@Imf@@SAXXZ 1001a440 f i ImfHeader.obj
 0001:00019460       ??_G?$TypedAttribute@V?$vector@V?$basic_string@DU?$char_traits@D@std@@V?$allocator@D@2@@std@@V?$allocator@V?$basic_string@DU?$char_traits@D@std@@V?$allocator@D@2@@std@@@2@@std@@@Imf@@UAEPAXI@Z 1001a460 f i ImfHeader.obj
 0001:00019460       ??_E?$TypedAttribute@V?$vector@V?$basic_string@DU?$char_traits@D@std@@V?$allocator@D@2@@std@@V?$allocator@V?$basic_string@DU?$char_traits@D@std@@V?$allocator@D@2@@std@@@2@@std@@@Imf@@UAEPAXI@Z 1001a460 f i ImfHeader.obj
 0001:000194d0       ??4?$vector@V?$basic_string@DU?$char_traits@D@std@@V?$allocator@D@2@@std@@V?$allocator@V?$basic_string@DU?$char_traits@D@std@@V?$allocator@D@2@@std@@@2@@std@@QAEAAV01@ABV01@@Z 1001a4d0 f i ImfHeader.obj
 0001:00019680       ?staticInitialize@Imf@@YAXXZ 1001a680 f   ImfHeader.obj
 0001:00019930       ?copyValueFrom@?$TypedAttribute@V?$vector@V?$basic_string@DU?$char_traits@D@std@@V?$allocator@D@2@@std@@V?$allocator@V?$basic_string@DU?$char_traits@D@std@@V?$allocator@D@2@@std@@@2@@std@@@Imf@@UAEXABVAttribute@2@@Z 1001a930 f i ImfHeader.obj
 0001:000199a0       ??0Header@Imf@@QAE@HHMABV?$Vec2@M@Imath@@MW4LineOrder@1@W4Compression@1@@Z 1001a9a0 f   ImfHeader.obj
 0001:00019aa0       ??0Header@Imf@@QAE@HHABV?$Box@V?$Vec2@H@Imath@@@Imath@@MABV?$Vec2@M@3@MW4LineOrder@1@W4Compression@1@@Z 1001aaa0 f   ImfHeader.obj
 0001:00019ba0       ??0Header@Imf@@QAE@ABV?$Box@V?$Vec2@H@Imath@@@Imath@@0MABV?$Vec2@M@3@MW4LineOrder@1@W4Compression@1@@Z 1001aba0 f   ImfHeader.obj
 0001:00019c90       ?invalidNBits@?A0xc87c6bb7@Imf@@YAXXZ 1001ac90 f   ImfHuf.obj
 0001:00019cd0       ?tooMuchData@?A0xc87c6bb7@Imf@@YAXXZ 1001acd0 f   ImfHuf.obj
 0001:00019d10       ?notEnoughData@?A0xc87c6bb7@Imf@@YAXXZ 1001ad10 f   ImfHuf.obj
 0001:00019d50       ?invalidCode@?A0xc87c6bb7@Imf@@YAXXZ 1001ad50 f   ImfHuf.obj
 0001:00019d90       ?invalidTableSize@?A0xc87c6bb7@Imf@@YAXXZ 1001ad90 f   ImfHuf.obj
 0001:00019dd0       ?unexpectedEndOfTable@?A0xc87c6bb7@Imf@@YAXXZ 1001add0 f   ImfHuf.obj
 0001:00019e10       ?tableTooLong@?A0xc87c6bb7@Imf@@YAXXZ 1001ae10 f   ImfHuf.obj
 0001:00019e50       ?invalidTableEntry@?A0xc87c6bb7@Imf@@YAXXZ 1001ae50 f   ImfHuf.obj
 0001:00019e90       ?hufLength@?A0xc87c6bb7@Imf@@YA_K_K@Z 1001ae90 f i ImfHuf.obj
 0001:00019ea0       ?hufCode@?A0xc87c6bb7@Imf@@YA_K_K@Z 1001aea0 f i ImfHuf.obj
 0001:00019ec0       ?outputBits@?A0xc87c6bb7@Imf@@YAXH_KAA_KAAHAAPAD@Z 1001aec0 f i ImfHuf.obj
 0001:00019f20       ?getBits@?A0xc87c6bb7@Imf@@YA_KHAA_KAAHAAPBD@Z 1001af20 f i ImfHuf.obj
 0001:00019f90       ?hufCanonicalCodeTable@?A0xc87c6bb7@Imf@@YAXQA_K@Z 1001af90 f   ImfHuf.obj
 0001:0001a0e0       ??RFHeapCompare@?A0xc87c6bb7@Imf@@QAE_NPA_K0@Z 1001b0e0 f i ImfHuf.obj
 0001:0001a110       ?hufPackEncTable@?A0xc87c6bb7@Imf@@YAXPB_KHHPAPAD@Z 1001b110 f   ImfHuf.obj
 0001:0001a270       ?hufUnpackEncTable@?A0xc87c6bb7@Imf@@YAXPAPBDHHHPA_K@Z 1001b270 f   ImfHuf.obj
 0001:0001a380       ?hufClearDecTable@?A0xc87c6bb7@Imf@@YAXPAUHufDec@12@@Z 1001b380 f   ImfHuf.obj
 0001:0001a3a0       ?hufBuildDecTable@?A0xc87c6bb7@Imf@@YAXPB_KHHPAUHufDec@12@@Z 1001b3a0 f   ImfHuf.obj
 0001:0001a520       ?hufFreeDecTable@?A0xc87c6bb7@Imf@@YAXPAUHufDec@12@@Z 1001b520 f   ImfHuf.obj
 0001:0001a550       ?outputCode@?A0xc87c6bb7@Imf@@YAX_KAA_KAAHAAPAD@Z 1001b550 f i ImfHuf.obj
 0001:0001a580       ?sendCode@?A0xc87c6bb7@Imf@@YAX_KH0AA_KAAHAAPAD@Z 1001b580 f i ImfHuf.obj
 0001:0001a670       ?hufEncode@?A0xc87c6bb7@Imf@@YAHPB_KPBGHHPAD@Z 1001b670 f   ImfHuf.obj
 0001:0001a880       ?hufDecode@?A0xc87c6bb7@Imf@@YAXPB_KPBUHufDec@12@PBDHHHPAG@Z 1001b880 f   ImfHuf.obj
 0001:0001ac80       ?countFrequencies@?A0xc87c6bb7@Imf@@YAXQA_KQBGH@Z 1001bc80 f   ImfHuf.obj
 0001:0001acd0       ?writeUInt@?A0xc87c6bb7@Imf@@YAXQADI@Z 1001bcd0 f   ImfHuf.obj
 0001:0001ad00       ?readUInt@?A0xc87c6bb7@Imf@@YAIQBD@Z 1001bd00 f   ImfHuf.obj
 0001:0001ad30       ??0?$AutoArray@H$0BAAAB@@Imf@@QAE@XZ 1001bd30 f i ImfHuf.obj
 0001:0001ad30       ??0?$AutoArray@PA_K$0BAAAB@@Imf@@QAE@XZ 1001bd30 f i ImfHuf.obj
 0001:0001ad60       ??0?$AutoArray@_K$0BAAAB@@Imf@@QAE@XZ 1001bd60 f i ImfHuf.obj
 0001:0001ad90       ??1?$halfFunction@Vhalf@@@@QAE@XZ 1001bd90 f i ImfCRgbaFile.obj
 0001:0001ad90       ??1?$AutoArray@UHufDec@?A0xc87c6bb7@Imf@@$0EAAA@@Imf@@QAE@XZ 1001bd90 f i ImfHuf.obj
 0001:0001ad90       ??1BufferedTile@?A0x39e5c904@Imf@@QAE@XZ 1001bd90 f i ImfTiledOutputFile.obj
 0001:0001ad90       ??1RgbaLut@Imf@@QAE@XZ     1001bd90 f i ImfCRgbaFile.obj
 0001:0001ad90       ??1?$Array@D@Imf@@QAE@XZ   1001bd90 f i ImfOpaqueAttribute.obj
 0001:0001ad90       ??1?$AutoArray@PA_K$0BAAAB@@Imf@@QAE@XZ 1001bd90 f i ImfHuf.obj
 0001:0001ad90       ??1?$AutoArray@_K$0BAAAB@@Imf@@QAE@XZ 1001bd90 f i ImfHuf.obj
 0001:0001ad90       ??1?$AutoArray@E$0CAAA@@Imf@@QAE@XZ 1001bd90 f i ImfPizCompressor.obj
 0001:0001ad90       ??1?$AutoArray@H$0BAAAB@@Imf@@QAE@XZ 1001bd90 f i ImfHuf.obj
 0001:0001ad90       ??1?$AutoArray@G$0BAAAA@@Imf@@QAE@XZ 1001bd90 f i ImfPizCompressor.obj
 0001:0001ada0       ??$_Push_heap@PAPA_KHPA_KUFHeapCompare@?A0xc87c6bb7@Imf@@@std@@YAXPAPA_KHH$$QAPA_KUFHeapCompare@?A0xc87c6bb7@Imf@@@Z 1001bda0 f i ImfHuf.obj
 0001:0001ae10       ?hufUncompress@Imf@@YAXQBDHQAGH@Z 1001be10 f   ImfHuf.obj
 0001:0001afa0       ??$_Push_heap_0@PAPA_KHPA_KUFHeapCompare@?A0xc87c6bb7@Imf@@@std@@YAXPAPA_K0UFHeapCompare@?A0xc87c6bb7@Imf@@PAH0@Z 1001bfa0 f i ImfHuf.obj
 0001:0001afd0       ??$_Adjust_heap@PAPA_KHPA_KUFHeapCompare@?A0xc87c6bb7@Imf@@@std@@YAXPAPA_KHH$$QAPA_KUFHeapCompare@?A0xc87c6bb7@Imf@@@Z 1001bfd0 f i ImfHuf.obj
 0001:0001b050       ??$_Pop_heap@PAPA_KHPA_KUFHeapCompare@?A0xc87c6bb7@Imf@@@std@@YAXPAPA_K00$$QAPA_KUFHeapCompare@?A0xc87c6bb7@Imf@@PAH@Z 1001c050 f i ImfHuf.obj
 0001:0001b080       ??$push_heap@PAPA_KUFHeapCompare@?A0xc87c6bb7@Imf@@@std@@YAXPAPA_K0UFHeapCompare@?A0xc87c6bb7@Imf@@@Z 1001c080 f i ImfHuf.obj
 0001:0001b0c0       ??$_Make_heap@PAPA_KHPA_KUFHeapCompare@?A0xc87c6bb7@Imf@@@std@@YAXPAPA_K0UFHeapCompare@?A0xc87c6bb7@Imf@@PAH0@Z 1001c0c0 f i ImfHuf.obj
 0001:0001b160       ??$_Pop_heap@PAPA_KUFHeapCompare@?A0xc87c6bb7@Imf@@@std@@YAXPAPA_K0UFHeapCompare@?A0xc87c6bb7@Imf@@@Z 1001c160 f i ImfHuf.obj
 0001:0001b160       ??$_Pop_heap_0@PAPA_KPA_KUFHeapCompare@?A0xc87c6bb7@Imf@@@std@@YAXPAPA_K0UFHeapCompare@?A0xc87c6bb7@Imf@@0@Z 1001c160 f i ImfHuf.obj
 0001:0001b1a0       ??$make_heap@PAPA_KUFHeapCompare@?A0xc87c6bb7@Imf@@@std@@YAXPAPA_K0UFHeapCompare@?A0xc87c6bb7@Imf@@@Z 1001c1a0 f i ImfHuf.obj
 0001:0001b1d0       ??$pop_heap@PAPA_KUFHeapCompare@?A0xc87c6bb7@Imf@@@std@@YAXPAPA_K0UFHeapCompare@?A0xc87c6bb7@Imf@@@Z 1001c1d0 f i ImfHuf.obj
 0001:0001b210       ?hufBuildEncTable@?A0xc87c6bb7@Imf@@YAXPA_KPAH1@Z 1001c210 f   ImfHuf.obj
 0001:0001b4d0       ?hufCompress@Imf@@YAHQBGHQAD@Z 1001c4d0 f   ImfHuf.obj
 0001:0001b630       ?isTiled@Imf@@YA_NH@Z      1001c630 f i ImfInputFile.obj
 0001:0001b640       ?initialize@InputFile@Imf@@AAEXXZ 1001c640 f   ImfInputFile.obj
 0001:0001b780       ??1InputFile@Imf@@UAE@XZ   1001c780 f   ImfInputFile.obj
 0001:0001b7a0       ?fileName@InputFile@Imf@@QBEPBDXZ 1001c7a0 f   ImfInputFile.obj
 0001:0001b7b0       ?frameBuffer@InputFile@Imf@@QBEABVFrameBuffer@2@XZ 1001c7b0 f   ImfInputFile.obj
 0001:0001b7f0       ?isComplete@InputFile@Imf@@QBE_NXZ 1001c7f0 f   ImfInputFile.obj
 0001:0001b810       ?tFile@InputFile@Imf@@AAEPAVTiledInputFile@2@XZ 1001c810 f   ImfInputFile.obj
 0001:0001b870       ??$max@H@std@@YAABHABH0@Z  1001c870 f i ImfInputFile.obj
 0001:0001b890       ??_EInputFile@Imf@@UAEPAXI@Z 1001c890 f i ImfInputFile.obj
 0001:0001b890       ??_GInputFile@Imf@@UAEPAXI@Z 1001c890 f i ImfInputFile.obj
 0001:0001b8d0       ??$?6DU?$char_traits@D@std@@V?$allocator@D@1@@std@@YAAAV?$basic_ostream@DU?$char_traits@D@std@@@0@AAV10@ABV?$basic_string@DU?$char_traits@D@std@@V?$allocator@D@2@@0@@Z 1001c8d0 f i ImfInputFile.obj
 0001:0001bb00       ?slice@Iterator@FrameBuffer@Imf@@QBEAAUSlice@3@XZ 1001cb00 f i ImfInputFile.obj
 0001:0001bb00       ?slice@ConstIterator@FrameBuffer@Imf@@QBEABUSlice@3@XZ 1001cb00 f i ImfInputFile.obj
 0001:0001bb10       ??0?$_Tree_val@V?$_Tmap_traits@VName@Imf@@USlice@2@U?$less@VName@Imf@@@std@@V?$allocator@U?$pair@$$CBVName@Imf@@USlice@2@@std@@@5@$0A@@std@@@std@@QAE@ABU?$less@VName@Imf@@@1@V?$allocator@U?$pair@$$CBVName@Imf@@USlice@2@@std@@@1@@Z 1001cb10 f i ImfInputFile.obj
 0001:0001bb10       ??0?$_Tree@V?$_Tmap_traits@VName@Imf@@USlice@2@U?$less@VName@Imf@@@std@@V?$allocator@U?$pair@$$CBVName@Imf@@USlice@2@@std@@@5@$0A@@std@@@std@@QAE@ABU?$less@VName@Imf@@@1@ABV?$allocator@U?$pair@$$CBVName@Imf@@USlice@2@@std@@@1@@Z 1001cb10 f i ImfInputFile.obj
 0001:0001bb90       ?erase@?$_Tree@V?$_Tmap_traits@VName@Imf@@USlice@2@U?$less@VName@Imf@@@std@@V?$allocator@U?$pair@$$CBVName@Imf@@USlice@2@@std@@@5@$0A@@std@@@std@@QAE?AV?$_Tree_iterator@V?$_Tree_val@V?$_Tmap_traits@VName@Imf@@USlice@2@U?$less@VName@Imf@@@std@@V?$allocator@U?$pair@$$CBVName@Imf@@USlice@2@@std@@@5@$0A@@std@@@std@@@2@V?$_Tree_const_iterator@V?$_Tree_val@V?$_Tmap_traits@VName@Imf@@USlice@2@U?$less@VName@Imf@@@std@@V?$allocator@U?$pair@$$CBVName@Imf@@USlice@2@@std@@@5@$0A@@std@@@std@@@2@@Z 1001cb90 f i ImfInputFile.obj
 0001:0001be70       ??E?$_Tree_const_iterator@V?$_Tree_val@V?$_Tmap_traits@VName@Imf@@USlice@2@U?$less@VName@Imf@@@std@@V?$allocator@U?$pair@$$CBVName@Imf@@USlice@2@@std@@@5@$0A@@std@@@std@@@std@@QAE?AV01@H@Z 1001ce70 f i ImfInputFile.obj
 0001:0001be90       ?_Erase@?$_Tree@V?$_Tmap_traits@VName@Imf@@USlice@2@U?$less@VName@Imf@@@std@@V?$allocator@U?$pair@$$CBVName@Imf@@USlice@2@@std@@@5@$0A@@std@@@std@@IAEXPAU_Node@?$_Tree_nod@V?$_Tmap_traits@VName@Imf@@USlice@2@U?$less@VName@Imf@@@std@@V?$allocator@U?$pair@$$CBVName@Imf@@USlice@2@@std@@@5@$0A@@std@@@2@@Z 1001ce90 f i ImfInputFile.obj
 0001:0001bed0       ?construct@?$allocator@U?$pair@$$CBVName@Imf@@USlice@2@@std@@@std@@QAEXPAU?$pair@$$CBVName@Imf@@USlice@2@@2@$$QAU32@@Z 1001ced0 f i ImfFrameBuffer.obj
 0001:0001bed0       ??$construct@AAU?$pair@$$CBVName@Imf@@USlice@2@@std@@@?$allocator@U?$pair@$$CBVName@Imf@@USlice@2@@std@@@std@@QAEXPAU?$pair@$$CBVName@Imf@@USlice@2@@1@AAU21@@Z 1001ced0 f i ImfInputFile.obj
 0001:0001bef0       ?bufferedReadPixels@?A0x60dcbc02@Imf@@YAXPAUData@InputFile@2@HH@Z 1001cef0 f   ImfInputFile.obj
 0001:0001c350       ?readPixels@InputFile@Imf@@QAEXHH@Z 1001d350 f   ImfInputFile.obj
 0001:0001c400       ?readPixels@InputFile@Imf@@QAEXH@Z 1001d400 f   ImfInputFile.obj
 0001:0001c420       ?rawPixelData@InputFile@Imf@@QAEXHAAPBDAAH@Z 1001d420 f   ImfInputFile.obj
 0001:0001c5c0       ?rawTileData@InputFile@Imf@@QAEXAAH000AAPBD0@Z 1001d5c0 f   ImfInputFile.obj
 0001:0001c780       ?clear@?$_Tree@V?$_Tmap_traits@VName@Imf@@USlice@2@U?$less@VName@Imf@@@std@@V?$allocator@U?$pair@$$CBVName@Imf@@USlice@2@@std@@@5@$0A@@std@@@std@@QAEXXZ 1001d780 f i ImfInputFile.obj
 0001:0001c7e0       ??$_Cons_val@V?$allocator@U?$pair@$$CBVName@Imf@@USlice@2@@std@@@std@@U?$pair@$$CBVName@Imf@@USlice@2@@2@U32@@std@@YAXAAV?$allocator@U?$pair@$$CBVName@Imf@@USlice@2@@std@@@0@PAU?$pair@$$CBVName@Imf@@USlice@2@@0@$$QAU20@@Z 1001d7e0 f i ImfFrameBuffer.obj
 0001:0001c7e0       ??$_Cons_val@V?$allocator@U?$pair@$$CBVName@Imf@@USlice@2@@std@@@std@@U?$pair@$$CBVName@Imf@@USlice@2@@2@AAU32@@std@@YAXAAV?$allocator@U?$pair@$$CBVName@Imf@@USlice@2@@std@@@0@PAU?$pair@$$CBVName@Imf@@USlice@2@@0@AAU20@@Z 1001d7e0 f i ImfInputFile.obj
 0001:0001c800       ?erase@?$_Tree@V?$_Tmap_traits@VName@Imf@@USlice@2@U?$less@VName@Imf@@@std@@V?$allocator@U?$pair@$$CBVName@Imf@@USlice@2@@std@@@5@$0A@@std@@@std@@QAE?AV?$_Tree_iterator@V?$_Tree_val@V?$_Tmap_traits@VName@Imf@@USlice@2@U?$less@VName@Imf@@@std@@V?$allocator@U?$pair@$$CBVName@Imf@@USlice@2@@std@@@5@$0A@@std@@@std@@@2@V?$_Tree_const_iterator@V?$_Tree_val@V?$_Tmap_traits@VName@Imf@@USlice@2@U?$less@VName@Imf@@@std@@V?$allocator@U?$pair@$$CBVName@Imf@@USlice@2@@std@@@5@$0A@@std@@@std@@@2@0@Z 1001d800 f i ImfInputFile.obj
 0001:0001c8c0       ?_Tidy@?$_Tree@V?$_Tmap_traits@VName@Imf@@USlice@2@U?$less@VName@Imf@@@std@@V?$allocator@U?$pair@$$CBVName@Imf@@USlice@2@@std@@@5@$0A@@std@@@std@@IAEXXZ 1001d8c0 f i ImfInputFile.obj
 0001:0001c8e0       ?_Copy@?$_Tree@V?$_Tmap_traits@VName@Imf@@USlice@2@U?$less@VName@Imf@@@std@@V?$allocator@U?$pair@$$CBVName@Imf@@USlice@2@@std@@@5@$0A@@std@@@std@@IAEPAU_Node@?$_Tree_nod@V?$_Tmap_traits@VName@Imf@@USlice@2@U?$less@VName@Imf@@@std@@V?$allocator@U?$pair@$$CBVName@Imf@@USlice@2@@std@@@5@$0A@@std@@@2@PAU342@0@Z 1001d8e0 f i ImfInputFile.obj
 0001:0001c9a0       ?_Copy@?$_Tree@V?$_Tmap_traits@VName@Imf@@USlice@2@U?$less@VName@Imf@@@std@@V?$allocator@U?$pair@$$CBVName@Imf@@USlice@2@@std@@@5@$0A@@std@@@std@@IAEXABV12@@Z 1001d9a0 f i ImfInputFile.obj
 0001:0001ca30       ??0FrameBuffer@Imf@@QAE@XZ 1001da30 f i ImfInputFile.obj
 0001:0001ca30       ??0?$map@VName@Imf@@USlice@2@U?$less@VName@Imf@@@std@@V?$allocator@U?$pair@$$CBVName@Imf@@USlice@2@@std@@@5@@std@@QAE@XZ 1001da30 f i ImfInputFile.obj
 0001:0001cab0       ??1FrameBuffer@Imf@@QAE@XZ 1001dab0 f i ImfInputFile.obj
 0001:0001cab0       ??1?$map@VName@Imf@@USlice@2@U?$less@VName@Imf@@@std@@V?$allocator@U?$pair@$$CBVName@Imf@@USlice@2@@std@@@5@@std@@QAE@XZ 1001dab0 f i ImfInputFile.obj
 0001:0001cab0       ??1?$_Tree@V?$_Tmap_traits@VName@Imf@@USlice@2@U?$less@VName@Imf@@@std@@V?$allocator@U?$pair@$$CBVName@Imf@@USlice@2@@std@@@5@$0A@@std@@@std@@QAE@XZ 1001dab0 f i ImfInputFile.obj
 0001:0001cb10       ??_GFrameBuffer@Imf@@QAEPAXI@Z 1001db10 f i ImfInputFile.obj
 0001:0001cb90       ??4?$_Tree@V?$_Tmap_traits@VName@Imf@@USlice@2@U?$less@VName@Imf@@@std@@V?$allocator@U?$pair@$$CBVName@Imf@@USlice@2@@std@@@5@$0A@@std@@@std@@QAEAAV01@ABV01@@Z 1001db90 f i ImfInputFile.obj
 0001:0001cb90       ??4FrameBuffer@Imf@@QAEAAV01@ABV01@@Z 1001db90 f i ImfInputFile.obj
 0001:0001cb90       ??4?$map@VName@Imf@@USlice@2@U?$less@VName@Imf@@@std@@V?$allocator@U?$pair@$$CBVName@Imf@@USlice@2@@std@@@5@@std@@QAEAAV01@ABV01@@Z 1001db90 f i ImfInputFile.obj
 0001:0001cbc0       ??0Data@InputFile@Imf@@QAE@_NH@Z 1001dbc0 f   ImfInputFile.obj
 0001:0001ccd0       ?deleteCachedBuffer@Data@InputFile@Imf@@QAEXXZ 1001dcd0 f   ImfInputFile.obj
 0001:0001cdd0       ??0InputFile@Imf@@QAE@QBDH@Z 1001ddd0 f   ImfInputFile.obj
 0001:0001cfa0       ??0InputFile@Imf@@QAE@AAVIStream@1@H@Z 1001dfa0 f   ImfInputFile.obj
 0001:0001d150       ??1Data@InputFile@Imf@@UAE@XZ 1001e150 f   ImfInputFile.obj
 0001:0001d220       ?setFrameBuffer@InputFile@Imf@@QAEXABVFrameBuffer@2@@Z 1001e220 f   ImfInputFile.obj
 0001:0001d750       ??_EData@InputFile@Imf@@UAEPAXI@Z 1001e750 f i ImfInputFile.obj
 0001:0001d750       ??_GData@InputFile@Imf@@UAEPAXI@Z 1001e750 f i ImfInputFile.obj
 0001:0001d780       ?staticTypeName@?$TypedAttribute@H@Imf@@SAPBDXZ 1001e780 f   ImfIntAttribute.obj
 0001:0001d790       ?readMemoryMapped@IStream@Imf@@UAEPADH@Z 1001e790 f   ImfIO.obj
 0001:0001d7d0       ?fileName@OStream@Imf@@QBEPBDXZ 1001e7d0 f   ImfIO.obj
 0001:0001d7d0       ?fileName@IStream@Imf@@QBEPBDXZ 1001e7d0 f   ImfIO.obj
 0001:0001d7e0       ??1IStream@Imf@@UAE@XZ     1001e7e0 f   ImfIO.obj
 0001:0001d810       ??1OStream@Imf@@UAE@XZ     1001e810 f   ImfIO.obj
 0001:0001d840       ??_GIStream@Imf@@UAEPAXI@Z 1001e840 f i ImfIO.obj
 0001:0001d840       ??_EIStream@Imf@@UAEPAXI@Z 1001e840 f i ImfIO.obj
 0001:0001d890       ??_GOStream@Imf@@UAEPAXI@Z 1001e890 f i ImfIO.obj
 0001:0001d890       ??_EOStream@Imf@@UAEPAXI@Z 1001e890 f i ImfIO.obj
 0001:0001d8e0       ??0IStream@Imf@@IAE@QBD@Z  1001e8e0 f   ImfIO.obj
 0001:0001d930       ??0OStream@Imf@@IAE@QBD@Z  1001e930 f   ImfIO.obj
 0001:0001d980       ??0KeyCode@Imf@@QAE@ABV01@@Z 1001e980 f   ImfKeyCode.obj
 0001:0001d980       ??4KeyCode@Imf@@QAEAAV01@ABV01@@Z 1001e980 f   ImfKeyCode.obj
 0001:0001d9c0       ?setFilmMfcCode@KeyCode@Imf@@QAEXH@Z 1001e9c0 f   ImfKeyCode.obj
 0001:0001da10       ?setFilmType@KeyCode@Imf@@QAEXH@Z 1001ea10 f   ImfKeyCode.obj
 0001:0001da60       ?size@?$_Tree@V?$_Tmap_traits@VName@Imf@@PAVAttribute@2@U?$less@VName@Imf@@@std@@V?$allocator@U?$pair@$$CBVName@Imf@@PAVAttribute@2@@std@@@5@$0A@@std@@@std@@QBEIXZ 1001ea60 f   ImfHeader.obj
 0001:0001da60       ?pixels@PreviewImage@Imf@@QBEPBUPreviewRgba@2@XZ 1001ea60 f   ImfPreviewImageAttribute.obj
 0001:0001da60       ?prefix@KeyCode@Imf@@QBEHXZ 1001ea60 f   ImfKeyCode.obj
 0001:0001da60       ?size@?$_Tree@V?$_Tmap_traits@VName@Imf@@UChannel@2@U?$less@VName@Imf@@@std@@V?$allocator@U?$pair@$$CBVName@Imf@@UChannel@2@@std@@@5@$0A@@std@@@std@@QBEIXZ 1001ea60 f   ImfChannelList.obj
 0001:0001da60       ?size@?$_Tree@V?$_Tmap_traits@UTileCoord@?A0x39e5c904@Imf@@PAUBufferedTile@23@U?$less@UTileCoord@?A0x39e5c904@Imf@@@std@@V?$allocator@U?$pair@$$CBUTileCoord@?A0x39e5c904@Imf@@PAUBufferedTile@23@@std@@@6@$0A@@std@@@std@@QBEIXZ 1001ea60 f   ImfTiledOutputFile.obj
 0001:0001da60       ?size@?$_Tree@V?$_Tmap_traits@VName@Imf@@USlice@2@U?$less@VName@Imf@@@std@@V?$allocator@U?$pair@$$CBVName@Imf@@USlice@2@@std@@@5@$0A@@std@@@std@@QBEIXZ 1001ea60 f   ImfFrameBuffer.obj
 0001:0001da60       ?pixels@PreviewImage@Imf@@QAEPAUPreviewRgba@2@XZ 1001ea60 f   ImfOutputFile.obj
 0001:0001da70       ?setPrefix@KeyCode@Imf@@QAEXH@Z 1001ea70 f   ImfKeyCode.obj
 0001:0001dac0       ?setCount@KeyCode@Imf@@QAEXH@Z 1001eac0 f   ImfKeyCode.obj
 0001:0001db10       ?perfOffset@KeyCode@Imf@@QBEHXZ 1001eb10 f   ImfKeyCode.obj
 0001:0001db10       ?numScanLines@PizCompressor@Imf@@UBEHXZ 1001eb10 f   ImfPizCompressor.obj
 0001:0001db10       ?state@?$fpos@H@std@@QBEHXZ 1001eb10 f   ImfStdIO.obj
 0001:0001db10       ?size@?$basic_string@DU?$char_traits@D@std@@V?$allocator@D@2@@std@@QBEIXZ 1001eb10 f   ImfAttribute.obj
 0001:0001db10       ?format@B44Compressor@Imf@@UBE?AW4Format@Compressor@2@XZ 1001eb10 f   ImfB44Compressor.obj
 0001:0001db10       ?length@?$basic_string@DU?$char_traits@D@std@@V?$allocator@D@2@@std@@QBEIXZ 1001eb10 f   ImfHeader.obj
 0001:0001db20       ?setPerfOffset@KeyCode@Imf@@QAEXH@Z 1001eb20 f   ImfKeyCode.obj
 0001:0001db70       ?setPerfsPerFrame@KeyCode@Imf@@QAEXH@Z 1001eb70 f   ImfKeyCode.obj
 0001:0001dbd0       ?perfsPerCount@KeyCode@Imf@@QBEHXZ 1001ebd0 f   ImfKeyCode.obj
 0001:0001dbe0       ?setPerfsPerCount@KeyCode@Imf@@QAEXH@Z 1001ebe0 f   ImfKeyCode.obj
 0001:0001dc40       ??0KeyCode@Imf@@QAE@HHHHHHH@Z 1001ec40 f   ImfKeyCode.obj
 0001:0001ddc0       ?staticTypeName@?$TypedAttribute@VKeyCode@Imf@@@Imf@@SAPBDXZ 1001edc0 f   ImfKeyCodeAttribute.obj
 0001:0001ddd0       ?writeValueTo@?$TypedAttribute@VKeyCode@Imf@@@Imf@@UBEXAAVOStream@2@H@Z 1001edd0 f   ImfKeyCodeAttribute.obj
 0001:0001df30       ?readValueFrom@?$TypedAttribute@VKeyCode@Imf@@@Imf@@UAEXAAVIStream@2@HH@Z 1001ef30 f   ImfKeyCodeAttribute.obj
 0001:0001e0d0       ?staticTypeName@?$TypedAttribute@W4LineOrder@Imf@@@Imf@@SAPBDXZ 1001f0d0 f   ImfLineOrderAttribute.obj
 0001:0001e0e0       ?readValueFrom@?$TypedAttribute@W4Compression@Imf@@@Imf@@UAEXAAVIStream@2@HH@Z 1001f0e0 f   ImfCompressionAttribute.obj
 0001:0001e0e0       ?readValueFrom@?$TypedAttribute@W4LineOrder@Imf@@@Imf@@UAEXAAVIStream@2@HH@Z 1001f0e0 f   ImfLineOrderAttribute.obj
 0001:0001e0e0       ?readValueFrom@?$TypedAttribute@W4Envmap@Imf@@@Imf@@UAEXAAVIStream@2@HH@Z 1001f0e0 f   ImfEnvmapAttribute.obj
 0001:0001e110       ?log@@YAMM@Z               1001f110 f i ImfLut.obj
 0001:0001e110       _logf                      1001f110 f i ImfLut.obj
 0001:0001e130       ?round12log@Imf@@YA?AVhalf@@V2@@Z 1001f130 f   ImfLut.obj
 0001:0001e220       ??R?$halfFunction@Vhalf@@@@QBE?AVhalf@@V1@@Z 1001f220 f i ImfLut.obj
 0001:0001e240       ?apply@HalfLut@Imf@@QBEXPAVhalf@@HH@Z 1001f240 f   ImfLut.obj
 0001:0001e270       ?apply@HalfLut@Imf@@QBEXABUSlice@2@ABV?$Box@V?$Vec2@H@Imath@@@Imath@@@Z 1001f270 f   ImfLut.obj
 0001:0001e310       ?apply@RgbaLut@Imf@@QBEXPAURgba@2@HH@Z 1001f310 f   ImfLut.obj
 0001:0001e390       ?apply@RgbaLut@Imf@@QBEXPAURgba@2@HHABV?$Box@V?$Vec2@H@Imath@@@Imath@@@Z 1001f390 f   ImfLut.obj
 0001:0001e460       ?staticTypeName@?$TypedAttribute@V?$Matrix33@M@Imath@@@Imf@@SAPBDXZ 1001f460 f   ImfMatrixAttribute.obj
 0001:0001e470       ?staticTypeName@?$TypedAttribute@V?$Matrix33@N@Imath@@@Imf@@SAPBDXZ 1001f470 f   ImfMatrixAttribute.obj
 0001:0001e480       ?staticTypeName@?$TypedAttribute@V?$Matrix44@M@Imath@@@Imf@@SAPBDXZ 1001f480 f   ImfMatrixAttribute.obj
 0001:0001e490       ?staticTypeName@?$TypedAttribute@V?$Matrix44@N@Imath@@@Imf@@SAPBDXZ 1001f490 f   ImfMatrixAttribute.obj
 0001:0001e4a0       ??A?$Matrix33@M@Imath@@QAEPAMH@Z 1001f4a0 f i ImfMatrixAttribute.obj
 0001:0001e4a0       ??A?$Matrix33@M@Imath@@QBEPBMH@Z 1001f4a0 f i ImfCRgbaFile.obj
 0001:0001e4b0       ??A?$Matrix33@N@Imath@@QAEPANH@Z 1001f4b0 f i ImfMatrixAttribute.obj
 0001:0001e4b0       ??A?$Matrix33@N@Imath@@QBEPBNH@Z 1001f4b0 f i ImfMatrixAttribute.obj
 0001:0001e4c0       ??A?$Matrix44@N@Imath@@QAEPANH@Z 1001f4c0 f i ImfMatrixAttribute.obj
 0001:0001e4c0       ??A?$Matrix44@N@Imath@@QBEPBNH@Z 1001f4c0 f i ImfMatrixAttribute.obj
 0001:0001e4d0       ?writeValueTo@?$TypedAttribute@V?$Matrix33@M@Imath@@@Imf@@UBEXAAVOStream@2@H@Z 1001f4d0 f   ImfMatrixAttribute.obj
 0001:0001e6c0       ?readValueFrom@?$TypedAttribute@V?$Matrix33@M@Imath@@@Imf@@UAEXAAVIStream@2@HH@Z 1001f6c0 f   ImfMatrixAttribute.obj
 0001:0001e8f0       ?writeValueTo@?$TypedAttribute@V?$Matrix33@N@Imath@@@Imf@@UBEXAAVOStream@2@H@Z 1001f8f0 f   ImfMatrixAttribute.obj
 0001:0001e9b0       ?readValueFrom@?$TypedAttribute@V?$Matrix33@N@Imath@@@Imf@@UAEXAAVIStream@2@HH@Z 1001f9b0 f   ImfMatrixAttribute.obj
 0001:0001ea20       ?writeValueTo@?$TypedAttribute@V?$Matrix44@M@Imath@@@Imf@@UBEXAAVOStream@2@H@Z 1001fa20 f   ImfMatrixAttribute.obj
 0001:0001ed90       ?readValueFrom@?$TypedAttribute@V?$Matrix44@M@Imath@@@Imf@@UAEXAAVIStream@2@HH@Z 1001fd90 f   ImfMatrixAttribute.obj
 0001:0001f160       ?writeValueTo@?$TypedAttribute@V?$Matrix44@N@Imath@@@Imf@@UBEXAAVOStream@2@H@Z 10020160 f   ImfMatrixAttribute.obj
 0001:0001f2b0       ?readValueFrom@?$TypedAttribute@V?$Matrix44@N@Imath@@@Imf@@UAEXAAVIStream@2@HH@Z 100202b0 f   ImfMatrixAttribute.obj
 0001:0001f370       ??$size@H@Xdr@Imf@@YAHXZ   10020370 f i ImfOutputFile.obj
 0001:0001f370       ??$size@M@Xdr@Imf@@YAHXZ   10020370 f i ImfMisc.obj
 0001:0001f370       ??$size@I@Xdr@Imf@@YAHXZ   10020370 f i ImfMisc.obj
 0001:0001f380       ??$size@Vhalf@@@Xdr@Imf@@YAHXZ 10020380 f i ImfMisc.obj
 0001:0001f390       ?pixelTypeSize@Imf@@YAHW4PixelType@1@@Z 10020390 f   ImfMisc.obj
 0001:0001f400       ?numSamples@Imf@@YAHHHH@Z  10020400 f   ImfMisc.obj
 0001:0001f480       ?lineBufferMinY@Imf@@YAHHHH@Z 10020480 f   ImfMisc.obj
 0001:0001f4a0       ?lineBufferMaxY@Imf@@YAHHHH@Z 100204a0 f   ImfMisc.obj
 0001:0001f4c0       ?defaultFormat@Imf@@YA?AW4Format@Compressor@1@PAV31@@Z 100204c0 f   ImfMisc.obj
 0001:0001f4e0       ?numLinesInBuffer@Imf@@YAHPAVCompressor@1@@Z 100204e0 f   ImfMisc.obj
 0001:0001f500       ?size@?$vector@IV?$allocator@I@std@@@std@@QBEIXZ 10020500 f i ImfMisc.obj
 0001:0001f500       ?size@?$vector@PAULineBuffer@?A0xf57f9ec6@Imf@@V?$allocator@PAULineBuffer@?A0xf57f9ec6@Imf@@@std@@@std@@QBEIXZ 10020500 f i ImfOutputFile.obj
 0001:0001f500       ?size@?$vector@PAULineBuffer@?A0xcbf8ace6@Imf@@V?$allocator@PAULineBuffer@?A0xcbf8ace6@Imf@@@std@@@std@@QBEIXZ 10020500 f i ImfScanLineInputFile.obj
 0001:0001f500       ?size@?$vector@PAUTileBuffer@?A0xf6fcebb6@Imf@@V?$allocator@PAUTileBuffer@?A0xf6fcebb6@Imf@@@std@@@std@@QBEIXZ 10020500 f i ImfTiledInputFile.obj
 0001:0001f500       ?size@?$vector@PAUTileBuffer@?A0x39e5c904@Imf@@V?$allocator@PAUTileBuffer@?A0x39e5c904@Imf@@@std@@@std@@QBEIXZ 10020500 f i ImfTiledOutputFile.obj
 0001:0001f510       ??A?$vector@IV?$allocator@I@std@@@std@@QBEABII@Z 10020510 f i ImfMisc.obj
 0001:0001f510       ??A?$vector@IV?$allocator@I@std@@@std@@QAEAAII@Z 10020510 f i ImfMisc.obj
 0001:0001f510       ??A?$vector@PAUTileBuffer@?A0x39e5c904@Imf@@V?$allocator@PAUTileBuffer@?A0x39e5c904@Imf@@@std@@@std@@QAEAAPAUTileBuffer@?A0x39e5c904@Imf@@I@Z 10020510 f i ImfTiledOutputFile.obj
 0001:0001f510       ??A?$vector@PAUTileBuffer@?A0xf6fcebb6@Imf@@V?$allocator@PAUTileBuffer@?A0xf6fcebb6@Imf@@@std@@@std@@QAEAAPAUTileBuffer@?A0xf6fcebb6@Imf@@I@Z 10020510 f i ImfTiledInputFile.obj
 0001:0001f510       ??A?$vector@PAULineBuffer@?A0xf57f9ec6@Imf@@V?$allocator@PAULineBuffer@?A0xf57f9ec6@Imf@@@std@@@std@@QAEAAPAULineBuffer@?A0xf57f9ec6@Imf@@I@Z 10020510 f i ImfOutputFile.obj
 0001:0001f510       ??A?$vector@PAULineBuffer@?A0xcbf8ace6@Imf@@V?$allocator@PAULineBuffer@?A0xcbf8ace6@Imf@@@std@@@std@@QAEAAPAULineBuffer@?A0xcbf8ace6@Imf@@I@Z 10020510 f i ImfScanLineInputFile.obj
 0001:0001f520       ?capacity@?$vector@PAULineBuffer@?A0xcbf8ace6@Imf@@V?$allocator@PAULineBuffer@?A0xcbf8ace6@Imf@@@std@@@std@@QBEIXZ 10020520 f i ImfScanLineInputFile.obj
 0001:0001f520       ?capacity@?$vector@PAUTileBuffer@?A0xf6fcebb6@Imf@@V?$allocator@PAUTileBuffer@?A0xf6fcebb6@Imf@@@std@@@std@@QBEIXZ 10020520 f i ImfTiledInputFile.obj
 0001:0001f520       ?capacity@?$vector@IV?$allocator@I@std@@@std@@QBEIXZ 10020520 f i ImfMisc.obj
 0001:0001f520       ?capacity@?$vector@PAULineBuffer@?A0xf57f9ec6@Imf@@V?$allocator@PAULineBuffer@?A0xf57f9ec6@Imf@@@std@@@std@@QBEIXZ 10020520 f i ImfOutputFile.obj
 0001:0001f520       ?capacity@?$vector@PAUTileBuffer@?A0x39e5c904@Imf@@V?$allocator@PAUTileBuffer@?A0x39e5c904@Imf@@@std@@@std@@QBEIXZ 10020520 f i ImfTiledOutputFile.obj
 0001:0001f530       ?max_size@?$vector@PAUTileBuffer@?A0xf6fcebb6@Imf@@V?$allocator@PAUTileBuffer@?A0xf6fcebb6@Imf@@@std@@@std@@QBEIXZ 10020530 f i ImfTiledInputFile.obj
 0001:0001f530       ?max_size@?$vector@PAUTileBuffer@?A0x39e5c904@Imf@@V?$allocator@PAUTileBuffer@?A0x39e5c904@Imf@@@std@@@std@@QBEIXZ 10020530 f i ImfTiledOutputFile.obj
 0001:0001f530       ?max_size@?$vector@PAULineBuffer@?A0xcbf8ace6@Imf@@V?$allocator@PAULineBuffer@?A0xcbf8ace6@Imf@@@std@@@std@@QBEIXZ 10020530 f i ImfScanLineInputFile.obj
 0001:0001f530       ?max_size@?$allocator@PAUTileBuffer@?A0x39e5c904@Imf@@@std@@QBEIXZ 10020530 f i ImfTiledOutputFile.obj
 0001:0001f530       ?max_size@?$allocator@I@std@@QBEIXZ 10020530 f i ImfMisc.obj
 0001:0001f530       ?max_size@?$vector@IV?$allocator@I@std@@@std@@QBEIXZ 10020530 f i ImfMisc.obj
 0001:0001f530       ?max_size@?$allocator@PAULineBuffer@?A0xcbf8ace6@Imf@@@std@@QBEIXZ 10020530 f i ImfScanLineInputFile.obj
 0001:0001f530       ?max_size@?$allocator@PAUTileBuffer@?A0xf6fcebb6@Imf@@@std@@QBEIXZ 10020530 f i ImfTiledInputFile.obj
 0001:0001f530       ?max_size@?$vector@PAULineBuffer@?A0xf57f9ec6@Imf@@V?$allocator@PAULineBuffer@?A0xf57f9ec6@Imf@@@std@@@std@@QBEIXZ 10020530 f i ImfOutputFile.obj
 0001:0001f530       ?max_size@?$allocator@PAULineBuffer@?A0xf57f9ec6@Imf@@@std@@QBEIXZ 10020530 f i ImfOutputFile.obj
 0001:0001f540       ??$skip@UCharPtrIO@Imf@@PBD@Xdr@Imf@@YAXAAPBDH@Z 10020540 f i ImfMisc.obj
 0001:0001f5d0       ?skipChannel@Imf@@YAXAAPBDW4PixelType@1@I@Z 100205d0 f   ImfMisc.obj
 0001:0001f640       ??Y?$_Vector_const_iterator@V?$_Vector_val@IV?$allocator@I@std@@@std@@@std@@QAEAAV01@H@Z 10020640 f i ImfMisc.obj
 0001:0001f640       ??Y?$_Vector_iterator@V?$_Vector_val@PAUTileBuffer@?A0x39e5c904@Imf@@V?$allocator@PAUTileBuffer@?A0x39e5c904@Imf@@@std@@@std@@@std@@QAEAAV01@H@Z 10020640 f i ImfTiledOutputFile.obj
 0001:0001f640       ??Y?$_Vector_iterator@V?$_Vector_val@PAULineBuffer@?A0xf57f9ec6@Imf@@V?$allocator@PAULineBuffer@?A0xf57f9ec6@Imf@@@std@@@std@@@std@@QAEAAV01@H@Z 10020640 f i ImfOutputFile.obj
 0001:0001f640       ??Y?$_Vector_iterator@V?$_Vector_val@PAUTileBuffer@?A0xf6fcebb6@Imf@@V?$allocator@PAUTileBuffer@?A0xf6fcebb6@Imf@@@std@@@std@@@std@@QAEAAV01@H@Z 10020640 f i ImfTiledInputFile.obj
 0001:0001f640       ??Y?$_Vector_iterator@V?$_Vector_val@PAULineBuffer@?A0xcbf8ace6@Imf@@V?$allocator@PAULineBuffer@?A0xcbf8ace6@Imf@@@std@@@std@@@std@@QAEAAV01@H@Z 10020640 f i ImfScanLineInputFile.obj
 0001:0001f640       ??Y?$_Vector_const_iterator@V?$_Vector_val@PAUTileBuffer@?A0x39e5c904@Imf@@V?$allocator@PAUTileBuffer@?A0x39e5c904@Imf@@@std@@@std@@@std@@QAEAAV01@H@Z 10020640 f i ImfTiledOutputFile.obj
 0001:0001f640       ??Y?$_Vector_const_iterator@V?$_Vector_val@PAULineBuffer@?A0xf57f9ec6@Imf@@V?$allocator@PAULineBuffer@?A0xf57f9ec6@Imf@@@std@@@std@@@std@@QAEAAV01@H@Z 10020640 f i ImfOutputFile.obj
 0001:0001f640       ??Y?$_Vector_iterator@V?$_Vector_val@IV?$allocator@I@std@@@std@@@std@@QAEAAV01@H@Z 10020640 f i ImfMisc.obj
 0001:0001f640       ??Y?$_Vector_const_iterator@V?$_Vector_val@PAULineBuffer@?A0xcbf8ace6@Imf@@V?$allocator@PAULineBuffer@?A0xcbf8ace6@Imf@@@std@@@std@@@std@@QAEAAV01@H@Z 10020640 f i ImfScanLineInputFile.obj
 0001:0001f640       ??Y?$_Vector_const_iterator@V?$_Vector_val@PAUTileBuffer@?A0xf6fcebb6@Imf@@V?$allocator@PAUTileBuffer@?A0xf6fcebb6@Imf@@@std@@@std@@@std@@QAEAAV01@H@Z 10020640 f i ImfTiledInputFile.obj
 0001:0001f660       ?allocate@?$allocator@PAULineBuffer@?A0xf57f9ec6@Imf@@@std@@QAEPAPAULineBuffer@?A0xf57f9ec6@Imf@@I@Z 10020660 f i ImfOutputFile.obj
 0001:0001f660       ?allocate@?$allocator@PAUTileBuffer@?A0xf6fcebb6@Imf@@@std@@QAEPAPAUTileBuffer@?A0xf6fcebb6@Imf@@I@Z 10020660 f i ImfTiledInputFile.obj
 0001:0001f660       ?allocate@?$allocator@PAUTileBuffer@?A0x39e5c904@Imf@@@std@@QAEPAPAUTileBuffer@?A0x39e5c904@Imf@@I@Z 10020660 f i ImfTiledOutputFile.obj
 0001:0001f660       ?allocate@?$allocator@PAULineBuffer@?A0xcbf8ace6@Imf@@@std@@QAEPAPAULineBuffer@?A0xcbf8ace6@Imf@@I@Z 10020660 f i ImfScanLineInputFile.obj
 0001:0001f660       ?allocate@?$allocator@I@std@@QAEPAII@Z 10020660 f i ImfMisc.obj
 0001:0001f6c0       ??$read@UCharPtrIO@Imf@@PBD@Xdr@Imf@@YAXAAPBDAAVhalf@@@Z 100206c0 f i ImfMisc.obj
 0001:0001f6c0       ??$read@UCharPtrIO@Imf@@PBD@Xdr@Imf@@YAXAAPBDAAG@Z 100206c0 f i ImfB44Compressor.obj
 0001:0001f700       ??$read@UCharPtrIO@Imf@@PBD@Xdr@Imf@@YAXAAPBDAAM@Z 10020700 f i ImfMisc.obj
 0001:0001f700       ??$read@UCharPtrIO@Imf@@PBD@Xdr@Imf@@YAXAAPBDAAI@Z 10020700 f i ImfMisc.obj
 0001:0001f750       ??$write@UCharPtrIO@Imf@@PAD@Xdr@Imf@@YAXAAPADI@Z 10020750 f i ImfMisc.obj
 0001:0001f790       ??$write@UCharPtrIO@Imf@@PAD@Xdr@Imf@@YAXAAPADVhalf@@@Z 10020790 f i ImfMisc.obj
 0001:0001f7d0       ??$write@UCharPtrIO@Imf@@PAD@Xdr@Imf@@YAXAAPADM@Z 100207d0 f i ImfMisc.obj
 0001:0001f820       ??$_Uninitialized_move@PAPAUTileBuffer@?A0x39e5c904@Imf@@PAPAU123@V?$allocator@PAUTileBuffer@?A0x39e5c904@Imf@@@std@@@std@@YAPAPAUTileBuffer@?A0x39e5c904@Imf@@PAPAU123@00AAV?$allocator@PAUTileBuffer@?A0x39e5c904@Imf@@@0@@Z 10020820 f i ImfTiledOutputFile.obj
 0001:0001f820       ??$_Uninit_move@PAUTileBuffer@?A0xf6fcebb6@Imf@@PAU123@PAU123@@std@@YAPAPAUTileBuffer@?A0xf6fcebb6@Imf@@PAPAU123@00AAV?$allocator@PAUTileBuffer@?A0xf6fcebb6@Imf@@@0@0U_Scalar_ptr_iterator_tag@0@@Z 10020820 f i ImfTiledInputFile.obj
 0001:0001f820       ??$_Uninitialized_move@PAPAULineBuffer@?A0xf57f9ec6@Imf@@PAPAU123@V?$allocator@PAULineBuffer@?A0xf57f9ec6@Imf@@@std@@@std@@YAPAPAULineBuffer@?A0xf57f9ec6@Imf@@PAPAU123@00AAV?$allocator@PAULineBuffer@?A0xf57f9ec6@Imf@@@0@@Z 10020820 f i ImfOutputFile.obj
 0001:0001f820       ??$_Uninitialized_move@PAIPAIV?$allocator@I@std@@@std@@YAPAIPAI00AAV?$allocator@I@0@@Z 10020820 f i ImfMisc.obj
 0001:0001f820       ??$_Uninit_move@III@std@@YAPAIPAI00AAV?$allocator@I@0@0U_Scalar_ptr_iterator_tag@0@@Z 10020820 f i ImfMisc.obj
 0001:0001f820       ??$_Uninitialized_move@PAPAUTileBuffer@?A0xf6fcebb6@Imf@@PAPAU123@V?$allocator@PAUTileBuffer@?A0xf6fcebb6@Imf@@@std@@@std@@YAPAPAUTileBuffer@?A0xf6fcebb6@Imf@@PAPAU123@00AAV?$allocator@PAUTileBuffer@?A0xf6fcebb6@Imf@@@0@@Z 10020820 f i ImfTiledInputFile.obj
 0001:0001f820       ??$_Uninit_move@PAUTileBuffer@?A0x39e5c904@Imf@@PAU123@PAU123@@std@@YAPAPAUTileBuffer@?A0x39e5c904@Imf@@PAPAU123@00AAV?$allocator@PAUTileBuffer@?A0x39e5c904@Imf@@@0@0U_Scalar_ptr_iterator_tag@0@@Z 10020820 f i ImfTiledOutputFile.obj
 0001:0001f820       ??$_Uninit_move@PAULineBuffer@?A0xf57f9ec6@Imf@@PAU123@PAU123@@std@@YAPAPAULineBuffer@?A0xf57f9ec6@Imf@@PAPAU123@00AAV?$allocator@PAULineBuffer@?A0xf57f9ec6@Imf@@@0@0U_Scalar_ptr_iterator_tag@0@@Z 10020820 f i ImfOutputFile.obj
 0001:0001f820       ??$_Uninit_move@PAULineBuffer@?A0xcbf8ace6@Imf@@PAU123@PAU123@@std@@YAPAPAULineBuffer@?A0xcbf8ace6@Imf@@PAPAU123@00AAV?$allocator@PAULineBuffer@?A0xcbf8ace6@Imf@@@0@0U_Scalar_ptr_iterator_tag@0@@Z 10020820 f i ImfScanLineInputFile.obj
 0001:0001f820       ??$_Uninitialized_move@PAPAULineBuffer@?A0xcbf8ace6@Imf@@PAPAU123@V?$allocator@PAULineBuffer@?A0xcbf8ace6@Imf@@@std@@@std@@YAPAPAULineBuffer@?A0xcbf8ace6@Imf@@PAPAU123@00AAV?$allocator@PAULineBuffer@?A0xcbf8ace6@Imf@@@0@@Z 10020820 f i ImfScanLineInputFile.obj
 0001:0001f850       ?copyIntoFrameBuffer@Imf@@YAXAAPBDPAD1I_NNW4Format@Compressor@1@W4PixelType@1@4@Z 10020850 f   ImfMisc.obj
 0001:0001ff10       ?convertInPlace@Imf@@YAXAAPADAAPBDW4PixelType@1@I@Z 10020f10 f   ImfMisc.obj
 0001:00020070       ?copyFromFrameBuffer@Imf@@YAXAAPADAAPBDPBDIW4Format@Compressor@1@W4PixelType@1@@Z 10021070 f   ImfMisc.obj
 0001:00020300       ?fillChannelWithZeroes@Imf@@YAXAAPADW4Format@Compressor@1@W4PixelType@1@I@Z 10021300 f   ImfMisc.obj
 0001:00020550       ?_Make_iter@?$vector@PAULineBuffer@?A0xf57f9ec6@Imf@@V?$allocator@PAULineBuffer@?A0xf57f9ec6@Imf@@@std@@@std@@QBE?AV?$_Vector_iterator@V?$_Vector_val@PAULineBuffer@?A0xf57f9ec6@Imf@@V?$allocator@PAULineBuffer@?A0xf57f9ec6@Imf@@@std@@@std@@@2@V?$_Vector_const_iterator@V?$_Vector_val@PAULineBuffer@?A0xf57f9ec6@Imf@@V?$allocator@PAULineBuffer@?A0xf57f9ec6@Imf@@@std@@@std@@@2@@Z 10021550 f i ImfOutputFile.obj
 0001:00020550       ?_Make_iter@?$vector@UTOutSliceInfo@?A0x39e5c904@Imf@@V?$allocator@UTOutSliceInfo@?A0x39e5c904@Imf@@@std@@@std@@QBE?AV?$_Vector_iterator@V?$_Vector_val@UTOutSliceInfo@?A0x39e5c904@Imf@@V?$allocator@UTOutSliceInfo@?A0x39e5c904@Imf@@@std@@@std@@@2@V?$_Vector_const_iterator@V?$_Vector_val@UTOutSliceInfo@?A0x39e5c904@Imf@@V?$allocator@UTOutSliceInfo@?A0x39e5c904@Imf@@@std@@@std@@@2@@Z 10021550 f i ImfTiledOutputFile.obj
 0001:00020550       ?_Make_iter@?$vector@UOutSliceInfo@?A0xf57f9ec6@Imf@@V?$allocator@UOutSliceInfo@?A0xf57f9ec6@Imf@@@std@@@std@@QBE?AV?$_Vector_iterator@V?$_Vector_val@UOutSliceInfo@?A0xf57f9ec6@Imf@@V?$allocator@UOutSliceInfo@?A0xf57f9ec6@Imf@@@std@@@std@@@2@V?$_Vector_const_iterator@V?$_Vector_val@UOutSliceInfo@?A0xf57f9ec6@Imf@@V?$allocator@UOutSliceInfo@?A0xf57f9ec6@Imf@@@std@@@std@@@2@@Z 10021550 f i ImfOutputFile.obj
 0001:00020550       ?_Make_iter@?$vector@PAUTileBuffer@?A0xf6fcebb6@Imf@@V?$allocator@PAUTileBuffer@?A0xf6fcebb6@Imf@@@std@@@std@@QBE?AV?$_Vector_iterator@V?$_Vector_val@PAUTileBuffer@?A0xf6fcebb6@Imf@@V?$allocator@PAUTileBuffer@?A0xf6fcebb6@Imf@@@std@@@std@@@2@V?$_Vector_const_iterator@V?$_Vector_val@PAUTileBuffer@?A0xf6fcebb6@Imf@@V?$allocator@PAUTileBuffer@?A0xf6fcebb6@Imf@@@std@@@std@@@2@@Z 10021550 f i ImfTiledInputFile.obj
 0001:00020550       ?_Make_iter@?$vector@V?$vector@V?$vector@_KV?$allocator@_K@std@@@std@@V?$allocator@V?$vector@_KV?$allocator@_K@std@@@std@@@2@@std@@V?$allocator@V?$vector@V?$vector@_KV?$allocator@_K@std@@@std@@V?$allocator@V?$vector@_KV?$allocator@_K@std@@@std@@@2@@std@@@2@@std@@QBE?AV?$_Vector_iterator@V?$_Vector_val@V?$vector@V?$vector@_KV?$allocator@_K@std@@@std@@V?$allocator@V?$vector@_KV?$allocator@_K@std@@@std@@@2@@std@@V?$allocator@V?$vector@V?$vector@_KV?$allocator@_K@std@@@std@@V?$allocator@V?$vector@_KV?$allocator@_K@std@@@std@@@2@@std@@@2@@std@@@2@V?$_Vector_const_iterator@V?$_Vector_val@V?$vector@V?$vector@_KV?$allocator@_K@std@@@std@@V?$allocator@V?$vector@_KV?$allocator@_K@std@@@std@@@2@@std@@V?$allocator@V?$vector@V?$vector@_KV?$allocator@_K@std@@@std@@V?$allocator@V?$vector@_KV?$allocator@_K@std@@@std@@@2@@std@@@2@@std@@@2@@Z 10021550 f i ImfTiledInputFile.obj
 0001:00020550       ?_Make_iter@?$vector@V?$basic_string@DU?$char_traits@D@std@@V?$allocator@D@2@@std@@V?$allocator@V?$basic_string@DU?$char_traits@D@std@@V?$allocator@D@2@@std@@@2@@std@@QBE?AV?$_Vector_iterator@V?$_Vector_val@V?$basic_string@DU?$char_traits@D@std@@V?$allocator@D@2@@std@@V?$allocator@V?$basic_string@DU?$char_traits@D@std@@V?$allocator@D@2@@std@@@2@@std@@@2@V?$_Vector_const_iterator@V?$_Vector_val@V?$basic_string@DU?$char_traits@D@std@@V?$allocator@D@2@@std@@V?$allocator@V?$basic_string@DU?$char_traits@D@std@@V?$allocator@D@2@@std@@@2@@std@@@2@@Z 10021550 f i ImfHeader.obj
 0001:00020550       ?_Make_iter@?$vector@V?$vector@_KV?$allocator@_K@std@@@std@@V?$allocator@V?$vector@_KV?$allocator@_K@std@@@std@@@2@@std@@QBE?AV?$_Vector_iterator@V?$_Vector_val@V?$vector@_KV?$allocator@_K@std@@@std@@V?$allocator@V?$vector@_KV?$allocator@_K@std@@@std@@@2@@std@@@2@V?$_Vector_const_iterator@V?$_Vector_val@V?$vector@_KV?$allocator@_K@std@@@std@@V?$allocator@V?$vector@_KV?$allocator@_K@std@@@std@@@2@@std@@@2@@Z 10021550 f i ImfTiledInputFile.obj
 0001:00020550       ?_Make_iter@?$vector@UTInSliceInfo@?A0xf6fcebb6@Imf@@V?$allocator@UTInSliceInfo@?A0xf6fcebb6@Imf@@@std@@@std@@QBE?AV?$_Vector_iterator@V?$_Vector_val@UTInSliceInfo@?A0xf6fcebb6@Imf@@V?$allocator@UTInSliceInfo@?A0xf6fcebb6@Imf@@@std@@@std@@@2@V?$_Vector_const_iterator@V?$_Vector_val@UTInSliceInfo@?A0xf6fcebb6@Imf@@V?$allocator@UTInSliceInfo@?A0xf6fcebb6@Imf@@@std@@@std@@@2@@Z 10021550 f i ImfTiledInputFile.obj
 0001:00020550       ?_Make_iter@?$vector@UInSliceInfo@?A0xcbf8ace6@Imf@@V?$allocator@UInSliceInfo@?A0xcbf8ace6@Imf@@@std@@@std@@QBE?AV?$_Vector_iterator@V?$_Vector_val@UInSliceInfo@?A0xcbf8ace6@Imf@@V?$allocator@UInSliceInfo@?A0xcbf8ace6@Imf@@@std@@@std@@@2@V?$_Vector_const_iterator@V?$_Vector_val@UInSliceInfo@?A0xcbf8ace6@Imf@@V?$allocator@UInSliceInfo@?A0xcbf8ace6@Imf@@@std@@@std@@@2@@Z 10021550 f i ImfScanLineInputFile.obj
 0001:00020550       ?_Make_iter@?$vector@PAULineBuffer@?A0xcbf8ace6@Imf@@V?$allocator@PAULineBuffer@?A0xcbf8ace6@Imf@@@std@@@std@@QBE?AV?$_Vector_iterator@V?$_Vector_val@PAULineBuffer@?A0xcbf8ace6@Imf@@V?$allocator@PAULineBuffer@?A0xcbf8ace6@Imf@@@std@@@std@@@2@V?$_Vector_const_iterator@V?$_Vector_val@PAULineBuffer@?A0xcbf8ace6@Imf@@V?$allocator@PAULineBuffer@?A0xcbf8ace6@Imf@@@std@@@std@@@2@@Z 10021550 f i ImfScanLineInputFile.obj
 0001:00020550       ?_Make_iter@?$vector@PAUTileBuffer@?A0x39e5c904@Imf@@V?$allocator@PAUTileBuffer@?A0x39e5c904@Imf@@@std@@@std@@QBE?AV?$_Vector_iterator@V?$_Vector_val@PAUTileBuffer@?A0x39e5c904@Imf@@V?$allocator@PAUTileBuffer@?A0x39e5c904@Imf@@@std@@@std@@@2@V?$_Vector_const_iterator@V?$_Vector_val@PAUTileBuffer@?A0x39e5c904@Imf@@V?$allocator@PAUTileBuffer@?A0x39e5c904@Imf@@@std@@@std@@@2@@Z 10021550 f i ImfTiledOutputFile.obj
 0001:00020550       ?_Make_iter@?$vector@_KV?$allocator@_K@std@@@std@@QBE?AV?$_Vector_iterator@V?$_Vector_val@_KV?$allocator@_K@std@@@std@@@2@V?$_Vector_const_iterator@V?$_Vector_val@_KV?$allocator@_K@std@@@std@@@2@@Z 10021550 f i ImfOutputFile.obj
 0001:00020550       ?_Make_iter@?$vector@IV?$allocator@I@std@@@std@@QBE?AV?$_Vector_iterator@V?$_Vector_val@IV?$allocator@I@std@@@std@@@2@V?$_Vector_const_iterator@V?$_Vector_val@IV?$allocator@I@std@@@std@@@2@@Z 10021550 f i ImfMisc.obj
 0001:00020560       ??$_Uninit_def_fill_n@PAUTileBuffer@?A0x39e5c904@Imf@@IPAU123@PAU123@@std@@YAXPAPAUTileBuffer@?A0x39e5c904@Imf@@IPBQAU123@AAV?$allocator@PAUTileBuffer@?A0x39e5c904@Imf@@@0@0U_Scalar_ptr_iterator_tag@0@@Z 10021560 f i ImfTiledOutputFile.obj
 0001:00020560       ??$_Uninitialized_default_fill_n@PAIIIV?$allocator@I@std@@@std@@YAXPAIIPBIAAV?$allocator@I@0@@Z 10021560 f i ImfMisc.obj
 0001:00020560       ??$_Uninitialized_default_fill_n@PAPAUTileBuffer@?A0xf6fcebb6@Imf@@IPAU123@V?$allocator@PAUTileBuffer@?A0xf6fcebb6@Imf@@@std@@@std@@YAXPAPAUTileBuffer@?A0xf6fcebb6@Imf@@IPBQAU123@AAV?$allocator@PAUTileBuffer@?A0xf6fcebb6@Imf@@@0@@Z 10021560 f i ImfTiledInputFile.obj
 0001:00020560       ??$_Uninit_def_fill_n@PAULineBuffer@?A0xcbf8ace6@Imf@@IPAU123@PAU123@@std@@YAXPAPAULineBuffer@?A0xcbf8ace6@Imf@@IPBQAU123@AAV?$allocator@PAULineBuffer@?A0xcbf8ace6@Imf@@@0@0U_Scalar_ptr_iterator_tag@0@@Z 10021560 f i ImfScanLineInputFile.obj
 0001:00020560       ??$_Uninit_def_fill_n@PAULineBuffer@?A0xf57f9ec6@Imf@@IPAU123@PAU123@@std@@YAXPAPAULineBuffer@?A0xf57f9ec6@Imf@@IPBQAU123@AAV?$allocator@PAULineBuffer@?A0xf57f9ec6@Imf@@@0@0U_Scalar_ptr_iterator_tag@0@@Z 10021560 f i ImfOutputFile.obj
 0001:00020560       ??$_Uninitialized_default_fill_n@PAPAUTileBuffer@?A0x39e5c904@Imf@@IPAU123@V?$allocator@PAUTileBuffer@?A0x39e5c904@Imf@@@std@@@std@@YAXPAPAUTileBuffer@?A0x39e5c904@Imf@@IPBQAU123@AAV?$allocator@PAUTileBuffer@?A0x39e5c904@Imf@@@0@@Z 10021560 f i ImfTiledOutputFile.obj
 0001:00020560       ??$_Uninitialized_default_fill_n@PAPAULineBuffer@?A0xcbf8ace6@Imf@@IPAU123@V?$allocator@PAULineBuffer@?A0xcbf8ace6@Imf@@@std@@@std@@YAXPAPAULineBuffer@?A0xcbf8ace6@Imf@@IPBQAU123@AAV?$allocator@PAULineBuffer@?A0xcbf8ace6@Imf@@@0@@Z 10021560 f i ImfScanLineInputFile.obj
 0001:00020560       ??$_Uninit_def_fill_n@IIII@std@@YAXPAIIPBIAAV?$allocator@I@0@0U_Scalar_ptr_iterator_tag@0@@Z 10021560 f i ImfMisc.obj
 0001:00020560       ??$_Uninitialized_default_fill_n@PAPAULineBuffer@?A0xf57f9ec6@Imf@@IPAU123@V?$allocator@PAULineBuffer@?A0xf57f9ec6@Imf@@@std@@@std@@YAXPAPAULineBuffer@?A0xf57f9ec6@Imf@@IPBQAU123@AAV?$allocator@PAULineBuffer@?A0xf57f9ec6@Imf@@@0@@Z 10021560 f i ImfOutputFile.obj
 0001:00020560       ??$_Uninit_def_fill_n@PAUTileBuffer@?A0xf6fcebb6@Imf@@IPAU123@PAU123@@std@@YAXPAPAUTileBuffer@?A0xf6fcebb6@Imf@@IPBQAU123@AAV?$allocator@PAUTileBuffer@?A0xf6fcebb6@Imf@@@0@0U_Scalar_ptr_iterator_tag@0@@Z 10021560 f i ImfTiledInputFile.obj
 0001:00020580       ??$_Umove@PAPAUTileBuffer@?A0x39e5c904@Imf@@@?$vector@PAUTileBuffer@?A0x39e5c904@Imf@@V?$allocator@PAUTileBuffer@?A0x39e5c904@Imf@@@std@@@std@@IAEPAPAUTileBuffer@?A0x39e5c904@Imf@@PAPAU234@00@Z 10021580 f i ImfTiledOutputFile.obj
 0001:00020580       ??$_Umove@PAI@?$vector@IV?$allocator@I@std@@@std@@IAEPAIPAI00@Z 10021580 f i ImfMisc.obj
 0001:00020580       ??$_Umove@PAPAUTileBuffer@?A0xf6fcebb6@Imf@@@?$vector@PAUTileBuffer@?A0xf6fcebb6@Imf@@V?$allocator@PAUTileBuffer@?A0xf6fcebb6@Imf@@@std@@@std@@IAEPAPAUTileBuffer@?A0xf6fcebb6@Imf@@PAPAU234@00@Z 10021580 f i ImfTiledInputFile.obj
 0001:00020580       ??$_Umove@PAPAULineBuffer@?A0xf57f9ec6@Imf@@@?$vector@PAULineBuffer@?A0xf57f9ec6@Imf@@V?$allocator@PAULineBuffer@?A0xf57f9ec6@Imf@@@std@@@std@@IAEPAPAULineBuffer@?A0xf57f9ec6@Imf@@PAPAU234@00@Z 10021580 f i ImfOutputFile.obj
 0001:00020580       ??$_Umove@PAPAULineBuffer@?A0xcbf8ace6@Imf@@@?$vector@PAULineBuffer@?A0xcbf8ace6@Imf@@V?$allocator@PAULineBuffer@?A0xcbf8ace6@Imf@@@std@@@std@@IAEPAPAULineBuffer@?A0xcbf8ace6@Imf@@PAPAU234@00@Z 10021580 f i ImfScanLineInputFile.obj
 0001:000205b0       ?reserve@?$vector@PAULineBuffer@?A0xf57f9ec6@Imf@@V?$allocator@PAULineBuffer@?A0xf57f9ec6@Imf@@@std@@@std@@QAEXI@Z 100215b0 f i ImfOutputFile.obj
 0001:000205b0       ?reserve@?$vector@PAUTileBuffer@?A0xf6fcebb6@Imf@@V?$allocator@PAUTileBuffer@?A0xf6fcebb6@Imf@@@std@@@std@@QAEXI@Z 100215b0 f i ImfTiledInputFile.obj
 0001:000205b0       ?reserve@?$vector@IV?$allocator@I@std@@@std@@QAEXI@Z 100215b0 f i ImfMisc.obj
 0001:000205b0       ?reserve@?$vector@PAUTileBuffer@?A0x39e5c904@Imf@@V?$allocator@PAUTileBuffer@?A0x39e5c904@Imf@@@std@@@std@@QAEXI@Z 100215b0 f i ImfTiledOutputFile.obj
 0001:000205b0       ?reserve@?$vector@PAULineBuffer@?A0xcbf8ace6@Imf@@V?$allocator@PAULineBuffer@?A0xcbf8ace6@Imf@@@std@@@std@@QAEXI@Z 100215b0 f i ImfScanLineInputFile.obj
 0001:00020630       ?_Reserve@?$vector@PAUTileBuffer@?A0xf6fcebb6@Imf@@V?$allocator@PAUTileBuffer@?A0xf6fcebb6@Imf@@@std@@@std@@IAEXI@Z 10021630 f i ImfTiledInputFile.obj
 0001:00020630       ?_Reserve@?$vector@PAULineBuffer@?A0xcbf8ace6@Imf@@V?$allocator@PAULineBuffer@?A0xcbf8ace6@Imf@@@std@@@std@@IAEXI@Z 10021630 f i ImfScanLineInputFile.obj
 0001:00020630       ?_Reserve@?$vector@IV?$allocator@I@std@@@std@@IAEXI@Z 10021630 f i ImfMisc.obj
 0001:00020630       ?_Reserve@?$vector@PAULineBuffer@?A0xf57f9ec6@Imf@@V?$allocator@PAULineBuffer@?A0xf57f9ec6@Imf@@@std@@@std@@IAEXI@Z 10021630 f i ImfOutputFile.obj
 0001:00020630       ?_Reserve@?$vector@PAUTileBuffer@?A0x39e5c904@Imf@@V?$allocator@PAUTileBuffer@?A0x39e5c904@Imf@@@std@@@std@@IAEXI@Z 10021630 f i ImfTiledOutputFile.obj
 0001:000206a0       ?resize@?$vector@PAUTileBuffer@?A0xf6fcebb6@Imf@@V?$allocator@PAUTileBuffer@?A0xf6fcebb6@Imf@@@std@@@std@@QAEXI@Z 100216a0 f i ImfTiledInputFile.obj
 0001:000206a0       ?resize@?$vector@IV?$allocator@I@std@@@std@@QAEXI@Z 100216a0 f i ImfMisc.obj
 0001:000206a0       ?resize@?$vector@PAULineBuffer@?A0xf57f9ec6@Imf@@V?$allocator@PAULineBuffer@?A0xf57f9ec6@Imf@@@std@@@std@@QAEXI@Z 100216a0 f i ImfOutputFile.obj
 0001:000206a0       ?resize@?$vector@PAUTileBuffer@?A0x39e5c904@Imf@@V?$allocator@PAUTileBuffer@?A0x39e5c904@Imf@@@std@@@std@@QAEXI@Z 100216a0 f i ImfTiledOutputFile.obj
 0001:000206a0       ?resize@?$vector@PAULineBuffer@?A0xcbf8ace6@Imf@@V?$allocator@PAULineBuffer@?A0xcbf8ace6@Imf@@@std@@@std@@QAEXI@Z 100216a0 f i ImfScanLineInputFile.obj
 0001:00020730       ?bytesPerLineTable@Imf@@YAIABVHeader@1@AAV?$vector@IV?$allocator@I@std@@@std@@@Z 10021730 f   ImfMisc.obj
 0001:000208f0       ?offsetInLineBufferTable@Imf@@YAXABV?$vector@IV?$allocator@I@std@@@std@@HAAV23@@Z 100218f0 f   ImfMisc.obj
 0001:00020950       ?find@?$char_traits@D@std@@SAPBDPBDIABD@Z 10021950 f i ImfMultiView.obj
 0001:00020970       ??A?$vector@V?$basic_string@DU?$char_traits@D@std@@V?$allocator@D@2@@std@@V?$allocator@V?$basic_string@DU?$char_traits@D@std@@V?$allocator@D@2@@std@@@2@@std@@QAEAAV?$basic_string@DU?$char_traits@D@std@@V?$allocator@D@2@@1@I@Z 10021970 f i ImfMultiView.obj
 0001:00020970       ??A?$vector@V?$basic_string@DU?$char_traits@D@std@@V?$allocator@D@2@@std@@V?$allocator@V?$basic_string@DU?$char_traits@D@std@@V?$allocator@D@2@@std@@@2@@std@@QBEABV?$basic_string@DU?$char_traits@D@std@@V?$allocator@D@2@@1@I@Z 10021970 f i ImfMultiView.obj
 0001:00020970       ??A?$vector@UOutSliceInfo@?A0xf57f9ec6@Imf@@V?$allocator@UOutSliceInfo@?A0xf57f9ec6@Imf@@@std@@@std@@QAEAAUOutSliceInfo@?A0xf57f9ec6@Imf@@I@Z 10021970 f i ImfOutputFile.obj
 0001:00020970       ??A?$vector@UTOutSliceInfo@?A0x39e5c904@Imf@@V?$allocator@UTOutSliceInfo@?A0x39e5c904@Imf@@@std@@@std@@QAEAAUTOutSliceInfo@?A0x39e5c904@Imf@@I@Z 10021970 f i ImfTiledOutputFile.obj
 0001:00020990       ??A?$basic_string@DU?$char_traits@D@std@@V?$allocator@D@2@@std@@QAEAADI@Z 10021990 f i ImfMultiView.obj
 0001:00020990       ??A?$basic_string@DU?$char_traits@D@std@@V?$allocator@D@2@@std@@QBEABDI@Z 10021990 f i ImfStringAttribute.obj
 0001:000209b0       ?find@?$basic_string@DU?$char_traits@D@std@@V?$allocator@D@2@@std@@QBEIPBDII@Z 100219b0 f i ImfMultiView.obj
 0001:00020a60       ??E?$_Vector_const_iterator@V?$_Vector_val@V?$basic_string@DU?$char_traits@D@std@@V?$allocator@D@2@@std@@V?$allocator@V?$basic_string@DU?$char_traits@D@std@@V?$allocator@D@2@@std@@@2@@std@@@std@@QAEAAV01@XZ 10021a60 f i ImfMultiView.obj
 0001:00020a60       ??E?$_Vector_iterator@V?$_Vector_val@V?$basic_string@DU?$char_traits@D@std@@V?$allocator@D@2@@std@@V?$allocator@V?$basic_string@DU?$char_traits@D@std@@V?$allocator@D@2@@std@@@2@@std@@@std@@QAEAAV01@XZ 10021a60 f i ImfMultiView.obj
 0001:00020a70       ?find@?$basic_string@DU?$char_traits@D@std@@V?$allocator@D@2@@std@@QBEIDI@Z 10021a70 f i ImfMultiView.obj
 0001:00020a90       ?compare@?$basic_string@DU?$char_traits@D@std@@V?$allocator@D@2@@std@@QBEHPBD@Z 10021a90 f i ImfMultiView.obj
 0001:00020ac0       ??$?8DU?$char_traits@D@std@@V?$allocator@D@1@@std@@YA_NABV?$basic_string@DU?$char_traits@D@std@@V?$allocator@D@2@@0@0@Z 10021ac0 f i ImfMultiView.obj
 0001:00020af0       ??$?9DU?$char_traits@D@std@@V?$allocator@D@1@@std@@YA_NABV?$basic_string@DU?$char_traits@D@std@@V?$allocator@D@2@@0@0@Z 10021af0 f i ImfMultiView.obj
 0001:00020b20       ??$?8DU?$char_traits@D@std@@V?$allocator@D@1@@std@@YA_NPBDABV?$basic_string@DU?$char_traits@D@std@@V?$allocator@D@2@@0@@Z 10021b20 f i ImfMultiView.obj
 0001:00020b60       ?viewNum@?A0x4734fbb7@Imf@@YAHABV?$basic_string@DU?$char_traits@D@std@@V?$allocator@D@2@@std@@ABV?$vector@V?$basic_string@DU?$char_traits@D@std@@V?$allocator@D@2@@std@@V?$allocator@V?$basic_string@DU?$char_traits@D@std@@V?$allocator@D@2@@std@@@2@@4@@Z 10021b60 f   ImfMultiView.obj
 0001:00020c20       ??0?$basic_string@DU?$char_traits@D@std@@V?$allocator@D@2@@std@@QAE@ABV01@IIABV?$allocator@D@1@@Z 10021c20 f i ImfMultiView.obj
 0001:00020c60       ?append@?$basic_string@DU?$char_traits@D@std@@V?$allocator@D@2@@std@@QAEAAV12@PBDI@Z 10021c60 f i ImfMultiView.obj
 0001:00020d80       ??$_Construct@V?$basic_string@DU?$char_traits@D@std@@V?$allocator@D@2@@std@@ABV12@@std@@YAXPAV?$basic_string@DU?$char_traits@D@std@@V?$allocator@D@2@@0@ABV10@@Z 10021d80 f i ImfMultiView.obj
 0001:00020de0       ?append@?$basic_string@DU?$char_traits@D@std@@V?$allocator@D@2@@std@@QAEAAV12@PBD@Z 10021de0 f i ImfMultiView.obj
 0001:00020de0       ??Y?$basic_string@DU?$char_traits@D@std@@V?$allocator@D@2@@std@@QAEAAV01@PBD@Z 10021de0 f i ImfMultiView.obj
 0001:00020e10       ?substr@?$basic_string@DU?$char_traits@D@std@@V?$allocator@D@2@@std@@QBE?AV12@II@Z 10021e10 f i ImfMultiView.obj
 0001:00020e50       ?construct@?$allocator@V?$basic_string@DU?$char_traits@D@std@@V?$allocator@D@2@@std@@@std@@QAEXPAV?$basic_string@DU?$char_traits@D@std@@V?$allocator@D@2@@2@ABV32@@Z 10021e50 f i ImfMultiView.obj
 0001:00020eb0       ?defaultViewName@Imf@@YA?AV?$basic_string@DU?$char_traits@D@std@@V?$allocator@D@2@@std@@ABV?$vector@V?$basic_string@DU?$char_traits@D@std@@V?$allocator@D@2@@std@@V?$allocator@V?$basic_string@DU?$char_traits@D@std@@V?$allocator@D@2@@std@@@2@@3@@Z 10021eb0 f   ImfMultiView.obj
 0001:00020f20       ??$?HDU?$char_traits@D@std@@V?$allocator@D@1@@std@@YA?AV?$basic_string@DU?$char_traits@D@std@@V?$allocator@D@2@@0@ABV10@PBD@Z 10021f20 f i ImfMultiView.obj
 0001:00021000       ??$?HDU?$char_traits@D@std@@V?$allocator@D@1@@std@@YA?AV?$basic_string@DU?$char_traits@D@std@@V?$allocator@D@2@@0@$$QAV10@ABV10@@Z 10022000 f i ImfMultiView.obj
 0001:00021040       ??$_Cons_val@V?$allocator@V?$basic_string@DU?$char_traits@D@std@@V?$allocator@D@2@@std@@@std@@V?$basic_string@DU?$char_traits@D@std@@V?$allocator@D@2@@2@ABV32@@std@@YAXAAV?$allocator@V?$basic_string@DU?$char_traits@D@std@@V?$allocator@D@2@@std@@@0@PAV?$basic_string@DU?$char_traits@D@std@@V?$allocator@D@2@@0@ABV20@@Z 10022040 f i ImfMultiView.obj
 0001:000210a0       ?construct@?$allocator@V?$basic_string@DU?$char_traits@D@std@@V?$allocator@D@2@@std@@@std@@QAEXPAV?$basic_string@DU?$char_traits@D@std@@V?$allocator@D@2@@2@$$QAV32@@Z 100220a0 f i ImfMultiView.obj
 0001:00021100       ??$_Cons_val@V?$allocator@V?$basic_string@DU?$char_traits@D@std@@V?$allocator@D@2@@std@@@std@@V?$basic_string@DU?$char_traits@D@std@@V?$allocator@D@2@@2@V32@@std@@YAXAAV?$allocator@V?$basic_string@DU?$char_traits@D@std@@V?$allocator@D@2@@std@@@0@PAV?$basic_string@DU?$char_traits@D@std@@V?$allocator@D@2@@0@$$QAV20@@Z 10022100 f i ImfMultiView.obj
 0001:00021160       ??$_Uninit_move@PAV?$basic_string@DU?$char_traits@D@std@@V?$allocator@D@2@@std@@PAV12@V?$allocator@V?$basic_string@DU?$char_traits@D@std@@V?$allocator@D@2@@std@@@2@V12@@std@@YAPAV?$basic_string@DU?$char_traits@D@std@@V?$allocator@D@2@@0@PAV10@00AAV?$allocator@V?$basic_string@DU?$char_traits@D@std@@V?$allocator@D@2@@std@@@0@0U_Nonscalar_ptr_iterator_tag@0@@Z 10022160 f i ImfMultiView.obj
 0001:00021210       ??0?$_Tree@V?$_Tmap_traits@VName@Imf@@UChannel@2@U?$less@VName@Imf@@@std@@V?$allocator@U?$pair@$$CBVName@Imf@@UChannel@2@@std@@@5@$0A@@std@@@std@@QAE@ABV01@@Z 10022210 f i ImfMultiView.obj
 0001:000212f0       ??$_Uninitialized_move@PAV?$basic_string@DU?$char_traits@D@std@@V?$allocator@D@2@@std@@PAV12@V?$allocator@V?$basic_string@DU?$char_traits@D@std@@V?$allocator@D@2@@std@@@2@@std@@YAPAV?$basic_string@DU?$char_traits@D@std@@V?$allocator@D@2@@0@PAV10@00AAV?$allocator@V?$basic_string@DU?$char_traits@D@std@@V?$allocator@D@2@@std@@@0@@Z 100222f0 f i ImfMultiView.obj
 0001:00021320       ??0?$map@VName@Imf@@UChannel@2@U?$less@VName@Imf@@@std@@V?$allocator@U?$pair@$$CBVName@Imf@@UChannel@2@@std@@@5@@std@@QAE@ABV01@@Z 10022320 f i ImfMultiView.obj
 0001:00021320       ??0ChannelList@Imf@@QAE@ABV01@@Z 10022320 f i ImfMultiView.obj
 0001:00021340       ??$_Umove@PAV?$basic_string@DU?$char_traits@D@std@@V?$allocator@D@2@@std@@@?$vector@V?$basic_string@DU?$char_traits@D@std@@V?$allocator@D@2@@std@@V?$allocator@V?$basic_string@DU?$char_traits@D@std@@V?$allocator@D@2@@std@@@2@@std@@IAEPAV?$basic_string@DU?$char_traits@D@std@@V?$allocator@D@2@@1@PAV21@00@Z 10022340 f i ImfMultiView.obj
 0001:00021370       ?reserve@?$vector@V?$basic_string@DU?$char_traits@D@std@@V?$allocator@D@2@@std@@V?$allocator@V?$basic_string@DU?$char_traits@D@std@@V?$allocator@D@2@@std@@@2@@std@@QAEXI@Z 10022370 f i ImfMultiView.obj
 0001:00021490       ?_Reserve@?$vector@V?$basic_string@DU?$char_traits@D@std@@V?$allocator@D@2@@std@@V?$allocator@V?$basic_string@DU?$char_traits@D@std@@V?$allocator@D@2@@std@@@2@@std@@IAEXI@Z 10022490 f i ImfMultiView.obj
 0001:00021520       ?push_back@?$vector@V?$basic_string@DU?$char_traits@D@std@@V?$allocator@D@2@@std@@V?$allocator@V?$basic_string@DU?$char_traits@D@std@@V?$allocator@D@2@@std@@@2@@std@@QAEX$$QAV?$basic_string@DU?$char_traits@D@std@@V?$allocator@D@2@@2@@Z 10022520 f i ImfMultiView.obj
 0001:000215f0       ?push_back@?$vector@V?$basic_string@DU?$char_traits@D@std@@V?$allocator@D@2@@std@@V?$allocator@V?$basic_string@DU?$char_traits@D@std@@V?$allocator@D@2@@std@@@2@@std@@QAEXABV?$basic_string@DU?$char_traits@D@std@@V?$allocator@D@2@@2@@Z 100225f0 f i ImfMultiView.obj
 0001:000216c0       ?_Assign_rv@?$vector@V?$basic_string@DU?$char_traits@D@std@@V?$allocator@D@2@@std@@V?$allocator@V?$basic_string@DU?$char_traits@D@std@@V?$allocator@D@2@@std@@@2@@std@@QAEX$$QAV12@@Z 100226c0 f i ImfMultiView.obj
 0001:00021720       ?parseString@?A0x4734fbb7@Imf@@YA?AV?$vector@V?$basic_string@DU?$char_traits@D@std@@V?$allocator@D@2@@std@@V?$allocator@V?$basic_string@DU?$char_traits@D@std@@V?$allocator@D@2@@std@@@2@@std@@V?$basic_string@DU?$char_traits@D@std@@V?$allocator@D@2@@4@D@Z 10022720 f   ImfMultiView.obj
 0001:000219b0       ?viewFromChannelName@Imf@@YA?AV?$basic_string@DU?$char_traits@D@std@@V?$allocator@D@2@@std@@ABV23@ABV?$vector@V?$basic_string@DU?$char_traits@D@std@@V?$allocator@D@2@@std@@V?$allocator@V?$basic_string@DU?$char_traits@D@std@@V?$allocator@D@2@@std@@@2@@3@@Z 100229b0 f   ImfMultiView.obj
 0001:00021b10       ?channelsInView@Imf@@YA?AVChannelList@1@ABV?$basic_string@DU?$char_traits@D@std@@V?$allocator@D@2@@std@@ABV21@ABV?$vector@V?$basic_string@DU?$char_traits@D@std@@V?$allocator@D@2@@std@@V?$allocator@V?$basic_string@DU?$char_traits@D@std@@V?$allocator@D@2@@std@@@2@@4@@Z 10022b10 f   ImfMultiView.obj
 0001:00021d60       ?channelsInNoView@Imf@@YA?AVChannelList@1@ABV21@ABV?$vector@V?$basic_string@DU?$char_traits@D@std@@V?$allocator@D@2@@std@@V?$allocator@V?$basic_string@DU?$char_traits@D@std@@V?$allocator@D@2@@std@@@2@@std@@@Z 10022d60 f   ImfMultiView.obj
 0001:00021e00       ?areCounterparts@Imf@@YA_NABV?$basic_string@DU?$char_traits@D@std@@V?$allocator@D@2@@std@@0ABV?$vector@V?$basic_string@DU?$char_traits@D@std@@V?$allocator@D@2@@std@@V?$allocator@V?$basic_string@DU?$char_traits@D@std@@V?$allocator@D@2@@std@@@2@@3@@Z 10022e00 f   ImfMultiView.obj
 0001:00022100       ?channelInAllViews@Imf@@YA?AVChannelList@1@ABV?$basic_string@DU?$char_traits@D@std@@V?$allocator@D@2@@std@@ABV21@ABV?$vector@V?$basic_string@DU?$char_traits@D@std@@V?$allocator@D@2@@std@@V?$allocator@V?$basic_string@DU?$char_traits@D@std@@V?$allocator@D@2@@std@@@2@@4@@Z 10023100 f   ImfMultiView.obj
 0001:00022380       ?channelInOtherView@Imf@@YA?AV?$basic_string@DU?$char_traits@D@std@@V?$allocator@D@2@@std@@ABV23@ABVChannelList@1@ABV?$vector@V?$basic_string@DU?$char_traits@D@std@@V?$allocator@D@2@@std@@V?$allocator@V?$basic_string@DU?$char_traits@D@std@@V?$allocator@D@2@@std@@@2@@3@0@Z 10023380 f   ImfMultiView.obj
 0001:00022610       ?insertViewName@Imf@@YA?AV?$basic_string@DU?$char_traits@D@std@@V?$allocator@D@2@@std@@ABV23@ABV?$vector@V?$basic_string@DU?$char_traits@D@std@@V?$allocator@D@2@@std@@V?$allocator@V?$basic_string@DU?$char_traits@D@std@@V?$allocator@D@2@@std@@@2@@3@H@Z 10023610 f   ImfMultiView.obj
 0001:00022890       ??0?$Array@D@Imf@@QAE@J@Z  10023890 f i ImfOpaqueAttribute.obj
 0001:000228b0       ?resizeErase@?$Array@D@Imf@@QAEXJ@Z 100238b0 f i ImfOpaqueAttribute.obj
 0001:000228e0       ??0OpaqueAttribute@Imf@@QAE@QBD@Z 100238e0 f   ImfOpaqueAttribute.obj
 0001:00022970       ??0OpaqueAttribute@Imf@@QAE@ABV01@@Z 10023970 f   ImfOpaqueAttribute.obj
 0001:00022a40       ??1OpaqueAttribute@Imf@@UAE@XZ 10023a40 f   ImfOpaqueAttribute.obj
 0001:00022a70       ?copy@OpaqueAttribute@Imf@@UBEPAVAttribute@2@XZ 10023a70 f   ImfOpaqueAttribute.obj
 0001:00022ae0       ?writeValueTo@OpaqueAttribute@Imf@@UBEXAAVOStream@2@H@Z 10023ae0 f   ImfOpaqueAttribute.obj
 0001:00022b00       ?readValueFrom@OpaqueAttribute@Imf@@UAEXAAVIStream@2@HH@Z 10023b00 f   ImfOpaqueAttribute.obj
 0001:00022b40       ??_EOpaqueAttribute@Imf@@UAEPAXI@Z 10023b40 f i ImfOpaqueAttribute.obj
 0001:00022b40       ??_GOpaqueAttribute@Imf@@UAEPAXI@Z 10023b40 f i ImfOpaqueAttribute.obj
 0001:00022b80       ?copyValueFrom@OpaqueAttribute@Imf@@UAEXABVAttribute@2@@Z 10023b80 f   ImfOpaqueAttribute.obj
 0001:00022d60       ??0LogicExc@Iex@@QAE@AAV?$basic_stringstream@DU?$char_traits@D@std@@V?$allocator@D@2@@std@@@Z 10023d60 f i ImfOutputFile.obj
 0001:00022d80       ??0IoExc@Iex@@QAE@ABV?$basic_string@DU?$char_traits@D@std@@V?$allocator@D@2@@std@@@Z 10023d80 f i ImfOutputFile.obj
 0001:00022da0       ??0OutSliceInfo@?A0xf57f9ec6@Imf@@QAE@W4PixelType@2@PBDIIHH_N@Z 10023da0 f   ImfOutputFile.obj
 0001:00022de0       ?post@TileBuffer@?A0xf6fcebb6@Imf@@QAEXXZ 10023de0 f i ImfTiledInputFile.obj
 0001:00022de0       ?post@LineBuffer@?A0xf57f9ec6@Imf@@QAEXXZ 10023de0 f i ImfOutputFile.obj
 0001:00022df0       ??1LineBufferTask@?A0xf57f9ec6@Imf@@UAE@XZ 10023df0 f   ImfOutputFile.obj
 0001:00022e50       ?fileName@OutputFile@Imf@@QBEPBDXZ 10023e50 f   ImfOutputFile.obj
 0001:00022e60       ?frameBuffer@OutputFile@Imf@@QBEABVFrameBuffer@2@XZ 10023e60 f   ImfOutputFile.obj
 0001:00022e80       ?currentScanLine@OutputFile@Imf@@QBEHXZ 10023e80 f   ImfOutputFile.obj
 0001:00022ea0       ?size@?$vector@_KV?$allocator@_K@std@@@std@@QBEIXZ 10023ea0 f i ImfOutputFile.obj
 0001:00022eb0       ??A?$vector@_KV?$allocator@_K@std@@@std@@QBEAB_KI@Z 10023eb0 f i ImfOutputFile.obj
 0001:00022eb0       ??A?$vector@_KV?$allocator@_K@std@@@std@@QAEAA_KI@Z 10023eb0 f i ImfOutputFile.obj
 0001:00022ec0       ?size@?$vector@UTOutSliceInfo@?A0x39e5c904@Imf@@V?$allocator@UTOutSliceInfo@?A0x39e5c904@Imf@@@std@@@std@@QBEIXZ 10023ec0 f i ImfTiledOutputFile.obj
 0001:00022ec0       ?size@?$vector@V?$basic_string@DU?$char_traits@D@std@@V?$allocator@D@2@@std@@V?$allocator@V?$basic_string@DU?$char_traits@D@std@@V?$allocator@D@2@@std@@@2@@std@@QBEIXZ 10023ec0 f i ImfHeader.obj
 0001:00022ec0       ?size@?$vector@UOutSliceInfo@?A0xf57f9ec6@Imf@@V?$allocator@UOutSliceInfo@?A0xf57f9ec6@Imf@@@std@@@std@@QBEIXZ 10023ec0 f i ImfOutputFile.obj
 0001:00022ee0       ?capacity@?$vector@V?$basic_string@DU?$char_traits@D@std@@V?$allocator@D@2@@std@@V?$allocator@V?$basic_string@DU?$char_traits@D@std@@V?$allocator@D@2@@std@@@2@@std@@QBEIXZ 10023ee0 f i ImfHeader.obj
 0001:00022ee0       ?capacity@?$vector@UOutSliceInfo@?A0xf57f9ec6@Imf@@V?$allocator@UOutSliceInfo@?A0xf57f9ec6@Imf@@@std@@@std@@QBEIXZ 10023ee0 f i ImfOutputFile.obj
 0001:00022ee0       ?capacity@?$vector@UTOutSliceInfo@?A0x39e5c904@Imf@@V?$allocator@UTOutSliceInfo@?A0x39e5c904@Imf@@@std@@@std@@QBEIXZ 10023ee0 f i ImfTiledOutputFile.obj
 0001:00022f00       ?capacity@?$vector@_KV?$allocator@_K@std@@@std@@QBEIXZ 10023f00 f i ImfOutputFile.obj
 0001:00022f10       ??Y?$_Vector_const_iterator@V?$_Vector_val@_KV?$allocator@_K@std@@@std@@@std@@QAEAAV01@H@Z 10023f10 f i ImfOutputFile.obj
 0001:00022f10       ??Y?$_Vector_iterator@V?$_Vector_val@_KV?$allocator@_K@std@@@std@@@std@@QAEAAV01@H@Z 10023f10 f i ImfOutputFile.obj
 0001:00022f30       ??$_Allocate@V?$basic_string@DU?$char_traits@D@std@@V?$allocator@D@2@@std@@@std@@YAPAV?$basic_string@DU?$char_traits@D@std@@V?$allocator@D@2@@0@IPAV10@@Z 10023f30 f i ImfHeader.obj
 0001:00022f30       ??$_Allocate@UOutSliceInfo@?A0xf57f9ec6@Imf@@@std@@YAPAUOutSliceInfo@?A0xf57f9ec6@Imf@@IPAU123@@Z 10023f30 f i ImfOutputFile.obj
 0001:00022f30       ??$_Allocate@UTOutSliceInfo@?A0x39e5c904@Imf@@@std@@YAPAUTOutSliceInfo@?A0x39e5c904@Imf@@IPAU123@@Z 10023f30 f i ImfTiledOutputFile.obj
 0001:00022f90       ??$_Allocate@_K@std@@YAPA_KIPA_K@Z 10023f90 f i ImfOutputFile.obj
 0001:00022ff0       ??$_Allocate@PAULineBuffer@?A0xcbf8ace6@Imf@@@std@@YAPAPAULineBuffer@?A0xcbf8ace6@Imf@@IPAPAU123@@Z 10023ff0 f i ImfScanLineInputFile.obj
 0001:00022ff0       ??$_Allocate@PAUTileBuffer@?A0x39e5c904@Imf@@@std@@YAPAPAUTileBuffer@?A0x39e5c904@Imf@@IPAPAU123@@Z 10023ff0 f i ImfTiledOutputFile.obj
 0001:00022ff0       ??$_Allocate@PAULineBuffer@?A0xf57f9ec6@Imf@@@std@@YAPAPAULineBuffer@?A0xf57f9ec6@Imf@@IPAPAU123@@Z 10023ff0 f i ImfOutputFile.obj
 0001:00022ff0       ??$_Allocate@PAUTileBuffer@?A0xf6fcebb6@Imf@@@std@@YAPAPAUTileBuffer@?A0xf6fcebb6@Imf@@IPAPAU123@@Z 10023ff0 f i ImfTiledInputFile.obj
 0001:00022ff0       ??$_Allocate@I@std@@YAPAIIPAI@Z 10023ff0 f i ImfMisc.obj
 0001:00023050       ??$?8H@?$Vec2@H@Imath@@QBE_NABV01@@Z 10024050 f i ImfOutputFile.obj
 0001:00023080       ??$_Move@PAUTOutSliceInfo@?A0x39e5c904@Imf@@PAU123@@std@@YAPAUTOutSliceInfo@?A0x39e5c904@Imf@@PAU123@00U_Nonscalar_ptr_iterator_tag@0@@Z 10024080 f i ImfTiledOutputFile.obj
 0001:00023080       ??$_Copy_impl@PAUOutSliceInfo@?A0xf57f9ec6@Imf@@PAU123@@std@@YAPAUOutSliceInfo@?A0xf57f9ec6@Imf@@PAU123@00U_Nonscalar_ptr_iterator_tag@0@@Z 10024080 f i ImfOutputFile.obj
 0001:00023080       ??$_Copy_impl@PAUTOutSliceInfo@?A0x39e5c904@Imf@@PAU123@@std@@YAPAUTOutSliceInfo@?A0x39e5c904@Imf@@PAU123@00U_Nonscalar_ptr_iterator_tag@0@@Z 10024080 f i ImfTiledOutputFile.obj
 0001:00023080       ??$_Move@PAUOutSliceInfo@?A0xf57f9ec6@Imf@@PAU123@@std@@YAPAUOutSliceInfo@?A0xf57f9ec6@Imf@@PAU123@00U_Nonscalar_ptr_iterator_tag@0@@Z 10024080 f i ImfOutputFile.obj
 0001:000230c0       ??$_Ptr_cat@PAULineBuffer@?A0xcbf8ace6@Imf@@PAU123@@std@@YA?AU_Scalar_ptr_iterator_tag@0@PAPAULineBuffer@?A0xcbf8ace6@Imf@@0@Z 100240c0 f i ImfScanLineInputFile.obj
 0001:000230c0       ??$_Ptr_cat@UTInSliceInfo@?A0xf6fcebb6@Imf@@U123@@std@@YA?AU_Nonscalar_ptr_iterator_tag@0@PAUTInSliceInfo@?A0xf6fcebb6@Imf@@0@Z 100240c0 f i ImfTiledInputFile.obj
 0001:000230c0       ??$_Ptr_cat@UInSliceInfo@?A0xcbf8ace6@Imf@@U123@@std@@YA?AU_Nonscalar_ptr_iterator_tag@0@PAUInSliceInfo@?A0xcbf8ace6@Imf@@0@Z 100240c0 f i ImfScanLineInputFile.obj
 0001:000230c0       ??$_Ptr_cat@PAULineBuffer@?A0xf57f9ec6@Imf@@PAU123@@std@@YA?AU_Scalar_ptr_iterator_tag@0@PAPAULineBuffer@?A0xf57f9ec6@Imf@@0@Z 100240c0 f i ImfOutputFile.obj
 0001:000230c0       ??$_Ptr_cat@V?$_Vector_const_iterator@V?$_Vector_val@_KV?$allocator@_K@std@@@std@@@std@@PA_K@std@@YA?AU_Nonscalar_ptr_iterator_tag@0@AAV?$_Vector_const_iterator@V?$_Vector_val@_KV?$allocator@_K@std@@@std@@@0@AAPA_K@Z 100240c0 f i ImfTiledInputFile.obj
 0001:000230c0       ??$_Ptr_cat@_K_K@std@@YA?AU_Scalar_ptr_iterator_tag@0@PA_K0@Z 100240c0 f i ImfOutputFile.obj
 0001:000230c0       ??$_Ptr_cat@V?$vector@_KV?$allocator@_K@std@@@std@@V12@@std@@YA?AU_Nonscalar_ptr_iterator_tag@0@PAV?$vector@_KV?$allocator@_K@std@@@0@0@Z 100240c0 f i ImfTiledInputFile.obj
 0001:000230c0       ??$_Ptr_cat@V?$_Vector_const_iterator@V?$_Vector_val@V?$vector@_KV?$allocator@_K@std@@@std@@V?$allocator@V?$vector@_KV?$allocator@_K@std@@@std@@@2@@std@@@std@@PAV?$vector@_KV?$allocator@_K@std@@@2@@std@@YA?AU_Nonscalar_ptr_iterator_tag@0@AAV?$_Vector_const_iterator@V?$_Vector_val@V?$vector@_KV?$allocator@_K@std@@@std@@V?$allocator@V?$vector@_KV?$allocator@_K@std@@@std@@@2@@std@@@0@AAPAV?$vector@_KV?$allocator@_K@std@@@0@@Z 100240c0 f i ImfTiledInputFile.obj
 0001:000230c0       ??$_Ptr_cat@V?$vector@V?$vector@_KV?$allocator@_K@std@@@std@@V?$allocator@V?$vector@_KV?$allocator@_K@std@@@std@@@2@@std@@V12@@std@@YA?AU_Nonscalar_ptr_iterator_tag@0@PAV?$vector@V?$vector@_KV?$allocator@_K@std@@@std@@V?$allocator@V?$vector@_KV?$allocator@_K@std@@@std@@@2@@0@0@Z 100240c0 f i ImfTiledInputFile.obj
 0001:000230c0       ??$_Ptr_cat@II@std@@YA?AU_Scalar_ptr_iterator_tag@0@PAI0@Z 100240c0 f i ImfMisc.obj
 0001:000230c0       ??$_Ptr_cat@V?$_Vector_const_iterator@V?$_Vector_val@V?$basic_string@DU?$char_traits@D@std@@V?$allocator@D@2@@std@@V?$allocator@V?$basic_string@DU?$char_traits@D@std@@V?$allocator@D@2@@std@@@2@@std@@@std@@PAV?$basic_string@DU?$char_traits@D@std@@V?$allocator@D@2@@2@@std@@YA?AU_Nonscalar_ptr_iterator_tag@0@AAV?$_Vector_const_iterator@V?$_Vector_val@V?$basic_string@DU?$char_traits@D@std@@V?$allocator@D@2@@std@@V?$allocator@V?$basic_string@DU?$char_traits@D@std@@V?$allocator@D@2@@std@@@2@@std@@@0@AAPAV?$basic_string@DU?$char_traits@D@std@@V?$allocator@D@2@@0@@Z 100240c0 f i ImfStandardAttributes.obj
 0001:000230c0       ??$_Ptr_cat@UOutSliceInfo@?A0xf57f9ec6@Imf@@U123@@std@@YA?AU_Nonscalar_ptr_iterator_tag@0@PAUOutSliceInfo@?A0xf57f9ec6@Imf@@0@Z 100240c0 f i ImfOutputFile.obj
 0001:000230c0       ??$_Ptr_cat@PAUTileBuffer@?A0xf6fcebb6@Imf@@PAU123@@std@@YA?AU_Scalar_ptr_iterator_tag@0@PAPAUTileBuffer@?A0xf6fcebb6@Imf@@0@Z 100240c0 f i ImfTiledInputFile.obj
 0001:000230c0       ??$_Ptr_cat@UTOutSliceInfo@?A0x39e5c904@Imf@@U123@@std@@YA?AU_Nonscalar_ptr_iterator_tag@0@PAUTOutSliceInfo@?A0x39e5c904@Imf@@0@Z 100240c0 f i ImfTiledOutputFile.obj
 0001:000230c0       ??$_Ptr_cat@V?$basic_string@DU?$char_traits@D@std@@V?$allocator@D@2@@std@@V12@@std@@YA?AU_Nonscalar_ptr_iterator_tag@0@PAV?$basic_string@DU?$char_traits@D@std@@V?$allocator@D@2@@0@0@Z 100240c0 f i ImfHeader.obj
 0001:000230c0       ??$_Ptr_cat@PAUTileBuffer@?A0x39e5c904@Imf@@PAU123@@std@@YA?AU_Scalar_ptr_iterator_tag@0@PAPAUTileBuffer@?A0x39e5c904@Imf@@0@Z 100240c0 f i ImfTiledOutputFile.obj
 0001:000230d0       ??$_Fill_n@PA_KI_K@std@@YAXPA_KIAB_K@Z 100240d0 f i ImfOutputFile.obj
 0001:00023100       ??$_Uninitialized_move@PA_KPA_KV?$allocator@_K@std@@@std@@YAPA_KPA_K00AAV?$allocator@_K@0@@Z 10024100 f i ImfOutputFile.obj
 0001:00023100       ??$_Uninit_move@_K_K_K@std@@YAPA_KPA_K00AAV?$allocator@_K@0@0U_Scalar_ptr_iterator_tag@0@@Z 10024100 f i ImfOutputFile.obj
 0001:00023100       ??$_Uninitialized_copy@PA_KPA_KV?$allocator@_K@std@@@std@@YAPA_KPA_K00AAV?$allocator@_K@0@@Z 10024100 f i ImfTiledInputFile.obj
 0001:00023100       ??$_Uninit_copy@_K_K@std@@YAPA_KPA_K00AAV?$allocator@_K@0@U_Scalar_ptr_iterator_tag@0@@Z 10024100 f i ImfTiledInputFile.obj
 0001:00023130       ?convertToXdr@?A0xf57f9ec6@Imf@@YAXPAUData@OutputFile@2@AAV?$Array@D@2@HHH@Z 10024130 f   ImfOutputFile.obj
 0001:000232f0       ??0LineBufferTask@?A0xf57f9ec6@Imf@@QAE@PAVTaskGroup@IlmThread@@PAUData@OutputFile@2@HHH@Z 100242f0 f   ImfOutputFile.obj
 0001:00023400       ??_ELineBufferTask@?A0xf57f9ec6@Imf@@UAEPAXI@Z 10024400 f i ImfOutputFile.obj
 0001:00023400       ??_GLineBufferTask@?A0xf57f9ec6@Imf@@UAEPAXI@Z 10024400 f i ImfOutputFile.obj
 0001:00023480       ?_Grow_to@?$vector@_KV?$allocator@_K@std@@@std@@IBEII@Z 10024480 f i ImfOutputFile.obj
 0001:000234b0       ?allocate@?$allocator@V?$basic_string@DU?$char_traits@D@std@@V?$allocator@D@2@@std@@@std@@QAEPAV?$basic_string@DU?$char_traits@D@std@@V?$allocator@D@2@@2@I@Z 100244b0 f i ImfHeader.obj
 0001:000234b0       ?allocate@?$allocator@UOutSliceInfo@?A0xf57f9ec6@Imf@@@std@@QAEPAUOutSliceInfo@?A0xf57f9ec6@Imf@@I@Z 100244b0 f i ImfOutputFile.obj
 0001:000234b0       ?allocate@?$allocator@UTOutSliceInfo@?A0x39e5c904@Imf@@@std@@QAEPAUTOutSliceInfo@?A0x39e5c904@Imf@@I@Z 100244b0 f i ImfTiledOutputFile.obj
 0001:00023510       ?allocate@?$allocator@_K@std@@QAEPA_KI@Z 10024510 f i ImfOutputFile.obj
 0001:00023570       ??$write@UStreamIO@Imf@@VOStream@2@@Xdr@Imf@@YAXAAVOStream@1@_K@Z 10024570 f i ImfOutputFile.obj
 0001:000235f0       ??$_Copy_impl@PAUOutSliceInfo@?A0xf57f9ec6@Imf@@PAU123@@std@@YAPAUOutSliceInfo@?A0xf57f9ec6@Imf@@PAU123@00@Z 100245f0 f i ImfOutputFile.obj
 0001:000235f0       ??$_Copy_impl@PAUTOutSliceInfo@?A0x39e5c904@Imf@@PAU123@@std@@YAPAUTOutSliceInfo@?A0x39e5c904@Imf@@PAU123@00@Z 100245f0 f i ImfTiledOutputFile.obj
 0001:000235f0       ??$_Move@PAUTOutSliceInfo@?A0x39e5c904@Imf@@PAU123@@std@@YAPAUTOutSliceInfo@?A0x39e5c904@Imf@@PAU123@00@Z 100245f0 f i ImfTiledOutputFile.obj
 0001:000235f0       ??$_Move@PAUOutSliceInfo@?A0xf57f9ec6@Imf@@PAU123@@std@@YAPAUOutSliceInfo@?A0xf57f9ec6@Imf@@PAU123@00@Z 100245f0 f i ImfOutputFile.obj
 0001:00023610       ??$_Cons_val@V?$allocator@UOutSliceInfo@?A0xf57f9ec6@Imf@@@std@@UOutSliceInfo@?A0xf57f9ec6@Imf@@U345@@std@@YAXAAV?$allocator@UOutSliceInfo@?A0xf57f9ec6@Imf@@@0@PAUOutSliceInfo@?A0xf57f9ec6@Imf@@$$QAU234@@Z 10024610 f i ImfOutputFile.obj
 0001:00023610       ??$_Cons_val@V?$allocator@UTOutSliceInfo@?A0x39e5c904@Imf@@@std@@UTOutSliceInfo@?A0x39e5c904@Imf@@U345@@std@@YAXAAV?$allocator@UTOutSliceInfo@?A0x39e5c904@Imf@@@0@PAUTOutSliceInfo@?A0x39e5c904@Imf@@$$QAU234@@Z 10024610 f i ImfTiledOutputFile.obj
 0001:00023610       ??$_Cons_val@V?$allocator@UOutSliceInfo@?A0xf57f9ec6@Imf@@@std@@UOutSliceInfo@?A0xf57f9ec6@Imf@@AAU345@@std@@YAXAAV?$allocator@UOutSliceInfo@?A0xf57f9ec6@Imf@@@0@PAUOutSliceInfo@?A0xf57f9ec6@Imf@@AAU234@@Z 10024610 f i ImfOutputFile.obj
 0001:00023610       ??$_Cons_val@V?$allocator@UTOutSliceInfo@?A0x39e5c904@Imf@@@std@@UTOutSliceInfo@?A0x39e5c904@Imf@@AAU345@@std@@YAXAAV?$allocator@UTOutSliceInfo@?A0x39e5c904@Imf@@@0@PAUTOutSliceInfo@?A0x39e5c904@Imf@@AAU234@@Z 10024610 f i ImfTiledOutputFile.obj
 0001:00023650       ?writePixelData@?A0xf57f9ec6@Imf@@YAXPAUData@OutputFile@2@HQBDH@Z 10024650 f   ImfOutputFile.obj
 0001:00023740       ?writePixelData@?A0xf57f9ec6@Imf@@YAXPAUData@OutputFile@2@PBULineBuffer@12@@Z 10024740 f i ImfOutputFile.obj
 0001:00023760       ??H?$_Vector_iterator@V?$_Vector_val@_KV?$allocator@_K@std@@@std@@@std@@QBE?AV01@H@Z 10024760 f i ImfOutputFile.obj
 0001:00023780       ??$_Uninit_def_fill_n@_KI_K_K@std@@YAXPA_KIPB_KAAV?$allocator@_K@0@0U_Scalar_ptr_iterator_tag@0@@Z 10024780 f i ImfOutputFile.obj
 0001:00023780       ??$_Uninitialized_default_fill_n@PA_KI_KV?$allocator@_K@std@@@std@@YAXPA_KIPB_KAAV?$allocator@_K@0@@Z 10024780 f i ImfOutputFile.obj
 0001:000237b0       ?erase@?$vector@_KV?$allocator@_K@std@@@std@@QAE?AV?$_Vector_iterator@V?$_Vector_val@_KV?$allocator@_K@std@@@std@@@2@V?$_Vector_const_iterator@V?$_Vector_val@_KV?$allocator@_K@std@@@std@@@2@0@Z 100247b0 f i ImfOutputFile.obj
 0001:00023810       ?_Tidy@?$vector@_KV?$allocator@_K@std@@@std@@IAEXXZ 10024810 f i ImfOutputFile.obj
 0001:00023810       ?_Tidy@?$vector@UOutSliceInfo@?A0xf57f9ec6@Imf@@V?$allocator@UOutSliceInfo@?A0xf57f9ec6@Imf@@@std@@@std@@IAEXXZ 10024810 f i ImfOutputFile.obj
 0001:00023810       ??1?$vector@_KV?$allocator@_K@std@@@std@@QAE@XZ 10024810 f i ImfOutputFile.obj
 0001:00023810       ??1?$vector@UTOutSliceInfo@?A0x39e5c904@Imf@@V?$allocator@UTOutSliceInfo@?A0x39e5c904@Imf@@@std@@@std@@QAE@XZ 10024810 f i ImfTiledOutputFile.obj
 0001:00023810       ??1?$vector@IV?$allocator@I@std@@@std@@QAE@XZ 10024810 f i ImfOutputFile.obj
 0001:00023810       ?_Tidy@?$vector@PAULineBuffer@?A0xf57f9ec6@Imf@@V?$allocator@PAULineBuffer@?A0xf57f9ec6@Imf@@@std@@@std@@IAEXXZ 10024810 f i ImfOutputFile.obj
 0001:00023810       ??1?$vector@UInSliceInfo@?A0xcbf8ace6@Imf@@V?$allocator@UInSliceInfo@?A0xcbf8ace6@Imf@@@std@@@std@@QAE@XZ 10024810 f i ImfScanLineInputFile.obj
 0001:00023810       ?_Tidy@?$vector@PAUTileBuffer@?A0xf6fcebb6@Imf@@V?$allocator@PAUTileBuffer@?A0xf6fcebb6@Imf@@@std@@@std@@IAEXXZ 10024810 f i ImfTiledInputFile.obj
 0001:00023810       ??1?$vector@PAUTileBuffer@?A0x39e5c904@Imf@@V?$allocator@PAUTileBuffer@?A0x39e5c904@Imf@@@std@@@std@@QAE@XZ 10024810 f i ImfTiledOutputFile.obj
 0001:00023810       ?_Tidy@?$vector@PAULineBuffer@?A0xcbf8ace6@Imf@@V?$allocator@PAULineBuffer@?A0xcbf8ace6@Imf@@@std@@@std@@IAEXXZ 10024810 f i ImfScanLineInputFile.obj
 0001:00023810       ??1?$vector@PAULineBuffer@?A0xcbf8ace6@Imf@@V?$allocator@PAULineBuffer@?A0xcbf8ace6@Imf@@@std@@@std@@QAE@XZ 10024810 f i ImfScanLineInputFile.obj
 0001:00023810       ??1?$vector@UOutSliceInfo@?A0xf57f9ec6@Imf@@V?$allocator@UOutSliceInfo@?A0xf57f9ec6@Imf@@@std@@@std@@QAE@XZ 10024810 f i ImfOutputFile.obj
 0001:00023810       ?_Tidy@?$vector@UTOutSliceInfo@?A0x39e5c904@Imf@@V?$allocator@UTOutSliceInfo@?A0x39e5c904@Imf@@@std@@@std@@IAEXXZ 10024810 f i ImfTiledOutputFile.obj
 0001:00023810       ??1?$vector@PAULineBuffer@?A0xf57f9ec6@Imf@@V?$allocator@PAULineBuffer@?A0xf57f9ec6@Imf@@@std@@@std@@QAE@XZ 10024810 f i ImfOutputFile.obj
 0001:00023810       ?_Tidy@?$vector@IV?$allocator@I@std@@@std@@IAEXXZ 10024810 f i ImfOutputFile.obj
 0001:00023810       ?_Tidy@?$vector@PAUTileBuffer@?A0x39e5c904@Imf@@V?$allocator@PAUTileBuffer@?A0x39e5c904@Imf@@@std@@@std@@IAEXXZ 10024810 f i ImfTiledOutputFile.obj
 0001:00023810       ?_Tidy@?$vector@UTInSliceInfo@?A0xf6fcebb6@Imf@@V?$allocator@UTInSliceInfo@?A0xf6fcebb6@Imf@@@std@@@std@@IAEXXZ 10024810 f i ImfTiledInputFile.obj
 0001:00023810       ??1?$vector@PAUTileBuffer@?A0xf6fcebb6@Imf@@V?$allocator@PAUTileBuffer@?A0xf6fcebb6@Imf@@@std@@@std@@QAE@XZ 10024810 f i ImfTiledInputFile.obj
 0001:00023810       ?_Tidy@?$vector@UInSliceInfo@?A0xcbf8ace6@Imf@@V?$allocator@UInSliceInfo@?A0xcbf8ace6@Imf@@@std@@@std@@IAEXXZ 10024810 f i ImfScanLineInputFile.obj
 0001:00023810       ??1?$vector@UTInSliceInfo@?A0xf6fcebb6@Imf@@V?$allocator@UTInSliceInfo@?A0xf6fcebb6@Imf@@@std@@@std@@QAE@XZ 10024810 f i ImfTiledInputFile.obj
 0001:00023840       ?reserve@?$vector@_KV?$allocator@_K@std@@@std@@QAEXI@Z 10024840 f i ImfOutputFile.obj
 0001:000238c0       ??$_Uninit_move@PAUTOutSliceInfo@?A0x39e5c904@Imf@@PAU123@V?$allocator@UTOutSliceInfo@?A0x39e5c904@Imf@@@std@@U123@@std@@YAPAUTOutSliceInfo@?A0x39e5c904@Imf@@PAU123@00AAV?$allocator@UTOutSliceInfo@?A0x39e5c904@Imf@@@0@0U_Nonscalar_ptr_iterator_tag@0@@Z 100248c0 f i ImfTiledOutputFile.obj
 0001:000238c0       ??$_Uninit_move@PAUOutSliceInfo@?A0xf57f9ec6@Imf@@PAU123@V?$allocator@UOutSliceInfo@?A0xf57f9ec6@Imf@@@std@@U123@@std@@YAPAUOutSliceInfo@?A0xf57f9ec6@Imf@@PAU123@00AAV?$allocator@UOutSliceInfo@?A0xf57f9ec6@Imf@@@0@0U_Nonscalar_ptr_iterator_tag@0@@Z 100248c0 f i ImfOutputFile.obj
 0001:000238c0       ??$_Uninit_copy@PAUOutSliceInfo@?A0xf57f9ec6@Imf@@PAU123@V?$allocator@UOutSliceInfo@?A0xf57f9ec6@Imf@@@std@@@std@@YAPAUOutSliceInfo@?A0xf57f9ec6@Imf@@PAU123@00AAV?$allocator@UOutSliceInfo@?A0xf57f9ec6@Imf@@@0@U_Nonscalar_ptr_iterator_tag@0@@Z 100248c0 f i ImfOutputFile.obj
 0001:000238c0       ??$_Uninit_copy@PAUTOutSliceInfo@?A0x39e5c904@Imf@@PAU123@V?$allocator@UTOutSliceInfo@?A0x39e5c904@Imf@@@std@@@std@@YAPAUTOutSliceInfo@?A0x39e5c904@Imf@@PAU123@00AAV?$allocator@UTOutSliceInfo@?A0x39e5c904@Imf@@@0@U_Nonscalar_ptr_iterator_tag@0@@Z 100248c0 f i ImfTiledOutputFile.obj
 0001:00023910       ??0LineBuffer@?A0xf57f9ec6@Imf@@QAE@PAVCompressor@2@@Z 10024910 f   ImfOutputFile.obj
 0001:00023980       ??1LineBuffer@?A0xf57f9ec6@Imf@@QAE@XZ 10024980 f   ImfOutputFile.obj
 0001:00023a10       ??_GLineBuffer@?A0xf57f9ec6@Imf@@QAEPAXI@Z 10024a10 f i ImfOutputFile.obj
 0001:00023ab0       ?writePixels@OutputFile@Imf@@QAEXH@Z 10024ab0 f   ImfOutputFile.obj
 0001:00024090       ??0IoExc@Iex@@QAE@ABV01@@Z 10025090 f i ImfOutputFile.obj
 0001:000240b0       ?copyPixels@OutputFile@Imf@@QAEXAAVInputFile@2@@Z 100250b0 f   ImfOutputFile.obj
 0001:00024810       ??0LogicExc@Iex@@QAE@ABV01@@Z 10025810 f i ImfOutputFile.obj
 0001:00024830       ?updatePreviewImage@OutputFile@Imf@@QAEXQBUPreviewRgba@2@@Z 10025830 f   ImfOutputFile.obj
 0001:00024ba0       ?breakScanLine@OutputFile@Imf@@QAEXHHHD@Z 10025ba0 f   ImfOutputFile.obj
 0001:00024d90       ?_Reserve@?$vector@_KV?$allocator@_K@std@@@std@@IAEXI@Z 10025d90 f i ImfOutputFile.obj
 0001:00024e00       ??$_Umove@PAUOutSliceInfo@?A0xf57f9ec6@Imf@@@?$vector@UOutSliceInfo@?A0xf57f9ec6@Imf@@V?$allocator@UOutSliceInfo@?A0xf57f9ec6@Imf@@@std@@@std@@IAEPAUOutSliceInfo@?A0xf57f9ec6@Imf@@PAU234@00@Z 10025e00 f i ImfOutputFile.obj
 0001:00024e00       ??$_Umove@PAUTOutSliceInfo@?A0x39e5c904@Imf@@@?$vector@UTOutSliceInfo@?A0x39e5c904@Imf@@V?$allocator@UTOutSliceInfo@?A0x39e5c904@Imf@@@std@@@std@@IAEPAUTOutSliceInfo@?A0x39e5c904@Imf@@PAU234@00@Z 10025e00 f i ImfTiledOutputFile.obj
 0001:00024e30       ?resize@?$vector@_KV?$allocator@_K@std@@@std@@QAEXI@Z 10025e30 f i ImfOutputFile.obj
 0001:00024ed0       ?reserve@?$vector@UOutSliceInfo@?A0xf57f9ec6@Imf@@V?$allocator@UOutSliceInfo@?A0xf57f9ec6@Imf@@@std@@@std@@QAEXI@Z 10025ed0 f i ImfOutputFile.obj
 0001:00024ed0       ?reserve@?$vector@UTOutSliceInfo@?A0x39e5c904@Imf@@V?$allocator@UTOutSliceInfo@?A0x39e5c904@Imf@@@std@@@std@@QAEXI@Z 10025ed0 f i ImfTiledOutputFile.obj
 0001:00024fe0       ?erase@?$vector@UTOutSliceInfo@?A0x39e5c904@Imf@@V?$allocator@UTOutSliceInfo@?A0x39e5c904@Imf@@@std@@@std@@QAE?AV?$_Vector_iterator@V?$_Vector_val@UTOutSliceInfo@?A0x39e5c904@Imf@@V?$allocator@UTOutSliceInfo@?A0x39e5c904@Imf@@@std@@@std@@@2@V?$_Vector_const_iterator@V?$_Vector_val@UTOutSliceInfo@?A0x39e5c904@Imf@@V?$allocator@UTOutSliceInfo@?A0x39e5c904@Imf@@@std@@@std@@@2@0@Z 10025fe0 f i ImfTiledOutputFile.obj
 0001:00024fe0       ?erase@?$vector@UOutSliceInfo@?A0xf57f9ec6@Imf@@V?$allocator@UOutSliceInfo@?A0xf57f9ec6@Imf@@@std@@@std@@QAE?AV?$_Vector_iterator@V?$_Vector_val@UOutSliceInfo@?A0xf57f9ec6@Imf@@V?$allocator@UOutSliceInfo@?A0xf57f9ec6@Imf@@@std@@@std@@@2@V?$_Vector_const_iterator@V?$_Vector_val@UOutSliceInfo@?A0xf57f9ec6@Imf@@V?$allocator@UOutSliceInfo@?A0xf57f9ec6@Imf@@@std@@@std@@@2@0@Z 10025fe0 f i ImfOutputFile.obj
 0001:00025020       ??$_Ucopy@PAUTOutSliceInfo@?A0x39e5c904@Imf@@@?$vector@UTOutSliceInfo@?A0x39e5c904@Imf@@V?$allocator@UTOutSliceInfo@?A0x39e5c904@Imf@@@std@@@std@@IAEPAUTOutSliceInfo@?A0x39e5c904@Imf@@PAU234@00@Z 10026020 f i ImfTiledOutputFile.obj
 0001:00025020       ??$_Ucopy@PAUOutSliceInfo@?A0xf57f9ec6@Imf@@@?$vector@UOutSliceInfo@?A0xf57f9ec6@Imf@@V?$allocator@UOutSliceInfo@?A0xf57f9ec6@Imf@@@std@@@std@@IAEPAUOutSliceInfo@?A0xf57f9ec6@Imf@@PAU234@00@Z 10026020 f i ImfOutputFile.obj
 0001:00025050       ?clear@?$vector@UOutSliceInfo@?A0xf57f9ec6@Imf@@V?$allocator@UOutSliceInfo@?A0xf57f9ec6@Imf@@@std@@@std@@QAEXXZ 10026050 f i ImfOutputFile.obj
 0001:00025050       ?clear@?$vector@UTOutSliceInfo@?A0x39e5c904@Imf@@V?$allocator@UTOutSliceInfo@?A0x39e5c904@Imf@@@std@@@std@@QAEXXZ 10026050 f i ImfTiledOutputFile.obj
 0001:00025080       ?_Reserve@?$vector@UOutSliceInfo@?A0xf57f9ec6@Imf@@V?$allocator@UOutSliceInfo@?A0xf57f9ec6@Imf@@@std@@@std@@IAEXI@Z 10026080 f i ImfOutputFile.obj
 0001:00025080       ?_Reserve@?$vector@UTOutSliceInfo@?A0x39e5c904@Imf@@V?$allocator@UTOutSliceInfo@?A0x39e5c904@Imf@@@std@@@std@@IAEXI@Z 10026080 f i ImfTiledOutputFile.obj
 0001:00025110       ?writeLineOffsets@?A0xf57f9ec6@Imf@@YA_KAAVOStream@2@ABV?$vector@_KV?$allocator@_K@std@@@std@@@Z 10026110 f   ImfOutputFile.obj
 0001:00025250       ?execute@LineBufferTask@?A0xf57f9ec6@Imf@@UAEXXZ 10026250 f   ImfOutputFile.obj
 0001:00025590       ?initialize@OutputFile@Imf@@AAEXABVHeader@2@@Z 10026590 f   ImfOutputFile.obj
 0001:00025860       ??1OutputFile@Imf@@UAE@XZ  10026860 f   ImfOutputFile.obj
 0001:00025920       ?push_back@?$vector@UOutSliceInfo@?A0xf57f9ec6@Imf@@V?$allocator@UOutSliceInfo@?A0xf57f9ec6@Imf@@@std@@@std@@QAEX$$QAUOutSliceInfo@?A0xf57f9ec6@Imf@@@Z 10026920 f i ImfOutputFile.obj
 0001:00025920       ?push_back@?$vector@UTOutSliceInfo@?A0x39e5c904@Imf@@V?$allocator@UTOutSliceInfo@?A0x39e5c904@Imf@@@std@@@std@@QAEX$$QAUTOutSliceInfo@?A0x39e5c904@Imf@@@Z 10026920 f i ImfTiledOutputFile.obj
 0001:000259e0       ??4?$vector@UTOutSliceInfo@?A0x39e5c904@Imf@@V?$allocator@UTOutSliceInfo@?A0x39e5c904@Imf@@@std@@@std@@QAEAAV01@ABV01@@Z 100269e0 f i ImfTiledOutputFile.obj
 0001:000259e0       ??4?$vector@UOutSliceInfo@?A0xf57f9ec6@Imf@@V?$allocator@UOutSliceInfo@?A0xf57f9ec6@Imf@@@std@@@std@@QAEAAV01@ABV01@@Z 100269e0 f i ImfOutputFile.obj
 0001:00025b50       ??_EOutputFile@Imf@@UAEPAXI@Z 10026b50 f i ImfOutputFile.obj
 0001:00025b50       ??_GOutputFile@Imf@@UAEPAXI@Z 10026b50 f i ImfOutputFile.obj
 0001:00025b80       ??1Data@OutputFile@Imf@@UAE@XZ 10026b80 f   ImfOutputFile.obj
 0001:00025d60       ??0Data@OutputFile@Imf@@QAE@_NH@Z 10026d60 f   ImfOutputFile.obj
 0001:00025ed0       ??_GData@OutputFile@Imf@@UAEPAXI@Z 10026ed0 f i ImfOutputFile.obj
 0001:00025ed0       ??_EData@OutputFile@Imf@@UAEPAXI@Z 10026ed0 f i ImfOutputFile.obj
 0001:00025f00       ??0OutputFile@Imf@@QAE@QBDABVHeader@1@H@Z 10026f00 f   ImfOutputFile.obj
 0001:000260e0       ??0OutputFile@Imf@@QAE@AAVOStream@1@ABVHeader@1@H@Z 100270e0 f   ImfOutputFile.obj
 0001:000262a0       ?setFrameBuffer@OutputFile@Imf@@QAEXABVFrameBuffer@2@@Z 100272a0 f   ImfOutputFile.obj
 0001:00026800       ?bitmapFromData@?A0xce4d6f11@Imf@@YAXQBGHQAEAAG2@Z 10027800 f   ImfPizCompressor.obj
 0001:00026880       ?forwardLutFromBitmap@?A0xce4d6f11@Imf@@YAGQBEQAG@Z 10027880 f   ImfPizCompressor.obj
 0001:000268c0       ?reverseLutFromBitmap@?A0xce4d6f11@Imf@@YAGQBEQAG@Z 100278c0 f   ImfPizCompressor.obj
 0001:00026930       ?applyLut@?A0xce4d6f11@Imf@@YAXQBGQAGH@Z 10027930 f   ImfPizCompressor.obj
 0001:00026960       ??1PizCompressor@Imf@@UAE@XZ 10027960 f   ImfPizCompressor.obj
 0001:00026990       ?count@KeyCode@Imf@@QBEHXZ 10027990 f   ImfKeyCode.obj
 0001:00026990       ?format@PizCompressor@Imf@@UBE?AW4Format@Compressor@2@XZ 10027990 f   ImfPizCompressor.obj
 0001:00026990       ?numScanLines@Pxr24Compressor@Imf@@UBEHXZ 10027990 f   ImfPxr24Compressor.obj
 0001:00026990       ?numScanLines@ZipCompressor@Imf@@UBEHXZ 10027990 f   ImfZipCompressor.obj
 0001:000269a0       ??0?$AutoArray@E$0CAAA@@Imf@@QAE@XZ 100279a0 f i ImfPizCompressor.obj
 0001:000269d0       ??0?$AutoArray@UHufDec@?A0xc87c6bb7@Imf@@$0EAAA@@Imf@@QAE@XZ 100279d0 f i ImfHuf.obj
 0001:000269d0       ??0?$AutoArray@G$0BAAAA@@Imf@@QAE@XZ 100279d0 f i ImfPizCompressor.obj
 0001:00026a00       ??$read@UCharPtrIO@Imf@@PBD@Xdr@Imf@@YAXAAPBDQADH@Z 10027a00 f i ImfPizCompressor.obj
 0001:00026a00       ??$readUnsignedChars@UCharPtrIO@Imf@@PBD@Xdr@Imf@@YAXAAPBDQAEH@Z 10027a00 f i ImfB44Compressor.obj
 0001:00026a00       ??$readSignedChars@UCharPtrIO@Imf@@PBD@Xdr@Imf@@YAXAAPBDQACH@Z 10027a00 f i ImfPizCompressor.obj
 0001:00026a20       ??_GPizCompressor@Imf@@UAEPAXI@Z 10027a20 f i ImfPizCompressor.obj
 0001:00026a20       ??_EPizCompressor@Imf@@UAEPAXI@Z 10027a20 f i ImfPizCompressor.obj
 0001:00026a70       ??$write@UCharPtrIO@Imf@@PAD@Xdr@Imf@@YAXAAPADH@Z 10027a70 f i ImfPizCompressor.obj
 0001:00026ab0       ??$read@UCharPtrIO@Imf@@PBD@Xdr@Imf@@YAXAAPBDAAH@Z 10027ab0 f i ImfPizCompressor.obj
 0001:00026b00       ??0PizCompressor@Imf@@QAE@ABVHeader@1@II@Z 10027b00 f   ImfPizCompressor.obj
 0001:00026dd0       ?compress@PizCompressor@Imf@@AAEHPBDHV?$Box@V?$Vec2@H@Imath@@@Imath@@AAPBD@Z 10027dd0 f   ImfPizCompressor.obj
 0001:00027260       ?uncompress@PizCompressor@Imf@@AAEHPBDHV?$Box@V?$Vec2@H@Imath@@@Imath@@AAPBD@Z 10028260 f   ImfPizCompressor.obj
 0001:000276c0       ?compress@PizCompressor@Imf@@UAEHPBDHHAAPBD@Z 100286c0 f   ImfPizCompressor.obj
 0001:00027710       ?compressTile@PizCompressor@Imf@@UAEHPBDHV?$Box@V?$Vec2@H@Imath@@@Imath@@AAPBD@Z 10028710 f   ImfPizCompressor.obj
 0001:00027750       ?uncompress@PizCompressor@Imf@@UAEHPBDHHAAPBD@Z 10028750 f   ImfPizCompressor.obj
 0001:000277a0       ?uncompressTile@PizCompressor@Imf@@UAEHPBDHV?$Box@V?$Vec2@H@Imath@@@Imath@@AAPBD@Z 100287a0 f   ImfPizCompressor.obj
 0001:000277e0       ??0PreviewRgba@Imf@@QAE@EEEE@Z 100287e0 f i ImfPreviewImage.obj
 0001:00027800       ??_FPreviewRgba@Imf@@QAEXXZ 10028800 f i ImfPreviewImage.obj
 0001:00027810       ??1PreviewImage@Imf@@QAE@XZ 10028810 f   ImfPreviewImage.obj
 0001:00027820       ??0PreviewImage@Imf@@QAE@IIQBUPreviewRgba@1@@Z 10028820 f   ImfPreviewImage.obj
 0001:00027960       ??0PreviewImage@Imf@@QAE@ABV01@@Z 10028960 f   ImfPreviewImage.obj
 0001:000279f0       ??4PreviewImage@Imf@@QAEAAV01@ABV01@@Z 100289f0 f   ImfPreviewImage.obj
 0001:00027a80       ?staticTypeName@?$TypedAttribute@VPreviewImage@Imf@@@Imf@@SAPBDXZ 10028a80 f   ImfPreviewImageAttribute.obj
 0001:00027a90       ??$write@UStreamIO@Imf@@VOStream@2@@Xdr@Imf@@YAXAAVOStream@1@I@Z 10028a90 f i ImfPreviewImageAttribute.obj
 0001:00027ad0       ?writeValueTo@?$TypedAttribute@VPreviewImage@Imf@@@Imf@@UBEXAAVOStream@2@H@Z 10028ad0 f   ImfPreviewImageAttribute.obj
 0001:00027bb0       ?readValueFrom@?$TypedAttribute@VPreviewImage@Imf@@@Imf@@UAEXAAVIStream@2@HH@Z 10028bb0 f   ImfPreviewImageAttribute.obj
 0001:00027ce0       ?floatToFloat24@?A0x2158812f@Imf@@YAIM@Z 10028ce0 f i ImfPxr24Compressor.obj
 0001:00027d60       ?tooMuchData@?A0x2158812f@Imf@@YAXXZ 10028d60 f   ImfPxr24Compressor.obj
 0001:00027d60       ?tooMuchData@?A0xb36f0740@Imf@@YAXXZ 10028d60 f   ImfB44Compressor.obj
 0001:00027da0       ??1Pxr24Compressor@Imf@@UAE@XZ 10028da0 f   ImfPxr24Compressor.obj
 0001:00027dd0       ??0Pxr24Compressor@Imf@@QAE@ABVHeader@1@II@Z 10028dd0 f   ImfPxr24Compressor.obj
 0001:00027f90       ??_GPxr24Compressor@Imf@@UAEPAXI@Z 10028f90 f i ImfPxr24Compressor.obj
 0001:00027f90       ??_EPxr24Compressor@Imf@@UAEPAXI@Z 10028f90 f i ImfPxr24Compressor.obj
 0001:00027fd0       ?compress@Pxr24Compressor@Imf@@AAEHPBDHV?$Box@V?$Vec2@H@Imath@@@Imath@@AAPBD@Z 10028fd0 f   ImfPxr24Compressor.obj
 0001:00028370       ?uncompress@Pxr24Compressor@Imf@@AAEHPBDHV?$Box@V?$Vec2@H@Imath@@@Imath@@AAPBD@Z 10029370 f   ImfPxr24Compressor.obj
 0001:000286c0       ?compress@Pxr24Compressor@Imf@@UAEHPBDHHAAPBD@Z 100296c0 f   ImfPxr24Compressor.obj
 0001:00028700       ?compressTile@Pxr24Compressor@Imf@@UAEHPBDHV?$Box@V?$Vec2@H@Imath@@@Imath@@AAPBD@Z 10029700 f   ImfPxr24Compressor.obj
 0001:00028740       ?uncompress@Pxr24Compressor@Imf@@UAEHPBDHHAAPBD@Z 10029740 f   ImfPxr24Compressor.obj
 0001:00028780       ?uncompressTile@Pxr24Compressor@Imf@@UAEHPBDHV?$Box@V?$Vec2@H@Imath@@@Imath@@AAPBD@Z 10029780 f   ImfPxr24Compressor.obj
 0001:000287c0       ?frac@?A0x06844fa0@Imf@@YANNN@Z 100297c0 f   ImfRational.obj
 0001:000287e0       ?square@?A0x06844fa0@Imf@@YANN@Z 100297e0 f   ImfRational.obj
 0001:000287f0       ?denom@?A0x06844fa0@Imf@@YANNN@Z 100297f0 f   ImfRational.obj
 0001:000289c0       ??0Rational@Imf@@QAE@N@Z   100299c0 f   ImfRational.obj
 0001:00028c70       ?staticTypeName@?$TypedAttribute@VRational@Imf@@@Imf@@SAPBDXZ 10029c70 f   ImfRationalAttribute.obj
 0001:00028c80       ??$read@UStreamIO@Imf@@VIStream@2@@Xdr@Imf@@YAXAAVIStream@1@AAM@Z 10029c80 f i ImfAttribute.obj
 0001:00028c80       ??$read@UStreamIO@Imf@@VIStream@2@@Xdr@Imf@@YAXAAVIStream@1@AAI@Z 10029c80 f i ImfRationalAttribute.obj
 0001:00028cc0       ?writeValueTo@?$TypedAttribute@VRational@Imf@@@Imf@@UBEXAAVOStream@2@H@Z 10029cc0 f   ImfRationalAttribute.obj
 0001:00028d30       ?readValueFrom@?$TypedAttribute@VRational@Imf@@@Imf@@UAEXAAVIStream@2@HH@Z 10029d30 f   ImfRationalAttribute.obj
 0001:00028db0       ??4Rgba@Imf@@QAEAAU01@ABU01@@Z 10029db0 f i ImfRgbaFile.obj
 0001:00028de0       ?cachePadding@?A0x5c932b76@Imf@@YAHH@Z 10029de0 f   ImfRgbaFile.obj
 0001:00028e60       ??1ToYca@RgbaOutputFile@Imf@@UAE@XZ 10029e60 f   ImfRgbaFile.obj
 0001:00028e90       ?setYCRounding@ToYca@RgbaOutputFile@Imf@@QAEXII@Z 10029e90 f   ImfRgbaFile.obj
 0001:00028eb0       ?currentScanLine@ToYca@RgbaOutputFile@Imf@@QBEHXZ 10029eb0 f   ImfRgbaFile.obj
 0001:00028ec0       ?padTmpBuf@ToYca@RgbaOutputFile@Imf@@AAEXXZ 10029ec0 f   ImfRgbaFile.obj
 0001:00028f40       ?rotateBuffers@ToYca@RgbaOutputFile@Imf@@AAEXXZ 10029f40 f   ImfRgbaFile.obj
 0001:00028f60       ?duplicateLastBuffer@ToYca@RgbaOutputFile@Imf@@AAEXXZ 10029f60 f   ImfRgbaFile.obj
 0001:00028fa0       ?duplicateSecondToLastBuffer@ToYca@RgbaOutputFile@Imf@@AAEXXZ 10029fa0 f   ImfRgbaFile.obj
 0001:00028fe0       ?decimateChromaVertAndWriteScanLine@ToYca@RgbaOutputFile@Imf@@AAEXXZ 10029fe0 f   ImfRgbaFile.obj
 0001:00029060       ??1RgbaOutputFile@Imf@@UAE@XZ 1002a060 f   ImfRgbaFile.obj
 0001:00029090       ?currentScanLine@RgbaOutputFile@Imf@@QBEHXZ 1002a090 f   ImfRgbaFile.obj
 0001:000290c0       ?header@TiledRgbaInputFile@Imf@@QBEABVHeader@2@XZ 1002a0c0 f   ImfTiledRgbaFile.obj
 0001:000290c0       ?header@RgbaOutputFile@Imf@@QBEABVHeader@2@XZ 1002a0c0 f   ImfRgbaFile.obj
 0001:000290c0       ?header@TiledRgbaOutputFile@Imf@@QBEABVHeader@2@XZ 1002a0c0 f   ImfTiledRgbaFile.obj
 0001:000290c0       ?header@RgbaInputFile@Imf@@QBEABVHeader@2@XZ 1002a0c0 f   ImfRgbaFile.obj
 0001:000290d0       ?frameBuffer@RgbaOutputFile@Imf@@QBEABVFrameBuffer@2@XZ 1002a0d0 f   ImfRgbaFile.obj
 0001:000290e0       ?screenWindowWidth@RgbaInputFile@Imf@@QBEMXZ 1002a0e0 f   ImfRgbaFile.obj
 0001:000290e0       ?screenWindowWidth@TiledRgbaInputFile@Imf@@QBEMXZ 1002a0e0 f   ImfTiledRgbaFile.obj
 0001:000290e0       ?screenWindowWidth@TiledRgbaOutputFile@Imf@@QBEMXZ 1002a0e0 f   ImfTiledRgbaFile.obj
 0001:000290e0       ?screenWindowWidth@RgbaOutputFile@Imf@@QBEMXZ 1002a0e0 f   ImfRgbaFile.obj
 0001:00029100       ?lineOrder@TiledRgbaOutputFile@Imf@@QBE?AW4LineOrder@2@XZ 1002a100 f   ImfTiledRgbaFile.obj
 0001:00029100       ?lineOrder@RgbaInputFile@Imf@@QBE?AW4LineOrder@2@XZ 1002a100 f   ImfRgbaFile.obj
 0001:00029100       ?lineOrder@TiledRgbaInputFile@Imf@@QBE?AW4LineOrder@2@XZ 1002a100 f   ImfTiledRgbaFile.obj
 0001:00029100       ?lineOrder@RgbaOutputFile@Imf@@QBE?AW4LineOrder@2@XZ 1002a100 f   ImfRgbaFile.obj
 0001:00029120       ?updatePreviewImage@RgbaOutputFile@Imf@@QAEXQBUPreviewRgba@2@@Z 1002a120 f   ImfRgbaFile.obj
 0001:00029130       ?setYCRounding@RgbaOutputFile@Imf@@QAEXII@Z 1002a130 f   ImfRgbaFile.obj
 0001:00029170       ?breakScanLine@RgbaOutputFile@Imf@@QAEXHHHD@Z 1002a170 f   ImfRgbaFile.obj
 0001:00029180       ??1FromYca@RgbaInputFile@Imf@@UAE@XZ 1002a180 f   ImfRgbaFile.obj
 0001:000291b0       ?rotateBuf1@FromYca@RgbaInputFile@Imf@@AAEXH@Z 1002a1b0 f   ImfRgbaFile.obj
 0001:00029230       ?rotateBuf2@FromYca@RgbaInputFile@Imf@@AAEXH@Z 1002a230 f   ImfRgbaFile.obj
 0001:000292d0       ?padTmpBuf@FromYca@RgbaInputFile@Imf@@AAEXXZ 1002a2d0 f   ImfRgbaFile.obj
 0001:00029350       ?isComplete@RgbaInputFile@Imf@@QBE_NXZ 1002a350 f   ImfRgbaFile.obj
 0001:00029360       ?fileName@RgbaInputFile@Imf@@QBEPBDXZ 1002a360 f   ImfRgbaFile.obj
 0001:00029370       ?frameBuffer@RgbaInputFile@Imf@@QBEABVFrameBuffer@2@XZ 1002a370 f   ImfRgbaFile.obj
 0001:00029380       ?pixelAspectRatio@TiledRgbaInputFile@Imf@@QBEMXZ 1002a380 f   ImfTiledRgbaFile.obj
 0001:00029380       ?pixelAspectRatio@TiledRgbaOutputFile@Imf@@QBEMXZ 1002a380 f   ImfTiledRgbaFile.obj
 0001:00029380       ?pixelAspectRatio@RgbaOutputFile@Imf@@QBEMXZ 1002a380 f   ImfRgbaFile.obj
 0001:00029380       ?pixelAspectRatio@RgbaInputFile@Imf@@QBEMXZ 1002a380 f   ImfRgbaFile.obj
 0001:000293a0       ?compression@TiledRgbaOutputFile@Imf@@QBE?AW4Compression@2@XZ 1002a3a0 f   ImfTiledRgbaFile.obj
 0001:000293a0       ?compression@RgbaOutputFile@Imf@@QBE?AW4Compression@2@XZ 1002a3a0 f   ImfRgbaFile.obj
 0001:000293a0       ?compression@RgbaInputFile@Imf@@QBE?AW4Compression@2@XZ 1002a3a0 f   ImfRgbaFile.obj
 0001:000293a0       ?compression@TiledRgbaInputFile@Imf@@QBE?AW4Compression@2@XZ 1002a3a0 f   ImfTiledRgbaFile.obj
 0001:000293c0       ?empty@?$basic_string@DU?$char_traits@D@std@@V?$allocator@D@2@@std@@QBE_NXZ 1002a3c0 f i ImfRgbaFile.obj
 0001:000293d0       ??A?$Vec2@H@Imath@@QAEAAHH@Z 1002a3d0 f i ImfTiledMisc.obj
 0001:000293d0       ??A?$Vec2@H@Imath@@QBEABHH@Z 1002a3d0 f i ImfRgbaFile.obj
 0001:000293e0       ??_GToYca@RgbaOutputFile@Imf@@UAEPAXI@Z 1002a3e0 f i ImfRgbaFile.obj
 0001:000293e0       ??_EToYca@RgbaOutputFile@Imf@@UAEPAXI@Z 1002a3e0 f i ImfRgbaFile.obj
 0001:00029430       ??_GRgbaOutputFile@Imf@@UAEPAXI@Z 1002a430 f i ImfRgbaFile.obj
 0001:00029430       ??_ERgbaOutputFile@Imf@@UAEPAXI@Z 1002a430 f i ImfRgbaFile.obj
 0001:00029470       ??_EFromYca@RgbaInputFile@Imf@@UAEPAXI@Z 1002a470 f i ImfRgbaFile.obj
 0001:00029470       ??_GFromYca@RgbaInputFile@Imf@@UAEPAXI@Z 1002a470 f i ImfRgbaFile.obj
 0001:000294c0       ?readYCAScanLine@FromYca@RgbaInputFile@Imf@@AAEXHQAURgba@3@@Z 1002a4c0 f   ImfRgbaFile.obj
 0001:000295a0       ?isEmpty@?$Box@V?$Vec2@H@Imath@@@Imath@@QBE_NXZ 1002a5a0 f i ImfRgbaFile.obj
 0001:000295c0       ?ywFromHeader@?A0x756c113c@Imf@@YA?AV?$Vec3@M@Imath@@ABVHeader@2@@Z 1002a5c0 f   ImfTiledRgbaFile.obj
 0001:000295c0       ?ywFromHeader@?A0x5c932b76@Imf@@YA?AV?$Vec3@M@Imath@@ABVHeader@2@@Z 1002a5c0 f   ImfRgbaFile.obj
 0001:000296d0       ??0ToYca@RgbaOutputFile@Imf@@QAE@AAVOutputFile@2@W4RgbaChannels@2@@Z 1002a6d0 f   ImfRgbaFile.obj
 0001:00029990       ??0FromYca@RgbaInputFile@Imf@@QAE@AAVInputFile@2@W4RgbaChannels@2@@Z 1002a990 f   ImfRgbaFile.obj
 0001:00029c30       ?writePixels@ToYca@RgbaOutputFile@Imf@@QAEXH@Z 1002ac30 f   ImfRgbaFile.obj
 0001:0002a1b0       ?writePixels@RgbaOutputFile@Imf@@QAEXH@Z 1002b1b0 f   ImfRgbaFile.obj
 0001:0002a250       ?readPixels@FromYca@RgbaInputFile@Imf@@AAEXH@Z 1002b250 f   ImfRgbaFile.obj
 0001:0002a5b0       ??1RgbaInputFile@Imf@@UAE@XZ 1002b5b0 f   ImfRgbaFile.obj
 0001:0002a640       ?readPixels@FromYca@RgbaInputFile@Imf@@QAEXHH@Z 1002b640 f   ImfRgbaFile.obj
 0001:0002a6a0       ??_ERgbaInputFile@Imf@@UAEPAXI@Z 1002b6a0 f i ImfRgbaFile.obj
 0001:0002a6a0       ??_GRgbaInputFile@Imf@@UAEPAXI@Z 1002b6a0 f i ImfRgbaFile.obj
 0001:0002a740       ?readPixels@RgbaInputFile@Imf@@QAEXHH@Z 1002b740 f   ImfRgbaFile.obj
 0001:0002a7e0       ?readPixels@RgbaInputFile@Imf@@QAEXH@Z 1002b7e0 f   ImfRgbaFile.obj
 0001:0002a800       ?rgbaChannels@?A0x5c932b76@Imf@@YA?AW4RgbaChannels@2@ABVChannelList@2@ABV?$basic_string@DU?$char_traits@D@std@@V?$allocator@D@2@@std@@@Z 1002b800 f   ImfRgbaFile.obj
 0001:0002aa60       ?prefixFromLayerName@?A0x5c932b76@Imf@@YA?AV?$basic_string@DU?$char_traits@D@std@@V?$allocator@D@2@@std@@ABV34@ABVHeader@2@@Z 1002ba60 f   ImfRgbaFile.obj
 0001:0002aa60       ?prefixFromLayerName@?A0x756c113c@Imf@@YA?AV?$basic_string@DU?$char_traits@D@std@@V?$allocator@D@2@@std@@ABV34@ABVHeader@2@@Z 1002ba60 f   ImfTiledRgbaFile.obj
 0001:0002ab20       ?channels@RgbaOutputFile@Imf@@QBE?AW4RgbaChannels@2@XZ 1002bb20 f   ImfRgbaFile.obj
 0001:0002abc0       ?channels@RgbaInputFile@Imf@@QBE?AW4RgbaChannels@2@XZ 1002bbc0 f   ImfRgbaFile.obj
 0001:0002abe0       ?setFrameBuffer@FromYca@RgbaInputFile@Imf@@QAEXPAURgba@3@IIABV?$basic_string@DU?$char_traits@D@std@@V?$allocator@D@2@@std@@@Z 1002bbe0 f   ImfRgbaFile.obj
 0001:0002aec0       ??0RgbaInputFile@Imf@@QAE@QBDH@Z 1002bec0 f   ImfRgbaFile.obj
 0001:0002afb0       ??0RgbaInputFile@Imf@@QAE@AAVIStream@1@H@Z 1002bfb0 f   ImfRgbaFile.obj
 0001:0002b0a0       ??0RgbaInputFile@Imf@@QAE@QBDABV?$basic_string@DU?$char_traits@D@std@@V?$allocator@D@2@@std@@H@Z 1002c0a0 f   ImfRgbaFile.obj
 0001:0002b190       ??0RgbaInputFile@Imf@@QAE@AAVIStream@1@ABV?$basic_string@DU?$char_traits@D@std@@V?$allocator@D@2@@std@@H@Z 1002c190 f   ImfRgbaFile.obj
 0001:0002b280       ?setFrameBuffer@RgbaInputFile@Imf@@QAEXPAURgba@2@II@Z 1002c280 f   ImfRgbaFile.obj
 0001:0002b570       ?setLayerName@RgbaInputFile@Imf@@QAEXABV?$basic_string@DU?$char_traits@D@std@@V?$allocator@D@2@@std@@@Z 1002c570 f   ImfRgbaFile.obj
 0001:0002b700       ?setFrameBuffer@ToYca@RgbaOutputFile@Imf@@QAEXPBURgba@3@II@Z 1002c700 f   ImfRgbaFile.obj
 0001:0002b930       ?setFrameBuffer@RgbaOutputFile@Imf@@QAEXPBURgba@2@II@Z 1002c930 f   ImfRgbaFile.obj
 0001:0002bb40       ?insertChannels@?A0x5c932b76@Imf@@YAXAAVHeader@2@W4RgbaChannels@2@@Z 1002cb40 f   ImfRgbaFile.obj
 0001:0002bd30       ??0RgbaOutputFile@Imf@@QAE@QBDABVHeader@1@W4RgbaChannels@1@H@Z 1002cd30 f   ImfRgbaFile.obj
 0001:0002be20       ??0RgbaOutputFile@Imf@@QAE@AAVOStream@1@ABVHeader@1@W4RgbaChannels@1@H@Z 1002ce20 f   ImfRgbaFile.obj
 0001:0002bf10       ??0RgbaOutputFile@Imf@@QAE@QBDABV?$Box@V?$Vec2@H@Imath@@@Imath@@1W4RgbaChannels@1@MV?$Vec2@M@3@MW4LineOrder@1@W4Compression@1@H@Z 1002cf10 f   ImfRgbaFile.obj
 0001:0002c030       ??0RgbaOutputFile@Imf@@QAE@QBDHHW4RgbaChannels@1@MV?$Vec2@M@Imath@@MW4LineOrder@1@W4Compression@1@H@Z 1002d030 f   ImfRgbaFile.obj
 0001:0002c140       ?RGBAtoYCA@RgbaYca@Imf@@YAXABV?$Vec3@M@Imath@@H_NQBURgba@2@QAU52@@Z 1002d140 f   ImfRgbaYca.obj
 0001:0002c460       ?decimateChromaHoriz@RgbaYca@Imf@@YAXHQBURgba@2@QAU32@@Z 1002d460 f   ImfRgbaYca.obj
 0001:0002c8f0       ?decimateChromaVert@RgbaYca@Imf@@YAXHQBQBURgba@2@QAU32@@Z 1002d8f0 f   ImfRgbaYca.obj
 0001:0002cdc0       ?roundYCA@RgbaYca@Imf@@YAXHIIQBURgba@2@QAU32@@Z 1002ddc0 f   ImfRgbaYca.obj
 0001:0002ce50       ?reconstructChromaHoriz@RgbaYca@Imf@@YAXHQBURgba@2@QAU32@@Z 1002de50 f   ImfRgbaYca.obj
 0001:0002d2c0       ?reconstructChromaVert@RgbaYca@Imf@@YAXHQBQBURgba@2@QAU32@@Z 1002e2c0 f   ImfRgbaYca.obj
 0001:0002d710       ?YCAtoRGBA@RgbaYca@Imf@@YAXABV?$Vec3@M@Imath@@HQBURgba@2@QAU52@@Z 1002e710 f   ImfRgbaYca.obj
 0001:0002d8a0       ??K?$Vec3@M@Imath@@QBE?AV01@M@Z 1002e8a0 f i ImfRgbaYca.obj
 0001:0002d900       ??$max@Vhalf@@@std@@YAABVhalf@@ABV1@0@Z 1002e900 f i ImfRgbaYca.obj
 0001:0002d940       ??$min@Vhalf@@@std@@YAABVhalf@@ABV1@0@Z 1002e940 f i ImfRgbaYca.obj
 0001:0002d980       ??$max@M@std@@YAABMABM0@Z  1002e980 f i ImfRgbaYca.obj
 0001:0002d9b0       ??$min@M@std@@YAABMABM0@Z  1002e9b0 f i ImfRgbaYca.obj
 0001:0002d9e0       ?saturation@?A0x950c9801@RgbaYca@Imf@@YAMABURgba@3@@Z 1002e9e0 f i ImfRgbaYca.obj
 0001:0002da90       ?desaturate@?A0x950c9801@RgbaYca@Imf@@YAXABURgba@3@MABV?$Vec3@M@Imath@@AAU43@@Z 1002ea90 f   ImfRgbaYca.obj
 0001:0002dda0       ?fixSaturation@RgbaYca@Imf@@YAXABV?$Vec3@M@Imath@@HQBQBURgba@2@QAU52@@Z 1002eda0 f   ImfRgbaYca.obj
 0001:0002e2f0       ?computeYw@RgbaYca@Imf@@YA?AV?$Vec3@M@Imath@@ABUChromaticities@2@@Z 1002f2f0 f   ImfRgbaYca.obj
 0001:0002e3d0       ?rleCompress@?A0x57fab1ba@Imf@@YAHHQBDQAC@Z 1002f3d0 f   ImfRleCompressor.obj
 0001:0002e4a0       ?rleUncompress@?A0x57fab1ba@Imf@@YAHHHQBCQAD@Z 1002f4a0 f   ImfRleCompressor.obj
 0001:0002e530       ??1RleCompressor@Imf@@UAE@XZ 1002f530 f   ImfRleCompressor.obj
 0001:0002e560       ?format@Compressor@Imf@@UBE?AW4Format@12@XZ 1002f560 f   ImfCompressor.obj
 0001:0002e560       ?numScanLines@RleCompressor@Imf@@UBEHXZ 1002f560 f   ImfRleCompressor.obj
 0001:0002e570       ?compress@RleCompressor@Imf@@UAEHPBDHHAAPBD@Z 1002f570 f   ImfRleCompressor.obj
 0001:0002e620       ?uncompress@RleCompressor@Imf@@UAEHPBDHHAAPBD@Z 1002f620 f   ImfRleCompressor.obj
 0001:0002e710       ??0RleCompressor@Imf@@QAE@ABVHeader@1@I@Z 1002f710 f   ImfRleCompressor.obj
 0001:0002e7e0       ??_ERleCompressor@Imf@@UAEPAXI@Z 1002f7e0 f i ImfRleCompressor.obj
 0001:0002e7e0       ??_GRleCompressor@Imf@@UAEPAXI@Z 1002f7e0 f i ImfRleCompressor.obj
 0001:0002e820       ??0InSliceInfo@?A0xcbf8ace6@Imf@@QAE@W4PixelType@2@0PADIIHH_N2N@Z 1002f820 f   ImfScanLineInputFile.obj
 0001:0002e870       ?wait@LineBuffer@?A0xcbf8ace6@Imf@@QAEXXZ 1002f870 f i ImfScanLineInputFile.obj
 0001:0002e870       ?wait@TileBuffer@?A0x39e5c904@Imf@@QAEXXZ 1002f870 f i ImfTiledOutputFile.obj
 0001:0002e880       ?post@TileBuffer@?A0x39e5c904@Imf@@QAEXXZ 1002f880 f i ImfTiledOutputFile.obj
 0001:0002e880       ?post@LineBuffer@?A0xcbf8ace6@Imf@@QAEXXZ 1002f880 f i ImfScanLineInputFile.obj
 0001:0002e890       ??0LineBufferTask@?A0xcbf8ace6@Imf@@QAE@PAVTaskGroup@IlmThread@@PAUData@ScanLineInputFile@2@PAULineBuffer@12@HH@Z 1002f890 f   ImfScanLineInputFile.obj
 0001:0002e8d0       ??1LineBufferTask@?A0xcbf8ace6@Imf@@UAE@XZ 1002f8d0 f   ImfScanLineInputFile.obj
 0001:0002e930       ?fileName@ScanLineInputFile@Imf@@QBEPBDXZ 1002f930 f   ImfScanLineInputFile.obj
 0001:0002e940       ?frameBuffer@ScanLineInputFile@Imf@@QBEABVFrameBuffer@2@XZ 1002f940 f   ImfScanLineInputFile.obj
 0001:0002e960       ?isComplete@ScanLineInputFile@Imf@@QBE_NXZ 1002f960 f   ImfScanLineInputFile.obj
 0001:0002e970       ?size@?$vector@UTInSliceInfo@?A0xf6fcebb6@Imf@@V?$allocator@UTInSliceInfo@?A0xf6fcebb6@Imf@@@std@@@std@@QBEIXZ 1002f970 f i ImfTiledInputFile.obj
 0001:0002e970       ?size@?$vector@UInSliceInfo@?A0xcbf8ace6@Imf@@V?$allocator@UInSliceInfo@?A0xcbf8ace6@Imf@@@std@@@std@@QBEIXZ 1002f970 f i ImfScanLineInputFile.obj
 0001:0002e990       ??0?$allocator@PAULineBuffer@?A0xcbf8ace6@Imf@@@std@@QAE@XZ 1002f990 f i ImfScanLineInputFile.obj
 0001:0002e990       ??0Rgba@Imf@@QAE@XZ        1002f990 f i ImfRgbaFile.obj
 0001:0002e990       ??0?$allocator@V?$basic_string@DU?$char_traits@D@std@@V?$allocator@D@2@@std@@@std@@QAE@XZ 1002f990 f i ImfHeader.obj
 0001:0002e990       ??0?$allocator@V?$vector@_KV?$allocator@_K@std@@@std@@@std@@QAE@XZ 1002f990 f i ImfTileOffsets.obj
 0001:0002e990       ??0?$allocator@U?$pair@$$CBVName@Imf@@UChannel@2@@std@@@std@@QAE@XZ 1002f990 f i ImfHeader.obj
 0001:0002e990       ??0?$allocator@PAULineBuffer@?A0xf57f9ec6@Imf@@@std@@QAE@XZ 1002f990 f i ImfOutputFile.obj
 0001:0002e990       ??0?$allocator@I@std@@QAE@XZ 1002f990 f i ImfOutputFile.obj
 0001:0002e990       ??0?$allocator@UTOutSliceInfo@?A0x39e5c904@Imf@@@std@@QAE@XZ 1002f990 f i ImfTiledOutputFile.obj
 0001:0002e990       ??0?$allocator@_K@std@@QAE@XZ 1002f990 f i ImfOutputFile.obj
 0001:0002e990       ??0?$allocator@U?$pair@$$CBVName@Imf@@PAVAttribute@2@@std@@@std@@QAE@XZ 1002f990 f i ImfHeader.obj
 0001:0002e990       ??0?$Vec3@M@Imath@@QAE@XZ  1002f990 f i ImfCRgbaFile.obj
 0001:0002e990       ??0?$allocator@UOutSliceInfo@?A0xf57f9ec6@Imf@@@std@@QAE@XZ 1002f990 f i ImfOutputFile.obj
 0001:0002e990       ??0?$allocator@U?$pair@QBDP6APAVAttribute@Imf@@XZ@std@@@std@@QAE@XZ 1002f990 f i ImfAttribute.obj
 0001:0002e990       ??0?$Vec2@H@Imath@@QAE@XZ  1002f990 f i ImfB44Compressor.obj
 0001:0002e990       ??0?$allocator@PAUTileBuffer@?A0xf6fcebb6@Imf@@@std@@QAE@XZ 1002f990 f i ImfTiledInputFile.obj
 0001:0002e990       ??0?$Vec3@H@Imath@@QAE@XZ  1002f990 f i ImfCRgbaFile.obj
 0001:0002e990       ??0?$allocator@D@std@@QAE@XZ 1002f990 f i ImfAttribute.obj
 0001:0002e990       ??0?$allocator@UInSliceInfo@?A0xcbf8ace6@Imf@@@std@@QAE@XZ 1002f990 f i ImfScanLineInputFile.obj
 0001:0002e990       ??0?$Vec3@N@Imath@@QAE@XZ  1002f990 f i ImfHeader.obj
 0001:0002e990       ??0?$allocator@PAUTileBuffer@?A0x39e5c904@Imf@@@std@@QAE@XZ 1002f990 f i ImfTiledOutputFile.obj
 0001:0002e990       ??0?$allocator@UTInSliceInfo@?A0xf6fcebb6@Imf@@@std@@QAE@XZ 1002f990 f i ImfTiledInputFile.obj
 0001:0002e990       ??DName@Imf@@QBEPBDXZ      1002f990 f i ImfChannelList.obj
 0001:0002e990       ??0?$Vec2@N@Imath@@QAE@XZ  1002f990 f i ImfHeader.obj
 0001:0002e990       ??0?$Vec2@M@Imath@@QAE@XZ  1002f990 f i ImfCRgbaFile.obj
 0001:0002e990       ??0?$allocator@V?$vector@V?$vector@_KV?$allocator@_K@std@@@std@@V?$allocator@V?$vector@_KV?$allocator@_K@std@@@std@@@2@@std@@@std@@QAE@XZ 1002f990 f i ImfTileOffsets.obj
 0001:0002e990       ??0?$allocator@U?$pair@$$CBVName@Imf@@USlice@2@@std@@@std@@QAE@XZ 1002f990 f i ImfInputFile.obj
 0001:0002e990       ??0?$allocator@U?$pair@$$CBUTileCoord@?A0x39e5c904@Imf@@PAUBufferedTile@23@@std@@@std@@QAE@XZ 1002f990 f i ImfTiledOutputFile.obj
 0001:0002e9a0       ?max_size@?$allocator@UTInSliceInfo@?A0xf6fcebb6@Imf@@@std@@QBEIXZ 1002f9a0 f i ImfTiledInputFile.obj
 0001:0002e9a0       ?max_size@?$vector@UTInSliceInfo@?A0xf6fcebb6@Imf@@V?$allocator@UTInSliceInfo@?A0xf6fcebb6@Imf@@@std@@@std@@QBEIXZ 1002f9a0 f i ImfTiledInputFile.obj
 0001:0002e9a0       ?max_size@?$allocator@UInSliceInfo@?A0xcbf8ace6@Imf@@@std@@QBEIXZ 1002f9a0 f i ImfScanLineInputFile.obj
 0001:0002e9a0       ?max_size@?$vector@UInSliceInfo@?A0xcbf8ace6@Imf@@V?$allocator@UInSliceInfo@?A0xcbf8ace6@Imf@@@std@@@std@@QBEIXZ 1002f9a0 f i ImfScanLineInputFile.obj
 0001:0002e9b0       ??$_Destroy_range@V?$allocator@PAUTileBuffer@?A0x39e5c904@Imf@@@std@@@std@@YAXPAPAUTileBuffer@?A0x39e5c904@Imf@@0AAV?$allocator@PAUTileBuffer@?A0x39e5c904@Imf@@@0@U_Scalar_ptr_iterator_tag@0@@Z 1002f9b0 f i ImfTiledOutputFile.obj
 0001:0002e9b0       ??$_Destroy_range@V?$allocator@UOutSliceInfo@?A0xf57f9ec6@Imf@@@std@@@std@@YAXPAUOutSliceInfo@?A0xf57f9ec6@Imf@@0AAV?$allocator@UOutSliceInfo@?A0xf57f9ec6@Imf@@@0@U_Nonscalar_ptr_iterator_tag@0@@Z 1002f9b0 f i ImfOutputFile.obj
 0001:0002e9b0       ??1?$_Vector_val@UTOutSliceInfo@?A0x39e5c904@Imf@@V?$allocator@UTOutSliceInfo@?A0x39e5c904@Imf@@@std@@@std@@QAE@XZ 1002f9b0 f i ImfTiledOutputFile.obj
 0001:0002e9b0       ?clear@IStream@Imf@@UAEXXZ 1002f9b0 f i ImfIO.obj
 0001:0002e9b0       ??$_Destroy@UTInSliceInfo@?A0xf6fcebb6@Imf@@@std@@YAXPAUTInSliceInfo@?A0xf6fcebb6@Imf@@@Z 1002f9b0 f i ImfTiledInputFile.obj
 0001:0002e9b0       ??$_Destroy_range@V?$allocator@PAULineBuffer@?A0xf57f9ec6@Imf@@@std@@@std@@YAXPAPAULineBuffer@?A0xf57f9ec6@Imf@@0AAV?$allocator@PAULineBuffer@?A0xf57f9ec6@Imf@@@0@@Z 1002f9b0 f i ImfOutputFile.obj
 0001:0002e9b0       ??$_Destroy_range@V?$allocator@UInSliceInfo@?A0xcbf8ace6@Imf@@@std@@@std@@YAXPAUInSliceInfo@?A0xcbf8ace6@Imf@@0AAV?$allocator@UInSliceInfo@?A0xcbf8ace6@Imf@@@0@@Z 1002f9b0 f i ImfScanLineInputFile.obj
 0001:0002e9b0       ??1?$_Vector_val@PAULineBuffer@?A0xf57f9ec6@Imf@@V?$allocator@PAULineBuffer@?A0xf57f9ec6@Imf@@@std@@@std@@QAE@XZ 1002f9b0 f i ImfOutputFile.obj
 0001:0002e9b0       ??$_Destroy_range@V?$allocator@I@std@@@std@@YAXPAI0AAV?$allocator@I@0@U_Scalar_ptr_iterator_tag@0@@Z 1002f9b0 f i ImfMisc.obj
 0001:0002e9b0       ??$_Destroy_range@V?$allocator@UOutSliceInfo@?A0xf57f9ec6@Imf@@@std@@@std@@YAXPAUOutSliceInfo@?A0xf57f9ec6@Imf@@0AAV?$allocator@UOutSliceInfo@?A0xf57f9ec6@Imf@@@0@@Z 1002f9b0 f i ImfOutputFile.obj
 0001:0002e9b0       ??$_Destroy_range@V?$allocator@PAUTileBuffer@?A0xf6fcebb6@Imf@@@std@@@std@@YAXPAPAUTileBuffer@?A0xf6fcebb6@Imf@@0AAV?$allocator@PAUTileBuffer@?A0xf6fcebb6@Imf@@@0@@Z 1002f9b0 f i ImfTiledInputFile.obj
 0001:0002e9b0       ??1?$_Vector_val@UTInSliceInfo@?A0xf6fcebb6@Imf@@V?$allocator@UTInSliceInfo@?A0xf6fcebb6@Imf@@@std@@@std@@QAE@XZ 1002f9b0 f i ImfTiledInputFile.obj
 0001:0002e9b0       ??$_Destroy_range@V?$allocator@PAULineBuffer@?A0xf57f9ec6@Imf@@@std@@@std@@YAXPAPAULineBuffer@?A0xf57f9ec6@Imf@@0AAV?$allocator@PAULineBuffer@?A0xf57f9ec6@Imf@@@0@U_Scalar_ptr_iterator_tag@0@@Z 1002f9b0 f i ImfOutputFile.obj
 0001:0002e9b0       ??$_Dest_val@V?$allocator@UOutSliceInfo@?A0xf57f9ec6@Imf@@@std@@UOutSliceInfo@?A0xf57f9ec6@Imf@@@std@@YAXAAV?$allocator@UOutSliceInfo@?A0xf57f9ec6@Imf@@@0@PAUOutSliceInfo@?A0xf57f9ec6@Imf@@@Z 1002f9b0 f i ImfOutputFile.obj
 0001:0002e9b0       ??1?$_Vector_val@PAULineBuffer@?A0xcbf8ace6@Imf@@V?$allocator@PAULineBuffer@?A0xcbf8ace6@Imf@@@std@@@std@@QAE@XZ 1002f9b0 f i ImfScanLineInputFile.obj
 0001:0002e9b0       ??$_Dest_val@V?$allocator@U?$pair@$$CBVName@Imf@@USlice@2@@std@@@std@@U?$pair@$$CBVName@Imf@@USlice@2@@2@@std@@YAXAAV?$allocator@U?$pair@$$CBVName@Imf@@USlice@2@@std@@@0@PAU?$pair@$$CBVName@Imf@@USlice@2@@0@@Z 1002f9b0 f i ImfFrameBuffer.obj
 0001:0002e9b0       ??$_Dest_val@V?$allocator@_K@std@@_K@std@@YAXAAV?$allocator@_K@0@PA_K@Z 1002f9b0 f i ImfTiledInputFile.obj
 0001:0002e9b0       ??1?$_String_val@DV?$allocator@D@std@@@std@@QAE@XZ 1002f9b0 f i ImfAttribute.obj
 0001:0002e9b0       ??$_Destroy_range@V?$allocator@PAUTileBuffer@?A0x39e5c904@Imf@@@std@@@std@@YAXPAPAUTileBuffer@?A0x39e5c904@Imf@@0AAV?$allocator@PAUTileBuffer@?A0x39e5c904@Imf@@@0@@Z 1002f9b0 f i ImfTiledOutputFile.obj
 0001:0002e9b0       ??$_Destroy@U?$pair@$$CBUTileCoord@?A0x39e5c904@Imf@@PAUBufferedTile@23@@std@@@std@@YAXPAU?$pair@$$CBUTileCoord@?A0x39e5c904@Imf@@PAUBufferedTile@23@@0@@Z 1002f9b0 f i ImfTiledOutputFile.obj
 0001:0002e9b0       ??1?$_Vector_val@V?$vector@_KV?$allocator@_K@std@@@std@@V?$allocator@V?$vector@_KV?$allocator@_K@std@@@std@@@2@@std@@QAE@XZ 1002f9b0 f i ImfTiledInputFile.obj
 0001:0002e9b0       ??1?$_Vector_val@IV?$allocator@I@std@@@std@@QAE@XZ 1002f9b0 f i ImfOutputFile.obj
 0001:0002e9b0       ??1?$_Vector_val@V?$basic_string@DU?$char_traits@D@std@@V?$allocator@D@2@@std@@V?$allocator@V?$basic_string@DU?$char_traits@D@std@@V?$allocator@D@2@@std@@@2@@std@@QAE@XZ 1002f9b0 f i ImfHeader.obj
 0001:0002e9b0       ??$_Dest_val@V?$allocator@UInSliceInfo@?A0xcbf8ace6@Imf@@@std@@UInSliceInfo@?A0xcbf8ace6@Imf@@@std@@YAXAAV?$allocator@UInSliceInfo@?A0xcbf8ace6@Imf@@@0@PAUInSliceInfo@?A0xcbf8ace6@Imf@@@Z 1002f9b0 f i ImfScanLineInputFile.obj
 0001:0002e9b0       ??$_Dest_val@V?$allocator@UTOutSliceInfo@?A0x39e5c904@Imf@@@std@@UTOutSliceInfo@?A0x39e5c904@Imf@@@std@@YAXAAV?$allocator@UTOutSliceInfo@?A0x39e5c904@Imf@@@0@PAUTOutSliceInfo@?A0x39e5c904@Imf@@@Z 1002f9b0 f i ImfTiledOutputFile.obj
 0001:0002e9b0       ??1?$_Vector_val@PAUTileBuffer@?A0x39e5c904@Imf@@V?$allocator@PAUTileBuffer@?A0x39e5c904@Imf@@@std@@@std@@QAE@XZ 1002f9b0 f i ImfTiledOutputFile.obj
 0001:0002e9b0       ??$_Destroy@U?$pair@QBDP6APAVAttribute@Imf@@XZ@std@@@std@@YAXPAU?$pair@QBDP6APAVAttribute@Imf@@XZ@0@@Z 1002f9b0 f i ImfAttribute.obj
 0001:0002e9b0       ??$_Destroy_range@V?$allocator@PAUTileBuffer@?A0xf6fcebb6@Imf@@@std@@@std@@YAXPAPAUTileBuffer@?A0xf6fcebb6@Imf@@0AAV?$allocator@PAUTileBuffer@?A0xf6fcebb6@Imf@@@0@U_Scalar_ptr_iterator_tag@0@@Z 1002f9b0 f i ImfTiledInputFile.obj
 0001:0002e9b0       ??$_Destroy_range@V?$allocator@UTOutSliceInfo@?A0x39e5c904@Imf@@@std@@@std@@YAXPAUTOutSliceInfo@?A0x39e5c904@Imf@@0AAV?$allocator@UTOutSliceInfo@?A0x39e5c904@Imf@@@0@@Z 1002f9b0 f i ImfTiledOutputFile.obj
 0001:0002e9b0       ??$_Destroy_range@V?$allocator@PAULineBuffer@?A0xcbf8ace6@Imf@@@std@@@std@@YAXPAPAULineBuffer@?A0xcbf8ace6@Imf@@0AAV?$allocator@PAULineBuffer@?A0xcbf8ace6@Imf@@@0@U_Scalar_ptr_iterator_tag@0@@Z 1002f9b0 f i ImfScanLineInputFile.obj
 0001:0002e9b0       ??$_Destroy_range@V?$allocator@UTInSliceInfo@?A0xf6fcebb6@Imf@@@std@@@std@@YAXPAUTInSliceInfo@?A0xf6fcebb6@Imf@@0AAV?$allocator@UTInSliceInfo@?A0xf6fcebb6@Imf@@@0@@Z 1002f9b0 f i ImfTiledInputFile.obj
 0001:0002e9b0       ??1?$_Vector_val@V?$vector@V?$vector@_KV?$allocator@_K@std@@@std@@V?$allocator@V?$vector@_KV?$allocator@_K@std@@@std@@@2@@std@@V?$allocator@V?$vector@V?$vector@_KV?$allocator@_K@std@@@std@@V?$allocator@V?$vector@_KV?$allocator@_K@std@@@std@@@2@@std@@@2@@std@@QAE@XZ 1002f9b0 f i ImfTiledInputFile.obj
 0001:0002e9b0       ??$_Destroy@U?$pair@$$CBVName@Imf@@UChannel@2@@std@@@std@@YAXPAU?$pair@$$CBVName@Imf@@UChannel@2@@0@@Z 1002f9b0 f i ImfChannelList.obj
 0001:0002e9b0       ??$_Destroy@UInSliceInfo@?A0xcbf8ace6@Imf@@@std@@YAXPAUInSliceInfo@?A0xcbf8ace6@Imf@@@Z 1002f9b0 f i ImfScanLineInputFile.obj
 0001:0002e9b0       ??$_Dest_val@V?$allocator@U?$pair@$$CBVName@Imf@@PAVAttribute@2@@std@@@std@@U?$pair@$$CBVName@Imf@@PAVAttribute@2@@2@@std@@YAXAAV?$allocator@U?$pair@$$CBVName@Imf@@PAVAttribute@2@@std@@@0@PAU?$pair@$$CBVName@Imf@@PAVAttribute@2@@0@@Z 1002f9b0 f i ImfHeader.obj
 0001:0002e9b0       ??1?$_Vector_val@_KV?$allocator@_K@std@@@std@@QAE@XZ 1002f9b0 f i ImfOutputFile.obj
 0001:0002e9b0       ??$_Dest_val@V?$allocator@U?$pair@$$CBVName@Imf@@UChannel@2@@std@@@std@@U?$pair@$$CBVName@Imf@@UChannel@2@@2@@std@@YAXAAV?$allocator@U?$pair@$$CBVName@Imf@@UChannel@2@@std@@@0@PAU?$pair@$$CBVName@Imf@@UChannel@2@@0@@Z 1002f9b0 f i ImfChannelList.obj
 0001:0002e9b0       ??1?$_Vector_val@UInSliceInfo@?A0xcbf8ace6@Imf@@V?$allocator@UInSliceInfo@?A0xcbf8ace6@Imf@@@std@@@std@@QAE@XZ 1002f9b0 f i ImfScanLineInputFile.obj
 0001:0002e9b0       ??$_Dest_val@V?$allocator@UTInSliceInfo@?A0xf6fcebb6@Imf@@@std@@UTInSliceInfo@?A0xf6fcebb6@Imf@@@std@@YAXAAV?$allocator@UTInSliceInfo@?A0xf6fcebb6@Imf@@@0@PAUTInSliceInfo@?A0xf6fcebb6@Imf@@@Z 1002f9b0 f i ImfTiledInputFile.obj
 0001:0002e9b0       ??$_Destroy@U?$pair@$$CBVName@Imf@@USlice@2@@std@@@std@@YAXPAU?$pair@$$CBVName@Imf@@USlice@2@@0@@Z 1002f9b0 f i ImfFrameBuffer.obj
 0001:0002e9b0       ??$_Destroy@UOutSliceInfo@?A0xf57f9ec6@Imf@@@std@@YAXPAUOutSliceInfo@?A0xf57f9ec6@Imf@@@Z 1002f9b0 f i ImfOutputFile.obj
 0001:0002e9b0       ??$_Destroy_range@V?$allocator@_K@std@@@std@@YAXPA_K0AAV?$allocator@_K@0@U_Scalar_ptr_iterator_tag@0@@Z 1002f9b0 f i ImfOutputFile.obj
 0001:0002e9b0       ??$_Destroy_range@V?$allocator@UTOutSliceInfo@?A0x39e5c904@Imf@@@std@@@std@@YAXPAUTOutSliceInfo@?A0x39e5c904@Imf@@0AAV?$allocator@UTOutSliceInfo@?A0x39e5c904@Imf@@@0@U_Nonscalar_ptr_iterator_tag@0@@Z 1002f9b0 f i ImfTiledOutputFile.obj
 0001:0002e9b0       ??1?$_Vector_val@PAUTileBuffer@?A0xf6fcebb6@Imf@@V?$allocator@PAUTileBuffer@?A0xf6fcebb6@Imf@@@std@@@std@@QAE@XZ 1002f9b0 f i ImfTiledInputFile.obj
 0001:0002e9b0       ??3@YAXPAX0@Z              1002f9b0 f i ImfAttribute.obj
 0001:0002e9b0       ??$_Dest_val@V?$allocator@U?$pair@$$CBUTileCoord@?A0x39e5c904@Imf@@PAUBufferedTile@23@@std@@@std@@U?$pair@$$CBUTileCoord@?A0x39e5c904@Imf@@PAUBufferedTile@23@@2@@std@@YAXAAV?$allocator@U?$pair@$$CBUTileCoord@?A0x39e5c904@Imf@@PAUBufferedTile@23@@std@@@0@PAU?$pair@$$CBUTileCoord@?A0x39e5c904@Imf@@PAUBufferedTile@23@@0@@Z 1002f9b0 f i ImfTiledOutputFile.obj
 0001:0002e9b0       ??$_Destroy_range@V?$allocator@I@std@@@std@@YAXPAI0AAV?$allocator@I@0@@Z 1002f9b0 f i ImfMisc.obj
 0001:0002e9b0       ??$_Destroy@_K@std@@YAXPA_K@Z 1002f9b0 f i ImfTiledInputFile.obj
 0001:0002e9b0       ??$_Destroy_range@V?$allocator@UInSliceInfo@?A0xcbf8ace6@Imf@@@std@@@std@@YAXPAUInSliceInfo@?A0xcbf8ace6@Imf@@0AAV?$allocator@UInSliceInfo@?A0xcbf8ace6@Imf@@@0@U_Nonscalar_ptr_iterator_tag@0@@Z 1002f9b0 f i ImfScanLineInputFile.obj
 0001:0002e9b0       ??1?$_Vector_val@UOutSliceInfo@?A0xf57f9ec6@Imf@@V?$allocator@UOutSliceInfo@?A0xf57f9ec6@Imf@@@std@@@std@@QAE@XZ 1002f9b0 f i ImfOutputFile.obj
 0001:0002e9b0       ??$_Destroy@U?$pair@$$CBVName@Imf@@PAVAttribute@2@@std@@@std@@YAXPAU?$pair@$$CBVName@Imf@@PAVAttribute@2@@0@@Z 1002f9b0 f i ImfHeader.obj
 0001:0002e9b0       ??$_Destroy_range@V?$allocator@PAULineBuffer@?A0xcbf8ace6@Imf@@@std@@@std@@YAXPAPAULineBuffer@?A0xcbf8ace6@Imf@@0AAV?$allocator@PAULineBuffer@?A0xcbf8ace6@Imf@@@0@@Z 1002f9b0 f i ImfScanLineInputFile.obj
 0001:0002e9b0       ??$_Dest_val@V?$allocator@U?$pair@QBDP6APAVAttribute@Imf@@XZ@std@@@std@@U?$pair@QBDP6APAVAttribute@Imf@@XZ@2@@std@@YAXAAV?$allocator@U?$pair@QBDP6APAVAttribute@Imf@@XZ@std@@@0@PAU?$pair@QBDP6APAVAttribute@Imf@@XZ@0@@Z 1002f9b0 f i ImfAttribute.obj
 0001:0002e9b0       ??$_Destroy@UTOutSliceInfo@?A0x39e5c904@Imf@@@std@@YAXPAUTOutSliceInfo@?A0x39e5c904@Imf@@@Z 1002f9b0 f i ImfTiledOutputFile.obj
 0001:0002e9b0       ??$_Destroy_range@V?$allocator@_K@std@@@std@@YAXPA_K0AAV?$allocator@_K@0@@Z 1002f9b0 f i ImfOutputFile.obj
 0001:0002e9b0       ??$_Destroy_range@V?$allocator@UTInSliceInfo@?A0xf6fcebb6@Imf@@@std@@@std@@YAXPAUTInSliceInfo@?A0xf6fcebb6@Imf@@0AAV?$allocator@UTInSliceInfo@?A0xf6fcebb6@Imf@@@0@U_Nonscalar_ptr_iterator_tag@0@@Z 1002f9b0 f i ImfTiledInputFile.obj
 0001:0002e9c0       ?getLineBuffer@Data@ScanLineInputFile@Imf@@QAEPAULineBuffer@?A0xcbf8ace6@3@H@Z 1002f9c0 f i ImfScanLineInputFile.obj
 0001:0002e9f0       ??_ELineBufferTask@?A0xcbf8ace6@Imf@@UAEPAXI@Z 1002f9f0 f i ImfScanLineInputFile.obj
 0001:0002e9f0       ??_GLineBufferTask@?A0xcbf8ace6@Imf@@UAEPAXI@Z 1002f9f0 f i ImfScanLineInputFile.obj
 0001:0002ea70       ??1ScanLineInputFile@Imf@@UAE@XZ 1002fa70 f   ImfScanLineInputFile.obj
 0001:0002eb00       ??$read@UStreamIO@Imf@@VIStream@2@@Xdr@Imf@@YAXAAVIStream@1@AAN@Z 1002fb00 f i ImfAttribute.obj
 0001:0002eb00       ??$read@UStreamIO@Imf@@VIStream@2@@Xdr@Imf@@YAXAAVIStream@1@AA_K@Z 1002fb00 f i ImfScanLineInputFile.obj
 0001:0002ebc0       ??$_Cons_val@V?$allocator@UInSliceInfo@?A0xcbf8ace6@Imf@@@std@@UInSliceInfo@?A0xcbf8ace6@Imf@@U345@@std@@YAXAAV?$allocator@UInSliceInfo@?A0xcbf8ace6@Imf@@@0@PAUInSliceInfo@?A0xcbf8ace6@Imf@@$$QAU234@@Z 1002fbc0 f i ImfScanLineInputFile.obj
 0001:0002ebc0       ??$_Cons_val@V?$allocator@UInSliceInfo@?A0xcbf8ace6@Imf@@@std@@UInSliceInfo@?A0xcbf8ace6@Imf@@AAU345@@std@@YAXAAV?$allocator@UInSliceInfo@?A0xcbf8ace6@Imf@@@0@PAUInSliceInfo@?A0xcbf8ace6@Imf@@AAU234@@Z 1002fbc0 f i ImfScanLineInputFile.obj
 0001:0002ebc0       ??$_Cons_val@V?$allocator@UTInSliceInfo@?A0xf6fcebb6@Imf@@@std@@UTInSliceInfo@?A0xf6fcebb6@Imf@@AAU345@@std@@YAXAAV?$allocator@UTInSliceInfo@?A0xf6fcebb6@Imf@@@0@PAUTInSliceInfo@?A0xf6fcebb6@Imf@@AAU234@@Z 1002fbc0 f i ImfTiledInputFile.obj
 0001:0002ebc0       ??$_Cons_val@V?$allocator@UTInSliceInfo@?A0xf6fcebb6@Imf@@@std@@UTInSliceInfo@?A0xf6fcebb6@Imf@@U345@@std@@YAXAAV?$allocator@UTInSliceInfo@?A0xf6fcebb6@Imf@@@0@PAUTInSliceInfo@?A0xf6fcebb6@Imf@@$$QAU234@@Z 1002fbc0 f i ImfTiledInputFile.obj
 0001:0002ec00       ??$_Copy_impl@PAUTInSliceInfo@?A0xf6fcebb6@Imf@@PAU123@@std@@YAPAUTInSliceInfo@?A0xf6fcebb6@Imf@@PAU123@00U_Nonscalar_ptr_iterator_tag@0@@Z 1002fc00 f i ImfTiledInputFile.obj
 0001:0002ec00       ??$_Move@PAUTInSliceInfo@?A0xf6fcebb6@Imf@@PAU123@@std@@YAPAUTInSliceInfo@?A0xf6fcebb6@Imf@@PAU123@00U_Nonscalar_ptr_iterator_tag@0@@Z 1002fc00 f i ImfTiledInputFile.obj
 0001:0002ec00       ??$_Move@PAUInSliceInfo@?A0xcbf8ace6@Imf@@PAU123@@std@@YAPAUInSliceInfo@?A0xcbf8ace6@Imf@@PAU123@00U_Nonscalar_ptr_iterator_tag@0@@Z 1002fc00 f i ImfScanLineInputFile.obj
 0001:0002ec00       ??$_Copy_impl@PAUInSliceInfo@?A0xcbf8ace6@Imf@@PAU123@@std@@YAPAUInSliceInfo@?A0xcbf8ace6@Imf@@PAU123@00U_Nonscalar_ptr_iterator_tag@0@@Z 1002fc00 f i ImfScanLineInputFile.obj
 0001:0002ec50       ?reconstructLineOffsets@?A0xcbf8ace6@Imf@@YAXAAVIStream@2@W4LineOrder@2@AAV?$vector@_KV?$allocator@_K@std@@@std@@@Z 1002fc50 f   ImfScanLineInputFile.obj
 0001:0002ee20       ?readLineOffsets@?A0xcbf8ace6@Imf@@YAXAAVIStream@2@W4LineOrder@2@AAV?$vector@_KV?$allocator@_K@std@@@std@@AA_N@Z 1002fe20 f   ImfScanLineInputFile.obj
 0001:0002eea0       ??_EScanLineInputFile@Imf@@UAEPAXI@Z 1002fea0 f i ImfScanLineInputFile.obj
 0001:0002eea0       ??_GScanLineInputFile@Imf@@UAEPAXI@Z 1002fea0 f i ImfScanLineInputFile.obj
 0001:0002eed0       ?_Buy@?$vector@UTInSliceInfo@?A0xf6fcebb6@Imf@@V?$allocator@UTInSliceInfo@?A0xf6fcebb6@Imf@@@std@@@std@@IAE_NI@Z 1002fed0 f i ImfTiledInputFile.obj
 0001:0002eed0       ?_Buy@?$vector@UInSliceInfo@?A0xcbf8ace6@Imf@@V?$allocator@UInSliceInfo@?A0xcbf8ace6@Imf@@@std@@@std@@IAE_NI@Z 1002fed0 f i ImfScanLineInputFile.obj
 0001:0002ef30       ??$_Uninitialized_move@PAUInSliceInfo@?A0xcbf8ace6@Imf@@PAU123@V?$allocator@UInSliceInfo@?A0xcbf8ace6@Imf@@@std@@@std@@YAPAUInSliceInfo@?A0xcbf8ace6@Imf@@PAU123@00AAV?$allocator@UInSliceInfo@?A0xcbf8ace6@Imf@@@0@@Z 1002ff30 f i ImfScanLineInputFile.obj
 0001:0002ef30       ??$_Uninitialized_move@PAUTInSliceInfo@?A0xf6fcebb6@Imf@@PAU123@V?$allocator@UTInSliceInfo@?A0xf6fcebb6@Imf@@@std@@@std@@YAPAUTInSliceInfo@?A0xf6fcebb6@Imf@@PAU123@00AAV?$allocator@UTInSliceInfo@?A0xf6fcebb6@Imf@@@0@@Z 1002ff30 f i ImfTiledInputFile.obj
 0001:0002ef60       ??0LineBuffer@?A0xcbf8ace6@Imf@@QAE@QAVCompressor@2@@Z 1002ff60 f   ImfScanLineInputFile.obj
 0001:0002efe0       ??1LineBuffer@?A0xcbf8ace6@Imf@@QAE@XZ 1002ffe0 f   ImfScanLineInputFile.obj
 0001:0002f060       ??_GLineBuffer@?A0xcbf8ace6@Imf@@QAEPAXI@Z 10030060 f i ImfScanLineInputFile.obj
 0001:0002f100       ?readPixelData@?A0xcbf8ace6@Imf@@YAXPAUData@ScanLineInputFile@2@HAAPADAAH@Z 10030100 f   ImfScanLineInputFile.obj
 0001:0002f3a0       ?rawPixelData@ScanLineInputFile@Imf@@QAEXHAAPBDAAH@Z 100303a0 f   ImfScanLineInputFile.obj
 0001:0002f5a0       ??$_Uninitialized_copy@PAUTInSliceInfo@?A0xf6fcebb6@Imf@@PAU123@V?$allocator@UTInSliceInfo@?A0xf6fcebb6@Imf@@@std@@@std@@YAPAUTInSliceInfo@?A0xf6fcebb6@Imf@@PAU123@00AAV?$allocator@UTInSliceInfo@?A0xf6fcebb6@Imf@@@0@@Z 100305a0 f i ImfTiledInputFile.obj
 0001:0002f5a0       ??$_Uninitialized_copy@PAUInSliceInfo@?A0xcbf8ace6@Imf@@PAU123@V?$allocator@UInSliceInfo@?A0xcbf8ace6@Imf@@@std@@@std@@YAPAUInSliceInfo@?A0xcbf8ace6@Imf@@PAU123@00AAV?$allocator@UInSliceInfo@?A0xcbf8ace6@Imf@@@0@@Z 100305a0 f i ImfScanLineInputFile.obj
 0001:0002f5d0       ?_Destroy@?$vector@_KV?$allocator@_K@std@@@std@@IAEXPA_K0@Z 100305d0 f i ImfOutputFile.obj
 0001:0002f5d0       ?_Destroy@?$vector@UInSliceInfo@?A0xcbf8ace6@Imf@@V?$allocator@UInSliceInfo@?A0xcbf8ace6@Imf@@@std@@@std@@IAEXPAUInSliceInfo@?A0xcbf8ace6@Imf@@0@Z 100305d0 f i ImfScanLineInputFile.obj
 0001:0002f5d0       ?_Orphan_range@?$vector@UTInSliceInfo@?A0xf6fcebb6@Imf@@V?$allocator@UTInSliceInfo@?A0xf6fcebb6@Imf@@@std@@@std@@IBEXPAUTInSliceInfo@?A0xf6fcebb6@Imf@@0@Z 100305d0 f i ImfTiledInputFile.obj
 0001:0002f5d0       ?_Orphan_range@?$vector@UInSliceInfo@?A0xcbf8ace6@Imf@@V?$allocator@UInSliceInfo@?A0xcbf8ace6@Imf@@@std@@@std@@IBEXPAUInSliceInfo@?A0xcbf8ace6@Imf@@0@Z 100305d0 f i ImfScanLineInputFile.obj
 0001:0002f5d0       ?_Orphan_range@?$vector@V?$vector@_KV?$allocator@_K@std@@@std@@V?$allocator@V?$vector@_KV?$allocator@_K@std@@@std@@@2@@std@@IBEXPAV?$vector@_KV?$allocator@_K@std@@@2@0@Z 100305d0 f i ImfTiledInputFile.obj
 0001:0002f5d0       ?_Destroy@?$vector@UOutSliceInfo@?A0xf57f9ec6@Imf@@V?$allocator@UOutSliceInfo@?A0xf57f9ec6@Imf@@@std@@@std@@IAEXPAUOutSliceInfo@?A0xf57f9ec6@Imf@@0@Z 100305d0 f i ImfOutputFile.obj
 0001:0002f5d0       ?_Orphan_range@?$vector@V?$basic_string@DU?$char_traits@D@std@@V?$allocator@D@2@@std@@V?$allocator@V?$basic_string@DU?$char_traits@D@std@@V?$allocator@D@2@@std@@@2@@std@@IBEXPAV?$basic_string@DU?$char_traits@D@std@@V?$allocator@D@2@@2@0@Z 100305d0 f i ImfMultiView.obj
 0001:0002f5d0       ?_Destroy@?$vector@IV?$allocator@I@std@@@std@@IAEXPAI0@Z 100305d0 f i ImfMisc.obj
 0001:0002f5d0       ?_Destroy@?$vector@PAUTileBuffer@?A0x39e5c904@Imf@@V?$allocator@PAUTileBuffer@?A0x39e5c904@Imf@@@std@@@std@@IAEXPAPAUTileBuffer@?A0x39e5c904@Imf@@0@Z 100305d0 f i ImfTiledOutputFile.obj
 0001:0002f5d0       ?_Destroy@?$vector@PAUTileBuffer@?A0xf6fcebb6@Imf@@V?$allocator@PAUTileBuffer@?A0xf6fcebb6@Imf@@@std@@@std@@IAEXPAPAUTileBuffer@?A0xf6fcebb6@Imf@@0@Z 100305d0 f i ImfTiledInputFile.obj
 0001:0002f5d0       ?_Destroy@?$vector@UTInSliceInfo@?A0xf6fcebb6@Imf@@V?$allocator@UTInSliceInfo@?A0xf6fcebb6@Imf@@@std@@@std@@IAEXPAUTInSliceInfo@?A0xf6fcebb6@Imf@@0@Z 100305d0 f i ImfTiledInputFile.obj
 0001:0002f5d0       ?_Orphan_range@?$vector@UTOutSliceInfo@?A0x39e5c904@Imf@@V?$allocator@UTOutSliceInfo@?A0x39e5c904@Imf@@@std@@@std@@IBEXPAUTOutSliceInfo@?A0x39e5c904@Imf@@0@Z 100305d0 f i ImfTiledOutputFile.obj
 0001:0002f5d0       ?_Destroy@?$vector@UTOutSliceInfo@?A0x39e5c904@Imf@@V?$allocator@UTOutSliceInfo@?A0x39e5c904@Imf@@@std@@@std@@IAEXPAUTOutSliceInfo@?A0x39e5c904@Imf@@0@Z 100305d0 f i ImfTiledOutputFile.obj
 0001:0002f5d0       ?_Destroy@?$vector@PAULineBuffer@?A0xf57f9ec6@Imf@@V?$allocator@PAULineBuffer@?A0xf57f9ec6@Imf@@@std@@@std@@IAEXPAPAULineBuffer@?A0xf57f9ec6@Imf@@0@Z 100305d0 f i ImfOutputFile.obj
 0001:0002f5d0       ?_Orphan_range@?$vector@_KV?$allocator@_K@std@@@std@@IBEXPA_K0@Z 100305d0 f i ImfTiledInputFile.obj
 0001:0002f5d0       ?_Orphan_range@?$vector@UOutSliceInfo@?A0xf57f9ec6@Imf@@V?$allocator@UOutSliceInfo@?A0xf57f9ec6@Imf@@@std@@@std@@IBEXPAUOutSliceInfo@?A0xf57f9ec6@Imf@@0@Z 100305d0 f i ImfOutputFile.obj
 0001:0002f5d0       ?_Destroy@?$vector@PAULineBuffer@?A0xcbf8ace6@Imf@@V?$allocator@PAULineBuffer@?A0xcbf8ace6@Imf@@@std@@@std@@IAEXPAPAULineBuffer@?A0xcbf8ace6@Imf@@0@Z 100305d0 f i ImfScanLineInputFile.obj
 0001:0002f5e0       ?erase@?$vector@UTInSliceInfo@?A0xf6fcebb6@Imf@@V?$allocator@UTInSliceInfo@?A0xf6fcebb6@Imf@@@std@@@std@@QAE?AV?$_Vector_iterator@V?$_Vector_val@UTInSliceInfo@?A0xf6fcebb6@Imf@@V?$allocator@UTInSliceInfo@?A0xf6fcebb6@Imf@@@std@@@std@@@2@V?$_Vector_const_iterator@V?$_Vector_val@UTInSliceInfo@?A0xf6fcebb6@Imf@@V?$allocator@UTInSliceInfo@?A0xf6fcebb6@Imf@@@std@@@std@@@2@0@Z 100305e0 f i ImfTiledInputFile.obj
 0001:0002f5e0       ?erase@?$vector@UInSliceInfo@?A0xcbf8ace6@Imf@@V?$allocator@UInSliceInfo@?A0xcbf8ace6@Imf@@@std@@@std@@QAE?AV?$_Vector_iterator@V?$_Vector_val@UInSliceInfo@?A0xcbf8ace6@Imf@@V?$allocator@UInSliceInfo@?A0xcbf8ace6@Imf@@@std@@@std@@@2@V?$_Vector_const_iterator@V?$_Vector_val@UInSliceInfo@?A0xcbf8ace6@Imf@@V?$allocator@UInSliceInfo@?A0xcbf8ace6@Imf@@@std@@@std@@@2@0@Z 100305e0 f i ImfScanLineInputFile.obj
 0001:0002f620       ?clear@?$vector@UInSliceInfo@?A0xcbf8ace6@Imf@@V?$allocator@UInSliceInfo@?A0xcbf8ace6@Imf@@@std@@@std@@QAEXXZ 10030620 f i ImfScanLineInputFile.obj
 0001:0002f620       ?clear@?$vector@UTInSliceInfo@?A0xf6fcebb6@Imf@@V?$allocator@UTInSliceInfo@?A0xf6fcebb6@Imf@@@std@@@std@@QAEXXZ 10030620 f i ImfTiledInputFile.obj
 0001:0002f650       ?execute@LineBufferTask@?A0xcbf8ace6@Imf@@UAEXXZ 10030650 f   ImfScanLineInputFile.obj
 0001:0002f970       ?newLineBufferTask@?A0xcbf8ace6@Imf@@YAPAVLineBufferTask@12@PAVTaskGroup@IlmThread@@PAUData@ScanLineInputFile@2@HHH@Z 10030970 f   ImfScanLineInputFile.obj
 0001:0002fae0       ?readPixels@ScanLineInputFile@Imf@@QAEXHH@Z 10030ae0 f   ImfScanLineInputFile.obj
 0001:0002fe60       ?readPixels@ScanLineInputFile@Imf@@QAEXH@Z 10030e60 f   ImfScanLineInputFile.obj
 0001:0002fe80       ??1Data@ScanLineInputFile@Imf@@UAE@XZ 10030e80 f   ImfScanLineInputFile.obj
 0001:00030030       ??0Data@ScanLineInputFile@Imf@@QAE@PAVIStream@2@H@Z 10031030 f   ImfScanLineInputFile.obj
 0001:00030190       ??_GData@ScanLineInputFile@Imf@@UAEPAXI@Z 10031190 f i ImfScanLineInputFile.obj
 0001:00030190       ??_EData@ScanLineInputFile@Imf@@UAEPAXI@Z 10031190 f i ImfScanLineInputFile.obj
 0001:000301c0       ??0ScanLineInputFile@Imf@@QAE@ABVHeader@1@PAVIStream@1@H@Z 100311c0 f   ImfScanLineInputFile.obj
 0001:00030470       ?setFrameBuffer@ScanLineInputFile@Imf@@QAEXABVFrameBuffer@2@@Z 10031470 f   ImfScanLineInputFile.obj
 0001:00030a50       ??0?$TypedAttribute@W4Envmap@Imf@@@Imf@@QAE@ABW4Envmap@1@@Z 10031a50 f i ImfStandardAttributes.obj
 0001:00030a70       ??0?$TypedAttribute@VKeyCode@Imf@@@Imf@@QAE@ABVKeyCode@1@@Z 10031a70 f i ImfStandardAttributes.obj
 0001:00030ad0       ??0?$TypedAttribute@VRational@Imf@@@Imf@@QAE@ABVRational@1@@Z 10031ad0 f i ImfStandardAttributes.obj
 0001:00030b00       ??0?$TypedAttribute@VTimeCode@Imf@@@Imf@@QAE@ABVTimeCode@1@@Z 10031b00 f i ImfStandardAttributes.obj
 0001:00030b60       ??$typedAttribute@V?$TypedAttribute@UChromaticities@Imf@@@Imf@@@Header@Imf@@QAEAAV?$TypedAttribute@UChromaticities@Imf@@@1@QBD@Z 10031b60 f i ImfStandardAttributes.obj
 0001:00030b60       ??$typedAttribute@V?$TypedAttribute@UChromaticities@Imf@@@Imf@@@Header@Imf@@QBEABV?$TypedAttribute@UChromaticities@Imf@@@1@QBD@Z 10031b60 f i ImfStandardAttributes.obj
 0001:00030bd0       ??$typedAttribute@V?$TypedAttribute@W4Envmap@Imf@@@Imf@@@Header@Imf@@QAEAAV?$TypedAttribute@W4Envmap@Imf@@@1@QBD@Z 10031bd0 f i ImfStandardAttributes.obj
 0001:00030bd0       ??$typedAttribute@V?$TypedAttribute@W4Envmap@Imf@@@Imf@@@Header@Imf@@QBEABV?$TypedAttribute@W4Envmap@Imf@@@1@QBD@Z 10031bd0 f i ImfStandardAttributes.obj
 0001:00030c40       ??$typedAttribute@V?$TypedAttribute@VKeyCode@Imf@@@Imf@@@Header@Imf@@QBEABV?$TypedAttribute@VKeyCode@Imf@@@1@QBD@Z 10031c40 f i ImfStandardAttributes.obj
 0001:00030c40       ??$typedAttribute@V?$TypedAttribute@VKeyCode@Imf@@@Imf@@@Header@Imf@@QAEAAV?$TypedAttribute@VKeyCode@Imf@@@1@QBD@Z 10031c40 f i ImfStandardAttributes.obj
 0001:00030cb0       ??$typedAttribute@V?$TypedAttribute@VTimeCode@Imf@@@Imf@@@Header@Imf@@QBEABV?$TypedAttribute@VTimeCode@Imf@@@1@QBD@Z 10031cb0 f i ImfStandardAttributes.obj
 0001:00030cb0       ??$typedAttribute@V?$TypedAttribute@VTimeCode@Imf@@@Imf@@@Header@Imf@@QAEAAV?$TypedAttribute@VTimeCode@Imf@@@1@QBD@Z 10031cb0 f i ImfStandardAttributes.obj
 0001:00030d20       ??$typedAttribute@V?$TypedAttribute@VRational@Imf@@@Imf@@@Header@Imf@@QAEAAV?$TypedAttribute@VRational@Imf@@@1@QBD@Z 10031d20 f i ImfStandardAttributes.obj
 0001:00030d20       ??$typedAttribute@V?$TypedAttribute@VRational@Imf@@@Imf@@@Header@Imf@@QBEABV?$TypedAttribute@VRational@Imf@@@1@QBD@Z 10031d20 f i ImfStandardAttributes.obj
 0001:00030d90       ??$typedAttribute@V?$TypedAttribute@V?$vector@V?$basic_string@DU?$char_traits@D@std@@V?$allocator@D@2@@std@@V?$allocator@V?$basic_string@DU?$char_traits@D@std@@V?$allocator@D@2@@std@@@2@@std@@@Imf@@@Header@Imf@@QBEABV?$TypedAttribute@V?$vector@V?$basic_string@DU?$char_traits@D@std@@V?$allocator@D@2@@std@@V?$allocator@V?$basic_string@DU?$char_traits@D@std@@V?$allocator@D@2@@std@@@2@@std@@@1@QBD@Z 10031d90 f i ImfStandardAttributes.obj
 0001:00030d90       ??$typedAttribute@V?$TypedAttribute@V?$vector@V?$basic_string@DU?$char_traits@D@std@@V?$allocator@D@2@@std@@V?$allocator@V?$basic_string@DU?$char_traits@D@std@@V?$allocator@D@2@@std@@@2@@std@@@Imf@@@Header@Imf@@QAEAAV?$TypedAttribute@V?$vector@V?$basic_string@DU?$char_traits@D@std@@V?$allocator@D@2@@std@@V?$allocator@V?$basic_string@DU?$char_traits@D@std@@V?$allocator@D@2@@std@@@2@@std@@@1@QBD@Z 10031d90 f i ImfStandardAttributes.obj
 0001:00030e00       ?chromaticitiesAttribute@Imf@@YAABV?$TypedAttribute@UChromaticities@Imf@@@1@ABVHeader@1@@Z 10031e00 f   ImfStandardAttributes.obj
 0001:00030e00       ?chromaticitiesAttribute@Imf@@YAAAV?$TypedAttribute@UChromaticities@Imf@@@1@AAVHeader@1@@Z 10031e00 f   ImfStandardAttributes.obj
 0001:00030e70       ?chromaticities@Imf@@YAABUChromaticities@1@ABVHeader@1@@Z 10031e70 f   ImfStandardAttributes.obj
 0001:00030e70       ?chromaticities@Imf@@YAAAUChromaticities@1@AAVHeader@1@@Z 10031e70 f   ImfStandardAttributes.obj
 0001:00030ee0       ?addWhiteLuminance@Imf@@YAXAAVHeader@1@ABM@Z 10031ee0 f   ImfStandardAttributes.obj
 0001:00030f60       ?whiteLuminanceAttribute@Imf@@YAABV?$TypedAttribute@M@1@ABVHeader@1@@Z 10031f60 f   ImfStandardAttributes.obj
 0001:00030f60       ?whiteLuminanceAttribute@Imf@@YAAAV?$TypedAttribute@M@1@AAVHeader@1@@Z 10031f60 f   ImfStandardAttributes.obj
 0001:00030fd0       ?whiteLuminance@Imf@@YAAAMAAVHeader@1@@Z 10031fd0 f   ImfStandardAttributes.obj
 0001:00030fd0       ?whiteLuminance@Imf@@YAABMABVHeader@1@@Z 10031fd0 f   ImfStandardAttributes.obj
 0001:00031040       ?adoptedNeutralAttribute@Imf@@YAAAV?$TypedAttribute@V?$Vec2@M@Imath@@@1@AAVHeader@1@@Z 10032040 f   ImfStandardAttributes.obj
 0001:00031040       ?adoptedNeutralAttribute@Imf@@YAABV?$TypedAttribute@V?$Vec2@M@Imath@@@1@ABVHeader@1@@Z 10032040 f   ImfStandardAttributes.obj
 0001:000310b0       ?adoptedNeutral@Imf@@YAAAV?$Vec2@M@Imath@@AAVHeader@1@@Z 100320b0 f   ImfStandardAttributes.obj
 0001:000310b0       ?adoptedNeutral@Imf@@YAABV?$Vec2@M@Imath@@ABVHeader@1@@Z 100320b0 f   ImfStandardAttributes.obj
 0001:00031120       ?renderingTransformAttribute@Imf@@YAABV?$TypedAttribute@V?$basic_string@DU?$char_traits@D@std@@V?$allocator@D@2@@std@@@1@ABVHeader@1@@Z 10032120 f   ImfStandardAttributes.obj
 0001:00031120       ?renderingTransformAttribute@Imf@@YAAAV?$TypedAttribute@V?$basic_string@DU?$char_traits@D@std@@V?$allocator@D@2@@std@@@1@AAVHeader@1@@Z 10032120 f   ImfStandardAttributes.obj
 0001:00031190       ?renderingTransform@Imf@@YAABV?$basic_string@DU?$char_traits@D@std@@V?$allocator@D@2@@std@@ABVHeader@1@@Z 10032190 f   ImfStandardAttributes.obj
 0001:00031190       ?renderingTransform@Imf@@YAAAV?$basic_string@DU?$char_traits@D@std@@V?$allocator@D@2@@std@@AAVHeader@1@@Z 10032190 f   ImfStandardAttributes.obj
 0001:00031200       ?lookModTransformAttribute@Imf@@YAAAV?$TypedAttribute@V?$basic_string@DU?$char_traits@D@std@@V?$allocator@D@2@@std@@@1@AAVHeader@1@@Z 10032200 f   ImfStandardAttributes.obj
 0001:00031200       ?lookModTransformAttribute@Imf@@YAABV?$TypedAttribute@V?$basic_string@DU?$char_traits@D@std@@V?$allocator@D@2@@std@@@1@ABVHeader@1@@Z 10032200 f   ImfStandardAttributes.obj
 0001:00031270       ?lookModTransform@Imf@@YAABV?$basic_string@DU?$char_traits@D@std@@V?$allocator@D@2@@std@@ABVHeader@1@@Z 10032270 f   ImfStandardAttributes.obj
 0001:00031270       ?lookModTransform@Imf@@YAAAV?$basic_string@DU?$char_traits@D@std@@V?$allocator@D@2@@std@@AAVHeader@1@@Z 10032270 f   ImfStandardAttributes.obj
 0001:000312e0       ?addXDensity@Imf@@YAXAAVHeader@1@ABM@Z 100322e0 f   ImfStandardAttributes.obj
 0001:00031360       ?xDensityAttribute@Imf@@YAAAV?$TypedAttribute@M@1@AAVHeader@1@@Z 10032360 f   ImfStandardAttributes.obj
 0001:00031360       ?xDensityAttribute@Imf@@YAABV?$TypedAttribute@M@1@ABVHeader@1@@Z 10032360 f   ImfStandardAttributes.obj
 0001:000313d0       ?xDensity@Imf@@YAABMABVHeader@1@@Z 100323d0 f   ImfStandardAttributes.obj
 0001:000313d0       ?xDensity@Imf@@YAAAMAAVHeader@1@@Z 100323d0 f   ImfStandardAttributes.obj
 0001:00031440       ?ownerAttribute@Imf@@YAAAV?$TypedAttribute@V?$basic_string@DU?$char_traits@D@std@@V?$allocator@D@2@@std@@@1@AAVHeader@1@@Z 10032440 f   ImfStandardAttributes.obj
 0001:00031440       ?ownerAttribute@Imf@@YAABV?$TypedAttribute@V?$basic_string@DU?$char_traits@D@std@@V?$allocator@D@2@@std@@@1@ABVHeader@1@@Z 10032440 f   ImfStandardAttributes.obj
 0001:000314b0       ?owner@Imf@@YAAAV?$basic_string@DU?$char_traits@D@std@@V?$allocator@D@2@@std@@AAVHeader@1@@Z 100324b0 f   ImfStandardAttributes.obj
 0001:000314b0       ?owner@Imf@@YAABV?$basic_string@DU?$char_traits@D@std@@V?$allocator@D@2@@std@@ABVHeader@1@@Z 100324b0 f   ImfStandardAttributes.obj
 0001:00031520       ?commentsAttribute@Imf@@YAABV?$TypedAttribute@V?$basic_string@DU?$char_traits@D@std@@V?$allocator@D@2@@std@@@1@ABVHeader@1@@Z 10032520 f   ImfStandardAttributes.obj
 0001:00031520       ?commentsAttribute@Imf@@YAAAV?$TypedAttribute@V?$basic_string@DU?$char_traits@D@std@@V?$allocator@D@2@@std@@@1@AAVHeader@1@@Z 10032520 f   ImfStandardAttributes.obj
 0001:00031590       ?comments@Imf@@YAAAV?$basic_string@DU?$char_traits@D@std@@V?$allocator@D@2@@std@@AAVHeader@1@@Z 10032590 f   ImfStandardAttributes.obj
 0001:00031590       ?comments@Imf@@YAABV?$basic_string@DU?$char_traits@D@std@@V?$allocator@D@2@@std@@ABVHeader@1@@Z 10032590 f   ImfStandardAttributes.obj
 0001:00031600       ?capDateAttribute@Imf@@YAABV?$TypedAttribute@V?$basic_string@DU?$char_traits@D@std@@V?$allocator@D@2@@std@@@1@ABVHeader@1@@Z 10032600 f   ImfStandardAttributes.obj
 0001:00031600       ?capDateAttribute@Imf@@YAAAV?$TypedAttribute@V?$basic_string@DU?$char_traits@D@std@@V?$allocator@D@2@@std@@@1@AAVHeader@1@@Z 10032600 f   ImfStandardAttributes.obj
 0001:00031670       ?capDate@Imf@@YAAAV?$basic_string@DU?$char_traits@D@std@@V?$allocator@D@2@@std@@AAVHeader@1@@Z 10032670 f   ImfStandardAttributes.obj
 0001:00031670       ?capDate@Imf@@YAABV?$basic_string@DU?$char_traits@D@std@@V?$allocator@D@2@@std@@ABVHeader@1@@Z 10032670 f   ImfStandardAttributes.obj
 0001:000316e0       ?addUtcOffset@Imf@@YAXAAVHeader@1@ABM@Z 100326e0 f   ImfStandardAttributes.obj
 0001:00031760       ?utcOffsetAttribute@Imf@@YAABV?$TypedAttribute@M@1@ABVHeader@1@@Z 10032760 f   ImfStandardAttributes.obj
 0001:00031760       ?utcOffsetAttribute@Imf@@YAAAV?$TypedAttribute@M@1@AAVHeader@1@@Z 10032760 f   ImfStandardAttributes.obj
 0001:000317d0       ?utcOffset@Imf@@YAABMABVHeader@1@@Z 100327d0 f   ImfStandardAttributes.obj
 0001:000317d0       ?utcOffset@Imf@@YAAAMAAVHeader@1@@Z 100327d0 f   ImfStandardAttributes.obj
 0001:00031840       ?addLongitude@Imf@@YAXAAVHeader@1@ABM@Z 10032840 f   ImfStandardAttributes.obj
 0001:000318c0       ?longitudeAttribute@Imf@@YAAAV?$TypedAttribute@M@1@AAVHeader@1@@Z 100328c0 f   ImfStandardAttributes.obj
 0001:000318c0       ?longitudeAttribute@Imf@@YAABV?$TypedAttribute@M@1@ABVHeader@1@@Z 100328c0 f   ImfStandardAttributes.obj
 0001:00031930       ?longitude@Imf@@YAAAMAAVHeader@1@@Z 10032930 f   ImfStandardAttributes.obj
 0001:00031930       ?longitude@Imf@@YAABMABVHeader@1@@Z 10032930 f   ImfStandardAttributes.obj
 0001:000319a0       ?addLatitude@Imf@@YAXAAVHeader@1@ABM@Z 100329a0 f   ImfStandardAttributes.obj
 0001:00031a20       ?latitudeAttribute@Imf@@YAAAV?$TypedAttribute@M@1@AAVHeader@1@@Z 10032a20 f   ImfStandardAttributes.obj
 0001:00031a20       ?latitudeAttribute@Imf@@YAABV?$TypedAttribute@M@1@ABVHeader@1@@Z 10032a20 f   ImfStandardAttributes.obj
 0001:00031a90       ?latitude@Imf@@YAAAMAAVHeader@1@@Z 10032a90 f   ImfStandardAttributes.obj
 0001:00031a90       ?latitude@Imf@@YAABMABVHeader@1@@Z 10032a90 f   ImfStandardAttributes.obj
 0001:00031b00       ?addAltitude@Imf@@YAXAAVHeader@1@ABM@Z 10032b00 f   ImfStandardAttributes.obj
 0001:00031b80       ?altitudeAttribute@Imf@@YAABV?$TypedAttribute@M@1@ABVHeader@1@@Z 10032b80 f   ImfStandardAttributes.obj
 0001:00031b80       ?altitudeAttribute@Imf@@YAAAV?$TypedAttribute@M@1@AAVHeader@1@@Z 10032b80 f   ImfStandardAttributes.obj
 0001:00031bf0       ?altitude@Imf@@YAAAMAAVHeader@1@@Z 10032bf0 f   ImfStandardAttributes.obj
 0001:00031bf0       ?altitude@Imf@@YAABMABVHeader@1@@Z 10032bf0 f   ImfStandardAttributes.obj
 0001:00031c60       ?addFocus@Imf@@YAXAAVHeader@1@ABM@Z 10032c60 f   ImfStandardAttributes.obj
 0001:00031ce0       ?focusAttribute@Imf@@YAABV?$TypedAttribute@M@1@ABVHeader@1@@Z 10032ce0 f   ImfStandardAttributes.obj
 0001:00031ce0       ?focusAttribute@Imf@@YAAAV?$TypedAttribute@M@1@AAVHeader@1@@Z 10032ce0 f   ImfStandardAttributes.obj
 0001:00031d50       ?focus@Imf@@YAAAMAAVHeader@1@@Z 10032d50 f   ImfStandardAttributes.obj
 0001:00031d50       ?focus@Imf@@YAABMABVHeader@1@@Z 10032d50 f   ImfStandardAttributes.obj
 0001:00031dc0       ?addExpTime@Imf@@YAXAAVHeader@1@ABM@Z 10032dc0 f   ImfStandardAttributes.obj
 0001:00031e40       ?expTimeAttribute@Imf@@YAABV?$TypedAttribute@M@1@ABVHeader@1@@Z 10032e40 f   ImfStandardAttributes.obj
 0001:00031e40       ?expTimeAttribute@Imf@@YAAAV?$TypedAttribute@M@1@AAVHeader@1@@Z 10032e40 f   ImfStandardAttributes.obj
 0001:00031eb0       ?expTime@Imf@@YAAAMAAVHeader@1@@Z 10032eb0 f   ImfStandardAttributes.obj
 0001:00031eb0       ?expTime@Imf@@YAABMABVHeader@1@@Z 10032eb0 f   ImfStandardAttributes.obj
 0001:00031f20       ?addAperture@Imf@@YAXAAVHeader@1@ABM@Z 10032f20 f   ImfStandardAttributes.obj
 0001:00031fa0       ?apertureAttribute@Imf@@YAABV?$TypedAttribute@M@1@ABVHeader@1@@Z 10032fa0 f   ImfStandardAttributes.obj
 0001:00031fa0       ?apertureAttribute@Imf@@YAAAV?$TypedAttribute@M@1@AAVHeader@1@@Z 10032fa0 f   ImfStandardAttributes.obj
 0001:00032010       ?aperture@Imf@@YAAAMAAVHeader@1@@Z 10033010 f   ImfStandardAttributes.obj
 0001:00032010       ?aperture@Imf@@YAABMABVHeader@1@@Z 10033010 f   ImfStandardAttributes.obj
 0001:00032080       ?addIsoSpeed@Imf@@YAXAAVHeader@1@ABM@Z 10033080 f   ImfStandardAttributes.obj
 0001:00032100       ?isoSpeedAttribute@Imf@@YAABV?$TypedAttribute@M@1@ABVHeader@1@@Z 10033100 f   ImfStandardAttributes.obj
 0001:00032100       ?isoSpeedAttribute@Imf@@YAAAV?$TypedAttribute@M@1@AAVHeader@1@@Z 10033100 f   ImfStandardAttributes.obj
 0001:00032170       ?isoSpeed@Imf@@YAAAMAAVHeader@1@@Z 10033170 f   ImfStandardAttributes.obj
 0001:00032170       ?isoSpeed@Imf@@YAABMABVHeader@1@@Z 10033170 f   ImfStandardAttributes.obj
 0001:000321e0       ?addEnvmap@Imf@@YAXAAVHeader@1@ABW4Envmap@1@@Z 100331e0 f   ImfStandardAttributes.obj
 0001:00032260       ?envmapAttribute@Imf@@YAAAV?$TypedAttribute@W4Envmap@Imf@@@1@AAVHeader@1@@Z 10033260 f   ImfStandardAttributes.obj
 0001:00032260       ?envmapAttribute@Imf@@YAABV?$TypedAttribute@W4Envmap@Imf@@@1@ABVHeader@1@@Z 10033260 f   ImfStandardAttributes.obj
 0001:000322d0       ?envmap@Imf@@YAAAW4Envmap@1@AAVHeader@1@@Z 100332d0 f   ImfStandardAttributes.obj
 0001:000322d0       ?envmap@Imf@@YAABW4Envmap@1@ABVHeader@1@@Z 100332d0 f   ImfStandardAttributes.obj
 0001:00032340       ?addKeyCode@Imf@@YAXAAVHeader@1@ABVKeyCode@1@@Z 10033340 f   ImfStandardAttributes.obj
 0001:000323d0       ?keyCodeAttribute@Imf@@YAAAV?$TypedAttribute@VKeyCode@Imf@@@1@AAVHeader@1@@Z 100333d0 f   ImfStandardAttributes.obj
 0001:000323d0       ?keyCodeAttribute@Imf@@YAABV?$TypedAttribute@VKeyCode@Imf@@@1@ABVHeader@1@@Z 100333d0 f   ImfStandardAttributes.obj
 0001:00032440       ?keyCode@Imf@@YAABVKeyCode@1@ABVHeader@1@@Z 10033440 f   ImfStandardAttributes.obj
 0001:00032440       ?keyCode@Imf@@YAAAVKeyCode@1@AAVHeader@1@@Z 10033440 f   ImfStandardAttributes.obj
 0001:000324b0       ?addTimeCode@Imf@@YAXAAVHeader@1@ABVTimeCode@1@@Z 100334b0 f   ImfStandardAttributes.obj
 0001:00032540       ?timeCodeAttribute@Imf@@YAAAV?$TypedAttribute@VTimeCode@Imf@@@1@AAVHeader@1@@Z 10033540 f   ImfStandardAttributes.obj
 0001:00032540       ?timeCodeAttribute@Imf@@YAABV?$TypedAttribute@VTimeCode@Imf@@@1@ABVHeader@1@@Z 10033540 f   ImfStandardAttributes.obj
 0001:000325b0       ?timeCode@Imf@@YAABVTimeCode@1@ABVHeader@1@@Z 100335b0 f   ImfStandardAttributes.obj
 0001:000325b0       ?timeCode@Imf@@YAAAVTimeCode@1@AAVHeader@1@@Z 100335b0 f   ImfStandardAttributes.obj
 0001:00032620       ?wrapmodesAttribute@Imf@@YAABV?$TypedAttribute@V?$basic_string@DU?$char_traits@D@std@@V?$allocator@D@2@@std@@@1@ABVHeader@1@@Z 10033620 f   ImfStandardAttributes.obj
 0001:00032620       ?wrapmodesAttribute@Imf@@YAAAV?$TypedAttribute@V?$basic_string@DU?$char_traits@D@std@@V?$allocator@D@2@@std@@@1@AAVHeader@1@@Z 10033620 f   ImfStandardAttributes.obj
 0001:00032690       ?wrapmodes@Imf@@YAABV?$basic_string@DU?$char_traits@D@std@@V?$allocator@D@2@@std@@ABVHeader@1@@Z 10033690 f   ImfStandardAttributes.obj
 0001:00032690       ?wrapmodes@Imf@@YAAAV?$basic_string@DU?$char_traits@D@std@@V?$allocator@D@2@@std@@AAVHeader@1@@Z 10033690 f   ImfStandardAttributes.obj
 0001:00032700       ?addFramesPerSecond@Imf@@YAXAAVHeader@1@ABVRational@1@@Z 10033700 f   ImfStandardAttributes.obj
 0001:00032780       ?framesPerSecondAttribute@Imf@@YAAAV?$TypedAttribute@VRational@Imf@@@1@AAVHeader@1@@Z 10033780 f   ImfStandardAttributes.obj
 0001:00032780       ?framesPerSecondAttribute@Imf@@YAABV?$TypedAttribute@VRational@Imf@@@1@ABVHeader@1@@Z 10033780 f   ImfStandardAttributes.obj
 0001:000327f0       ?framesPerSecond@Imf@@YAAAVRational@1@AAVHeader@1@@Z 100337f0 f   ImfStandardAttributes.obj
 0001:000327f0       ?framesPerSecond@Imf@@YAABVRational@1@ABVHeader@1@@Z 100337f0 f   ImfStandardAttributes.obj
 0001:00032860       ?multiViewAttribute@Imf@@YAABV?$TypedAttribute@V?$vector@V?$basic_string@DU?$char_traits@D@std@@V?$allocator@D@2@@std@@V?$allocator@V?$basic_string@DU?$char_traits@D@std@@V?$allocator@D@2@@std@@@2@@std@@@1@ABVHeader@1@@Z 10033860 f   ImfStandardAttributes.obj
 0001:00032860       ?multiViewAttribute@Imf@@YAAAV?$TypedAttribute@V?$vector@V?$basic_string@DU?$char_traits@D@std@@V?$allocator@D@2@@std@@V?$allocator@V?$basic_string@DU?$char_traits@D@std@@V?$allocator@D@2@@std@@@2@@std@@@1@AAVHeader@1@@Z 10033860 f   ImfStandardAttributes.obj
 0001:000328d0       ?multiView@Imf@@YAAAV?$vector@V?$basic_string@DU?$char_traits@D@std@@V?$allocator@D@2@@std@@V?$allocator@V?$basic_string@DU?$char_traits@D@std@@V?$allocator@D@2@@std@@@2@@std@@AAVHeader@1@@Z 100338d0 f   ImfStandardAttributes.obj
 0001:000328d0       ?multiView@Imf@@YAABV?$vector@V?$basic_string@DU?$char_traits@D@std@@V?$allocator@D@2@@std@@V?$allocator@V?$basic_string@DU?$char_traits@D@std@@V?$allocator@D@2@@std@@@2@@std@@ABVHeader@1@@Z 100338d0 f   ImfStandardAttributes.obj
 0001:00032940       ?worldToCameraAttribute@Imf@@YAABV?$TypedAttribute@V?$Matrix44@M@Imath@@@1@ABVHeader@1@@Z 10033940 f   ImfStandardAttributes.obj
 0001:00032940       ?worldToCameraAttribute@Imf@@YAAAV?$TypedAttribute@V?$Matrix44@M@Imath@@@1@AAVHeader@1@@Z 10033940 f   ImfStandardAttributes.obj
 0001:000329b0       ?worldToCamera@Imf@@YAABV?$Matrix44@M@Imath@@ABVHeader@1@@Z 100339b0 f   ImfStandardAttributes.obj
 0001:000329b0       ?worldToCamera@Imf@@YAAAV?$Matrix44@M@Imath@@AAVHeader@1@@Z 100339b0 f   ImfStandardAttributes.obj
 0001:00032a20       ?worldToNDCAttribute@Imf@@YAAAV?$TypedAttribute@V?$Matrix44@M@Imath@@@1@AAVHeader@1@@Z 10033a20 f   ImfStandardAttributes.obj
 0001:00032a20       ?worldToNDCAttribute@Imf@@YAABV?$TypedAttribute@V?$Matrix44@M@Imath@@@1@ABVHeader@1@@Z 10033a20 f   ImfStandardAttributes.obj
 0001:00032a90       ?worldToNDC@Imf@@YAABV?$Matrix44@M@Imath@@ABVHeader@1@@Z 10033a90 f   ImfStandardAttributes.obj
 0001:00032a90       ?worldToNDC@Imf@@YAAAV?$Matrix44@M@Imath@@AAVHeader@1@@Z 10033a90 f   ImfStandardAttributes.obj
 0001:00032b00       ?addAdoptedNeutral@Imf@@YAXAAVHeader@1@ABV?$Vec2@M@Imath@@@Z 10033b00 f   ImfStandardAttributes.obj
 0001:00032b90       ?addWorldToCamera@Imf@@YAXAAVHeader@1@ABV?$Matrix44@M@Imath@@@Z 10033b90 f   ImfStandardAttributes.obj
 0001:00032c20       ?addWorldToNDC@Imf@@YAXAAVHeader@1@ABV?$Matrix44@M@Imath@@@Z 10033c20 f   ImfStandardAttributes.obj
 0001:00032cb0       ??0?$TypedAttribute@UChromaticities@Imf@@@Imf@@QAE@ABUChromaticities@1@@Z 10033cb0 f i ImfStandardAttributes.obj
 0001:00032d00       ?addChromaticities@Imf@@YAXAAVHeader@1@ABUChromaticities@1@@Z 10033d00 f   ImfStandardAttributes.obj
 0001:00032dd0       ??$findTypedAttribute@V?$TypedAttribute@UChromaticities@Imf@@@Imf@@@Header@Imf@@QBEPBV?$TypedAttribute@UChromaticities@Imf@@@1@QBD@Z 10033dd0 f i ImfStandardAttributes.obj
 0001:00032e70       ??$findTypedAttribute@V?$TypedAttribute@M@Imf@@@Header@Imf@@QBEPBV?$TypedAttribute@M@1@QBD@Z 10033e70 f i ImfStandardAttributes.obj
 0001:00032f10       ??$findTypedAttribute@V?$TypedAttribute@V?$Vec2@M@Imath@@@Imf@@@Header@Imf@@QBEPBV?$TypedAttribute@V?$Vec2@M@Imath@@@1@QBD@Z 10033f10 f i ImfStandardAttributes.obj
 0001:00032fb0       ??$findTypedAttribute@V?$TypedAttribute@V?$basic_string@DU?$char_traits@D@std@@V?$allocator@D@2@@std@@@Imf@@@Header@Imf@@QBEPBV?$TypedAttribute@V?$basic_string@DU?$char_traits@D@std@@V?$allocator@D@2@@std@@@1@QBD@Z 10033fb0 f i ImfStandardAttributes.obj
 0001:00033050       ??$findTypedAttribute@V?$TypedAttribute@W4Envmap@Imf@@@Imf@@@Header@Imf@@QBEPBV?$TypedAttribute@W4Envmap@Imf@@@1@QBD@Z 10034050 f i ImfStandardAttributes.obj
 0001:000330f0       ??$findTypedAttribute@V?$TypedAttribute@VKeyCode@Imf@@@Imf@@@Header@Imf@@QBEPBV?$TypedAttribute@VKeyCode@Imf@@@1@QBD@Z 100340f0 f i ImfStandardAttributes.obj
 0001:00033190       ??$findTypedAttribute@V?$TypedAttribute@VTimeCode@Imf@@@Imf@@@Header@Imf@@QBEPBV?$TypedAttribute@VTimeCode@Imf@@@1@QBD@Z 10034190 f i ImfStandardAttributes.obj
 0001:00033230       ??$findTypedAttribute@V?$TypedAttribute@VRational@Imf@@@Imf@@@Header@Imf@@QBEPBV?$TypedAttribute@VRational@Imf@@@1@QBD@Z 10034230 f i ImfStandardAttributes.obj
 0001:000332d0       ??$findTypedAttribute@V?$TypedAttribute@V?$vector@V?$basic_string@DU?$char_traits@D@std@@V?$allocator@D@2@@std@@V?$allocator@V?$basic_string@DU?$char_traits@D@std@@V?$allocator@D@2@@std@@@2@@std@@@Imf@@@Header@Imf@@QBEPBV?$TypedAttribute@V?$vector@V?$basic_string@DU?$char_traits@D@std@@V?$allocator@D@2@@std@@V?$allocator@V?$basic_string@DU?$char_traits@D@std@@V?$allocator@D@2@@std@@@2@@std@@@1@QBD@Z 100342d0 f i ImfStandardAttributes.obj
 0001:00033370       ??$findTypedAttribute@V?$TypedAttribute@V?$Matrix44@M@Imath@@@Imf@@@Header@Imf@@QBEPBV?$TypedAttribute@V?$Matrix44@M@Imath@@@1@QBD@Z 10034370 f i ImfStandardAttributes.obj
 0001:00033410       ?hasChromaticities@Imf@@YA_NABVHeader@1@@Z 10034410 f   ImfStandardAttributes.obj
 0001:00033430       ?hasWhiteLuminance@Imf@@YA_NABVHeader@1@@Z 10034430 f   ImfStandardAttributes.obj
 0001:00033450       ?hasAdoptedNeutral@Imf@@YA_NABVHeader@1@@Z 10034450 f   ImfStandardAttributes.obj
 0001:00033470       ?hasRenderingTransform@Imf@@YA_NABVHeader@1@@Z 10034470 f   ImfStandardAttributes.obj
 0001:00033490       ?hasLookModTransform@Imf@@YA_NABVHeader@1@@Z 10034490 f   ImfStandardAttributes.obj
 0001:000334b0       ?hasXDensity@Imf@@YA_NABVHeader@1@@Z 100344b0 f   ImfStandardAttributes.obj
 0001:000334d0       ?hasOwner@Imf@@YA_NABVHeader@1@@Z 100344d0 f   ImfStandardAttributes.obj
 0001:000334f0       ?hasComments@Imf@@YA_NABVHeader@1@@Z 100344f0 f   ImfStandardAttributes.obj
 0001:00033510       ?hasCapDate@Imf@@YA_NABVHeader@1@@Z 10034510 f   ImfStandardAttributes.obj
 0001:00033530       ?hasUtcOffset@Imf@@YA_NABVHeader@1@@Z 10034530 f   ImfStandardAttributes.obj
 0001:00033550       ?hasLongitude@Imf@@YA_NABVHeader@1@@Z 10034550 f   ImfStandardAttributes.obj
 0001:00033570       ?hasLatitude@Imf@@YA_NABVHeader@1@@Z 10034570 f   ImfStandardAttributes.obj
 0001:00033590       ?hasAltitude@Imf@@YA_NABVHeader@1@@Z 10034590 f   ImfStandardAttributes.obj
 0001:000335b0       ?hasFocus@Imf@@YA_NABVHeader@1@@Z 100345b0 f   ImfStandardAttributes.obj
 0001:000335d0       ?hasExpTime@Imf@@YA_NABVHeader@1@@Z 100345d0 f   ImfStandardAttributes.obj
 0001:000335f0       ?hasAperture@Imf@@YA_NABVHeader@1@@Z 100345f0 f   ImfStandardAttributes.obj
 0001:00033610       ?hasIsoSpeed@Imf@@YA_NABVHeader@1@@Z 10034610 f   ImfStandardAttributes.obj
 0001:00033630       ?hasEnvmap@Imf@@YA_NABVHeader@1@@Z 10034630 f   ImfStandardAttributes.obj
 0001:00033650       ?hasKeyCode@Imf@@YA_NABVHeader@1@@Z 10034650 f   ImfStandardAttributes.obj
 0001:00033670       ?hasTimeCode@Imf@@YA_NABVHeader@1@@Z 10034670 f   ImfStandardAttributes.obj
 0001:00033690       ?hasWrapmodes@Imf@@YA_NABVHeader@1@@Z 10034690 f   ImfStandardAttributes.obj
 0001:000336b0       ?hasFramesPerSecond@Imf@@YA_NABVHeader@1@@Z 100346b0 f   ImfStandardAttributes.obj
 0001:000336d0       ?hasMultiView@Imf@@YA_NABVHeader@1@@Z 100346d0 f   ImfStandardAttributes.obj
 0001:000336f0       ?hasWorldToCamera@Imf@@YA_NABVHeader@1@@Z 100346f0 f   ImfStandardAttributes.obj
 0001:00033710       ?hasWorldToNDC@Imf@@YA_NABVHeader@1@@Z 10034710 f   ImfStandardAttributes.obj
 0001:00033730       ?addRenderingTransform@Imf@@YAXAAVHeader@1@ABV?$basic_string@DU?$char_traits@D@std@@V?$allocator@D@2@@std@@@Z 10034730 f   ImfStandardAttributes.obj
 0001:00033800       ?addLookModTransform@Imf@@YAXAAVHeader@1@ABV?$basic_string@DU?$char_traits@D@std@@V?$allocator@D@2@@std@@@Z 10034800 f   ImfStandardAttributes.obj
 0001:000338d0       ?addOwner@Imf@@YAXAAVHeader@1@ABV?$basic_string@DU?$char_traits@D@std@@V?$allocator@D@2@@std@@@Z 100348d0 f   ImfStandardAttributes.obj
 0001:000339a0       ?addComments@Imf@@YAXAAVHeader@1@ABV?$basic_string@DU?$char_traits@D@std@@V?$allocator@D@2@@std@@@Z 100349a0 f   ImfStandardAttributes.obj
 0001:00033a70       ?addCapDate@Imf@@YAXAAVHeader@1@ABV?$basic_string@DU?$char_traits@D@std@@V?$allocator@D@2@@std@@@Z 10034a70 f   ImfStandardAttributes.obj
 0001:00033b40       ?addWrapmodes@Imf@@YAXAAVHeader@1@ABV?$basic_string@DU?$char_traits@D@std@@V?$allocator@D@2@@std@@@Z 10034b40 f   ImfStandardAttributes.obj
 0001:00033c10       ??$_Uninit_copy@V?$_Vector_const_iterator@V?$_Vector_val@V?$basic_string@DU?$char_traits@D@std@@V?$allocator@D@2@@std@@V?$allocator@V?$basic_string@DU?$char_traits@D@std@@V?$allocator@D@2@@std@@@2@@std@@@std@@PAV?$basic_string@DU?$char_traits@D@std@@V?$allocator@D@2@@2@V?$allocator@V?$basic_string@DU?$char_traits@D@std@@V?$allocator@D@2@@std@@@2@@std@@YAPAV?$basic_string@DU?$char_traits@D@std@@V?$allocator@D@2@@0@V?$_Vector_const_iterator@V?$_Vector_val@V?$basic_string@DU?$char_traits@D@std@@V?$allocator@D@2@@std@@V?$allocator@V?$basic_string@DU?$char_traits@D@std@@V?$allocator@D@2@@std@@@2@@std@@@0@0PAV10@AAV?$allocator@V?$basic_string@DU?$char_traits@D@std@@V?$allocator@D@2@@std@@@0@U_Nonscalar_ptr_iterator_tag@0@@Z 10034c10 f i ImfStandardAttributes.obj
 0001:00033cd0       ??$_Uninitialized_copy@V?$_Vector_const_iterator@V?$_Vector_val@V?$basic_string@DU?$char_traits@D@std@@V?$allocator@D@2@@std@@V?$allocator@V?$basic_string@DU?$char_traits@D@std@@V?$allocator@D@2@@std@@@2@@std@@@std@@PAV?$basic_string@DU?$char_traits@D@std@@V?$allocator@D@2@@2@V?$allocator@V?$basic_string@DU?$char_traits@D@std@@V?$allocator@D@2@@std@@@2@@std@@YAPAV?$basic_string@DU?$char_traits@D@std@@V?$allocator@D@2@@0@V?$_Vector_const_iterator@V?$_Vector_val@V?$basic_string@DU?$char_traits@D@std@@V?$allocator@D@2@@std@@V?$allocator@V?$basic_string@DU?$char_traits@D@std@@V?$allocator@D@2@@std@@@2@@std@@@0@0PAV10@AAV?$allocator@V?$basic_string@DU?$char_traits@D@std@@V?$allocator@D@2@@std@@@0@@Z 10034cd0 f i ImfStandardAttributes.obj
 0001:00033d00       ??$_Ucopy@V?$_Vector_const_iterator@V?$_Vector_val@V?$basic_string@DU?$char_traits@D@std@@V?$allocator@D@2@@std@@V?$allocator@V?$basic_string@DU?$char_traits@D@std@@V?$allocator@D@2@@std@@@2@@std@@@std@@@?$vector@V?$basic_string@DU?$char_traits@D@std@@V?$allocator@D@2@@std@@V?$allocator@V?$basic_string@DU?$char_traits@D@std@@V?$allocator@D@2@@std@@@2@@std@@IAEPAV?$basic_string@DU?$char_traits@D@std@@V?$allocator@D@2@@1@V?$_Vector_const_iterator@V?$_Vector_val@V?$basic_string@DU?$char_traits@D@std@@V?$allocator@D@2@@std@@V?$allocator@V?$basic_string@DU?$char_traits@D@std@@V?$allocator@D@2@@std@@@2@@std@@@1@0PAV21@@Z 10034d00 f i ImfStandardAttributes.obj
 0001:00033d30       ??0?$vector@V?$basic_string@DU?$char_traits@D@std@@V?$allocator@D@2@@std@@V?$allocator@V?$basic_string@DU?$char_traits@D@std@@V?$allocator@D@2@@std@@@2@@std@@QAE@ABV01@@Z 10034d30 f i ImfStandardAttributes.obj
 0001:00033e10       ??0?$TypedAttribute@V?$vector@V?$basic_string@DU?$char_traits@D@std@@V?$allocator@D@2@@std@@V?$allocator@V?$basic_string@DU?$char_traits@D@std@@V?$allocator@D@2@@std@@@2@@std@@@Imf@@QAE@ABV?$vector@V?$basic_string@DU?$char_traits@D@std@@V?$allocator@D@2@@std@@V?$allocator@V?$basic_string@DU?$char_traits@D@std@@V?$allocator@D@2@@std@@@2@@std@@@Z 10034e10 f i ImfStandardAttributes.obj
 0001:00033e70       ?addMultiView@Imf@@YAXAAVHeader@1@ABV?$vector@V?$basic_string@DU?$char_traits@D@std@@V?$allocator@D@2@@std@@V?$allocator@V?$basic_string@DU?$char_traits@D@std@@V?$allocator@D@2@@std@@@2@@std@@@Z 10034e70 f   ImfStandardAttributes.obj
 0001:00033f30       ?_Register@facet@locale@std@@QAEXXZ 10034f30 f i ImfStdIO.obj
 0001:00033f40       ??1locale@std@@QAE@XZ      10034f40 f i ImfStdIO.obj
 0001:00033f60       ?_Getfacet@locale@std@@QBEPBVfacet@12@I@Z 10034f60 f i ImfStdIO.obj
 0001:00033fa0       ??0ErrnoExc@Iex@@QAE@PBD@Z 10034fa0 f i ImfStdIO.obj
 0001:00033fc0       ?clearError@?A0xb3db3203@Imf@@YAXXZ 10034fc0 f   ImfStdIO.obj
 0001:00033fd0       ??0StdIFStream@Imf@@QAE@AAV?$basic_ifstream@DU?$char_traits@D@std@@@std@@QBD@Z 10034fd0 f   ImfStdIO.obj
 0001:00034000       ??1StdIFStream@Imf@@UAE@XZ 10035000 f   ImfStdIO.obj
 0001:00034070       ?clear@StdIFStream@Imf@@UAEXXZ 10035070 f   ImfStdIO.obj
 0001:00034090       ??0StdOFStream@Imf@@QAE@AAV?$basic_ofstream@DU?$char_traits@D@std@@@std@@QBD@Z 10035090 f   ImfStdIO.obj
 0001:000340c0       ??1StdOFStream@Imf@@UAE@XZ 100350c0 f   ImfStdIO.obj
 0001:00034130       ?_Init@?$basic_filebuf@DU?$char_traits@D@std@@@std@@IAEXPAU_iobuf@@W4_Initfl@12@@Z 10035130 f i ImfStdIO.obj
 0001:00034190       ?_Initcvt@?$basic_filebuf@DU?$char_traits@D@std@@@std@@IAEXPBV?$codecvt@DDH@2@@Z 10035190 f i ImfStdIO.obj
 0001:000341d0       ?_Reset_back@?$basic_filebuf@DU?$char_traits@D@std@@@std@@AAEXXZ 100351d0 f i ImfStdIO.obj
 0001:00034200       ??$use_facet@V?$codecvt@DDH@std@@@std@@YAABV?$codecvt@DDH@0@ABVlocale@0@@Z 10035200 f i ImfStdIO.obj
 0001:00034320       ??_ELogicExc@Iex@@UAEPAXI@Z 10035320 f i ImfOutputFile.obj
 0001:00034320       ??_GTypeExc@Iex@@UAEPAXI@Z 10035320 f i ImfAttribute.obj
 0001:00034320       ??_GMathExc@Iex@@UAEPAXI@Z 10035320 f i ImfB44Compressor.obj
 0001:00034320       ??_EMathExc@Iex@@UAEPAXI@Z 10035320 f i ImfB44Compressor.obj
 0001:00034320       ??_ESingMatrixExc@Imath@@UAEPAXI@Z 10035320 f i ImfChromaticities.obj
 0001:00034320       ??_GArgExc@Iex@@UAEPAXI@Z  10035320 f i ImfAttribute.obj
 0001:00034320       ??_EInputExc@Iex@@UAEPAXI@Z 10035320 f i ImfB44Compressor.obj
 0001:00034320       ??_EOverflowExc@Iex@@UAEPAXI@Z 10035320 f i ImfB44Compressor.obj
 0001:00034320       ??_EErrnoExc@Iex@@UAEPAXI@Z 10035320 f i ImfStdIO.obj
 0001:00034320       ??_GOverflowExc@Iex@@UAEPAXI@Z 10035320 f i ImfB44Compressor.obj
 0001:00034320       ??_GInputExc@Iex@@UAEPAXI@Z 10035320 f i ImfB44Compressor.obj
 0001:00034320       ??_ETypeExc@Iex@@UAEPAXI@Z 10035320 f i ImfAttribute.obj
 0001:00034320       ??_GLogicExc@Iex@@UAEPAXI@Z 10035320 f i ImfOutputFile.obj
 0001:00034320       ??_EIoExc@Iex@@UAEPAXI@Z   10035320 f i ImfOutputFile.obj
 0001:00034320       ??_GSingMatrixExc@Imath@@UAEPAXI@Z 10035320 f i ImfChromaticities.obj
 0001:00034320       ??_GIoExc@Iex@@UAEPAXI@Z   10035320 f i ImfOutputFile.obj
 0001:00034320       ??_GErrnoExc@Iex@@UAEPAXI@Z 10035320 f i ImfStdIO.obj
 0001:00034320       ??_EArgExc@Iex@@UAEPAXI@Z  10035320 f i ImfAttribute.obj
 0001:00034350       ??_GStdIFStream@Imf@@UAEPAXI@Z 10035350 f i ImfStdIO.obj
 0001:00034350       ??_EStdIFStream@Imf@@UAEPAXI@Z 10035350 f i ImfStdIO.obj
 0001:000343e0       ?tellg@StdIFStream@Imf@@UAE_KXZ 100353e0 f   ImfStdIO.obj
 0001:00034410       ??_GStdOFStream@Imf@@UAEPAXI@Z 10035410 f i ImfStdIO.obj
 0001:00034410       ??_EStdOFStream@Imf@@UAEPAXI@Z 10035410 f i ImfStdIO.obj
 0001:000344a0       ?tellp@StdOFStream@Imf@@UAE_KXZ 100354a0 f   ImfStdIO.obj
 0001:000344d0       ?tellp@StdOSStream@Imf@@UAE_KXZ 100354d0 f   ImfStdIO.obj
 0001:00034500       ??0?$basic_filebuf@DU?$char_traits@D@std@@@std@@QAE@PAU_iobuf@@@Z 10035500 f i ImfStdIO.obj
 0001:00034590       ??$_Fgetc@D@std@@YA_NAADPAU_iobuf@@@Z 10035590 f i ImfStdIO.obj
 0001:000345c0       ??$_Fputc@D@std@@YA_NDPAU_iobuf@@@Z 100355c0 f i ImfStdIO.obj
 0001:000345e0       ??$_Ungetc@D@std@@YA_NABDPAU_iobuf@@@Z 100355e0 f i ImfStdIO.obj
 0001:00034610       ?_Lock@?$basic_filebuf@DU?$char_traits@D@std@@@std@@UAEXXZ 10035610 f i ImfStdIO.obj
 0001:00034620       ?_Unlock@?$basic_filebuf@DU?$char_traits@D@std@@@std@@UAEXXZ 10035620 f i ImfStdIO.obj
 0001:00034630       ?underflow@?$basic_filebuf@DU?$char_traits@D@std@@@std@@MAEHXZ 10035630 f i ImfStdIO.obj
 0001:00034680       ?sync@?$basic_filebuf@DU?$char_traits@D@std@@@std@@MAEHXZ 10035680 f i ImfStdIO.obj
 0001:000346c0       ?_Set_back@?$basic_filebuf@DU?$char_traits@D@std@@@std@@AAEXXZ 100356c0 f i ImfStdIO.obj
 0001:00034700       ??0?$fpos@H@std@@QAE@H_J@Z 10035700 f i ImfStdIO.obj
 0001:00034730       ?seekpos@?$fpos@H@std@@QBE_JXZ 10035730 f i ImfStdIO.obj
 0001:00034740       ?pbackfail@?$basic_filebuf@DU?$char_traits@D@std@@@std@@MAEHH@Z 10035740 f i ImfStdIO.obj
 0001:000347d0       ?setbuf@?$basic_filebuf@DU?$char_traits@D@std@@@std@@MAEPAV?$basic_streambuf@DU?$char_traits@D@std@@@2@PAD_J@Z 100357d0 f i ImfStdIO.obj
 0001:00034860       ?imbue@?$basic_filebuf@DU?$char_traits@D@std@@@std@@MAEXABVlocale@2@@Z 10035860 f i ImfStdIO.obj
 0001:000348a0       ?open@?$basic_filebuf@DU?$char_traits@D@std@@@std@@QAEPAV12@PBDHH@Z 100358a0 f i ImfStdIO.obj
 0001:000349b0       ?begin@?$basic_string@DU?$char_traits@D@std@@V?$allocator@D@2@@std@@QAE?AV?$_String_iterator@DU?$char_traits@D@std@@V?$allocator@D@2@@2@XZ 100359b0 f i ImfStdIO.obj
 0001:000349d0       ??0?$basic_ostringstream@DU?$char_traits@D@std@@V?$allocator@D@2@@std@@QAE@H@Z 100359d0 f i ImfStdIO.obj
 0001:00034ab0       ??0StdOSStream@Imf@@QAE@XZ 10035ab0 f   ImfStdIO.obj
 0001:00034b70       ??_EStdOSStream@Imf@@UAEPAXI@Z 10035b70 f i ImfStdIO.obj
 0001:00034b70       ??_GStdOSStream@Imf@@UAEPAXI@Z 10035b70 f i ImfStdIO.obj
 0001:00034be0       ?assign@?$basic_string@DU?$char_traits@D@std@@V?$allocator@D@2@@std@@QAEAAV12@ID@Z 10035be0 f i ImfStdIO.obj
 0001:00034ca0       ?uflow@?$basic_filebuf@DU?$char_traits@D@std@@@std@@MAEHXZ 10035ca0 f i ImfStdIO.obj
 0001:00034ea0       ??0?$basic_string@DU?$char_traits@D@std@@V?$allocator@D@2@@std@@QAE@ID@Z 10035ea0 f i ImfStdIO.obj
 0001:00034ed0       ?_Endwrite@?$basic_filebuf@DU?$char_traits@D@std@@@std@@IAE_NXZ 10035ed0 f i ImfStdIO.obj
 0001:00035020       ?overflow@?$basic_filebuf@DU?$char_traits@D@std@@@std@@MAEHH@Z 10036020 f i ImfStdIO.obj
 0001:00035220       ?seekoff@?$basic_filebuf@DU?$char_traits@D@std@@@std@@MAE?AV?$fpos@H@2@_JHH@Z 10036220 f i ImfStdIO.obj
 0001:00035310       ?seekpos@?$basic_filebuf@DU?$char_traits@D@std@@@std@@MAE?AV?$fpos@H@2@V32@H@Z 10036310 f i ImfStdIO.obj
 0001:000353f0       ?close@?$basic_filebuf@DU?$char_traits@D@std@@@std@@QAEPAV12@XZ 100363f0 f i ImfStdIO.obj
 0001:00035440       ?checkError@?A0xb3db3203@Imf@@YA_NAAV?$basic_istream@DU?$char_traits@D@std@@@std@@_J@Z 10036440 f   ImfStdIO.obj
 0001:00035620       ?checkError@?A0xb3db3203@Imf@@YAXAAV?$basic_ostream@DU?$char_traits@D@std@@@std@@@Z 10036620 f   ImfStdIO.obj
 0001:000356f0       ??0ErrnoExc@Iex@@QAE@ABV01@@Z 100366f0 f i ImfStdIO.obj
 0001:00035710       ?read@StdIFStream@Imf@@UAE_NQADH@Z 10036710 f   ImfStdIO.obj
 0001:000357a0       ?seekg@StdIFStream@Imf@@UAEX_K@Z 100367a0 f   ImfStdIO.obj
 0001:000357f0       ?write@StdOFStream@Imf@@UAEXQBDH@Z 100367f0 f   ImfStdIO.obj
 0001:00035830       ?seekp@StdOFStream@Imf@@UAEX_K@Z 10036830 f   ImfStdIO.obj
 0001:00035870       ?write@StdOSStream@Imf@@UAEXQBDH@Z 10036870 f   ImfStdIO.obj
 0001:000358b0       ?seekp@StdOSStream@Imf@@UAEX_K@Z 100368b0 f   ImfStdIO.obj
 0001:000358f0       ??1?$basic_filebuf@DU?$char_traits@D@std@@@std@@UAE@XZ 100368f0 f i ImfStdIO.obj
 0001:00035980       ??0?$basic_ofstream@DU?$char_traits@D@std@@@std@@QAE@PBDHH@Z 10036980 f i ImfStdIO.obj
 0001:00035a80       ??1?$basic_ofstream@DU?$char_traits@D@std@@@std@@UAE@XZ 10036a80 f i ImfStdIO.obj
 0001:00035b30       ??_E?$basic_filebuf@DU?$char_traits@D@std@@@std@@UAEPAXI@Z 10036b30 f i ImfStdIO.obj
 0001:00035b30       ??_G?$basic_filebuf@DU?$char_traits@D@std@@@std@@UAEPAXI@Z 10036b30 f i ImfStdIO.obj
 0001:00035bd0       ??_D?$basic_ofstream@DU?$char_traits@D@std@@@std@@QAEXXZ 10036bd0 f i ImfStdIO.obj
 0001:00035c00       ??0StdOFStream@Imf@@QAE@QBD@Z 10036c00 f   ImfStdIO.obj
 0001:00035ce0       ??0?$basic_ifstream@DU?$char_traits@D@std@@@std@@QAE@PBDHH@Z 10036ce0 f i ImfStdIO.obj
 0001:00035de0       ??1?$basic_ifstream@DU?$char_traits@D@std@@@std@@UAE@XZ 10036de0 f i ImfStdIO.obj
 0001:00035e90       ??_E?$basic_ofstream@DU?$char_traits@D@std@@@std@@UAEPAXI@Z 10036e90 f i ImfStdIO.obj
 0001:00035e90       ??_G?$basic_ofstream@DU?$char_traits@D@std@@@std@@UAEPAXI@Z 10036e90 f i ImfStdIO.obj
 0001:00035ee0       ??_D?$basic_ifstream@DU?$char_traits@D@std@@@std@@QAEXXZ 10036ee0 f i ImfStdIO.obj
 0001:00035f10       ??0StdIFStream@Imf@@QAE@QBD@Z 10036f10 f   ImfStdIO.obj
 0001:00035ff0       ??_G?$basic_ifstream@DU?$char_traits@D@std@@@std@@UAEPAXI@Z 10036ff0 f i ImfStdIO.obj
 0001:00035ff0       ??_E?$basic_ifstream@DU?$char_traits@D@std@@@std@@UAEPAXI@Z 10036ff0 f i ImfStdIO.obj
 0001:00036040       ?staticTypeName@?$TypedAttribute@V?$basic_string@DU?$char_traits@D@std@@V?$allocator@D@2@@std@@@Imf@@SAPBDXZ 10037040 f   ImfStringAttribute.obj
 0001:00036050       ?writeValueTo@?$TypedAttribute@V?$basic_string@DU?$char_traits@D@std@@V?$allocator@D@2@@std@@@Imf@@UBEXAAVOStream@2@H@Z 10037050 f   ImfStringAttribute.obj
 0001:000360a0       ?resize@?$basic_string@DU?$char_traits@D@std@@V?$allocator@D@2@@std@@QAEXID@Z 100370a0 f i ImfStringAttribute.obj
 0001:000360d0       ?resize@?$basic_string@DU?$char_traits@D@std@@V?$allocator@D@2@@std@@QAEXI@Z 100370d0 f i ImfStringAttribute.obj
 0001:00036100       ?readValueFrom@?$TypedAttribute@V?$basic_string@DU?$char_traits@D@std@@V?$allocator@D@2@@std@@@Imf@@UAEXAAVIStream@2@HH@Z 10037100 f   ImfStringAttribute.obj
 0001:00036160       ?staticTypeName@?$TypedAttribute@V?$vector@V?$basic_string@DU?$char_traits@D@std@@V?$allocator@D@2@@std@@V?$allocator@V?$basic_string@DU?$char_traits@D@std@@V?$allocator@D@2@@std@@@2@@std@@@Imf@@SAPBDXZ 10037160 f   ImfStringVectorAttribute.obj
 0001:00036170       ?writeValueTo@?$TypedAttribute@V?$vector@V?$basic_string@DU?$char_traits@D@std@@V?$allocator@D@2@@std@@V?$allocator@V?$basic_string@DU?$char_traits@D@std@@V?$allocator@D@2@@std@@@2@@std@@@Imf@@UBEXAAVOStream@2@H@Z 10037170 f   ImfStringVectorAttribute.obj
 0001:00036210       ?readValueFrom@?$TypedAttribute@V?$vector@V?$basic_string@DU?$char_traits@D@std@@V?$allocator@D@2@@std@@V?$allocator@V?$basic_string@DU?$char_traits@D@std@@V?$allocator@D@2@@std@@@2@@std@@@Imf@@UAEXAAVIStream@2@HH@Z 10037210 f   ImfStringVectorAttribute.obj
 0001:00036320       ??$read@UStreamIO@Imf@@VIStream@2@@Xdr@Imf@@YAXAAVIStream@1@AAH@Z 10037320 f i ImfBoxAttribute.obj
 0001:00036320       ??$read@UStreamIO@Imf@@VStdIFStream@2@@Xdr@Imf@@YAXAAVStdIFStream@1@AAH@Z 10037320 f i ImfTestFile.obj
 0001:00036360       ?isOpenExrFile@Imf@@YA_NQBDAA_N@Z 10037360 f   ImfTestFile.obj
 0001:00036460       ?isOpenExrFile@Imf@@YA_NQBD@Z 10037460 f   ImfTestFile.obj
 0001:00036480       ?isTiledOpenExrFile@Imf@@YA_NQBD@Z 10037480 f   ImfTestFile.obj
 0001:000364b0       ?isOpenExrFile@Imf@@YA_NAAVIStream@1@AA_N@Z 100374b0 f   ImfTestFile.obj
 0001:000365d0       ?isOpenExrFile@Imf@@YA_NAAVIStream@1@@Z 100375d0 f   ImfTestFile.obj
 0001:000365f0       ?isTiledOpenExrFile@Imf@@YA_NAAVIStream@1@@Z 100375f0 f   ImfTestFile.obj
 0001:00036620       ?globalThreadCount@Imf@@YAHXZ 10037620 f   ImfThreading.obj
 0001:00036630       ?setGlobalThreadCount@Imf@@YAXH@Z 10037630 f   ImfThreading.obj
 0001:00036650       ?staticTypeName@?$TypedAttribute@VTileDescription@Imf@@@Imf@@SAPBDXZ 10037650 f   ImfTileDescriptionAttribute.obj
 0001:00036660       ?writeValueTo@?$TypedAttribute@VTileDescription@Imf@@@Imf@@UBEXAAVOStream@2@H@Z 10037660 f   ImfTileDescriptionAttribute.obj
 0001:000366f0       ?readValueFrom@?$TypedAttribute@VTileDescription@Imf@@@Imf@@UAEXAAVIStream@2@HH@Z 100376f0 f   ImfTileDescriptionAttribute.obj
 0001:00036790       ??0TInSliceInfo@?A0xf6fcebb6@Imf@@QAE@W4PixelType@2@0PADII_N2NHH@Z 10037790 f   ImfTiledInputFile.obj
 0001:000367e0       ?wait@TileBuffer@?A0xf6fcebb6@Imf@@QAEXXZ 100377e0 f i ImfTiledInputFile.obj
 0001:000367e0       ?wait@LineBuffer@?A0xf57f9ec6@Imf@@QAEXXZ 100377e0 f i ImfOutputFile.obj
 0001:000367f0       ??0TileBufferTask@?A0xf6fcebb6@Imf@@QAE@PAVTaskGroup@IlmThread@@PAUData@TiledInputFile@2@PAUTileBuffer@12@@Z 100377f0 f   ImfTiledInputFile.obj
 0001:00036820       ??1TileBufferTask@?A0xf6fcebb6@Imf@@UAE@XZ 10037820 f   ImfTiledInputFile.obj
 0001:00036880       ?fileName@TiledInputFile@Imf@@QBEPBDXZ 10037880 f   ImfTiledInputFile.obj
 0001:00036890       ?version@TiledInputFile@Imf@@QBEHXZ 10037890 f   ImfTiledInputFile.obj
 0001:00036890       ?levelRoundingMode@TiledOutputFile@Imf@@QBE?AW4LevelRoundingMode@2@XZ 10037890 f   ImfTiledOutputFile.obj
 0001:000368a0       ?isComplete@TiledInputFile@Imf@@QBE_NXZ 100378a0 f   ImfTiledInputFile.obj
 0001:000368b0       ?tileXSize@TiledInputFile@Imf@@QBEIXZ 100378b0 f   ImfTiledInputFile.obj
 0001:000368b0       ?version@ScanLineInputFile@Imf@@QBEHXZ 100378b0 f   ImfScanLineInputFile.obj
 0001:000368b0       ?version@InputFile@Imf@@QBEHXZ 100378b0 f   ImfInputFile.obj
 0001:000368c0       ?tileYSize@TiledInputFile@Imf@@QBEIXZ 100378c0 f   ImfTiledInputFile.obj
 0001:000368c0       ?tileXSize@TiledOutputFile@Imf@@QBEIXZ 100378c0 f   ImfTiledOutputFile.obj
 0001:000368d0       ?levelMode@TiledOutputFile@Imf@@QBE?AW4LevelMode@2@XZ 100378d0 f   ImfTiledOutputFile.obj
 0001:000368d0       ?levelRoundingMode@TiledInputFile@Imf@@QBE?AW4LevelRoundingMode@2@XZ 100378d0 f   ImfTiledInputFile.obj
 0001:000368e0       ?numXLevels@TiledInputFile@Imf@@QBEHXZ 100378e0 f   ImfTiledInputFile.obj
 0001:000368f0       ?numYLevels@TiledInputFile@Imf@@QBEHXZ 100378f0 f   ImfTiledInputFile.obj
 0001:00036900       ?isValidLevel@TiledInputFile@Imf@@QBE_NHH@Z 10037900 f   ImfTiledInputFile.obj
 0001:00036940       ?isValidTile@TiledInputFile@Imf@@ABE_NHHHH@Z 10037940 f   ImfTiledInputFile.obj
 0001:00036990       ??A?$vector@UTInSliceInfo@?A0xf6fcebb6@Imf@@V?$allocator@UTInSliceInfo@?A0xf6fcebb6@Imf@@@std@@@std@@QAEAAUTInSliceInfo@?A0xf6fcebb6@Imf@@I@Z 10037990 f i ImfTiledInputFile.obj
 0001:00036990       ??A?$vector@UInSliceInfo@?A0xcbf8ace6@Imf@@V?$allocator@UInSliceInfo@?A0xcbf8ace6@Imf@@@std@@@std@@QAEAAUInSliceInfo@?A0xcbf8ace6@Imf@@I@Z 10037990 f i ImfScanLineInputFile.obj
 0001:000369b0       ?capacity@?$vector@UInSliceInfo@?A0xcbf8ace6@Imf@@V?$allocator@UInSliceInfo@?A0xcbf8ace6@Imf@@@std@@@std@@QBEIXZ 100379b0 f i ImfScanLineInputFile.obj
 0001:000369b0       ?capacity@?$vector@UTInSliceInfo@?A0xf6fcebb6@Imf@@V?$allocator@UTInSliceInfo@?A0xf6fcebb6@Imf@@@std@@@std@@QBEIXZ 100379b0 f i ImfTiledInputFile.obj
 0001:000369d0       ?_Xlen@?$vector@V?$vector@V?$vector@_KV?$allocator@_K@std@@@std@@V?$allocator@V?$vector@_KV?$allocator@_K@std@@@std@@@2@@std@@V?$allocator@V?$vector@V?$vector@_KV?$allocator@_K@std@@@std@@V?$allocator@V?$vector@_KV?$allocator@_K@std@@@std@@@2@@std@@@2@@std@@IBEXXZ 100379d0 f i ImfTiledInputFile.obj
 0001:000369d0       ?_Xlen@?$vector@UTOutSliceInfo@?A0x39e5c904@Imf@@V?$allocator@UTOutSliceInfo@?A0x39e5c904@Imf@@@std@@@std@@IBEXXZ 100379d0 f i ImfTiledOutputFile.obj
 0001:000369d0       ?_Xlen@?$vector@IV?$allocator@I@std@@@std@@IBEXXZ 100379d0 f i ImfMisc.obj
 0001:000369d0       ?_Xlen@?$vector@V?$basic_string@DU?$char_traits@D@std@@V?$allocator@D@2@@std@@V?$allocator@V?$basic_string@DU?$char_traits@D@std@@V?$allocator@D@2@@std@@@2@@std@@IBEXXZ 100379d0 f i ImfHeader.obj
 0001:000369d0       ?_Xlen@?$vector@UTInSliceInfo@?A0xf6fcebb6@Imf@@V?$allocator@UTInSliceInfo@?A0xf6fcebb6@Imf@@@std@@@std@@IBEXXZ 100379d0 f i ImfTiledInputFile.obj
 0001:000369d0       ?_Xlen@?$vector@V?$vector@_KV?$allocator@_K@std@@@std@@V?$allocator@V?$vector@_KV?$allocator@_K@std@@@std@@@2@@std@@IBEXXZ 100379d0 f i ImfTiledInputFile.obj
 0001:000369d0       ?_Xlen@?$vector@PAUTileBuffer@?A0xf6fcebb6@Imf@@V?$allocator@PAUTileBuffer@?A0xf6fcebb6@Imf@@@std@@@std@@IBEXXZ 100379d0 f i ImfTiledInputFile.obj
 0001:000369d0       ?_Xlen@?$vector@PAULineBuffer@?A0xcbf8ace6@Imf@@V?$allocator@PAULineBuffer@?A0xcbf8ace6@Imf@@@std@@@std@@IBEXXZ 100379d0 f i ImfScanLineInputFile.obj
 0001:000369d0       ?_Xlen@?$vector@_KV?$allocator@_K@std@@@std@@IBEXXZ 100379d0 f i ImfOutputFile.obj
 0001:000369d0       ?_Xlen@?$vector@UInSliceInfo@?A0xcbf8ace6@Imf@@V?$allocator@UInSliceInfo@?A0xcbf8ace6@Imf@@@std@@@std@@IBEXXZ 100379d0 f i ImfScanLineInputFile.obj
 0001:000369d0       ?_Xlen@?$vector@PAULineBuffer@?A0xf57f9ec6@Imf@@V?$allocator@PAULineBuffer@?A0xf57f9ec6@Imf@@@std@@@std@@IBEXXZ 100379d0 f i ImfOutputFile.obj
 0001:000369d0       ?_Xlen@?$vector@UOutSliceInfo@?A0xf57f9ec6@Imf@@V?$allocator@UOutSliceInfo@?A0xf57f9ec6@Imf@@@std@@@std@@IBEXXZ 100379d0 f i ImfOutputFile.obj
 0001:000369d0       ?_Xlen@?$vector@PAUTileBuffer@?A0x39e5c904@Imf@@V?$allocator@PAUTileBuffer@?A0x39e5c904@Imf@@@std@@@std@@IBEXXZ 100379d0 f i ImfTiledOutputFile.obj
 0001:000369e0       ??$_Allocate@V?$vector@V?$vector@_KV?$allocator@_K@std@@@std@@V?$allocator@V?$vector@_KV?$allocator@_K@std@@@std@@@2@@std@@@std@@YAPAV?$vector@V?$vector@_KV?$allocator@_K@std@@@std@@V?$allocator@V?$vector@_KV?$allocator@_K@std@@@std@@@2@@0@IPAV10@@Z 100379e0 f i ImfTiledInputFile.obj
 0001:000369e0       ??$_Allocate@V?$vector@_KV?$allocator@_K@std@@@std@@@std@@YAPAV?$vector@_KV?$allocator@_K@std@@@0@IPAV10@@Z 100379e0 f i ImfTiledInputFile.obj
 0001:00036a40       ??$_Allocate@UInSliceInfo@?A0xcbf8ace6@Imf@@@std@@YAPAUInSliceInfo@?A0xcbf8ace6@Imf@@IPAU123@@Z 10037a40 f i ImfScanLineInputFile.obj
 0001:00036a40       ??$_Allocate@UTInSliceInfo@?A0xf6fcebb6@Imf@@@std@@YAPAUTInSliceInfo@?A0xf6fcebb6@Imf@@IPAU123@@Z 10037a40 f i ImfTiledInputFile.obj
 0001:00036aa0       ?capacity@?$vector@V?$vector@V?$vector@_KV?$allocator@_K@std@@@std@@V?$allocator@V?$vector@_KV?$allocator@_K@std@@@std@@@2@@std@@V?$allocator@V?$vector@V?$vector@_KV?$allocator@_K@std@@@std@@V?$allocator@V?$vector@_KV?$allocator@_K@std@@@std@@@2@@std@@@2@@std@@QBEIXZ 10037aa0 f i ImfTiledInputFile.obj
 0001:00036aa0       ?capacity@?$vector@V?$vector@_KV?$allocator@_K@std@@@std@@V?$allocator@V?$vector@_KV?$allocator@_K@std@@@std@@@2@@std@@QBEIXZ 10037aa0 f i ImfTiledInputFile.obj
 0001:00036ab0       ?size@?$vector@V?$vector@V?$vector@_KV?$allocator@_K@std@@@std@@V?$allocator@V?$vector@_KV?$allocator@_K@std@@@std@@@2@@std@@V?$allocator@V?$vector@V?$vector@_KV?$allocator@_K@std@@@std@@V?$allocator@V?$vector@_KV?$allocator@_K@std@@@std@@@2@@std@@@2@@std@@QBEIXZ 10037ab0 f i ImfTiledInputFile.obj
 0001:00036ab0       ?size@?$vector@V?$vector@_KV?$allocator@_K@std@@@std@@V?$allocator@V?$vector@_KV?$allocator@_K@std@@@std@@@2@@std@@QBEIXZ 10037ab0 f i ImfTiledInputFile.obj
 0001:00036ac0       ??E?$_Vector_const_iterator@V?$_Vector_val@V?$vector@_KV?$allocator@_K@std@@@std@@V?$allocator@V?$vector@_KV?$allocator@_K@std@@@std@@@2@@std@@@std@@QAEAAV01@XZ 10037ac0 f i ImfTiledInputFile.obj
 0001:00036ac0       ??E?$_Vector_iterator@V?$_Vector_val@V?$vector@_KV?$allocator@_K@std@@@std@@V?$allocator@V?$vector@_KV?$allocator@_K@std@@@std@@@2@@std@@@std@@QAEAAV01@XZ 10037ac0 f i ImfTiledInputFile.obj
 0001:00036ad0       ?format@Pxr24Compressor@Imf@@UBE?AW4Format@Compressor@2@XZ 10037ad0 f i ImfPxr24Compressor.obj
 0001:00036ad0       ??$_Val_type@PAV?$vector@_KV?$allocator@_K@std@@@std@@@std@@YAPAV?$vector@_KV?$allocator@_K@std@@@0@PAV10@@Z 10037ad0 f i ImfTiledInputFile.obj
 0001:00036ad0       ??$_Val_type@PAPAULineBuffer@?A0xcbf8ace6@Imf@@@std@@YAPAPAULineBuffer@?A0xcbf8ace6@Imf@@PAPAU123@@Z 10037ad0 f i ImfScanLineInputFile.obj
 0001:00036ad0       ??$_Val_type@PAUOutSliceInfo@?A0xf57f9ec6@Imf@@@std@@YAPAUOutSliceInfo@?A0xf57f9ec6@Imf@@PAU123@@Z 10037ad0 f i ImfOutputFile.obj
 0001:00036ad0       ??$_Val_type@PA_K@std@@YAPA_KPA_K@Z 10037ad0 f i ImfOutputFile.obj
 0001:00036ad0       ??$_Val_type@PAV?$vector@V?$vector@_KV?$allocator@_K@std@@@std@@V?$allocator@V?$vector@_KV?$allocator@_K@std@@@std@@@2@@std@@@std@@YAPAV?$vector@V?$vector@_KV?$allocator@_K@std@@@std@@V?$allocator@V?$vector@_KV?$allocator@_K@std@@@std@@@2@@0@PAV10@@Z 10037ad0 f i ImfTileOffsets.obj
 0001:00036ad0       ??$_Val_type@PAUTOutSliceInfo@?A0x39e5c904@Imf@@@std@@YAPAUTOutSliceInfo@?A0x39e5c904@Imf@@PAU123@@Z 10037ad0 f i ImfTiledOutputFile.obj
 0001:00036ad0       ??$_Val_type@PAUTInSliceInfo@?A0xf6fcebb6@Imf@@@std@@YAPAUTInSliceInfo@?A0xf6fcebb6@Imf@@PAU123@@Z 10037ad0 f i ImfTiledInputFile.obj
 0001:00036ad0       ??$_Val_type@PAV?$basic_string@DU?$char_traits@D@std@@V?$allocator@D@2@@std@@@std@@YAPAV?$basic_string@DU?$char_traits@D@std@@V?$allocator@D@2@@0@PAV10@@Z 10037ad0 f i ImfMultiView.obj
 0001:00036ad0       ??$_Val_type@PAI@std@@YAPAIPAI@Z 10037ad0 f i ImfMisc.obj
 0001:00036ad0       ??$_Val_type@PAPAUTileBuffer@?A0x39e5c904@Imf@@@std@@YAPAPAUTileBuffer@?A0x39e5c904@Imf@@PAPAU123@@Z 10037ad0 f i ImfTiledOutputFile.obj
 0001:00036ad0       ??$_Val_type@PAUInSliceInfo@?A0xcbf8ace6@Imf@@@std@@YAPAUInSliceInfo@?A0xcbf8ace6@Imf@@PAU123@@Z 10037ad0 f i ImfScanLineInputFile.obj
 0001:00036ad0       ??$_Val_type@PAPAULineBuffer@?A0xf57f9ec6@Imf@@@std@@YAPAPAULineBuffer@?A0xf57f9ec6@Imf@@PAPAU123@@Z 10037ad0 f i ImfOutputFile.obj
 0001:00036ad0       ??$_Val_type@PAPAUTileBuffer@?A0xf6fcebb6@Imf@@@std@@YAPAPAUTileBuffer@?A0xf6fcebb6@Imf@@PAPAU123@@Z 10037ad0 f i ImfTiledInputFile.obj
 0001:00036ad0       ??$_Val_type@PAPA_K@std@@YAPAPA_KPAPA_K@Z 10037ad0 f i ImfHuf.obj
 0001:00036ad0       ??$_Dist_type@PAPA_K@std@@YAPAHPAPA_K@Z 10037ad0 f i ImfHuf.obj
 0001:00036ae0       ?_Inside@?$vector@UTOutSliceInfo@?A0x39e5c904@Imf@@V?$allocator@UTOutSliceInfo@?A0x39e5c904@Imf@@@std@@@std@@IBE_NPBUTOutSliceInfo@?A0x39e5c904@Imf@@@Z 10037ae0 f i ImfTiledOutputFile.obj
 0001:00036ae0       ?_Inside@?$vector@V?$basic_string@DU?$char_traits@D@std@@V?$allocator@D@2@@std@@V?$allocator@V?$basic_string@DU?$char_traits@D@std@@V?$allocator@D@2@@std@@@2@@std@@IBE_NPBV?$basic_string@DU?$char_traits@D@std@@V?$allocator@D@2@@2@@Z 10037ae0 f i ImfMultiView.obj
 0001:00036ae0       ?_Inside@?$vector@UOutSliceInfo@?A0xf57f9ec6@Imf@@V?$allocator@UOutSliceInfo@?A0xf57f9ec6@Imf@@@std@@@std@@IBE_NPBUOutSliceInfo@?A0xf57f9ec6@Imf@@@Z 10037ae0 f i ImfOutputFile.obj
 0001:00036ae0       ?_Inside@?$vector@UInSliceInfo@?A0xcbf8ace6@Imf@@V?$allocator@UInSliceInfo@?A0xcbf8ace6@Imf@@@std@@@std@@IBE_NPBUInSliceInfo@?A0xcbf8ace6@Imf@@@Z 10037ae0 f i ImfScanLineInputFile.obj
 0001:00036ae0       ?_Inside@?$vector@_KV?$allocator@_K@std@@@std@@IBE_NPB_K@Z 10037ae0 f i ImfTiledInputFile.obj
 0001:00036ae0       ?_Inside@?$vector@V?$vector@_KV?$allocator@_K@std@@@std@@V?$allocator@V?$vector@_KV?$allocator@_K@std@@@std@@@2@@std@@IBE_NPBV?$vector@_KV?$allocator@_K@std@@@2@@Z 10037ae0 f i ImfTiledInputFile.obj
 0001:00036ae0       ?_Inside@?$vector@UTInSliceInfo@?A0xf6fcebb6@Imf@@V?$allocator@UTInSliceInfo@?A0xf6fcebb6@Imf@@@std@@@std@@IBE_NPBUTInSliceInfo@?A0xf6fcebb6@Imf@@@Z 10037ae0 f i ImfTiledInputFile.obj
 0001:00036b00       ??E?$_Vector_const_iterator@V?$_Vector_val@_KV?$allocator@_K@std@@@std@@@std@@QAEAAV01@XZ 10037b00 f i ImfTiledInputFile.obj
 0001:00036b00       ??E?$_Vector_iterator@V?$_Vector_val@_KV?$allocator@_K@std@@@std@@@std@@QAEAAV01@XZ 10037b00 f i ImfTiledInputFile.obj
 0001:00036b10       ??$construct@AAUInSliceInfo@?A0xcbf8ace6@Imf@@@?$allocator@UInSliceInfo@?A0xcbf8ace6@Imf@@@std@@QAEXPAUInSliceInfo@?A0xcbf8ace6@Imf@@AAU234@@Z 10037b10 f i ImfScanLineInputFile.obj
 0001:00036b10       ??$construct@AAUTInSliceInfo@?A0xf6fcebb6@Imf@@@?$allocator@UTInSliceInfo@?A0xf6fcebb6@Imf@@@std@@QAEXPAUTInSliceInfo@?A0xf6fcebb6@Imf@@AAU234@@Z 10037b10 f i ImfTiledInputFile.obj
 0001:00036b10       ?construct@?$allocator@UInSliceInfo@?A0xcbf8ace6@Imf@@@std@@QAEXPAUInSliceInfo@?A0xcbf8ace6@Imf@@$$QAU345@@Z 10037b10 f i ImfScanLineInputFile.obj
 0001:00036b10       ?construct@?$allocator@UTInSliceInfo@?A0xf6fcebb6@Imf@@@std@@QAEXPAUTInSliceInfo@?A0xf6fcebb6@Imf@@$$QAU345@@Z 10037b10 f i ImfTiledInputFile.obj
 0001:00036b60       ?begin@?$vector@IV?$allocator@I@std@@@std@@QAE?AV?$_Vector_iterator@V?$_Vector_val@IV?$allocator@I@std@@@std@@@2@XZ 10037b60 f i ImfMisc.obj
 0001:00036b60       ?begin@?$vector@UTOutSliceInfo@?A0x39e5c904@Imf@@V?$allocator@UTOutSliceInfo@?A0x39e5c904@Imf@@@std@@@std@@QAE?AV?$_Vector_iterator@V?$_Vector_val@UTOutSliceInfo@?A0x39e5c904@Imf@@V?$allocator@UTOutSliceInfo@?A0x39e5c904@Imf@@@std@@@std@@@2@XZ 10037b60 f i ImfTiledOutputFile.obj
 0001:00036b60       ?begin@?$vector@PAULineBuffer@?A0xf57f9ec6@Imf@@V?$allocator@PAULineBuffer@?A0xf57f9ec6@Imf@@@std@@@std@@QAE?AV?$_Vector_iterator@V?$_Vector_val@PAULineBuffer@?A0xf57f9ec6@Imf@@V?$allocator@PAULineBuffer@?A0xf57f9ec6@Imf@@@std@@@std@@@2@XZ 10037b60 f i ImfOutputFile.obj
 0001:00036b60       ?begin@?$vector@V?$vector@_KV?$allocator@_K@std@@@std@@V?$allocator@V?$vector@_KV?$allocator@_K@std@@@std@@@2@@std@@QBE?AV?$_Vector_const_iterator@V?$_Vector_val@V?$vector@_KV?$allocator@_K@std@@@std@@V?$allocator@V?$vector@_KV?$allocator@_K@std@@@std@@@2@@std@@@2@XZ 10037b60 f i ImfTiledInputFile.obj
 0001:00036b60       ?begin@?$vector@_KV?$allocator@_K@std@@@std@@QBE?AV?$_Vector_const_iterator@V?$_Vector_val@_KV?$allocator@_K@std@@@std@@@2@XZ 10037b60 f i ImfTiledInputFile.obj
 0001:00036b60       ?begin@?$vector@_KV?$allocator@_K@std@@@std@@QAE?AV?$_Vector_iterator@V?$_Vector_val@_KV?$allocator@_K@std@@@std@@@2@XZ 10037b60 f i ImfOutputFile.obj
 0001:00036b60       ?begin@?$vector@UInSliceInfo@?A0xcbf8ace6@Imf@@V?$allocator@UInSliceInfo@?A0xcbf8ace6@Imf@@@std@@@std@@QAE?AV?$_Vector_iterator@V?$_Vector_val@UInSliceInfo@?A0xcbf8ace6@Imf@@V?$allocator@UInSliceInfo@?A0xcbf8ace6@Imf@@@std@@@std@@@2@XZ 10037b60 f i ImfScanLineInputFile.obj
 0001:00036b60       ?begin@?$vector@V?$vector@V?$vector@_KV?$allocator@_K@std@@@std@@V?$allocator@V?$vector@_KV?$allocator@_K@std@@@std@@@2@@std@@V?$allocator@V?$vector@V?$vector@_KV?$allocator@_K@std@@@std@@V?$allocator@V?$vector@_KV?$allocator@_K@std@@@std@@@2@@std@@@2@@std@@QAE?AV?$_Vector_iterator@V?$_Vector_val@V?$vector@V?$vector@_KV?$allocator@_K@std@@@std@@V?$allocator@V?$vector@_KV?$allocator@_K@std@@@std@@@2@@std@@V?$allocator@V?$vector@V?$vector@_KV?$allocator@_K@std@@@std@@V?$allocator@V?$vector@_KV?$allocator@_K@std@@@std@@@2@@std@@@2@@std@@@2@XZ 10037b60 f i ImfTiledInputFile.obj
 0001:00036b60       ?begin@?$vector@PAUTileBuffer@?A0x39e5c904@Imf@@V?$allocator@PAUTileBuffer@?A0x39e5c904@Imf@@@std@@@std@@QAE?AV?$_Vector_iterator@V?$_Vector_val@PAUTileBuffer@?A0x39e5c904@Imf@@V?$allocator@PAUTileBuffer@?A0x39e5c904@Imf@@@std@@@std@@@2@XZ 10037b60 f i ImfTiledOutputFile.obj
 0001:00036b60       ?begin@?$vector@V?$vector@_KV?$allocator@_K@std@@@std@@V?$allocator@V?$vector@_KV?$allocator@_K@std@@@std@@@2@@std@@QAE?AV?$_Vector_iterator@V?$_Vector_val@V?$vector@_KV?$allocator@_K@std@@@std@@V?$allocator@V?$vector@_KV?$allocator@_K@std@@@std@@@2@@std@@@2@XZ 10037b60 f i ImfTiledInputFile.obj
 0001:00036b60       ?begin@?$vector@UTInSliceInfo@?A0xf6fcebb6@Imf@@V?$allocator@UTInSliceInfo@?A0xf6fcebb6@Imf@@@std@@@std@@QAE?AV?$_Vector_iterator@V?$_Vector_val@UTInSliceInfo@?A0xf6fcebb6@Imf@@V?$allocator@UTInSliceInfo@?A0xf6fcebb6@Imf@@@std@@@std@@@2@XZ 10037b60 f i ImfTiledInputFile.obj
 0001:00036b60       ?begin@?$vector@V?$basic_string@DU?$char_traits@D@std@@V?$allocator@D@2@@std@@V?$allocator@V?$basic_string@DU?$char_traits@D@std@@V?$allocator@D@2@@std@@@2@@std@@QBE?AV?$_Vector_const_iterator@V?$_Vector_val@V?$basic_string@DU?$char_traits@D@std@@V?$allocator@D@2@@std@@V?$allocator@V?$basic_string@DU?$char_traits@D@std@@V?$allocator@D@2@@std@@@2@@std@@@2@XZ 10037b60 f i ImfStandardAttributes.obj
 0001:00036b60       ?begin@?$vector@UOutSliceInfo@?A0xf57f9ec6@Imf@@V?$allocator@UOutSliceInfo@?A0xf57f9ec6@Imf@@@std@@@std@@QAE?AV?$_Vector_iterator@V?$_Vector_val@UOutSliceInfo@?A0xf57f9ec6@Imf@@V?$allocator@UOutSliceInfo@?A0xf57f9ec6@Imf@@@std@@@std@@@2@XZ 10037b60 f i ImfOutputFile.obj
 0001:00036b60       ?begin@?$vector@PAUTileBuffer@?A0xf6fcebb6@Imf@@V?$allocator@PAUTileBuffer@?A0xf6fcebb6@Imf@@@std@@@std@@QAE?AV?$_Vector_iterator@V?$_Vector_val@PAUTileBuffer@?A0xf6fcebb6@Imf@@V?$allocator@PAUTileBuffer@?A0xf6fcebb6@Imf@@@std@@@std@@@2@XZ 10037b60 f i ImfTiledInputFile.obj
 0001:00036b60       ?begin@?$vector@PAULineBuffer@?A0xcbf8ace6@Imf@@V?$allocator@PAULineBuffer@?A0xcbf8ace6@Imf@@@std@@@std@@QAE?AV?$_Vector_iterator@V?$_Vector_val@PAULineBuffer@?A0xcbf8ace6@Imf@@V?$allocator@PAULineBuffer@?A0xcbf8ace6@Imf@@@std@@@std@@@2@XZ 10037b60 f i ImfScanLineInputFile.obj
 0001:00036b60       ?begin@?$vector@V?$basic_string@DU?$char_traits@D@std@@V?$allocator@D@2@@std@@V?$allocator@V?$basic_string@DU?$char_traits@D@std@@V?$allocator@D@2@@std@@@2@@std@@QAE?AV?$_Vector_iterator@V?$_Vector_val@V?$basic_string@DU?$char_traits@D@std@@V?$allocator@D@2@@std@@V?$allocator@V?$basic_string@DU?$char_traits@D@std@@V?$allocator@D@2@@std@@@2@@std@@@2@XZ 10037b60 f i ImfHeader.obj
 0001:00036b70       ??$_Move@PA_KPA_K@std@@YAPA_KPA_K00U_Scalar_ptr_iterator_tag@0@@Z 10037b70 f i ImfOutputFile.obj
 0001:00036b70       ??$_Move@PA_KPA_K@std@@YAPA_KPA_K00@Z 10037b70 f i ImfOutputFile.obj
 0001:00036b70       ??$_Copy_impl@PA_KPA_K@std@@YAPA_KPA_K00@Z 10037b70 f i ImfTiledInputFile.obj
 0001:00036b70       ??$_Copy_impl@PA_KPA_K@std@@YAPA_KPA_K00U_Scalar_ptr_iterator_tag@0@@Z 10037b70 f i ImfTiledInputFile.obj
 0001:00036ba0       ??$_Construct@_KAB_K@std@@YAXPA_KAB_K@Z 10037ba0 f i ImfTiledInputFile.obj
 0001:00036bc0       ?getTileBuffer@Data@TiledInputFile@Imf@@QAEPAUTileBuffer@?A0xf6fcebb6@3@H@Z 10037bc0 f i ImfTiledInputFile.obj
 0001:00036bc0       ?getLineBuffer@Data@OutputFile@Imf@@QAEPAULineBuffer@?A0xf57f9ec6@3@H@Z 10037bc0 f i ImfOutputFile.obj
 0001:00036bf0       ??_GTileBufferTask@?A0xf6fcebb6@Imf@@UAEPAXI@Z 10037bf0 f i ImfTiledInputFile.obj
 0001:00036bf0       ??_ETileBufferTask@?A0xf6fcebb6@Imf@@UAEPAXI@Z 10037bf0 f i ImfTiledInputFile.obj
 0001:00036c70       ??1TiledInputFile@Imf@@UAE@XZ 10037c70 f   ImfTiledInputFile.obj
 0001:00036d00       ?_Grow_to@?$vector@UTInSliceInfo@?A0xf6fcebb6@Imf@@V?$allocator@UTInSliceInfo@?A0xf6fcebb6@Imf@@@std@@@std@@IBEII@Z 10037d00 f i ImfTiledInputFile.obj
 0001:00036d00       ?_Grow_to@?$vector@UInSliceInfo@?A0xcbf8ace6@Imf@@V?$allocator@UInSliceInfo@?A0xcbf8ace6@Imf@@@std@@@std@@IBEII@Z 10037d00 f i ImfScanLineInputFile.obj
 0001:00036d40       ?allocate@?$allocator@UTInSliceInfo@?A0xf6fcebb6@Imf@@@std@@QAEPAUTInSliceInfo@?A0xf6fcebb6@Imf@@I@Z 10037d40 f i ImfTiledInputFile.obj
 0001:00036d40       ?allocate@?$allocator@UInSliceInfo@?A0xcbf8ace6@Imf@@@std@@QAEPAUInSliceInfo@?A0xcbf8ace6@Imf@@I@Z 10037d40 f i ImfScanLineInputFile.obj
 0001:00036da0       ??$swap@H@std@@YAXAAH0@Z   10037da0 f i ImfTiledInputFile.obj
 0001:00036dc0       ??$_Move@PAUInSliceInfo@?A0xcbf8ace6@Imf@@PAU123@@std@@YAPAUInSliceInfo@?A0xcbf8ace6@Imf@@PAU123@00@Z 10037dc0 f i ImfScanLineInputFile.obj
 0001:00036dc0       ??$_Copy_impl@PAUTInSliceInfo@?A0xf6fcebb6@Imf@@PAU123@@std@@YAPAUTInSliceInfo@?A0xf6fcebb6@Imf@@PAU123@00@Z 10037dc0 f i ImfTiledInputFile.obj
 0001:00036dc0       ??$_Copy_impl@PAUInSliceInfo@?A0xcbf8ace6@Imf@@PAU123@@std@@YAPAUInSliceInfo@?A0xcbf8ace6@Imf@@PAU123@00@Z 10037dc0 f i ImfScanLineInputFile.obj
 0001:00036dc0       ??$_Move@PAUTInSliceInfo@?A0xf6fcebb6@Imf@@PAU123@@std@@YAPAUTInSliceInfo@?A0xf6fcebb6@Imf@@PAU123@00@Z 10037dc0 f i ImfTiledInputFile.obj
 0001:00036de0       ?max_size@?$allocator@V?$vector@V?$vector@_KV?$allocator@_K@std@@@std@@V?$allocator@V?$vector@_KV?$allocator@_K@std@@@std@@@2@@std@@@std@@QBEIXZ 10037de0 f i ImfTiledInputFile.obj
 0001:00036de0       ?max_size@?$allocator@V?$vector@_KV?$allocator@_K@std@@@std@@@std@@QBEIXZ 10037de0 f i ImfTiledInputFile.obj
 0001:00036de0       ?max_size@?$vector@V?$vector@_KV?$allocator@_K@std@@@std@@V?$allocator@V?$vector@_KV?$allocator@_K@std@@@std@@@2@@std@@QBEIXZ 10037de0 f i ImfTiledInputFile.obj
 0001:00036de0       ?max_size@?$vector@V?$vector@V?$vector@_KV?$allocator@_K@std@@@std@@V?$allocator@V?$vector@_KV?$allocator@_K@std@@@std@@@2@@std@@V?$allocator@V?$vector@V?$vector@_KV?$allocator@_K@std@@@std@@V?$allocator@V?$vector@_KV?$allocator@_K@std@@@std@@@2@@std@@@2@@std@@QBEIXZ 10037de0 f i ImfTiledInputFile.obj
 0001:00036df0       ?key_comp@?$_Tree@V?$_Tmap_traits@VName@Imf@@UChannel@2@U?$less@VName@Imf@@@std@@V?$allocator@U?$pair@$$CBVName@Imf@@UChannel@2@@std@@@5@$0A@@std@@@std@@QBE?AU?$less@VName@Imf@@@2@XZ 10037df0 f i ImfMultiView.obj
 0001:00036df0       ?get_allocator@?$vector@_KV?$allocator@_K@std@@@std@@QBE?AV?$allocator@_K@2@XZ 10037df0 f i ImfTiledInputFile.obj
 0001:00036df0       ?get_allocator@?$vector@V?$vector@_KV?$allocator@_K@std@@@std@@V?$allocator@V?$vector@_KV?$allocator@_K@std@@@std@@@2@@std@@QBE?AV?$allocator@V?$vector@_KV?$allocator@_K@std@@@std@@@2@XZ 10037df0 f i ImfTiledInputFile.obj
 0001:00036df0       ?get_allocator@?$vector@V?$basic_string@DU?$char_traits@D@std@@V?$allocator@D@2@@std@@V?$allocator@V?$basic_string@DU?$char_traits@D@std@@V?$allocator@D@2@@std@@@2@@std@@QBE?AV?$allocator@V?$basic_string@DU?$char_traits@D@std@@V?$allocator@D@2@@std@@@2@XZ 10037df0 f i ImfMultiView.obj
 0001:00036df0       ?get_allocator@?$basic_string@DU?$char_traits@D@std@@V?$allocator@D@2@@std@@QBE?AV?$allocator@D@2@XZ 10037df0 f i ImfChannelList.obj
 0001:00036e00       ?allocate@?$allocator@V?$vector@V?$vector@_KV?$allocator@_K@std@@@std@@V?$allocator@V?$vector@_KV?$allocator@_K@std@@@std@@@2@@std@@@std@@QAEPAV?$vector@V?$vector@_KV?$allocator@_K@std@@@std@@V?$allocator@V?$vector@_KV?$allocator@_K@std@@@std@@@2@@2@I@Z 10037e00 f i ImfTiledInputFile.obj
 0001:00036e00       ?allocate@?$allocator@V?$vector@_KV?$allocator@_K@std@@@std@@@std@@QAEPAV?$vector@_KV?$allocator@_K@std@@@2@I@Z 10037e00 f i ImfTiledInputFile.obj
 0001:00036e60       ??B?$AutoArray@_K$0BAAAB@@Imf@@QAEPA_KXZ 10037e60 f i ImfHuf.obj
 0001:00036e60       ??D?$_Vector_iterator@V?$_Vector_val@V?$basic_string@DU?$char_traits@D@std@@V?$allocator@D@2@@std@@V?$allocator@V?$basic_string@DU?$char_traits@D@std@@V?$allocator@D@2@@std@@@2@@std@@@std@@QBEAAV?$basic_string@DU?$char_traits@D@std@@V?$allocator@D@2@@1@XZ 10037e60 f i ImfMultiView.obj
 0001:00036e60       ?_Mynode@?$_Tree_unchecked_const_iterator@V?$_Tree_val@V?$_Tmap_traits@PBDP6APAVAttribute@Imf@@XZUNameCompare@?A0x0779e1ad@2@V?$allocator@U?$pair@QBDP6APAVAttribute@Imf@@XZ@std@@@std@@$0A@@std@@@std@@U_Iterator_base0@2@@std@@QBEPAU_Node@?$_Tree_nod@V?$_Tmap_traits@PBDP6APAVAttribute@Imf@@XZUNameCompare@?A0x0779e1ad@2@V?$allocator@U?$pair@QBDP6APAVAttribute@Imf@@XZ@std@@@std@@$0A@@std@@@2@XZ 10037e60 f i ImfAttribute.obj
 0001:00036e60       ??D?$_String_iterator@DU?$char_traits@D@std@@V?$allocator@D@2@@std@@QBEAADXZ 10037e60 f i ImfStdIO.obj
 0001:00036e60       ?filmMfcCode@KeyCode@Imf@@QBEHXZ 10037e60 f i ImfKeyCode.obj
 0001:00036e60       ??D?$_Vector_iterator@V?$_Vector_val@_KV?$allocator@_K@std@@@std@@@std@@QBEAA_KXZ 10037e60 f i ImfTiledInputFile.obj
 0001:00036e60       ?width@PreviewImage@Imf@@QBEIXZ 10037e60 f i ImfOutputFile.obj
 0001:00036e60       ??D?$_Vector_iterator@V?$_Vector_val@V?$vector@_KV?$allocator@_K@std@@@std@@V?$allocator@V?$vector@_KV?$allocator@_K@std@@@std@@@2@@std@@@std@@QBEAAV?$vector@_KV?$allocator@_K@std@@@1@XZ 10037e60 f i ImfTiledInputFile.obj
 0001:00036e60       ??B?$AutoArray@G$0BAAAA@@Imf@@QAEPAGXZ 10037e60 f i ImfPizCompressor.obj
 0001:00036e60       ??D?$_String_const_iterator@DU?$char_traits@D@std@@V?$allocator@D@2@@std@@QBEABDXZ 10037e60 f i ImfStdIO.obj
 0001:00036e60       ??B?$Array@D@Imf@@QAEPADXZ 10037e60 f i ImfOpaqueAttribute.obj
 0001:00036e60       ?_Mynode@?$_Tree_unchecked_const_iterator@V?$_Tree_val@V?$_Tmap_traits@UTileCoord@?A0x39e5c904@Imf@@PAUBufferedTile@23@U?$less@UTileCoord@?A0x39e5c904@Imf@@@std@@V?$allocator@U?$pair@$$CBUTileCoord@?A0x39e5c904@Imf@@PAUBufferedTile@23@@std@@@6@$0A@@std@@@std@@U_Iterator_base0@2@@std@@QBEPAU_Node@?$_Tree_nod@V?$_Tmap_traits@UTileCoord@?A0x39e5c904@Imf@@PAUBufferedTile@23@U?$less@UTileCoord@?A0x39e5c904@Imf@@@std@@V?$allocator@U?$pair@$$CBUTileCoord@?A0x39e5c904@Imf@@PAUBufferedTile@23@@std@@@6@$0A@@std@@@2@XZ 10037e60 f i ImfTiledOutputFile.obj
 0001:00036e60       ??B?$AutoArray@E$0CAAA@@Imf@@QAEPAEXZ 10037e60 f i ImfPizCompressor.obj
 0001:00036e60       ??D?$_Vector_const_iterator@V?$_Vector_val@V?$basic_string@DU?$char_traits@D@std@@V?$allocator@D@2@@std@@V?$allocator@V?$basic_string@DU?$char_traits@D@std@@V?$allocator@D@2@@std@@@2@@std@@@std@@QBEABV?$basic_string@DU?$char_traits@D@std@@V?$allocator@D@2@@1@XZ 10037e60 f i ImfMultiView.obj
 0001:00036e60       ?_Mynode@?$_Tree_unchecked_const_iterator@V?$_Tree_val@V?$_Tmap_traits@VName@Imf@@USlice@2@U?$less@VName@Imf@@@std@@V?$allocator@U?$pair@$$CBVName@Imf@@USlice@2@@std@@@5@$0A@@std@@@std@@U_Iterator_base0@2@@std@@QBEPAU_Node@?$_Tree_nod@V?$_Tmap_traits@VName@Imf@@USlice@2@U?$less@VName@Imf@@@std@@V?$allocator@U?$pair@$$CBVName@Imf@@USlice@2@@std@@@5@$0A@@std@@@2@XZ 10037e60 f i ImfFrameBuffer.obj
 0001:00036e60       ??B?$AutoArray@H$0BAAAB@@Imf@@QAEPAHXZ 10037e60 f i ImfHuf.obj
 0001:00036e60       ??B?$AutoArray@PA_K$0BAAAB@@Imf@@QAEPAPA_KXZ 10037e60 f i ImfHuf.obj
 0001:00036e60       ?_Mynode@?$_Tree_unchecked_const_iterator@V?$_Tree_val@V?$_Tmap_traits@VName@Imf@@PAVAttribute@2@U?$less@VName@Imf@@@std@@V?$allocator@U?$pair@$$CBVName@Imf@@PAVAttribute@2@@std@@@5@$0A@@std@@@std@@U_Iterator_base0@2@@std@@QBEPAU_Node@?$_Tree_nod@V?$_Tmap_traits@VName@Imf@@PAVAttribute@2@U?$less@VName@Imf@@@std@@V?$allocator@U?$pair@$$CBVName@Imf@@PAVAttribute@2@@std@@@5@$0A@@std@@@2@XZ 10037e60 f i ImfHeader.obj
 0001:00036e60       ?_Mynode@?$_Tree_unchecked_const_iterator@V?$_Tree_val@V?$_Tset_traits@V?$basic_string@DU?$char_traits@D@std@@V?$allocator@D@2@@std@@U?$less@V?$basic_string@DU?$char_traits@D@std@@V?$allocator@D@2@@std@@@2@V?$allocator@V?$basic_string@DU?$char_traits@D@std@@V?$allocator@D@2@@std@@@2@$0A@@std@@@std@@U_Iterator_base0@2@@std@@QBEPAU_Node@?$_Tree_nod@V?$_Tset_traits@V?$basic_string@DU?$char_traits@D@std@@V?$allocator@D@2@@std@@U?$less@V?$basic_string@DU?$char_traits@D@std@@V?$allocator@D@2@@std@@@2@V?$allocator@V?$basic_string@DU?$char_traits@D@std@@V?$allocator@D@2@@std@@@2@$0A@@std@@@2@XZ 10037e60 f i ImfChannelList.obj
 0001:00036e60       ??D?$_Vector_const_iterator@V?$_Vector_val@V?$vector@_KV?$allocator@_K@std@@@std@@V?$allocator@V?$vector@_KV?$allocator@_K@std@@@std@@@2@@std@@@std@@QBEABV?$vector@_KV?$allocator@_K@std@@@1@XZ 10037e60 f i ImfTiledInputFile.obj
 0001:00036e60       ?_Mynode@?$_Tree_unchecked_const_iterator@V?$_Tree_val@V?$_Tmap_traits@VName@Imf@@UChannel@2@U?$less@VName@Imf@@@std@@V?$allocator@U?$pair@$$CBVName@Imf@@UChannel@2@@std@@@5@$0A@@std@@@std@@U_Iterator_base0@2@@std@@QBEPAU_Node@?$_Tree_nod@V?$_Tmap_traits@VName@Imf@@UChannel@2@U?$less@VName@Imf@@@std@@V?$allocator@U?$pair@$$CBVName@Imf@@UChannel@2@@std@@@5@$0A@@std@@@2@XZ 10037e60 f i ImfChannelList.obj
 0001:00036e60       ??B?$AutoArray@UHufDec@?A0xc87c6bb7@Imf@@$0EAAA@@Imf@@QAEPAUHufDec@?A0xc87c6bb7@1@XZ 10037e60 f i ImfHuf.obj
 0001:00036e60       ??B?$Array@D@Imf@@QBEPBDXZ 10037e60 f i ImfOpaqueAttribute.obj
 0001:00036e60       ??D?$_Vector_const_iterator@V?$_Vector_val@_KV?$allocator@_K@std@@@std@@@std@@QBEAB_KXZ 10037e60 f i ImfTiledInputFile.obj
 0001:00036e70       ?_Grow_to@?$vector@V?$vector@V?$vector@_KV?$allocator@_K@std@@@std@@V?$allocator@V?$vector@_KV?$allocator@_K@std@@@std@@@2@@std@@V?$allocator@V?$vector@V?$vector@_KV?$allocator@_K@std@@@std@@V?$allocator@V?$vector@_KV?$allocator@_K@std@@@std@@@2@@std@@@2@@std@@IBEII@Z 10037e70 f i ImfTileOffsets.obj
 0001:00036e70       ?_Grow_to@?$vector@V?$vector@_KV?$allocator@_K@std@@@std@@V?$allocator@V?$vector@_KV?$allocator@_K@std@@@std@@@2@@std@@IBEII@Z 10037e70 f i ImfTiledInputFile.obj
 0001:00036ea0       ?_Buy@?$vector@_KV?$allocator@_K@std@@@std@@IAE_NI@Z 10037ea0 f i ImfTiledInputFile.obj
 0001:00036ef0       ?construct@?$allocator@_K@std@@QAEXPA_K$$QA_K@Z 10037ef0 f i ImfTiledInputFile.obj
 0001:00036ef0       ?construct@?$allocator@U?$pair@QBDP6APAVAttribute@Imf@@XZ@std@@@std@@QAEXPAU?$pair@QBDP6APAVAttribute@Imf@@XZ@2@$$QAU32@@Z 10037ef0 f i ImfAttribute.obj
 0001:00036ef0       ?construct@?$allocator@_K@std@@QAEXPA_KAB_K@Z 10037ef0 f i ImfTiledInputFile.obj
 0001:00036f10       ?readNextTileData@?A0xf6fcebb6@Imf@@YAXPAUData@TiledInputFile@2@AAH111AAPAD1@Z 10037f10 f   ImfTiledInputFile.obj
 0001:000370c0       ??_GTiledInputFile@Imf@@UAEPAXI@Z 100380c0 f i ImfTiledInputFile.obj
 0001:000370c0       ??_ETiledInputFile@Imf@@UAEPAXI@Z 100380c0 f i ImfTiledInputFile.obj
 0001:000370f0       ?_Buy@?$vector@V?$vector@V?$vector@_KV?$allocator@_K@std@@@std@@V?$allocator@V?$vector@_KV?$allocator@_K@std@@@std@@@2@@std@@V?$allocator@V?$vector@V?$vector@_KV?$allocator@_K@std@@@std@@V?$allocator@V?$vector@_KV?$allocator@_K@std@@@std@@@2@@std@@@2@@std@@IAE_NI@Z 100380f0 f i ImfTiledInputFile.obj
 0001:000370f0       ?_Buy@?$vector@V?$vector@_KV?$allocator@_K@std@@@std@@V?$allocator@V?$vector@_KV?$allocator@_K@std@@@std@@@2@@std@@IAE_NI@Z 100380f0 f i ImfTiledInputFile.obj
 0001:00037150       ??$_Umove@PA_K@?$vector@_KV?$allocator@_K@std@@@std@@IAEPA_KPA_K00@Z 10038150 f i ImfOutputFile.obj
 0001:00037150       ??$_Ucopy@PA_K@?$vector@_KV?$allocator@_K@std@@@std@@IAEPA_KPA_K00@Z 10038150 f i ImfTiledInputFile.obj
 0001:00037180       ??$_Cons_val@V?$allocator@_K@std@@_KAB_K@std@@YAXAAV?$allocator@_K@0@PA_KAB_K@Z 10038180 f i ImfTiledInputFile.obj
 0001:00037180       ??$_Cons_val@V?$allocator@_K@std@@_K_K@std@@YAXAAV?$allocator@_K@0@PA_K$$QA_K@Z 10038180 f i ImfTiledInputFile.obj
 0001:00037180       ??$_Cons_val@V?$allocator@U?$pair@QBDP6APAVAttribute@Imf@@XZ@std@@@std@@U?$pair@QBDP6APAVAttribute@Imf@@XZ@2@U32@@std@@YAXAAV?$allocator@U?$pair@QBDP6APAVAttribute@Imf@@XZ@std@@@0@PAU?$pair@QBDP6APAVAttribute@Imf@@XZ@0@$$QAU20@@Z 10038180 f i ImfAttribute.obj
 0001:000371a0       ??$_Uninit_move@PAUInSliceInfo@?A0xcbf8ace6@Imf@@PAU123@V?$allocator@UInSliceInfo@?A0xcbf8ace6@Imf@@@std@@U123@@std@@YAPAUInSliceInfo@?A0xcbf8ace6@Imf@@PAU123@00AAV?$allocator@UInSliceInfo@?A0xcbf8ace6@Imf@@@0@0U_Nonscalar_ptr_iterator_tag@0@@Z 100381a0 f i ImfScanLineInputFile.obj
 0001:000371a0       ??$_Uninit_move@PAUTInSliceInfo@?A0xf6fcebb6@Imf@@PAU123@V?$allocator@UTInSliceInfo@?A0xf6fcebb6@Imf@@@std@@U123@@std@@YAPAUTInSliceInfo@?A0xf6fcebb6@Imf@@PAU123@00AAV?$allocator@UTInSliceInfo@?A0xf6fcebb6@Imf@@@0@0U_Nonscalar_ptr_iterator_tag@0@@Z 100381a0 f i ImfTiledInputFile.obj
 0001:000371a0       ??$_Uninit_copy@PAUInSliceInfo@?A0xcbf8ace6@Imf@@PAU123@V?$allocator@UInSliceInfo@?A0xcbf8ace6@Imf@@@std@@@std@@YAPAUInSliceInfo@?A0xcbf8ace6@Imf@@PAU123@00AAV?$allocator@UInSliceInfo@?A0xcbf8ace6@Imf@@@0@U_Nonscalar_ptr_iterator_tag@0@@Z 100381a0 f i ImfScanLineInputFile.obj
 0001:000371a0       ??$_Uninit_copy@PAUTInSliceInfo@?A0xf6fcebb6@Imf@@PAU123@V?$allocator@UTInSliceInfo@?A0xf6fcebb6@Imf@@@std@@@std@@YAPAUTInSliceInfo@?A0xf6fcebb6@Imf@@PAU123@00AAV?$allocator@UTInSliceInfo@?A0xf6fcebb6@Imf@@@0@U_Nonscalar_ptr_iterator_tag@0@@Z 100381a0 f i ImfTiledInputFile.obj
 0001:000371f0       ??$_Uninit_copy@V?$_Vector_const_iterator@V?$_Vector_val@_KV?$allocator@_K@std@@@std@@@std@@PA_KV?$allocator@_K@2@@std@@YAPA_KV?$_Vector_const_iterator@V?$_Vector_val@_KV?$allocator@_K@std@@@std@@@0@0PA_KAAV?$allocator@_K@0@U_Nonscalar_ptr_iterator_tag@0@@Z 100381f0 f i ImfTiledInputFile.obj
 0001:00037220       ??0TileBuffer@?A0xf6fcebb6@Imf@@QAE@QAVCompressor@2@@Z 10038220 f   ImfTiledInputFile.obj
 0001:000372b0       ??1TileBuffer@?A0xf6fcebb6@Imf@@QAE@XZ 100382b0 f   ImfTiledInputFile.obj
 0001:00037330       ??_GTileBuffer@?A0xf6fcebb6@Imf@@QAEPAXI@Z 10038330 f i ImfTiledInputFile.obj
 0001:000373d0       ?readTileData@?A0xf6fcebb6@Imf@@YAXPAUData@TiledInputFile@2@HHHHAAPADAAH@Z 100383d0 f   ImfTiledInputFile.obj
 0001:00037840       ?newTileBufferTask@?A0xf6fcebb6@Imf@@YAPAVTileBufferTask@12@PAVTaskGroup@IlmThread@@PAUData@TiledInputFile@2@HHHHH@Z 10038840 f   ImfTiledInputFile.obj
 0001:00037950       ?readTiles@TiledInputFile@Imf@@QAEXHHHHHH@Z 10038950 f   ImfTiledInputFile.obj
 0001:00037de0       ?readTiles@TiledInputFile@Imf@@QAEXHHHHH@Z 10038de0 f   ImfTiledInputFile.obj
 0001:00037e10       ?readTile@TiledInputFile@Imf@@QAEXHHHH@Z 10038e10 f   ImfTiledInputFile.obj
 0001:00037e30       ?readTile@TiledInputFile@Imf@@QAEXHHH@Z 10038e30 f   ImfTiledInputFile.obj
 0001:00037e50       ?rawTileData@TiledInputFile@Imf@@QAEXAAH000AAPBD0@Z 10038e50 f   ImfTiledInputFile.obj
 0001:00038090       ?numLevels@TiledInputFile@Imf@@QBEHXZ 10039090 f   ImfTiledInputFile.obj
 0001:000381d0       ?levelWidth@TiledInputFile@Imf@@QBEHH@Z 100391d0 f   ImfTiledInputFile.obj
 0001:00038330       ?levelHeight@TiledInputFile@Imf@@QBEHH@Z 10039330 f   ImfTiledInputFile.obj
 0001:00038490       ?numXTiles@TiledInputFile@Imf@@QBEHH@Z 10039490 f   ImfTiledInputFile.obj
 0001:000385e0       ?numYTiles@TiledInputFile@Imf@@QBEHH@Z 100395e0 f   ImfTiledInputFile.obj
 0001:00038730       ?dataWindowForLevel@TiledInputFile@Imf@@QBE?AV?$Box@V?$Vec2@H@Imath@@@Imath@@HH@Z 10039730 f   ImfTiledInputFile.obj
 0001:000388a0       ?dataWindowForTile@TiledInputFile@Imf@@QBE?AV?$Box@V?$Vec2@H@Imath@@@Imath@@HHHH@Z 100398a0 f   ImfTiledInputFile.obj
 0001:00038a90       ??$_Umove@PAUTInSliceInfo@?A0xf6fcebb6@Imf@@@?$vector@UTInSliceInfo@?A0xf6fcebb6@Imf@@V?$allocator@UTInSliceInfo@?A0xf6fcebb6@Imf@@@std@@@std@@IAEPAUTInSliceInfo@?A0xf6fcebb6@Imf@@PAU234@00@Z 10039a90 f i ImfTiledInputFile.obj
 0001:00038a90       ??$_Umove@PAUInSliceInfo@?A0xcbf8ace6@Imf@@@?$vector@UInSliceInfo@?A0xcbf8ace6@Imf@@V?$allocator@UInSliceInfo@?A0xcbf8ace6@Imf@@@std@@@std@@IAEPAUInSliceInfo@?A0xcbf8ace6@Imf@@PAU234@00@Z 10039a90 f i ImfScanLineInputFile.obj
 0001:00038ac0       ?clear@?$vector@_KV?$allocator@_K@std@@@std@@QAEXXZ 10039ac0 f i ImfTiledInputFile.obj
 0001:00038b00       ??4?$vector@_KV?$allocator@_K@std@@@std@@QAEAAV01@ABV01@@Z 10039b00 f i ImfTiledInputFile.obj
 0001:00038c30       ??_G?$vector@_KV?$allocator@_K@std@@@std@@QAEPAXI@Z 10039c30 f i ImfTiledInputFile.obj
 0001:00038c70       ??$_Uninitialized_copy@V?$_Vector_const_iterator@V?$_Vector_val@_KV?$allocator@_K@std@@@std@@@std@@PA_KV?$allocator@_K@2@@std@@YAPA_KV?$_Vector_const_iterator@V?$_Vector_val@_KV?$allocator@_K@std@@@std@@@0@0PA_KAAV?$allocator@_K@0@@Z 10039c70 f i ImfTiledInputFile.obj
 0001:00038ca0       ?dataWindowForLevel@TiledInputFile@Imf@@QBE?AV?$Box@V?$Vec2@H@Imath@@@Imath@@H@Z 10039ca0 f   ImfTiledInputFile.obj
 0001:00038cc0       ?dataWindowForTile@TiledInputFile@Imf@@QBE?AV?$Box@V?$Vec2@H@Imath@@@Imath@@HHH@Z 10039cc0 f   ImfTiledInputFile.obj
 0001:00038cf0       ?reserve@?$vector@UTInSliceInfo@?A0xf6fcebb6@Imf@@V?$allocator@UTInSliceInfo@?A0xf6fcebb6@Imf@@@std@@@std@@QAEXI@Z 10039cf0 f i ImfTiledInputFile.obj
 0001:00038cf0       ?reserve@?$vector@UInSliceInfo@?A0xcbf8ace6@Imf@@V?$allocator@UInSliceInfo@?A0xcbf8ace6@Imf@@@std@@@std@@QAEXI@Z 10039cf0 f i ImfScanLineInputFile.obj
 0001:00038df0       ??$_Ucopy@PAUInSliceInfo@?A0xcbf8ace6@Imf@@@?$vector@UInSliceInfo@?A0xcbf8ace6@Imf@@V?$allocator@UInSliceInfo@?A0xcbf8ace6@Imf@@@std@@@std@@IAEPAUInSliceInfo@?A0xcbf8ace6@Imf@@PAU234@00@Z 10039df0 f i ImfScanLineInputFile.obj
 0001:00038df0       ??$_Ucopy@PAUTInSliceInfo@?A0xf6fcebb6@Imf@@@?$vector@UTInSliceInfo@?A0xf6fcebb6@Imf@@V?$allocator@UTInSliceInfo@?A0xf6fcebb6@Imf@@@std@@@std@@IAEPAUTInSliceInfo@?A0xf6fcebb6@Imf@@PAU234@00@Z 10039df0 f i ImfTiledInputFile.obj
 0001:00038e20       ?push_back@?$vector@_KV?$allocator@_K@std@@@std@@QAEX$$QA_K@Z 10039e20 f i ImfTiledInputFile.obj
 0001:00038ea0       ??$_Copy_impl@PAV?$vector@_KV?$allocator@_K@std@@@std@@PAV12@@std@@YAPAV?$vector@_KV?$allocator@_K@std@@@0@PAV10@00U_Nonscalar_ptr_iterator_tag@0@@Z 10039ea0 f i ImfTiledInputFile.obj
 0001:00039010       ??$_Destroy@V?$vector@_KV?$allocator@_K@std@@@std@@@std@@YAXPAV?$vector@_KV?$allocator@_K@std@@@0@@Z 1003a010 f i ImfTiledInputFile.obj
 0001:00039040       ??$_Ucopy@V?$_Vector_const_iterator@V?$_Vector_val@_KV?$allocator@_K@std@@@std@@@std@@@?$vector@_KV?$allocator@_K@std@@@std@@IAEPA_KV?$_Vector_const_iterator@V?$_Vector_val@_KV?$allocator@_K@std@@@std@@@1@0PA_K@Z 1003a040 f i ImfTiledInputFile.obj
 0001:00039070       ?_Reserve@?$vector@UTInSliceInfo@?A0xf6fcebb6@Imf@@V?$allocator@UTInSliceInfo@?A0xf6fcebb6@Imf@@@std@@@std@@IAEXI@Z 1003a070 f i ImfTiledInputFile.obj
 0001:00039070       ?_Reserve@?$vector@UInSliceInfo@?A0xcbf8ace6@Imf@@V?$allocator@UInSliceInfo@?A0xcbf8ace6@Imf@@@std@@@std@@IAEXI@Z 1003a070 f i ImfScanLineInputFile.obj
 0001:00039100       ??$_Copy_impl@PAV?$vector@_KV?$allocator@_K@std@@@std@@PAV12@@std@@YAPAV?$vector@_KV?$allocator@_K@std@@@0@PAV10@00@Z 1003a100 f i ImfTiledInputFile.obj
 0001:00039120       ?_Assign_rv@?$vector@_KV?$allocator@_K@std@@@std@@QAEX$$QAV12@@Z 1003a120 f i ImfTiledInputFile.obj
 0001:00039170       ??4?$vector@_KV?$allocator@_K@std@@@std@@QAEAAV01@$$QAV01@@Z 1003a170 f i ImfTiledInputFile.obj
 0001:000391c0       ?destroy@?$allocator@V?$vector@_KV?$allocator@_K@std@@@std@@@std@@QAEXPAV?$vector@_KV?$allocator@_K@std@@@2@@Z 1003a1c0 f i ImfTiledInputFile.obj
 0001:000391f0       ??0?$vector@_KV?$allocator@_K@std@@@std@@QAE@ABV01@@Z 1003a1f0 f i ImfTiledInputFile.obj
 0001:000392c0       ??$_Construct@V?$vector@_KV?$allocator@_K@std@@@std@@ABV12@@std@@YAXPAV?$vector@_KV?$allocator@_K@std@@@0@ABV10@@Z 1003a2c0 f i ImfTiledInputFile.obj
 0001:00039310       ?execute@TileBufferTask@?A0xf6fcebb6@Imf@@UAEXXZ 1003a310 f   ImfTiledInputFile.obj
 0001:00039560       ?push_back@?$vector@UTInSliceInfo@?A0xf6fcebb6@Imf@@V?$allocator@UTInSliceInfo@?A0xf6fcebb6@Imf@@@std@@@std@@QAEX$$QAUTInSliceInfo@?A0xf6fcebb6@Imf@@@Z 1003a560 f i ImfTiledInputFile.obj
 0001:00039560       ?push_back@?$vector@UInSliceInfo@?A0xcbf8ace6@Imf@@V?$allocator@UInSliceInfo@?A0xcbf8ace6@Imf@@@std@@@std@@QAEX$$QAUInSliceInfo@?A0xcbf8ace6@Imf@@@Z 1003a560 f i ImfScanLineInputFile.obj
 0001:00039630       ??4?$vector@UTInSliceInfo@?A0xf6fcebb6@Imf@@V?$allocator@UTInSliceInfo@?A0xf6fcebb6@Imf@@@std@@@std@@QAEAAV01@ABV01@@Z 1003a630 f i ImfTiledInputFile.obj
 0001:00039630       ??4?$vector@UInSliceInfo@?A0xcbf8ace6@Imf@@V?$allocator@UInSliceInfo@?A0xcbf8ace6@Imf@@@std@@@std@@QAEAAV01@ABV01@@Z 1003a630 f i ImfScanLineInputFile.obj
 0001:00039780       ??0?$vector@V?$basic_string@DU?$char_traits@D@std@@V?$allocator@D@2@@std@@V?$allocator@V?$basic_string@DU?$char_traits@D@std@@V?$allocator@D@2@@std@@@2@@std@@QAE@$$QAV01@@Z 1003a780 f i ImfMultiView.obj
 0001:00039780       ??0?$vector@V?$vector@_KV?$allocator@_K@std@@@std@@V?$allocator@V?$vector@_KV?$allocator@_K@std@@@std@@@2@@std@@QAE@$$QAV01@@Z 1003a780 f i ImfTileOffsets.obj
 0001:00039780       ??0?$vector@_KV?$allocator@_K@std@@@std@@QAE@$$QAV01@@Z 1003a780 f i ImfTiledInputFile.obj
 0001:000397c0       ??$_Move@PAV?$vector@_KV?$allocator@_K@std@@@std@@PAV12@@std@@YAPAV?$vector@_KV?$allocator@_K@std@@@0@PAV10@00U_Nonscalar_ptr_iterator_tag@0@@Z 1003a7c0 f i ImfTiledInputFile.obj
 0001:00039820       ??$_Dest_val@V?$allocator@V?$vector@_KV?$allocator@_K@std@@@std@@@std@@V?$vector@_KV?$allocator@_K@std@@@2@@std@@YAXAAV?$allocator@V?$vector@_KV?$allocator@_K@std@@@std@@@0@PAV?$vector@_KV?$allocator@_K@std@@@0@@Z 1003a820 f i ImfTiledInputFile.obj
 0001:00039850       ??$construct@AAV?$vector@_KV?$allocator@_K@std@@@std@@@?$allocator@V?$vector@_KV?$allocator@_K@std@@@std@@@std@@QAEXPAV?$vector@_KV?$allocator@_K@std@@@1@AAV21@@Z 1003a850 f i ImfTiledInputFile.obj
 0001:000398a0       ?construct@?$allocator@V?$vector@_KV?$allocator@_K@std@@@std@@@std@@QAEXPAV?$vector@_KV?$allocator@_K@std@@@2@ABV32@@Z 1003a8a0 f i ImfTiledInputFile.obj
 0001:00039900       ??$_Move@PAV?$vector@_KV?$allocator@_K@std@@@std@@PAV12@@std@@YAPAV?$vector@_KV?$allocator@_K@std@@@0@PAV10@00@Z 1003a900 f i ImfTiledInputFile.obj
 0001:00039920       ??$_Cons_val@V?$allocator@V?$vector@_KV?$allocator@_K@std@@@std@@@std@@V?$vector@_KV?$allocator@_K@std@@@2@AAV32@@std@@YAXAAV?$allocator@V?$vector@_KV?$allocator@_K@std@@@std@@@0@PAV?$vector@_KV?$allocator@_K@std@@@0@AAV20@@Z 1003a920 f i ImfTiledInputFile.obj
 0001:00039970       ??$_Cons_val@V?$allocator@V?$vector@_KV?$allocator@_K@std@@@std@@@std@@V?$vector@_KV?$allocator@_K@std@@@2@ABV32@@std@@YAXAAV?$allocator@V?$vector@_KV?$allocator@_K@std@@@std@@@0@PAV?$vector@_KV?$allocator@_K@std@@@0@ABV20@@Z 1003a970 f i ImfTiledInputFile.obj
 0001:000399c0       ??$_Destroy_range@V?$allocator@V?$vector@_KV?$allocator@_K@std@@@std@@@std@@@std@@YAXPAV?$vector@_KV?$allocator@_K@std@@@0@0AAV?$allocator@V?$vector@_KV?$allocator@_K@std@@@std@@@0@U_Nonscalar_ptr_iterator_tag@0@@Z 1003a9c0 f i ImfTiledInputFile.obj
 0001:000399c0       ??$_Destroy_range@V?$allocator@V?$vector@_KV?$allocator@_K@std@@@std@@@std@@@std@@YAXPAV?$vector@_KV?$allocator@_K@std@@@0@0AAV?$allocator@V?$vector@_KV?$allocator@_K@std@@@std@@@0@@Z 1003a9c0 f i ImfTiledInputFile.obj
 0001:00039a00       ??$_Uninit_copy@PAV?$vector@_KV?$allocator@_K@std@@@std@@PAV12@V?$allocator@V?$vector@_KV?$allocator@_K@std@@@std@@@2@@std@@YAPAV?$vector@_KV?$allocator@_K@std@@@0@PAV10@00AAV?$allocator@V?$vector@_KV?$allocator@_K@std@@@std@@@0@U_Nonscalar_ptr_iterator_tag@0@@Z 1003aa00 f i ImfTiledInputFile.obj
 0001:00039ab0       ??$_Uninit_move@PAV?$vector@V?$vector@_KV?$allocator@_K@std@@@std@@V?$allocator@V?$vector@_KV?$allocator@_K@std@@@std@@@2@@std@@PAV12@V?$allocator@V?$vector@V?$vector@_KV?$allocator@_K@std@@@std@@V?$allocator@V?$vector@_KV?$allocator@_K@std@@@std@@@2@@std@@@2@V12@@std@@YAPAV?$vector@V?$vector@_KV?$allocator@_K@std@@@std@@V?$allocator@V?$vector@_KV?$allocator@_K@std@@@std@@@2@@0@PAV10@00AAV?$allocator@V?$vector@V?$vector@_KV?$allocator@_K@std@@@std@@V?$allocator@V?$vector@_KV?$allocator@_K@std@@@std@@@2@@std@@@0@0U_Nonscalar_ptr_iterator_tag@0@@Z 1003aab0 f i ImfTileOffsets.obj
 0001:00039ab0       ??$_Uninit_move@PAV?$vector@_KV?$allocator@_K@std@@@std@@PAV12@V?$allocator@V?$vector@_KV?$allocator@_K@std@@@std@@@2@V12@@std@@YAPAV?$vector@_KV?$allocator@_K@std@@@0@PAV10@00AAV?$allocator@V?$vector@_KV?$allocator@_K@std@@@std@@@0@0U_Nonscalar_ptr_iterator_tag@0@@Z 1003aab0 f i ImfTiledInputFile.obj
 0001:00039b30       ??$_Uninit_copy@V?$_Vector_const_iterator@V?$_Vector_val@V?$vector@_KV?$allocator@_K@std@@@std@@V?$allocator@V?$vector@_KV?$allocator@_K@std@@@std@@@2@@std@@@std@@PAV?$vector@_KV?$allocator@_K@std@@@2@V?$allocator@V?$vector@_KV?$allocator@_K@std@@@std@@@2@@std@@YAPAV?$vector@_KV?$allocator@_K@std@@@0@V?$_Vector_const_iterator@V?$_Vector_val@V?$vector@_KV?$allocator@_K@std@@@std@@V?$allocator@V?$vector@_KV?$allocator@_K@std@@@std@@@2@@std@@@0@0PAV10@AAV?$allocator@V?$vector@_KV?$allocator@_K@std@@@std@@@0@U_Nonscalar_ptr_iterator_tag@0@@Z 1003ab30 f i ImfTiledInputFile.obj
 0001:00039be0       ?_Destroy@?$vector@V?$vector@_KV?$allocator@_K@std@@@std@@V?$allocator@V?$vector@_KV?$allocator@_K@std@@@std@@@2@@std@@IAEXPAV?$vector@_KV?$allocator@_K@std@@@2@0@Z 1003abe0 f i ImfTiledInputFile.obj
 0001:00039c20       ?erase@?$vector@V?$vector@_KV?$allocator@_K@std@@@std@@V?$allocator@V?$vector@_KV?$allocator@_K@std@@@std@@@2@@std@@QAE?AV?$_Vector_iterator@V?$_Vector_val@V?$vector@_KV?$allocator@_K@std@@@std@@V?$allocator@V?$vector@_KV?$allocator@_K@std@@@std@@@2@@std@@@2@V?$_Vector_const_iterator@V?$_Vector_val@V?$vector@_KV?$allocator@_K@std@@@std@@V?$allocator@V?$vector@_KV?$allocator@_K@std@@@std@@@2@@std@@@2@0@Z 1003ac20 f i ImfTiledInputFile.obj
 0001:00039c70       ??$_Uninitialized_copy@PAV?$vector@_KV?$allocator@_K@std@@@std@@PAV12@V?$allocator@V?$vector@_KV?$allocator@_K@std@@@std@@@2@@std@@YAPAV?$vector@_KV?$allocator@_K@std@@@0@PAV10@00AAV?$allocator@V?$vector@_KV?$allocator@_K@std@@@std@@@0@@Z 1003ac70 f i ImfTiledInputFile.obj
 0001:00039ca0       ??$_Uninitialized_move@PAV?$vector@V?$vector@_KV?$allocator@_K@std@@@std@@V?$allocator@V?$vector@_KV?$allocator@_K@std@@@std@@@2@@std@@PAV12@V?$allocator@V?$vector@V?$vector@_KV?$allocator@_K@std@@@std@@V?$allocator@V?$vector@_KV?$allocator@_K@std@@@std@@@2@@std@@@2@@std@@YAPAV?$vector@V?$vector@_KV?$allocator@_K@std@@@std@@V?$allocator@V?$vector@_KV?$allocator@_K@std@@@std@@@2@@0@PAV10@00AAV?$allocator@V?$vector@V?$vector@_KV?$allocator@_K@std@@@std@@V?$allocator@V?$vector@_KV?$allocator@_K@std@@@std@@@2@@std@@@0@@Z 1003aca0 f i ImfTileOffsets.obj
 0001:00039ca0       ??$_Uninitialized_move@PAV?$vector@_KV?$allocator@_K@std@@@std@@PAV12@V?$allocator@V?$vector@_KV?$allocator@_K@std@@@std@@@2@@std@@YAPAV?$vector@_KV?$allocator@_K@std@@@0@PAV10@00AAV?$allocator@V?$vector@_KV?$allocator@_K@std@@@std@@@0@@Z 1003aca0 f i ImfTiledInputFile.obj
 0001:00039cd0       ??1?$vector@V?$vector@_KV?$allocator@_K@std@@@std@@V?$allocator@V?$vector@_KV?$allocator@_K@std@@@std@@@2@@std@@QAE@XZ 1003acd0 f i ImfTiledInputFile.obj
 0001:00039cd0       ?_Tidy@?$vector@V?$vector@_KV?$allocator@_K@std@@@std@@V?$allocator@V?$vector@_KV?$allocator@_K@std@@@std@@@2@@std@@IAEXXZ 1003acd0 f i ImfTiledInputFile.obj
 0001:00039d10       ??$_Uninitialized_copy@V?$_Vector_const_iterator@V?$_Vector_val@V?$vector@_KV?$allocator@_K@std@@@std@@V?$allocator@V?$vector@_KV?$allocator@_K@std@@@std@@@2@@std@@@std@@PAV?$vector@_KV?$allocator@_K@std@@@2@V?$allocator@V?$vector@_KV?$allocator@_K@std@@@std@@@2@@std@@YAPAV?$vector@_KV?$allocator@_K@std@@@0@V?$_Vector_const_iterator@V?$_Vector_val@V?$vector@_KV?$allocator@_K@std@@@std@@V?$allocator@V?$vector@_KV?$allocator@_K@std@@@std@@@2@@std@@@0@0PAV10@AAV?$allocator@V?$vector@_KV?$allocator@_K@std@@@std@@@0@@Z 1003ad10 f i ImfTiledInputFile.obj
 0001:00039d40       ?setFrameBuffer@TiledInputFile@Imf@@QAEXABVFrameBuffer@2@@Z 1003ad40 f   ImfTiledInputFile.obj
 0001:0003a400       ?clear@?$vector@V?$vector@_KV?$allocator@_K@std@@@std@@V?$allocator@V?$vector@_KV?$allocator@_K@std@@@std@@@2@@std@@QAEXXZ 1003b400 f i ImfTiledInputFile.obj
 0001:0003a440       ??$_Ucopy@PAV?$vector@_KV?$allocator@_K@std@@@std@@@?$vector@V?$vector@_KV?$allocator@_K@std@@@std@@V?$allocator@V?$vector@_KV?$allocator@_K@std@@@std@@@2@@std@@IAEPAV?$vector@_KV?$allocator@_K@std@@@1@PAV21@00@Z 1003b440 f i ImfTiledInputFile.obj
 0001:0003a470       ??$_Umove@PAV?$vector@V?$vector@_KV?$allocator@_K@std@@@std@@V?$allocator@V?$vector@_KV?$allocator@_K@std@@@std@@@2@@std@@@?$vector@V?$vector@V?$vector@_KV?$allocator@_K@std@@@std@@V?$allocator@V?$vector@_KV?$allocator@_K@std@@@std@@@2@@std@@V?$allocator@V?$vector@V?$vector@_KV?$allocator@_K@std@@@std@@V?$allocator@V?$vector@_KV?$allocator@_K@std@@@std@@@2@@std@@@2@@std@@IAEPAV?$vector@V?$vector@_KV?$allocator@_K@std@@@std@@V?$allocator@V?$vector@_KV?$allocator@_K@std@@@std@@@2@@1@PAV21@00@Z 1003b470 f i ImfTileOffsets.obj
 0001:0003a470       ??$_Umove@PAV?$vector@_KV?$allocator@_K@std@@@std@@@?$vector@V?$vector@_KV?$allocator@_K@std@@@std@@V?$allocator@V?$vector@_KV?$allocator@_K@std@@@std@@@2@@std@@IAEPAV?$vector@_KV?$allocator@_K@std@@@1@PAV21@00@Z 1003b470 f i ImfTiledInputFile.obj
 0001:0003a4a0       ??_G?$vector@V?$vector@_KV?$allocator@_K@std@@@std@@V?$allocator@V?$vector@_KV?$allocator@_K@std@@@std@@@2@@std@@QAEPAXI@Z 1003b4a0 f i ImfTiledInputFile.obj
 0001:0003a4f0       ??$_Ucopy@V?$_Vector_const_iterator@V?$_Vector_val@V?$vector@_KV?$allocator@_K@std@@@std@@V?$allocator@V?$vector@_KV?$allocator@_K@std@@@std@@@2@@std@@@std@@@?$vector@V?$vector@_KV?$allocator@_K@std@@@std@@V?$allocator@V?$vector@_KV?$allocator@_K@std@@@std@@@2@@std@@IAEPAV?$vector@_KV?$allocator@_K@std@@@1@V?$_Vector_const_iterator@V?$_Vector_val@V?$vector@_KV?$allocator@_K@std@@@std@@V?$allocator@V?$vector@_KV?$allocator@_K@std@@@std@@@2@@std@@@1@0PAV21@@Z 1003b4f0 f i ImfTiledInputFile.obj
 0001:0003a520       ??4?$vector@V?$vector@_KV?$allocator@_K@std@@@std@@V?$allocator@V?$vector@_KV?$allocator@_K@std@@@std@@@2@@std@@QAEAAV01@ABV01@@Z 1003b520 f i ImfTiledInputFile.obj
 0001:0003a650       ?reserve@?$vector@V?$vector@_KV?$allocator@_K@std@@@std@@V?$allocator@V?$vector@_KV?$allocator@_K@std@@@std@@@2@@std@@QAEXI@Z 1003b650 f i ImfTiledInputFile.obj
 0001:0003a730       ??$_Destroy@V?$vector@V?$vector@_KV?$allocator@_K@std@@@std@@V?$allocator@V?$vector@_KV?$allocator@_K@std@@@std@@@2@@std@@@std@@YAXPAV?$vector@V?$vector@_KV?$allocator@_K@std@@@std@@V?$allocator@V?$vector@_KV?$allocator@_K@std@@@std@@@2@@0@@Z 1003b730 f i ImfTiledInputFile.obj
 0001:0003a770       ??0?$vector@V?$vector@_KV?$allocator@_K@std@@@std@@V?$allocator@V?$vector@_KV?$allocator@_K@std@@@std@@@2@@std@@QAE@ABV01@@Z 1003b770 f i ImfTiledInputFile.obj
 0001:0003a840       ??$_Copy_impl@PAV?$vector@V?$vector@_KV?$allocator@_K@std@@@std@@V?$allocator@V?$vector@_KV?$allocator@_K@std@@@std@@@2@@std@@PAV12@@std@@YAPAV?$vector@V?$vector@_KV?$allocator@_K@std@@@std@@V?$allocator@V?$vector@_KV?$allocator@_K@std@@@std@@@2@@0@PAV10@00U_Nonscalar_ptr_iterator_tag@0@@Z 1003b840 f i ImfTiledInputFile.obj
 0001:0003aa00       ?_Reserve@?$vector@V?$vector@_KV?$allocator@_K@std@@@std@@V?$allocator@V?$vector@_KV?$allocator@_K@std@@@std@@@2@@std@@IAEXI@Z 1003ba00 f i ImfTiledInputFile.obj
 0001:0003aa70       ?destroy@?$allocator@V?$vector@V?$vector@_KV?$allocator@_K@std@@@std@@V?$allocator@V?$vector@_KV?$allocator@_K@std@@@std@@@2@@std@@@std@@QAEXPAV?$vector@V?$vector@_KV?$allocator@_K@std@@@std@@V?$allocator@V?$vector@_KV?$allocator@_K@std@@@std@@@2@@2@@Z 1003ba70 f i ImfTiledInputFile.obj
 0001:0003aab0       ??$construct@AAV?$vector@V?$vector@_KV?$allocator@_K@std@@@std@@V?$allocator@V?$vector@_KV?$allocator@_K@std@@@std@@@2@@std@@@?$allocator@V?$vector@V?$vector@_KV?$allocator@_K@std@@@std@@V?$allocator@V?$vector@_KV?$allocator@_K@std@@@std@@@2@@std@@@std@@QAEXPAV?$vector@V?$vector@_KV?$allocator@_K@std@@@std@@V?$allocator@V?$vector@_KV?$allocator@_K@std@@@std@@@2@@1@AAV21@@Z 1003bab0 f i ImfTiledInputFile.obj
 0001:0003ab00       ??$_Copy_impl@PAV?$vector@V?$vector@_KV?$allocator@_K@std@@@std@@V?$allocator@V?$vector@_KV?$allocator@_K@std@@@std@@@2@@std@@PAV12@@std@@YAPAV?$vector@V?$vector@_KV?$allocator@_K@std@@@std@@V?$allocator@V?$vector@_KV?$allocator@_K@std@@@std@@@2@@0@PAV10@00@Z 1003bb00 f i ImfTiledInputFile.obj
 0001:0003ab20       ?push_back@?$vector@V?$vector@_KV?$allocator@_K@std@@@std@@V?$allocator@V?$vector@_KV?$allocator@_K@std@@@std@@@2@@std@@QAEX$$QAV?$vector@_KV?$allocator@_K@std@@@2@@Z 1003bb20 f i ImfTiledInputFile.obj
 0001:0003abd0       ??$_Dest_val@V?$allocator@V?$vector@V?$vector@_KV?$allocator@_K@std@@@std@@V?$allocator@V?$vector@_KV?$allocator@_K@std@@@std@@@2@@std@@@std@@V?$vector@V?$vector@_KV?$allocator@_K@std@@@std@@V?$allocator@V?$vector@_KV?$allocator@_K@std@@@std@@@2@@2@@std@@YAXAAV?$allocator@V?$vector@V?$vector@_KV?$allocator@_K@std@@@std@@V?$allocator@V?$vector@_KV?$allocator@_K@std@@@std@@@2@@std@@@0@PAV?$vector@V?$vector@_KV?$allocator@_K@std@@@std@@V?$allocator@V?$vector@_KV?$allocator@_K@std@@@std@@@2@@0@@Z 1003bbd0 f i ImfTiledInputFile.obj
 0001:0003ac10       ??$_Cons_val@V?$allocator@V?$vector@V?$vector@_KV?$allocator@_K@std@@@std@@V?$allocator@V?$vector@_KV?$allocator@_K@std@@@std@@@2@@std@@@std@@V?$vector@V?$vector@_KV?$allocator@_K@std@@@std@@V?$allocator@V?$vector@_KV?$allocator@_K@std@@@std@@@2@@2@AAV32@@std@@YAXAAV?$allocator@V?$vector@V?$vector@_KV?$allocator@_K@std@@@std@@V?$allocator@V?$vector@_KV?$allocator@_K@std@@@std@@@2@@std@@@0@PAV?$vector@V?$vector@_KV?$allocator@_K@std@@@std@@V?$allocator@V?$vector@_KV?$allocator@_K@std@@@std@@@2@@0@AAV20@@Z 1003bc10 f i ImfTiledInputFile.obj
 0001:0003ac60       ??$_Destroy_range@V?$allocator@V?$vector@V?$vector@_KV?$allocator@_K@std@@@std@@V?$allocator@V?$vector@_KV?$allocator@_K@std@@@std@@@2@@std@@@std@@@std@@YAXPAV?$vector@V?$vector@_KV?$allocator@_K@std@@@std@@V?$allocator@V?$vector@_KV?$allocator@_K@std@@@std@@@2@@0@0AAV?$allocator@V?$vector@V?$vector@_KV?$allocator@_K@std@@@std@@V?$allocator@V?$vector@_KV?$allocator@_K@std@@@std@@@2@@std@@@0@U_Nonscalar_ptr_iterator_tag@0@@Z 1003bc60 f i ImfTiledInputFile.obj
 0001:0003acd0       ?_Assign_rv@?$vector@V?$vector@_KV?$allocator@_K@std@@@std@@V?$allocator@V?$vector@_KV?$allocator@_K@std@@@std@@@2@@std@@QAEX$$QAV12@@Z 1003bcd0 f i ImfTiledInputFile.obj
 0001:0003ad30       ??$_Uninit_copy@PAV?$vector@V?$vector@_KV?$allocator@_K@std@@@std@@V?$allocator@V?$vector@_KV?$allocator@_K@std@@@std@@@2@@std@@PAV12@V?$allocator@V?$vector@V?$vector@_KV?$allocator@_K@std@@@std@@V?$allocator@V?$vector@_KV?$allocator@_K@std@@@std@@@2@@std@@@2@@std@@YAPAV?$vector@V?$vector@_KV?$allocator@_K@std@@@std@@V?$allocator@V?$vector@_KV?$allocator@_K@std@@@std@@@2@@0@PAV10@00AAV?$allocator@V?$vector@V?$vector@_KV?$allocator@_K@std@@@std@@V?$allocator@V?$vector@_KV?$allocator@_K@std@@@std@@@2@@std@@@0@U_Nonscalar_ptr_iterator_tag@0@@Z 1003bd30 f i ImfTiledInputFile.obj
 0001:0003ade0       ??$_Destroy_range@V?$allocator@V?$vector@V?$vector@_KV?$allocator@_K@std@@@std@@V?$allocator@V?$vector@_KV?$allocator@_K@std@@@std@@@2@@std@@@std@@@std@@YAXPAV?$vector@V?$vector@_KV?$allocator@_K@std@@@std@@V?$allocator@V?$vector@_KV?$allocator@_K@std@@@std@@@2@@0@0AAV?$allocator@V?$vector@V?$vector@_KV?$allocator@_K@std@@@std@@V?$allocator@V?$vector@_KV?$allocator@_K@std@@@std@@@2@@std@@@0@@Z 1003bde0 f i ImfTiledInputFile.obj
 0001:0003ae00       ??$_Uninitialized_copy@PAV?$vector@V?$vector@_KV?$allocator@_K@std@@@std@@V?$allocator@V?$vector@_KV?$allocator@_K@std@@@std@@@2@@std@@PAV12@V?$allocator@V?$vector@V?$vector@_KV?$allocator@_K@std@@@std@@V?$allocator@V?$vector@_KV?$allocator@_K@std@@@std@@@2@@std@@@2@@std@@YAPAV?$vector@V?$vector@_KV?$allocator@_K@std@@@std@@V?$allocator@V?$vector@_KV?$allocator@_K@std@@@std@@@2@@0@PAV10@00AAV?$allocator@V?$vector@V?$vector@_KV?$allocator@_K@std@@@std@@V?$allocator@V?$vector@_KV?$allocator@_K@std@@@std@@@2@@std@@@0@@Z 1003be00 f i ImfTiledInputFile.obj
 0001:0003ae30       ??4?$vector@V?$vector@_KV?$allocator@_K@std@@@std@@V?$allocator@V?$vector@_KV?$allocator@_K@std@@@std@@@2@@std@@QAEAAV01@$$QAV01@@Z 1003be30 f i ImfTiledInputFile.obj
 0001:0003ae90       ?_Destroy@?$vector@V?$vector@V?$vector@_KV?$allocator@_K@std@@@std@@V?$allocator@V?$vector@_KV?$allocator@_K@std@@@std@@@2@@std@@V?$allocator@V?$vector@V?$vector@_KV?$allocator@_K@std@@@std@@V?$allocator@V?$vector@_KV?$allocator@_K@std@@@std@@@2@@std@@@2@@std@@IAEXPAV?$vector@V?$vector@_KV?$allocator@_K@std@@@std@@V?$allocator@V?$vector@_KV?$allocator@_K@std@@@std@@@2@@2@0@Z 1003be90 f i ImfTiledInputFile.obj
 0001:0003aeb0       ??$_Ucopy@PAV?$vector@V?$vector@_KV?$allocator@_K@std@@@std@@V?$allocator@V?$vector@_KV?$allocator@_K@std@@@std@@@2@@std@@@?$vector@V?$vector@V?$vector@_KV?$allocator@_K@std@@@std@@V?$allocator@V?$vector@_KV?$allocator@_K@std@@@std@@@2@@std@@V?$allocator@V?$vector@V?$vector@_KV?$allocator@_K@std@@@std@@V?$allocator@V?$vector@_KV?$allocator@_K@std@@@std@@@2@@std@@@2@@std@@IAEPAV?$vector@V?$vector@_KV?$allocator@_K@std@@@std@@V?$allocator@V?$vector@_KV?$allocator@_K@std@@@std@@@2@@1@PAV21@00@Z 1003beb0 f i ImfTiledInputFile.obj
 0001:0003aee0       ??$_Move@PAV?$vector@V?$vector@_KV?$allocator@_K@std@@@std@@V?$allocator@V?$vector@_KV?$allocator@_K@std@@@std@@@2@@std@@PAV12@@std@@YAPAV?$vector@V?$vector@_KV?$allocator@_K@std@@@std@@V?$allocator@V?$vector@_KV?$allocator@_K@std@@@std@@@2@@0@PAV10@00U_Nonscalar_ptr_iterator_tag@0@@Z 1003bee0 f i ImfTiledInputFile.obj
 0001:0003afc0       ?_Tidy@?$vector@V?$vector@V?$vector@_KV?$allocator@_K@std@@@std@@V?$allocator@V?$vector@_KV?$allocator@_K@std@@@std@@@2@@std@@V?$allocator@V?$vector@V?$vector@_KV?$allocator@_K@std@@@std@@V?$allocator@V?$vector@_KV?$allocator@_K@std@@@std@@@2@@std@@@2@@std@@IAEXXZ 1003bfc0 f i ImfTiledInputFile.obj
 0001:0003afc0       ??1?$vector@V?$vector@V?$vector@_KV?$allocator@_K@std@@@std@@V?$allocator@V?$vector@_KV?$allocator@_K@std@@@std@@@2@@std@@V?$allocator@V?$vector@V?$vector@_KV?$allocator@_K@std@@@std@@V?$allocator@V?$vector@_KV?$allocator@_K@std@@@std@@@2@@std@@@2@@std@@QAE@XZ 1003bfc0 f i ImfTiledInputFile.obj
 0001:0003b010       ??$_Move@PAV?$vector@V?$vector@_KV?$allocator@_K@std@@@std@@V?$allocator@V?$vector@_KV?$allocator@_K@std@@@std@@@2@@std@@PAV12@@std@@YAPAV?$vector@V?$vector@_KV?$allocator@_K@std@@@std@@V?$allocator@V?$vector@_KV?$allocator@_K@std@@@std@@@2@@0@PAV10@00@Z 1003c010 f i ImfTiledInputFile.obj
 0001:0003b030       ??1TileOffsets@Imf@@QAE@XZ 1003c030 f i ImfTiledInputFile.obj
 0001:0003b080       ??1Data@TiledInputFile@Imf@@UAE@XZ 1003c080 f   ImfTiledInputFile.obj
 0001:0003b260       ?erase@?$vector@V?$vector@V?$vector@_KV?$allocator@_K@std@@@std@@V?$allocator@V?$vector@_KV?$allocator@_K@std@@@std@@@2@@std@@V?$allocator@V?$vector@V?$vector@_KV?$allocator@_K@std@@@std@@V?$allocator@V?$vector@_KV?$allocator@_K@std@@@std@@@2@@std@@@2@@std@@QAE?AV?$_Vector_iterator@V?$_Vector_val@V?$vector@V?$vector@_KV?$allocator@_K@std@@@std@@V?$allocator@V?$vector@_KV?$allocator@_K@std@@@std@@@2@@std@@V?$allocator@V?$vector@V?$vector@_KV?$allocator@_K@std@@@std@@V?$allocator@V?$vector@_KV?$allocator@_K@std@@@std@@@2@@std@@@2@@std@@@2@V?$_Vector_const_iterator@V?$_Vector_val@V?$vector@V?$vector@_KV?$allocator@_K@std@@@std@@V?$allocator@V?$vector@_KV?$allocator@_K@std@@@std@@@2@@std@@V?$allocator@V?$vector@V?$vector@_KV?$allocator@_K@std@@@std@@V?$allocator@V?$vector@_KV?$allocator@_K@std@@@std@@@2@@std@@@2@@std@@@2@0@Z 1003c260 f i ImfTiledInputFile.obj
 0001:0003b2b0       ??0Data@TiledInputFile@Imf@@QAE@_NH@Z 1003c2b0 f   ImfTiledInputFile.obj
 0001:0003b420       ??_EData@TiledInputFile@Imf@@UAEPAXI@Z 1003c420 f i ImfTiledInputFile.obj
 0001:0003b420       ??_GData@TiledInputFile@Imf@@UAEPAXI@Z 1003c420 f i ImfTiledInputFile.obj
 0001:0003b450       ?clear@?$vector@V?$vector@V?$vector@_KV?$allocator@_K@std@@@std@@V?$allocator@V?$vector@_KV?$allocator@_K@std@@@std@@@2@@std@@V?$allocator@V?$vector@V?$vector@_KV?$allocator@_K@std@@@std@@V?$allocator@V?$vector@_KV?$allocator@_K@std@@@std@@@2@@std@@@2@@std@@QAEXXZ 1003c450 f i ImfTiledInputFile.obj
 0001:0003b490       ??4?$vector@V?$vector@V?$vector@_KV?$allocator@_K@std@@@std@@V?$allocator@V?$vector@_KV?$allocator@_K@std@@@std@@@2@@std@@V?$allocator@V?$vector@V?$vector@_KV?$allocator@_K@std@@@std@@V?$allocator@V?$vector@_KV?$allocator@_K@std@@@std@@@2@@std@@@2@@std@@QAEAAV01@ABV01@@Z 1003c490 f i ImfTiledInputFile.obj
 0001:0003b5d0       ??4TileOffsets@Imf@@QAEAAV01@ABV01@@Z 1003c5d0 f i ImfTiledInputFile.obj
 0001:0003b600       ?initialize@TiledInputFile@Imf@@AAEXXZ 1003c600 f   ImfTiledInputFile.obj
 0001:0003b920       ??0TiledInputFile@Imf@@QAE@QBDH@Z 1003c920 f   ImfTiledInputFile.obj
 0001:0003bb10       ??0TiledInputFile@Imf@@QAE@AAVIStream@1@H@Z 1003cb10 f   ImfTiledInputFile.obj
 0001:0003bce0       ??0TiledInputFile@Imf@@AAE@ABVHeader@1@PAVIStream@1@HH@Z 1003cce0 f   ImfTiledInputFile.obj
 0001:0003bd80       ?floorLog2@?A0x893782d4@Imf@@YAHH@Z 1003cd80 f   ImfTiledMisc.obj
 0001:0003bda0       ?ceilLog2@?A0x893782d4@Imf@@YAHH@Z 1003cda0 f   ImfTiledMisc.obj
 0001:0003bdd0       ?roundLog2@?A0x893782d4@Imf@@YAHHW4LevelRoundingMode@2@@Z 1003cdd0 f   ImfTiledMisc.obj
 0001:0003be20       ??H?$Vec2@H@Imath@@QBE?AV01@ABV01@@Z 1003ce20 f i ImfTiledMisc.obj
 0001:0003be40       ?levelSize@Imf@@YAHHHHW4LevelRoundingMode@1@@Z 1003ce40 f   ImfTiledMisc.obj
 0001:0003bed0       ?calculateNumXLevels@?A0x893782d4@Imf@@YAHABVTileDescription@2@HHHH@Z 1003ced0 f   ImfTiledMisc.obj
 0001:0003bf90       ?calculateNumYLevels@?A0x893782d4@Imf@@YAHABVTileDescription@2@HHHH@Z 1003cf90 f   ImfTiledMisc.obj
 0001:0003c050       ?calculateNumTiles@?A0x893782d4@Imf@@YAXPAHHHHHW4LevelRoundingMode@2@@Z 1003d050 f   ImfTiledMisc.obj
 0001:0003c100       ?precalculateTileInfo@Imf@@YAXABVTileDescription@1@HHHHAAPAH1AAH2@Z 1003d100 f   ImfTiledMisc.obj
 0001:0003c1c0       ?dataWindowForLevel@Imf@@YA?AV?$Box@V?$Vec2@H@Imath@@@Imath@@ABVTileDescription@1@HHHHHH@Z 1003d1c0 f   ImfTiledMisc.obj
 0001:0003c220       ?dataWindowForTile@Imf@@YA?AV?$Box@V?$Vec2@H@Imath@@@Imath@@ABVTileDescription@1@HHHHHHHH@Z 1003d220 f   ImfTiledMisc.obj
 0001:0003c2d0       ?calculateBytesPerPixel@Imf@@YAIABVHeader@1@@Z 1003d2d0 f   ImfTiledMisc.obj
 0001:0003c390       ??8TileDescription@Imf@@QBE_NABV01@@Z 1003d390 f i ImfTiledOutputFile.obj
 0001:0003c390       ??8?$Box@V?$Vec2@H@Imath@@@Imath@@QBE_NABV01@@Z 1003d390 f i ImfOutputFile.obj
 0001:0003c3d0       ??0TOutSliceInfo@?A0x39e5c904@Imf@@QAE@W4PixelType@2@PBDII_NHH@Z 1003d3d0 f   ImfTiledOutputFile.obj
 0001:0003c410       ??MTileCoord@?A0x39e5c904@Imf@@QBE_NABU012@@Z 1003d410 f i ImfTiledOutputFile.obj
 0001:0003c460       ??8TileCoord@?A0x39e5c904@Imf@@QBE_NABU012@@Z 1003d460 f i ImfTiledOutputFile.obj
 0001:0003c4a0       ??0BufferedTile@?A0x39e5c904@Imf@@QAE@PBDH@Z 1003d4a0 f i ImfTiledOutputFile.obj
 0001:0003c4e0       ?nextTileCoord@Data@TiledOutputFile@Imf@@QAE?AUTileCoord@?A0x39e5c904@3@ABU453@@Z 1003d4e0 f   ImfTiledOutputFile.obj
 0001:0003c5e0       ??1TileBufferTask@?A0x39e5c904@Imf@@UAE@XZ 1003d5e0 f   ImfTiledOutputFile.obj
 0001:0003c640       ??1TiledOutputFile@Imf@@UAE@XZ 1003d640 f   ImfTiledOutputFile.obj
 0001:0003c700       ?fileName@TiledOutputFile@Imf@@QBEPBDXZ 1003d700 f   ImfTiledOutputFile.obj
 0001:0003c710       ?header@InputFile@Imf@@QBEABVHeader@2@XZ 1003d710 f   ImfInputFile.obj
 0001:0003c710       ?header@OutputFile@Imf@@QBEABVHeader@2@XZ 1003d710 f   ImfOutputFile.obj
 0001:0003c710       ?header@ScanLineInputFile@Imf@@QBEABVHeader@2@XZ 1003d710 f   ImfScanLineInputFile.obj
 0001:0003c710       ?header@TiledInputFile@Imf@@QBEABVHeader@2@XZ 1003d710 f   ImfTiledInputFile.obj
 0001:0003c710       ?header@TiledOutputFile@Imf@@QBEABVHeader@2@XZ 1003d710 f   ImfTiledOutputFile.obj
 0001:0003c720       ?frameBuffer@TiledOutputFile@Imf@@QBEABVFrameBuffer@2@XZ 1003d720 f   ImfTiledOutputFile.obj
 0001:0003c720       ?frameBuffer@TiledInputFile@Imf@@QBEABVFrameBuffer@2@XZ 1003d720 f   ImfTiledInputFile.obj
 0001:0003c740       ?tileYSize@TiledOutputFile@Imf@@QBEIXZ 1003d740 f   ImfTiledOutputFile.obj
 0001:0003c740       ?levelMode@TiledInputFile@Imf@@QBE?AW4LevelMode@2@XZ 1003d740 f   ImfTiledInputFile.obj
 0001:0003c750       ?numXLevels@TiledOutputFile@Imf@@QBEHXZ 1003d750 f   ImfTiledOutputFile.obj
 0001:0003c760       ?numYLevels@TiledOutputFile@Imf@@QBEHXZ 1003d760 f   ImfTiledOutputFile.obj
 0001:0003c770       ?isValidLevel@TiledOutputFile@Imf@@QBE_NHH@Z 1003d770 f   ImfTiledOutputFile.obj
 0001:0003c7b0       ?isValidTile@TiledOutputFile@Imf@@ABE_NHHHH@Z 1003d7b0 f   ImfTiledOutputFile.obj
 0001:0003c800       ?_Color@?$_Tree_val@V?$_Tmap_traits@UTileCoord@?A0x39e5c904@Imf@@PAUBufferedTile@23@U?$less@UTileCoord@?A0x39e5c904@Imf@@@std@@V?$allocator@U?$pair@$$CBUTileCoord@?A0x39e5c904@Imf@@PAUBufferedTile@23@@std@@@6@$0A@@std@@@std@@SAAADPAU_Node@?$_Tree_nod@V?$_Tmap_traits@UTileCoord@?A0x39e5c904@Imf@@PAUBufferedTile@23@U?$less@UTileCoord@?A0x39e5c904@Imf@@@std@@V?$allocator@U?$pair@$$CBUTileCoord@?A0x39e5c904@Imf@@PAUBufferedTile@23@@std@@@6@$0A@@std@@@2@@Z 1003d800 f i ImfTiledOutputFile.obj
 0001:0003c810       ?_Isnil@?$_Tree_val@V?$_Tmap_traits@UTileCoord@?A0x39e5c904@Imf@@PAUBufferedTile@23@U?$less@UTileCoord@?A0x39e5c904@Imf@@@std@@V?$allocator@U?$pair@$$CBUTileCoord@?A0x39e5c904@Imf@@PAUBufferedTile@23@@std@@@6@$0A@@std@@@std@@SAAADPAU_Node@?$_Tree_nod@V?$_Tmap_traits@UTileCoord@?A0x39e5c904@Imf@@PAUBufferedTile@23@U?$less@UTileCoord@?A0x39e5c904@Imf@@@std@@V?$allocator@U?$pair@$$CBUTileCoord@?A0x39e5c904@Imf@@PAUBufferedTile@23@@std@@@6@$0A@@std@@@2@@Z 1003d810 f i ImfTiledOutputFile.obj
 0001:0003c820       ?_Max@?$_Tree_val@V?$_Tmap_traits@UTileCoord@?A0x39e5c904@Imf@@PAUBufferedTile@23@U?$less@UTileCoord@?A0x39e5c904@Imf@@@std@@V?$allocator@U?$pair@$$CBUTileCoord@?A0x39e5c904@Imf@@PAUBufferedTile@23@@std@@@6@$0A@@std@@@std@@SAPAU_Node@?$_Tree_nod@V?$_Tmap_traits@UTileCoord@?A0x39e5c904@Imf@@PAUBufferedTile@23@U?$less@UTileCoord@?A0x39e5c904@Imf@@@std@@V?$allocator@U?$pair@$$CBUTileCoord@?A0x39e5c904@Imf@@PAUBufferedTile@23@@std@@@6@$0A@@std@@@2@PAU342@@Z 1003d820 f i ImfTiledOutputFile.obj
 0001:0003c840       ?_Min@?$_Tree_val@V?$_Tmap_traits@UTileCoord@?A0x39e5c904@Imf@@PAUBufferedTile@23@U?$less@UTileCoord@?A0x39e5c904@Imf@@@std@@V?$allocator@U?$pair@$$CBUTileCoord@?A0x39e5c904@Imf@@PAUBufferedTile@23@@std@@@6@$0A@@std@@@std@@SAPAU_Node@?$_Tree_nod@V?$_Tmap_traits@UTileCoord@?A0x39e5c904@Imf@@PAUBufferedTile@23@U?$less@UTileCoord@?A0x39e5c904@Imf@@@std@@V?$allocator@U?$pair@$$CBUTileCoord@?A0x39e5c904@Imf@@PAUBufferedTile@23@@std@@@6@$0A@@std@@@2@PAU342@@Z 1003d840 f i ImfTiledOutputFile.obj
 0001:0003c860       ??R?$less@UTileCoord@?A0x39e5c904@Imf@@@std@@QBE_NABUTileCoord@?A0x39e5c904@Imf@@0@Z 1003d860 f i ImfTiledOutputFile.obj
 0001:0003c8b0       ??E?$_Tree_unchecked_const_iterator@V?$_Tree_val@V?$_Tmap_traits@UTileCoord@?A0x39e5c904@Imf@@PAUBufferedTile@23@U?$less@UTileCoord@?A0x39e5c904@Imf@@@std@@V?$allocator@U?$pair@$$CBUTileCoord@?A0x39e5c904@Imf@@PAUBufferedTile@23@@std@@@6@$0A@@std@@@std@@U_Iterator_base0@2@@std@@QAEAAV01@XZ 1003d8b0 f i ImfTiledOutputFile.obj
 0001:0003c900       ??0?$_Vector_iterator@V?$_Vector_val@UTOutSliceInfo@?A0x39e5c904@Imf@@V?$allocator@UTOutSliceInfo@?A0x39e5c904@Imf@@@std@@@std@@@std@@QAE@PAUTOutSliceInfo@?A0x39e5c904@Imf@@PBU_Container_base0@1@@Z 1003d900 f i ImfTiledOutputFile.obj
 0001:0003c900       ??0?$_Tree_unchecked_const_iterator@V?$_Tree_val@V?$_Tset_traits@V?$basic_string@DU?$char_traits@D@std@@V?$allocator@D@2@@std@@U?$less@V?$basic_string@DU?$char_traits@D@std@@V?$allocator@D@2@@std@@@2@V?$allocator@V?$basic_string@DU?$char_traits@D@std@@V?$allocator@D@2@@std@@@2@$0A@@std@@@std@@U_Iterator_base0@2@@std@@QAE@PAU_Node@?$_Tree_nod@V?$_Tset_traits@V?$basic_string@DU?$char_traits@D@std@@V?$allocator@D@2@@std@@U?$less@V?$basic_string@DU?$char_traits@D@std@@V?$allocator@D@2@@std@@@2@V?$allocator@V?$basic_string@DU?$char_traits@D@std@@V?$allocator@D@2@@std@@@2@$0A@@std@@@1@PBV?$_Tree_val@V?$_Tset_traits@V?$basic_string@DU?$char_traits@D@std@@V?$allocator@D@2@@std@@U?$less@V?$basic_string@DU?$char_traits@D@std@@V?$allocator@D@2@@std@@@2@V?$allocator@V?$basic_string@DU?$char_traits@D@std@@V?$allocator@D@2@@std@@@2@$0A@@std@@@1@@Z 1003d900 f i ImfChannelList.obj
 0001:0003c900       ??0?$_Vector_const_iterator@V?$_Vector_val@V?$basic_string@DU?$char_traits@D@std@@V?$allocator@D@2@@std@@V?$allocator@V?$basic_string@DU?$char_traits@D@std@@V?$allocator@D@2@@std@@@2@@std@@@std@@QAE@PAV?$basic_string@DU?$char_traits@D@std@@V?$allocator@D@2@@1@PBU_Container_base0@1@@Z 1003d900 f i ImfHeader.obj
 0001:0003c900       ??0?$_Tree_unchecked_const_iterator@V?$_Tree_val@V?$_Tmap_traits@VName@Imf@@PAVAttribute@2@U?$less@VName@Imf@@@std@@V?$allocator@U?$pair@$$CBVName@Imf@@PAVAttribute@2@@std@@@5@$0A@@std@@@std@@U_Iterator_base0@2@@std@@QAE@PAU_Node@?$_Tree_nod@V?$_Tmap_traits@VName@Imf@@PAVAttribute@2@U?$less@VName@Imf@@@std@@V?$allocator@U?$pair@$$CBVName@Imf@@PAVAttribute@2@@std@@@5@$0A@@std@@@1@PBV?$_Tree_val@V?$_Tmap_traits@VName@Imf@@PAVAttribute@2@U?$less@VName@Imf@@@std@@V?$allocator@U?$pair@$$CBVName@Imf@@PAVAttribute@2@@std@@@5@$0A@@std@@@1@@Z 1003d900 f i ImfHeader.obj
 0001:0003c900       ??0?$_Vector_iterator@V?$_Vector_val@V?$vector@_KV?$allocator@_K@std@@@std@@V?$allocator@V?$vector@_KV?$allocator@_K@std@@@std@@@2@@std@@@std@@QAE@PAV?$vector@_KV?$allocator@_K@std@@@1@PBU_Container_base0@1@@Z 1003d900 f i ImfTiledInputFile.obj
