LIBRARY	Iex
EXPORTS
	??0bad_alloc@std@@QAE@PBD@Z
	__CTA7?AVEchildExc@Iex@@
	__TI7?AVEloopExc@Iex@@
	??0EnotsockExc@Iex@@QAE@ABV?$basic_string@DU?$char_traits@D@std@@V?$allocator@D@2@@std@@@Z
	??1EnotdirExc@Iex@@UAE@XZ
	??1bad_alloc@std@@UAE@XZ
	__CTA7?AVEafnosupportExc@Iex@@
	?move@?$char_traits@D@std@@SAPADPADPBDI@Z
	??0EnolinkExc@Iex@@QAE@ABV01@@Z
	??1EnfileExc@Iex@@UAE@XZ
	?setStackTracer@Iex@@YAXP6A?AV?$basic_string@DU?$char_traits@D@std@@V?$allocator@D@2@@std@@XZ@Z
	??0ErangeExc@Iex@@QAE@ABV01@@Z
	??0bad_alloc@std@@QAE@ABV01@@Z
	?length@?$char_traits@D@std@@SAIPBD@Z
	??0?$basic_string@DU?$char_traits@D@std@@V?$allocator@D@2@@std@@QAE@ABV01@@Z
	__TI6?AVErrnoExc@Iex@@
	?stackTracer@Iex@@YAP6A?AV?$basic_string@DU?$char_traits@D@std@@V?$allocator@D@2@@std@@XZXZ
	?copy@?$char_traits@D@std@@SAPADPADPBDI@Z
	??0?$basic_string@DU?$char_traits@D@std@@V?$allocator@D@2@@std@@QAE@PBDI@Z
	??1EbusyExc@Iex@@UAE@XZ
	?assign@?$char_traits@D@std@@SAXAADABD@Z
	?get_allocator@?$basic_string@DU?$char_traits@D@std@@V?$allocator@D@2@@std@@QBE?AV?$allocator@D@2@XZ
	??0EpermExc@Iex@@QAE@ABV?$basic_string@DU?$char_traits@D@std@@V?$allocator@D@2@@std@@@Z
	?floatfield@?$_Iosb@H@std@@2W4_Fmtflags@12@B
	?none@?$_Locbase@H@std@@2HB
	__CTA7?AVEexistExc@Iex@@
	??0EspipeExc@Iex@@QAE@ABV01@@Z
	?size@?$basic_string@DU?$char_traits@D@std@@V?$allocator@D@2@@std@@QBEIXZ
	??0BaseExc@Iex@@QAE@ABV?$basic_string@DU?$char_traits@D@std@@V?$allocator@D@2@@std@@@Z
	__CTA7?AVEnodataExc@Iex@@
	??1?$_String_val@DV?$allocator@D@std@@@std@@QAE@XZ
	??0?$allocator@D@std@@QAE@XZ
	?allocate@?$allocator@D@std@@QAEPADI@Z
	?deallocate@?$allocator@D@std@@QAEXPADI@Z
	?append@?$basic_string@DU?$char_traits@D@std@@V?$allocator@D@2@@std@@QAEAAV12@ABV12@@Z
	??0BaseExc@Iex@@QAE@ABV01@@Z
	??0EnoexecExc@Iex@@QAE@ABV01@@Z
	??1EnoexecExc@Iex@@UAE@XZ
	?c_str@?$basic_string@DU?$char_traits@D@std@@V?$allocator@D@2@@std@@QBEPBDXZ
	?_Xlen@?$basic_string@DU?$char_traits@D@std@@V?$allocator@D@2@@std@@QBEXXZ
	??1EnetunreachExc@Iex@@UAE@XZ
	?assign@?$basic_string@DU?$char_traits@D@std@@V?$allocator@D@2@@std@@QAEAAV12@PBD@Z
	??0EprototypeExc@Iex@@QAE@ABV?$basic_string@DU?$char_traits@D@std@@V?$allocator@D@2@@std@@@Z
	?_Xran@?$basic_string@DU?$char_traits@D@std@@V?$allocator@D@2@@std@@QBEXXZ
	??0EtimeExc@Iex@@QAE@ABV01@@Z
	?max_size@?$allocator@D@std@@QBEIXZ
	??$forward@V?$allocator@D@std@@@std@@YA$$QAV?$allocator@D@0@AAV10@@Z
	??1EnomemExc@Iex@@UAE@XZ
	??$forward@V?$basic_string@DU?$char_traits@D@std@@V?$allocator@D@2@@std@@@std@@YA$$QAV?$basic_string@DU?$char_traits@D@std@@V?$allocator@D@2@@0@AAV10@@Z
	??$_Allocate@D@std@@YAPADIPAD@Z
	??0EfbigExc@Iex@@QAE@ABV01@@Z
	??0EnotdirExc@Iex@@QAE@ABV?$basic_string@DU?$char_traits@D@std@@V?$allocator@D@2@@std@@@Z
	?fixed@?$_Iosb@H@std@@2W4_Fmtflags@12@B
	??$?8DD@std@@YA_NABV?$allocator@D@0@0@Z
	__TI7?AVEnosysExc@Iex@@
	??0?$allocator@D@std@@QAE@ABV01@@Z
	__CTA7?AVEnxioExc@Iex@@
	??0?$_String_val@DV?$allocator@D@std@@@std@@QAE@V?$allocator@D@1@@Z
	?value@?$integral_constant@I$0A@@tr1@std@@2IB
	__CTA7?AVEnoexecExc@Iex@@
	??0?$basic_string@DU?$char_traits@D@std@@V?$allocator@D@2@@std@@QAE@XZ
	??0EdomExc@Iex@@QAE@ABV?$basic_string@DU?$char_traits@D@std@@V?$allocator@D@2@@std@@@Z
	??0EilseqExc@Iex@@QAE@ABV01@@Z
	?_Eos@?$basic_string@DU?$char_traits@D@std@@V?$allocator@D@2@@std@@QAEXI@Z
	?all@?$_Locbase@H@std@@2HB
	?erase@?$basic_string@DU?$char_traits@D@std@@V?$allocator@D@2@@std@@QAEAAV12@II@Z
	?_Inside@?$basic_string@DU?$char_traits@D@std@@V?$allocator@D@2@@std@@QAE_NPBD@Z
	??$?9DD@std@@YA_NABV?$allocator@D@0@0@Z
	?showpoint@?$_Iosb@H@std@@2W4_Fmtflags@12@B
	?_Grow@?$basic_string@DU?$char_traits@D@std@@V?$allocator@D@2@@std@@QAE_NI_N@Z
	?max_size@?$basic_string@DU?$char_traits@D@std@@V?$allocator@D@2@@std@@QBEIXZ
	?what@BaseExc@Iex@@UBEPBDXZ
	?_Tidy@?$basic_string@DU?$char_traits@D@std@@V?$allocator@D@2@@std@@QAEX_NI@Z
	?append@?$basic_string@DU?$char_traits@D@std@@V?$allocator@D@2@@std@@QAEAAV12@ABV12@II@Z
	??0EopnotsuppExc@Iex@@QAE@ABV?$basic_string@DU?$char_traits@D@std@@V?$allocator@D@2@@std@@@Z
	?assign@?$basic_string@DU?$char_traits@D@std@@V?$allocator@D@2@@std@@QAEAAV12@$$QAV12@@Z
	??0EnoentExc@Iex@@QAE@ABV?$basic_string@DU?$char_traits@D@std@@V?$allocator@D@2@@std@@@Z
	__CTA7?AVEnospcExc@Iex@@
	?_Copy@?$basic_string@DU?$char_traits@D@std@@V?$allocator@D@2@@std@@QAEXII@Z
	?cur@?$_Iosb@H@std@@2W4_Seekdir@12@B
	?append@BaseExc@Iex@@QAEAAV12@AAV?$basic_stringstream@DU?$char_traits@D@std@@V?$allocator@D@2@@std@@@Z
	??1EloopExc@Iex@@UAE@XZ
	?compare@?$char_traits@D@std@@SAHPBD0I@Z
	??0EoverflowExc@Iex@@QAE@ABV01@@Z
	??1?$basic_string@DU?$char_traits@D@std@@V?$allocator@D@2@@std@@QAE@XZ
	??1BaseExc@Iex@@UAE@XZ
	__CTA7?AVErangeExc@Iex@@
	__TI7?AVEnetunreachExc@Iex@@
	?assign@?$basic_string@DU?$char_traits@D@std@@V?$allocator@D@2@@std@@QAEAAV12@ABV12@II@Z
	?hex@?$_Iosb@H@std@@2W4_Fmtflags@12@B
	?assign@?$basic_string@DU?$char_traits@D@std@@V?$allocator@D@2@@std@@QAEAAV12@PBDI@Z
	__CTA7?AVEnolinkExc@Iex@@
	__TI7?AVEnottyExc@Iex@@
	??4?$basic_string@DU?$char_traits@D@std@@V?$allocator@D@2@@std@@QAEAAV01@ABV01@@Z
	??1EdeadlkExc@Iex@@UAE@XZ
	?assign@?$basic_string@DU?$char_traits@D@std@@V?$allocator@D@2@@std@@QAEAAV12@ABV12@@Z
	__CTA7?AVEloopExc@Iex@@
	??0?$basic_string@DU?$char_traits@D@std@@V?$allocator@D@2@@std@@QAE@PBD@Z
	?beg@?$_Iosb@H@std@@2W4_Seekdir@12@B
	??0?$basic_string@DU?$char_traits@D@std@@V?$allocator@D@2@@std@@QAE@$$QAV01@@Z
	??1EprototypeExc@Iex@@UAE@XZ
	?str@?$basic_stringbuf@DU?$char_traits@D@std@@V?$allocator@D@2@@std@@QBE?AV?$basic_string@DU?$char_traits@D@std@@V?$allocator@D@2@@2@XZ
	??0BaseExc@Iex@@QAE@PBD@Z
	__CTA7?AVEspipeExc@Iex@@
	__TI2?AVbad_alloc@std@@
	?str@?$basic_stringstream@DU?$char_traits@D@std@@V?$allocator@D@2@@std@@QBE?AV?$basic_string@DU?$char_traits@D@std@@V?$allocator@D@2@@2@XZ
	??0BaseExc@Iex@@QAE@AAV?$basic_stringstream@DU?$char_traits@D@std@@V?$allocator@D@2@@std@@@Z
	??0EconnabortedExc@Iex@@QAE@ABV?$basic_string@DU?$char_traits@D@std@@V?$allocator@D@2@@std@@@Z
	??0EnotsupExc@Iex@@QAE@ABV01@@Z
	__TI7?AVEinprogressExc@Iex@@
	??1EaccesExc@Iex@@UAE@XZ
	?assign@BaseExc@Iex@@QAEAAV12@AAV?$basic_stringstream@DU?$char_traits@D@std@@V?$allocator@D@2@@std@@@Z
	?find@?$char_traits@D@std@@SAPBDPBDIABD@Z
	??0ErrnoExc@Iex@@QAE@ABV?$basic_string@DU?$char_traits@D@std@@V?$allocator@D@2@@std@@@Z
	__CTA7?AVEcanceledExc@Iex@@
	??0EsrchExc@Iex@@QAE@ABV?$basic_string@DU?$char_traits@D@std@@V?$allocator@D@2@@std@@@Z
	??0EintrExc@Iex@@QAE@ABV?$basic_string@DU?$char_traits@D@std@@V?$allocator@D@2@@std@@@Z
	??0EmsgsizeExc@Iex@@QAE@ABV01@@Z
	?trunc@?$_Iosb@H@std@@2W4_Openmode@12@B
	__CTA7?AVEopnotsuppExc@Iex@@
	__TI7?AVEintrExc@Iex@@
	??0EioExc@Iex@@QAE@ABV?$basic_string@DU?$char_traits@D@std@@V?$allocator@D@2@@std@@@Z
	??1EidrmExc@Iex@@UAE@XZ
	__CTA7?AVEtimedoutExc@Iex@@
	__TI7?AVEnodataExc@Iex@@
	??0EnxioExc@Iex@@QAE@ABV?$basic_string@DU?$char_traits@D@std@@V?$allocator@D@2@@std@@@Z
	__TI7?AVEdomExc@Iex@@
	??0E2bigExc@Iex@@QAE@ABV?$basic_string@DU?$char_traits@D@std@@V?$allocator@D@2@@std@@@Z
	??0EcanceledExc@Iex@@QAE@ABV01@@Z
	??0EnoexecExc@Iex@@QAE@ABV?$basic_string@DU?$char_traits@D@std@@V?$allocator@D@2@@std@@@Z
	??0EbadfExc@Iex@@QAE@ABV?$basic_string@DU?$char_traits@D@std@@V?$allocator@D@2@@std@@@Z
	??1EnospcExc@Iex@@UAE@XZ
	??0EchildExc@Iex@@QAE@ABV?$basic_string@DU?$char_traits@D@std@@V?$allocator@D@2@@std@@@Z
	??0EagainExc@Iex@@QAE@ABV?$basic_string@DU?$char_traits@D@std@@V?$allocator@D@2@@std@@@Z
	__TI7?AVEnosrExc@Iex@@
	??0EnomemExc@Iex@@QAE@ABV?$basic_string@DU?$char_traits@D@std@@V?$allocator@D@2@@std@@@Z
	??0EaccesExc@Iex@@QAE@ABV?$basic_string@DU?$char_traits@D@std@@V?$allocator@D@2@@std@@@Z
	??0EfaultExc@Iex@@QAE@ABV?$basic_string@DU?$char_traits@D@std@@V?$allocator@D@2@@std@@@Z
	??1EdomExc@Iex@@UAE@XZ
	??1EioExc@Iex@@UAE@XZ
	__TI7?AVEnolinkExc@Iex@@
	??0EbusyExc@Iex@@QAE@ABV?$basic_string@DU?$char_traits@D@std@@V?$allocator@D@2@@std@@@Z
	__TI7?AVEnetresetExc@Iex@@
	??0EdestaddrreqExc@Iex@@QAE@ABV?$basic_string@DU?$char_traits@D@std@@V?$allocator@D@2@@std@@@Z
	??0EexistExc@Iex@@QAE@ABV?$basic_string@DU?$char_traits@D@std@@V?$allocator@D@2@@std@@@Z
	??0ExdevExc@Iex@@QAE@ABV?$basic_string@DU?$char_traits@D@std@@V?$allocator@D@2@@std@@@Z
	??0EnodevExc@Iex@@QAE@ABV?$basic_string@DU?$char_traits@D@std@@V?$allocator@D@2@@std@@@Z
	??0EisdirExc@Iex@@QAE@ABV?$basic_string@DU?$char_traits@D@std@@V?$allocator@D@2@@std@@@Z
	??0EinvalExc@Iex@@QAE@ABV?$basic_string@DU?$char_traits@D@std@@V?$allocator@D@2@@std@@@Z
	??0EnomemExc@Iex@@QAE@ABV01@@Z
	__TI7?AVEnametoolongExc@Iex@@
	__TI7?AVEnospcExc@Iex@@
	??0EnfileExc@Iex@@QAE@ABV?$basic_string@DU?$char_traits@D@std@@V?$allocator@D@2@@std@@@Z
	??0EmfileExc@Iex@@QAE@ABV?$basic_string@DU?$char_traits@D@std@@V?$allocator@D@2@@std@@@Z
	__TI7?AVEtimedoutExc@Iex@@
	??0EnottyExc@Iex@@QAE@ABV?$basic_string@DU?$char_traits@D@std@@V?$allocator@D@2@@std@@@Z
	??0EaddrnotavailExc@Iex@@QAE@ABV01@@Z
	??0EtxtbsyExc@Iex@@QAE@ABV?$basic_string@DU?$char_traits@D@std@@V?$allocator@D@2@@std@@@Z
	??0EfbigExc@Iex@@QAE@ABV?$basic_string@DU?$char_traits@D@std@@V?$allocator@D@2@@std@@@Z
	??1EnotsockExc@Iex@@UAE@XZ
	??0EnospcExc@Iex@@QAE@ABV?$basic_string@DU?$char_traits@D@std@@V?$allocator@D@2@@std@@@Z
	??0EnosysExc@Iex@@QAE@ABV01@@Z
	??0EspipeExc@Iex@@QAE@ABV?$basic_string@DU?$char_traits@D@std@@V?$allocator@D@2@@std@@@Z
	??0ErofsExc@Iex@@QAE@ABV?$basic_string@DU?$char_traits@D@std@@V?$allocator@D@2@@std@@@Z
	__TI7?AVEmsgsizeExc@Iex@@
	??0EmlinkExc@Iex@@QAE@ABV?$basic_string@DU?$char_traits@D@std@@V?$allocator@D@2@@std@@@Z
	__TI7?AVEmlinkExc@Iex@@
	??0EpipeExc@Iex@@QAE@ABV?$basic_string@DU?$char_traits@D@std@@V?$allocator@D@2@@std@@@Z
	??0ErangeExc@Iex@@QAE@ABV?$basic_string@DU?$char_traits@D@std@@V?$allocator@D@2@@std@@@Z
	??1EfbigExc@Iex@@UAE@XZ
	??0EnomsgExc@Iex@@QAE@ABV?$basic_string@DU?$char_traits@D@std@@V?$allocator@D@2@@std@@@Z
	??0EidrmExc@Iex@@QAE@ABV?$basic_string@DU?$char_traits@D@std@@V?$allocator@D@2@@std@@@Z
	??0EdeadlkExc@Iex@@QAE@ABV?$basic_string@DU?$char_traits@D@std@@V?$allocator@D@2@@std@@@Z
	__CTA7?AVEsrchExc@Iex@@
	??0EnolckExc@Iex@@QAE@ABV?$basic_string@DU?$char_traits@D@std@@V?$allocator@D@2@@std@@@Z
	??0EnostrExc@Iex@@QAE@ABV?$basic_string@DU?$char_traits@D@std@@V?$allocator@D@2@@std@@@Z
	__TI7?AVExdevExc@Iex@@
	??0EaddrinuseExc@Iex@@QAE@ABV?$basic_string@DU?$char_traits@D@std@@V?$allocator@D@2@@std@@@Z
	??0EnodataExc@Iex@@QAE@ABV?$basic_string@DU?$char_traits@D@std@@V?$allocator@D@2@@std@@@Z
	??0EtimeExc@Iex@@QAE@ABV?$basic_string@DU?$char_traits@D@std@@V?$allocator@D@2@@std@@@Z
	?_Rank@?$_Arithmetic_traits@_N@std@@2HB
	??1EisdirExc@Iex@@UAE@XZ
	??1EnomsgExc@Iex@@UAE@XZ
	??0EnetdownExc@Iex@@QAE@ABV01@@Z
	??1EagainExc@Iex@@UAE@XZ
	??1EtimeExc@Iex@@UAE@XZ
	?_Rank@?$_Arithmetic_traits@O@std@@2HB
	__TI7?AVEnoentExc@Iex@@
	??1EcanceledExc@Iex@@UAE@XZ
	__TI7?AVEbadfExc@Iex@@
	??0EopnotsuppExc@Iex@@QAE@ABV01@@Z
	??1EpipeExc@Iex@@UAE@XZ
	??1EintrExc@Iex@@UAE@XZ
	??1EnotsupExc@Iex@@UAE@XZ
	??1EafnosupportExc@Iex@@UAE@XZ
	??1EnostrExc@Iex@@UAE@XZ
	??1EprotonosupportExc@Iex@@UAE@XZ
	??0EnetunreachExc@Iex@@QAE@ABV01@@Z
	??1EconnabortedExc@Iex@@UAE@XZ
	??1EnosrExc@Iex@@UAE@XZ
	?replace@?$basic_string@DU?$char_traits@D@std@@V?$allocator@D@2@@std@@QAEAAV12@IIABV12@II@Z
	??0EalreadyExc@Iex@@QAE@ABV?$basic_string@DU?$char_traits@D@std@@V?$allocator@D@2@@std@@@Z
	??1EmlinkExc@Iex@@UAE@XZ
	??1EconnrefusedExc@Iex@@UAE@XZ
	??1EsrchExc@Iex@@UAE@XZ
	??1EexistExc@Iex@@UAE@XZ
	__TI7?AVEnotsockExc@Iex@@
	??1EinprogressExc@Iex@@UAE@XZ
	??1EprotoExc@Iex@@UAE@XZ
	??1EnxioExc@Iex@@UAE@XZ
	??0?$_String_val@DV?$allocator@D@std@@@std@@QAE@ABV01@@Z
	??1ErofsExc@Iex@@UAE@XZ
	??1EfaultExc@Iex@@UAE@XZ
	??0EioExc@Iex@@QAE@ABV01@@Z
	??1EnobufsExc@Iex@@UAE@XZ
	??1EinvalExc@Iex@@UAE@XZ
	?badbit@?$_Iosb@H@std@@2W4_Iostate@12@B
	??0EconnabortedExc@Iex@@QAE@ABV01@@Z
	??1EnodataExc@Iex@@UAE@XZ
	??1ExdevExc@Iex@@UAE@XZ
	?_Rank@?$_Arithmetic_traits@I@std@@2HB
	??0EconnrefusedExc@Iex@@QAE@ABV?$basic_string@DU?$char_traits@D@std@@V?$allocator@D@2@@std@@@Z
	??1EnolinkExc@Iex@@UAE@XZ
	?_Rank@?$_Arithmetic_traits@_J@std@@2HB
	??1ErangeExc@Iex@@UAE@XZ
	??1EnetresetExc@Iex@@UAE@XZ
	??1EnotconnExc@Iex@@UAE@XZ
	__CTA7?AVEnoentExc@Iex@@
	??1EnottyExc@Iex@@UAE@XZ
	??0EagainExc@Iex@@QAE@ABV01@@Z
	??1EnoprotooptExc@Iex@@UAE@XZ
	??1EopnotsuppExc@Iex@@UAE@XZ
	?internal@?$_Iosb@H@std@@2W4_Fmtflags@12@B
	__TI7?AVEaccesExc@Iex@@
	??1EoverflowExc@Iex@@UAE@XZ
	??1ErrnoExc@Iex@@UAE@XZ
	?_Noreplace@?$_Iosb@H@std@@2W4_Openmode@12@B
	??1EchildExc@Iex@@UAE@XZ
	??1EalreadyExc@Iex@@UAE@XZ
	__CTA7?AVEisconnExc@Iex@@
	??1EpermExc@Iex@@UAE@XZ
	__CTA7?AVEagainExc@Iex@@
	__CTA7?AVEbadmsgExc@Iex@@
	??0EaddrnotavailExc@Iex@@QAE@ABV?$basic_string@DU?$char_traits@D@std@@V?$allocator@D@2@@std@@@Z
	??1EconnresetExc@Iex@@UAE@XZ
	??1EnametoolongExc@Iex@@UAE@XZ
	??0EnolckExc@Iex@@QAE@ABV01@@Z
	??1EbadmsgExc@Iex@@UAE@XZ
	??1EtimedoutExc@Iex@@UAE@XZ
	?goodbit@?$_Iosb@H@std@@2W4_Iostate@12@B
	??1EaddrinuseExc@Iex@@UAE@XZ
	??1E2bigExc@Iex@@UAE@XZ
	__TI7?AVEpipeExc@Iex@@
	??1EhostunreachExc@Iex@@UAE@XZ
	??1EnolckExc@Iex@@UAE@XZ
	??0EnotemptyExc@Iex@@QAE@ABV01@@Z
	??1EaddrnotavailExc@Iex@@UAE@XZ
	??1EmsgsizeExc@Iex@@UAE@XZ
	??1EbadfExc@Iex@@UAE@XZ
	??1EspipeExc@Iex@@UAE@XZ
	??0EloopExc@Iex@@QAE@ABV01@@Z
	??1EdestaddrreqExc@Iex@@UAE@XZ
	??1EnetdownExc@Iex@@UAE@XZ
	??1EnoentExc@Iex@@UAE@XZ
	?adjustfield@?$_Iosb@H@std@@2W4_Fmtflags@12@B
	??0EhostunreachExc@Iex@@QAE@ABV01@@Z
	??1EilseqExc@Iex@@UAE@XZ
	__TI7?AVEmfileExc@Iex@@
	??1EnotemptyExc@Iex@@UAE@XZ
	??0EnomsgExc@Iex@@QAE@ABV01@@Z
	??1EtxtbsyExc@Iex@@UAE@XZ
	?_Rank@?$_Arithmetic_traits@M@std@@2HB
	??1EnosysExc@Iex@@UAE@XZ
	??1EisconnExc@Iex@@UAE@XZ
	??0EloopExc@Iex@@QAE@ABV?$basic_string@DU?$char_traits@D@std@@V?$allocator@D@2@@std@@@Z
	??1EmfileExc@Iex@@UAE@XZ
	?out@?$_Iosb@H@std@@2W4_Openmode@12@B
	__TI7?AVEagainExc@Iex@@
	??1EnodevExc@Iex@@UAE@XZ
	??0EnosrExc@Iex@@QAE@ABV?$basic_string@DU?$char_traits@D@std@@V?$allocator@D@2@@std@@@Z
	??0EconnresetExc@Iex@@QAE@ABV01@@Z
	??0EnolinkExc@Iex@@QAE@ABV?$basic_string@DU?$char_traits@D@std@@V?$allocator@D@2@@std@@@Z
	??0EnostrExc@Iex@@QAE@ABV01@@Z
	??0EprotoExc@Iex@@QAE@ABV?$basic_string@DU?$char_traits@D@std@@V?$allocator@D@2@@std@@@Z
	??0EbadmsgExc@Iex@@QAE@ABV?$basic_string@DU?$char_traits@D@std@@V?$allocator@D@2@@std@@@Z
	??0EmsgsizeExc@Iex@@QAE@ABV?$basic_string@DU?$char_traits@D@std@@V?$allocator@D@2@@std@@@Z
	??0EnametoolongExc@Iex@@QAE@ABV?$basic_string@DU?$char_traits@D@std@@V?$allocator@D@2@@std@@@Z
	?_Rank@?$_Arithmetic_traits@F@std@@2HB
	?boolalpha@?$_Iosb@H@std@@2W4_Fmtflags@12@B
	??0EoverflowExc@Iex@@QAE@ABV?$basic_string@DU?$char_traits@D@std@@V?$allocator@D@2@@std@@@Z
	__TI7?AVEhostunreachExc@Iex@@
	__TI7?AVEspipeExc@Iex@@
	??0EilseqExc@Iex@@QAE@ABV?$basic_string@DU?$char_traits@D@std@@V?$allocator@D@2@@std@@@Z
	__CTA7?AVEilseqExc@Iex@@
	??0EnosysExc@Iex@@QAE@ABV?$basic_string@DU?$char_traits@D@std@@V?$allocator@D@2@@std@@@Z
	??0EnotemptyExc@Iex@@QAE@ABV?$basic_string@DU?$char_traits@D@std@@V?$allocator@D@2@@std@@@Z
	??0EnoprotooptExc@Iex@@QAE@ABV?$basic_string@DU?$char_traits@D@std@@V?$allocator@D@2@@std@@@Z
	??0EprotonosupportExc@Iex@@QAE@ABV?$basic_string@DU?$char_traits@D@std@@V?$allocator@D@2@@std@@@Z
	__TI7?AVEnolckExc@Iex@@
	??0EafnosupportExc@Iex@@QAE@ABV?$basic_string@DU?$char_traits@D@std@@V?$allocator@D@2@@std@@@Z
	__CTA7?AVEnosrExc@Iex@@
	??0EnetdownExc@Iex@@QAE@ABV?$basic_string@DU?$char_traits@D@std@@V?$allocator@D@2@@std@@@Z
	??0EnetunreachExc@Iex@@QAE@ABV?$basic_string@DU?$char_traits@D@std@@V?$allocator@D@2@@std@@@Z
	?showbase@?$_Iosb@H@std@@2W4_Fmtflags@12@B
	__TI7?AVEfaultExc@Iex@@
	??0EnetresetExc@Iex@@QAE@ABV?$basic_string@DU?$char_traits@D@std@@V?$allocator@D@2@@std@@@Z
	??0EconnresetExc@Iex@@QAE@ABV?$basic_string@DU?$char_traits@D@std@@V?$allocator@D@2@@std@@@Z
	??0EnobufsExc@Iex@@QAE@ABV?$basic_string@DU?$char_traits@D@std@@V?$allocator@D@2@@std@@@Z
	??0EisconnExc@Iex@@QAE@ABV?$basic_string@DU?$char_traits@D@std@@V?$allocator@D@2@@std@@@Z
	__CTA7?AVEioExc@Iex@@
	??0EnotconnExc@Iex@@QAE@ABV?$basic_string@DU?$char_traits@D@std@@V?$allocator@D@2@@std@@@Z
	??0EpipeExc@Iex@@QAE@ABV01@@Z
	??0EtimedoutExc@Iex@@QAE@ABV?$basic_string@DU?$char_traits@D@std@@V?$allocator@D@2@@std@@@Z
	??0EhostunreachExc@Iex@@QAE@ABV?$basic_string@DU?$char_traits@D@std@@V?$allocator@D@2@@std@@@Z
	??0EinprogressExc@Iex@@QAE@ABV?$basic_string@DU?$char_traits@D@std@@V?$allocator@D@2@@std@@@Z
	??0EcanceledExc@Iex@@QAE@ABV?$basic_string@DU?$char_traits@D@std@@V?$allocator@D@2@@std@@@Z
	??0EnotsupExc@Iex@@QAE@ABV?$basic_string@DU?$char_traits@D@std@@V?$allocator@D@2@@std@@@Z
	?find@?$basic_string@DU?$char_traits@D@std@@V?$allocator@D@2@@std@@QBEIPBDII@Z
	??0EnotdirExc@Iex@@QAE@ABV01@@Z
	?find@?$basic_string@DU?$char_traits@D@std@@V?$allocator@D@2@@std@@QBEIPBDI@Z
	?_Rank@?$_Arithmetic_traits@E@std@@2HB
	?replace@?$basic_string@DU?$char_traits@D@std@@V?$allocator@D@2@@std@@QAEAAV12@IIPBDI@Z
	?throwErrnoExc@Iex@@YAXABV?$basic_string@DU?$char_traits@D@std@@V?$allocator@D@2@@std@@H@Z
	??0ErrnoExc@Iex@@QAE@ABV01@@Z
	?_Rank@?$_Arithmetic_traits@N@std@@2HB
	__CTA7?AVEnotsupExc@Iex@@
	??0EnoentExc@Iex@@QAE@ABV01@@Z
	??0EmfileExc@Iex@@QAE@ABV01@@Z
	??0EnottyExc@Iex@@QAE@ABV01@@Z
	??0EsrchExc@Iex@@QAE@ABV01@@Z
	??0EintrExc@Iex@@QAE@ABV01@@Z
	??0EnxioExc@Iex@@QAE@ABV01@@Z
	??0E2bigExc@Iex@@QAE@ABV01@@Z
	??0EinvalExc@Iex@@QAE@ABV01@@Z
	__TI7?AVEaddrinuseExc@Iex@@
	__TI7?AVEchildExc@Iex@@
	??0EbadfExc@Iex@@QAE@ABV01@@Z
	??0EnodataExc@Iex@@QAE@ABV01@@Z
	??0EchildExc@Iex@@QAE@ABV01@@Z
	__TI7?AVEfbigExc@Iex@@
	??0EaccesExc@Iex@@QAE@ABV01@@Z
	??0EfaultExc@Iex@@QAE@ABV01@@Z
	??0EbusyExc@Iex@@QAE@ABV01@@Z
	?_Rank@?$_Arithmetic_traits@G@std@@2HB
	??0EexistExc@Iex@@QAE@ABV01@@Z
	??0ExdevExc@Iex@@QAE@ABV01@@Z
	??0EnodevExc@Iex@@QAE@ABV01@@Z
	??0ErofsExc@Iex@@QAE@ABV01@@Z
	??0EisdirExc@Iex@@QAE@ABV01@@Z
	??0EnfileExc@Iex@@QAE@ABV01@@Z
	__CTA7?AVEinvalExc@Iex@@
	??0EtxtbsyExc@Iex@@QAE@ABV01@@Z
	??0EnospcExc@Iex@@QAE@ABV01@@Z
	??0EmlinkExc@Iex@@QAE@ABV01@@Z
	??0EdomExc@Iex@@QAE@ABV01@@Z
	??0EidrmExc@Iex@@QAE@ABV01@@Z
	?app@?$_Iosb@H@std@@2W4_Openmode@12@B
	??0EdeadlkExc@Iex@@QAE@ABV01@@Z
	??0EnosrExc@Iex@@QAE@ABV01@@Z
	__CTA7?AVEmfileExc@Iex@@
	??0EprotoExc@Iex@@QAE@ABV01@@Z
	__TI7?AVEbusyExc@Iex@@
	??0EbadmsgExc@Iex@@QAE@ABV01@@Z
	??0EnametoolongExc@Iex@@QAE@ABV01@@Z
	??0EnotsockExc@Iex@@QAE@ABV01@@Z
	??0EdestaddrreqExc@Iex@@QAE@ABV01@@Z
	__CTA7?AVEnobufsExc@Iex@@
	??0EprototypeExc@Iex@@QAE@ABV01@@Z
	__CTA7?AVEisdirExc@Iex@@
	??0EnoprotooptExc@Iex@@QAE@ABV01@@Z
	??0EprotonosupportExc@Iex@@QAE@ABV01@@Z
	??0EafnosupportExc@Iex@@QAE@ABV01@@Z
	??0EaddrinuseExc@Iex@@QAE@ABV01@@Z
	__TI7?AVEnodevExc@Iex@@
	??0EnetresetExc@Iex@@QAE@ABV01@@Z
	??0EnobufsExc@Iex@@QAE@ABV01@@Z
	??0EisconnExc@Iex@@QAE@ABV01@@Z
	__TI7?AVEisdirExc@Iex@@
	??0EnotconnExc@Iex@@QAE@ABV01@@Z
	??0EtimedoutExc@Iex@@QAE@ABV01@@Z
	__CTA7?AVEprotonosupportExc@Iex@@
	??0EconnrefusedExc@Iex@@QAE@ABV01@@Z
	??0EalreadyExc@Iex@@QAE@ABV01@@Z
	??0EinprogressExc@Iex@@QAE@ABV01@@Z
	??0EpermExc@Iex@@QAE@ABV01@@Z
	?throwErrnoExc@Iex@@YAXABV?$basic_string@DU?$char_traits@D@std@@V?$allocator@D@2@@std@@@Z
	?value@?$integral_constant@_N$00@tr1@std@@2_NB
	__TI7?AVEprotoExc@Iex@@
	?unitbuf@?$_Iosb@H@std@@2W4_Fmtflags@12@B
	?failbit@?$_Iosb@H@std@@2W4_Iostate@12@B
	?ctype@?$_Locbase@H@std@@2HB
	?_Rank@?$_Arithmetic_traits@C@std@@2HB
	?end@?$_Iosb@H@std@@2W4_Seekdir@12@B
	?_Rank@?$_Arithmetic_traits@D@std@@2HB
	?_Rank@?$_Arithmetic_traits@K@std@@2HB
	?_Rank@?$_Arithmetic_traits@_K@std@@2HB
	?_Rank@?$_Arithmetic_traits@J@std@@2HB
	?skipws@?$_Iosb@H@std@@2W4_Fmtflags@12@B
	?eofbit@?$_Iosb@H@std@@2W4_Iostate@12@B
	?in@?$_Iosb@H@std@@2W4_Openmode@12@B
	?collate@?$_Locbase@H@std@@2HB
	?uppercase@?$_Iosb@H@std@@2W4_Fmtflags@12@B
	?monetary@?$_Locbase@H@std@@2HB
	?_Rank@?$_Arithmetic_traits@H@std@@2HB
	__TI7?AVEisconnExc@Iex@@
	?ate@?$_Iosb@H@std@@2W4_Openmode@12@B
	__TI7?AVEcanceledExc@Iex@@
	?numeric@?$_Locbase@H@std@@2HB
	?binary@?$_Iosb@H@std@@2W4_Openmode@12@B
	__TI7?AVEsrchExc@Iex@@
	?showpos@?$_Iosb@H@std@@2W4_Fmtflags@12@B
	?messages@?$_Locbase@H@std@@2HB
	__CTA7?AVEnomsgExc@Iex@@
	?left@?$_Iosb@H@std@@2W4_Fmtflags@12@B
	?_Nocreate@?$_Iosb@H@std@@2W4_Openmode@12@B
	?dec@?$_Iosb@H@std@@2W4_Fmtflags@12@B
	?oct@?$_Iosb@H@std@@2W4_Fmtflags@12@B
	?scientific@?$_Iosb@H@std@@2W4_Fmtflags@12@B
	?hexfloat@?$_Iosb@H@std@@2W4_Fmtflags@12@B
	__CTA7?AVEpermExc@Iex@@
	?_Stdio@?$_Iosb@H@std@@2W4_Fmtflags@12@B
	__TI7?AVEnfileExc@Iex@@
	?basefield@?$_Iosb@H@std@@2W4_Fmtflags@12@B
	?_Hardfail@?$_Iosb@H@std@@2W4_Iostate@12@B
	?time@?$_Locbase@H@std@@2HB
	?right@?$_Iosb@H@std@@2W4_Fmtflags@12@B
	?value@?$integral_constant@_N$0A@@tr1@std@@2_NB
	__CTA2?AVbad_alloc@std@@
	__CTA7?AVEnfileExc@Iex@@
	__TI7?AVEnotsupExc@Iex@@
	__CTA7?AVEnottyExc@Iex@@
	__TI7?AVEalreadyExc@Iex@@
	__TI7?AVEconnrefusedExc@Iex@@
	__TI7?AVEnotconnExc@Iex@@
	__TI7?AVEnobufsExc@Iex@@
	__TI7?AVEconnresetExc@Iex@@
	__TI7?AVEconnabortedExc@Iex@@
	__TI7?AVEnetdownExc@Iex@@
	__TI7?AVEaddrnotavailExc@Iex@@
	__TI7?AVEafnosupportExc@Iex@@
	__TI7?AVEopnotsuppExc@Iex@@
	__TI7?AVEprotonosupportExc@Iex@@
	__CTA7?AVEprotoExc@Iex@@
	__TI7?AVEnoprotooptExc@Iex@@
	__TI7?AVEprototypeExc@Iex@@
	__TI7?AVEdestaddrreqExc@Iex@@
	__TI7?AVEnotemptyExc@Iex@@
	__TI7?AVEilseqExc@Iex@@
	__TI7?AVEoverflowExc@Iex@@
	__TI7?AVEbadmsgExc@Iex@@
	__TI7?AVEtimeExc@Iex@@
	__TI7?AVEnostrExc@Iex@@
	__TI7?AVEdeadlkExc@Iex@@
	__TI7?AVEidrmExc@Iex@@
	__CTA7?AVEpipeExc@Iex@@
	__TI7?AVEnomsgExc@Iex@@
	__TI7?AVErangeExc@Iex@@
	__TI7?AVErofsExc@Iex@@
	__TI7?AVEtxtbsyExc@Iex@@
	__CTA7?AVEaddrinuseExc@Iex@@
	__TI7?AVEinvalExc@Iex@@
	__TI7?AVEnotdirExc@Iex@@
	__TI7?AVEexistExc@Iex@@
	__CTA7?AVEnotemptyExc@Iex@@
	__CTA7?AVExdevExc@Iex@@
	__TI7?AVEnomemExc@Iex@@
	__TI7?AVEnoexecExc@Iex@@
	__TI7?AVE2bigExc@Iex@@
	__TI7?AVEnxioExc@Iex@@
	__TI7?AVEioExc@Iex@@
	__TI7?AVEpermExc@Iex@@
	__CTA7?AVEintrExc@Iex@@
	__CTA7?AVEprototypeExc@Iex@@
	__CTA7?AVE2bigExc@Iex@@
	__CTA7?AVEbadfExc@Iex@@
	__CTA7?AVEnomemExc@Iex@@
	__CTA7?AVEaccesExc@Iex@@
	__CTA7?AVEmsgsizeExc@Iex@@
	__CTA7?AVEfaultExc@Iex@@
	__CTA7?AVEbusyExc@Iex@@
	__CTA7?AVEnotdirExc@Iex@@
	__CTA7?AVEnodevExc@Iex@@
	__CTA7?AVEtxtbsyExc@Iex@@
	__CTA7?AVEfbigExc@Iex@@
	__CTA7?AVEnolckExc@Iex@@
	__CTA7?AVErofsExc@Iex@@
	__CTA7?AVEmlinkExc@Iex@@
	__CTA7?AVEdomExc@Iex@@
	__CTA7?AVEidrmExc@Iex@@
	__CTA7?AVEdeadlkExc@Iex@@
	__CTA7?AVEnostrExc@Iex@@
	__CTA7?AVEtimeExc@Iex@@
	__CTA7?AVEnametoolongExc@Iex@@
	__CTA7?AVEoverflowExc@Iex@@
	__CTA7?AVEnosysExc@Iex@@
	__CTA7?AVEnotsockExc@Iex@@
	__CTA7?AVEdestaddrreqExc@Iex@@
	__CTA7?AVEconnresetExc@Iex@@
	__CTA7?AVEnoprotooptExc@Iex@@
	__CTA7?AVEaddrnotavailExc@Iex@@
	__CTA7?AVEnetdownExc@Iex@@
	__CTA7?AVEnetunreachExc@Iex@@
	__CTA7?AVEnetresetExc@Iex@@
	__CTA7?AVEconnabortedExc@Iex@@
	__CTA7?AVEnotconnExc@Iex@@
	__CTA7?AVEconnrefusedExc@Iex@@
	__CTA7?AVEhostunreachExc@Iex@@
	__CTA6?AVErrnoExc@Iex@@
	__CTA7?AVEalreadyExc@Iex@@
	__CTA7?AVEinprogressExc@Iex@@
	?currentStackTracer@?A0x591e432d@Iex@@3P6A?AV?$basic_string@DU?$char_traits@D@std@@V?$allocator@D@2@@std@@XZA
