LIBRARY	IlmThread
EXPORTS
	??$_Allocate@U_Node@?$_List_nod@PAVWorkerThread@?A0x6357f155@IlmThread@@V?$allocator@PAVWorkerThread@?A0x6357f155@IlmThread@@@std@@@std@@@std@@YAPAU_Node@?$_List_nod@PAVWorkerThread@?A0x6357f155@IlmThread@@V?$allocator@PAVWorkerThread@?A0x6357f155@IlmThread@@@std@@@0@IPAU120@@Z
	?ate@?$_Iosb@H@std@@2W4_Openmode@12@B
	??0Mutex@IlmThread@@QAE@XZ
	?_Stdio@?$_Iosb@H@std@@2W4_Fmtflags@12@B
	?max_size@?$list@PAVTask@IlmThread@@V?$allocator@PAVTask@IlmThread@@@std@@@std@@QBEIXZ
	??$addressof@PAVTask@IlmThread@@@std@@YAPAPAVTask@IlmThread@@AAPAV12@@Z
	??1Lock@IlmThread@@QAE@XZ
	?group@Task@IlmThread@@QAEPAVTaskGroup@2@XZ
	??0bad_alloc@std@@QAE@PBD@Z
	?_Mynode@?$_List_unchecked_const_iterator@V?$_List_val@PAVTask@IlmThread@@V?$allocator@PAVTask@IlmThread@@@std@@@std@@U_Iterator_base0@2@@std@@QBEPAU_Node@?$_List_nod@PAVTask@IlmThread@@V?$allocator@PAVTask@IlmThread@@@std@@@2@XZ
	??0ArgExc@Iex@@QAE@PBD@Z
	?unlock@Mutex@IlmThread@@ABEXXZ
	??1Mutex@IlmThread@@UAE@XZ
	?_Insert@?$list@PAVTask@IlmThread@@V?$allocator@PAVTask@IlmThread@@@std@@@std@@QAEXV?$_List_const_iterator@V?$_List_val@PAVTask@IlmThread@@V?$allocator@PAVTask@IlmThread@@@std@@@std@@@2@ABQAVTask@IlmThread@@@Z
	?acquire@Lock@IlmThread@@QAEXXZ
	??0Data@ThreadPool@IlmThread@@QAE@XZ
	?lock@Mutex@IlmThread@@ABEXXZ
	??0Lock@IlmThread@@QAE@ABVMutex@1@_N@Z
	??D?$_List_iterator@V?$_List_val@PAVTask@IlmThread@@V?$allocator@PAVTask@IlmThread@@@std@@@std@@@std@@QBEAAPAVTask@IlmThread@@XZ
	?release@Lock@IlmThread@@QAEXXZ
	??1bad_alloc@std@@UAE@XZ
	??2@YAPAXIPAX@Z
	?_Nextnode@?$_List_val@PAVTask@IlmThread@@V?$allocator@PAVTask@IlmThread@@@std@@@std@@SAAAPAU_Node@?$_List_nod@PAVTask@IlmThread@@V?$allocator@PAVTask@IlmThread@@@std@@@2@PAU342@@Z
	??0WorkerThread@?A0x6357f155@IlmThread@@QAE@PAUData@ThreadPool@2@@Z
	??1WorkerThread@?A0x6357f155@IlmThread@@UAE@XZ
	??0Data@TaskGroup@IlmThread@@QAE@XZ
	??1Data@TaskGroup@IlmThread@@QAE@XZ
	?addTask@Data@TaskGroup@IlmThread@@QAEXXZ
	??0?$_List_nod@PAVTask@IlmThread@@V?$allocator@PAVTask@IlmThread@@@std@@@std@@QAE@V?$allocator@PAVTask@IlmThread@@@1@@Z
	??1?$_List_val@PAVWorkerThread@?A0x6357f155@IlmThread@@V?$allocator@PAVWorkerThread@?A0x6357f155@IlmThread@@@std@@@std@@QAE@XZ
	?removeTask@Data@TaskGroup@IlmThread@@QAEXXZ
	??8?$_List_const_iterator@V?$_List_val@PAVWorkerThread@?A0x6357f155@IlmThread@@V?$allocator@PAVWorkerThread@?A0x6357f155@IlmThread@@@std@@@std@@@std@@QBE_NABV01@@Z
	?_Hardfail@?$_Iosb@H@std@@2W4_Iostate@12@B
	?allocate@?$allocator@U_Node@?$_List_nod@PAVWorkerThread@?A0x6357f155@IlmThread@@V?$allocator@PAVWorkerThread@?A0x6357f155@IlmThread@@@std@@@std@@@std@@QAEPAU_Node@?$_List_nod@PAVWorkerThread@?A0x6357f155@IlmThread@@V?$allocator@PAVWorkerThread@?A0x6357f155@IlmThread@@@std@@@2@I@Z
	?stopped@Data@ThreadPool@IlmThread@@QBE_NXZ
	?construct@?$allocator@PAVTask@IlmThread@@@std@@QAEXPAPAVTask@IlmThread@@ABQAV34@@Z
	?max_size@?$allocator@PAVTask@IlmThread@@@std@@QBEIXZ
	?stop@Data@ThreadPool@IlmThread@@QAEXXZ
	??0Task@IlmThread@@QAE@PAVTaskGroup@1@@Z
	??1Task@IlmThread@@UAE@XZ
	?allocate@?$allocator@U_Node@?$_List_nod@PAVTask@IlmThread@@V?$allocator@PAVTask@IlmThread@@@std@@@std@@@std@@QAEPAU_Node@?$_List_nod@PAVTask@IlmThread@@V?$allocator@PAVTask@IlmThread@@@std@@@2@I@Z
	??0TaskGroup@IlmThread@@QAE@XZ
	??E?$_List_const_iterator@V?$_List_val@PAVTask@IlmThread@@V?$allocator@PAVTask@IlmThread@@@std@@@std@@@std@@QAEAAV01@XZ
	?numThreads@ThreadPool@IlmThread@@QBEHXZ
	??$forward@V?$basic_string@DU?$char_traits@D@std@@V?$allocator@D@2@@std@@@std@@YA$$QAV?$basic_string@DU?$char_traits@D@std@@V?$allocator@D@2@@0@AAV10@@Z
	?post@Semaphore@IlmThread@@QAEXXZ
	??1ThreadPool@IlmThread@@UAE@XZ
	?_Nextnode@?$_List_val@PAVWorkerThread@?A0x6357f155@IlmThread@@V?$allocator@PAVWorkerThread@?A0x6357f155@IlmThread@@@std@@@std@@SAAAPAU_Node@?$_List_nod@PAVWorkerThread@?A0x6357f155@IlmThread@@V?$allocator@PAVWorkerThread@?A0x6357f155@IlmThread@@@std@@@2@PAU342@@Z
	?right@?$_Iosb@H@std@@2W4_Fmtflags@12@B
	?_Prevnode@?$_List_val@PAVTask@IlmThread@@V?$allocator@PAVTask@IlmThread@@@std@@@std@@SAAAPAU_Node@?$_List_nod@PAVTask@IlmThread@@V?$allocator@PAVTask@IlmThread@@@std@@@2@PAU342@@Z
	?destroy@?$allocator@U_Node@?$_List_nod@PAVTask@IlmThread@@V?$allocator@PAVTask@IlmThread@@@std@@@std@@@std@@QAEXPAU_Node@?$_List_nod@PAVTask@IlmThread@@V?$allocator@PAVTask@IlmThread@@@std@@@2@@Z
	??$_Allocate@U_Node@?$_List_nod@PAVTask@IlmThread@@V?$allocator@PAVTask@IlmThread@@@std@@@std@@@std@@YAPAU_Node@?$_List_nod@PAVTask@IlmThread@@V?$allocator@PAVTask@IlmThread@@@std@@@0@IPAU120@@Z
	?_Getstate@?$basic_stringbuf@DU?$char_traits@D@std@@V?$allocator@D@2@@std@@AAEHH@Z
	?_Prevnode@?$_List_val@PAVWorkerThread@?A0x6357f155@IlmThread@@V?$allocator@PAVWorkerThread@?A0x6357f155@IlmThread@@@std@@@std@@SAAAPAU_Node@?$_List_nod@PAVWorkerThread@?A0x6357f155@IlmThread@@V?$allocator@PAVWorkerThread@?A0x6357f155@IlmThread@@@std@@@2@PAU342@@Z
	??$forward@PAVWorkerThread@?A0x6357f155@IlmThread@@@std@@YA$$QAPAVWorkerThread@?A0x6357f155@IlmThread@@AAPAV123@@Z
	__CTA2?AVbad_alloc@std@@
	??$?0PAVTask@IlmThread@@@?$allocator@U_Node@?$_List_nod@PAVTask@IlmThread@@V?$allocator@PAVTask@IlmThread@@@std@@@std@@@std@@QAE@ABV?$allocator@PAVTask@IlmThread@@@1@@Z
	?_Init@?$basic_stringbuf@DU?$char_traits@D@std@@V?$allocator@D@2@@std@@IAEXPBDIH@Z
	??$addressof@PAVWorkerThread@?A0x6357f155@IlmThread@@@std@@YAPAPAVWorkerThread@?A0x6357f155@IlmThread@@AAPAV123@@Z
	??$forward@ABQAVTask@IlmThread@@@std@@YAABQAVTask@IlmThread@@ABQAV12@@Z
	?deallocate@?$allocator@U_Node@?$_List_nod@PAVTask@IlmThread@@V?$allocator@PAVTask@IlmThread@@@std@@@std@@@std@@QAEXPAU_Node@?$_List_nod@PAVTask@IlmThread@@V?$allocator@PAVTask@IlmThread@@@std@@@2@I@Z
	?max_size@?$list@PAVWorkerThread@?A0x6357f155@IlmThread@@V?$allocator@PAVWorkerThread@?A0x6357f155@IlmThread@@@std@@@std@@QBEIXZ
	??$_Construct@PAVTask@IlmThread@@ABQAV12@@std@@YAXPAPAVTask@IlmThread@@ABQAV12@@Z
	??$forward@V?$allocator@D@std@@@std@@YA$$QAV?$allocator@D@0@AAV10@@Z
	?finish@Data@ThreadPool@IlmThread@@QAEXXZ
	?_Myval@?$_List_val@PAVTask@IlmThread@@V?$allocator@PAVTask@IlmThread@@@std@@@std@@SAAAPAVTask@IlmThread@@PAU_Node@?$_List_nod@PAVTask@IlmThread@@V?$allocator@PAVTask@IlmThread@@@std@@@2@@Z
	?_Myval@?$_List_val@PAVWorkerThread@?A0x6357f155@IlmThread@@V?$allocator@PAVWorkerThread@?A0x6357f155@IlmThread@@@std@@@std@@SAAAPAVWorkerThread@?A0x6357f155@IlmThread@@PAU_Node@?$_List_nod@PAVWorkerThread@?A0x6357f155@IlmThread@@V?$allocator@PAVWorkerThread@?A0x6357f155@IlmThread@@@std@@@2@@Z
	??0bad_alloc@std@@QAE@ABV01@@Z
	?length@?$char_traits@D@std@@SAIPBD@Z
	??$_Dest_val@V?$allocator@U_Node@?$_List_nod@PAVWorkerThread@?A0x6357f155@IlmThread@@V?$allocator@PAVWorkerThread@?A0x6357f155@IlmThread@@@std@@@std@@@std@@U_Node@?$_List_nod@PAVWorkerThread@?A0x6357f155@IlmThread@@V?$allocator@PAVWorkerThread@?A0x6357f155@IlmThread@@@std@@@2@@std@@YAXAAV?$allocator@U_Node@?$_List_nod@PAVWorkerThread@?A0x6357f155@IlmThread@@V?$allocator@PAVWorkerThread@?A0x6357f155@IlmThread@@@std@@@std@@@0@PAU_Node@?$_List_nod@PAVWorkerThread@?A0x6357f155@IlmThread@@V?$allocator@PAVWorkerThread@?A0x6357f155@IlmThread@@@std@@@0@@Z
	?_Mynode@?$_List_unchecked_const_iterator@V?$_List_val@PAVWorkerThread@?A0x6357f155@IlmThread@@V?$allocator@PAVWorkerThread@?A0x6357f155@IlmThread@@@std@@@std@@U_Iterator_base0@2@@std@@QBEPAU_Node@?$_List_nod@PAVWorkerThread@?A0x6357f155@IlmThread@@V?$allocator@PAVWorkerThread@?A0x6357f155@IlmThread@@@std@@@2@XZ
	??0?$_List_nod@PAVWorkerThread@?A0x6357f155@IlmThread@@V?$allocator@PAVWorkerThread@?A0x6357f155@IlmThread@@@std@@@std@@QAE@V?$allocator@PAVWorkerThread@?A0x6357f155@IlmThread@@@1@@Z
	?max_size@?$allocator@PAVWorkerThread@?A0x6357f155@IlmThread@@@std@@QBEIXZ
	??1TaskGroup@IlmThread@@QAE@XZ
	??3@YAXPAX0@Z
	??E?$_List_iterator@V?$_List_val@PAVWorkerThread@?A0x6357f155@IlmThread@@V?$allocator@PAVWorkerThread@?A0x6357f155@IlmThread@@@std@@@std@@@std@@QAEAAV01@XZ
	??E?$_List_const_iterator@V?$_List_val@PAVWorkerThread@?A0x6357f155@IlmThread@@V?$allocator@PAVWorkerThread@?A0x6357f155@IlmThread@@@std@@@std@@@std@@QAEAAV01@XZ
	??9?$_List_const_iterator@V?$_List_val@PAVWorkerThread@?A0x6357f155@IlmThread@@V?$allocator@PAVWorkerThread@?A0x6357f155@IlmThread@@@std@@@std@@@std@@QBE_NABV01@@Z
	?size@?$basic_string@DU?$char_traits@D@std@@V?$allocator@D@2@@std@@QBEIXZ
	??1?$_List_val@PAVTask@IlmThread@@V?$allocator@PAVTask@IlmThread@@@std@@@std@@QAE@XZ
	??0?$allocator@D@std@@QAE@ABV01@@Z
	??0?$allocator@PAVWorkerThread@?A0x6357f155@IlmThread@@@std@@QAE@ABV01@@Z
	??$?0PAVWorkerThread@?A0x6357f155@IlmThread@@@?$allocator@U_Node@?$_List_nod@PAVWorkerThread@?A0x6357f155@IlmThread@@V?$allocator@PAVWorkerThread@?A0x6357f155@IlmThread@@@std@@@std@@@std@@QAE@ABV?$allocator@PAVWorkerThread@?A0x6357f155@IlmThread@@@1@@Z
	??0?$allocator@PAVTask@IlmThread@@@std@@QAE@ABV01@@Z
	?_Xran@?$basic_string@DU?$char_traits@D@std@@V?$allocator@D@2@@std@@QBEXXZ
	??0?$_String_val@DV?$allocator@D@std@@@std@@QAE@V?$allocator@D@1@@Z
	?value@?$integral_constant@I$0A@@tr1@std@@2IB
	??0?$_List_iterator@V?$_List_val@PAVWorkerThread@?A0x6357f155@IlmThread@@V?$allocator@PAVWorkerThread@?A0x6357f155@IlmThread@@@std@@@std@@@std@@QAE@PAU_Node@?$_List_nod@PAVWorkerThread@?A0x6357f155@IlmThread@@V?$allocator@PAVWorkerThread@?A0x6357f155@IlmThread@@@std@@@1@PBV?$_List_val@PAVWorkerThread@?A0x6357f155@IlmThread@@V?$allocator@PAVWorkerThread@?A0x6357f155@IlmThread@@@std@@@1@@Z
	??0?$_List_const_iterator@V?$_List_val@PAVTask@IlmThread@@V?$allocator@PAVTask@IlmThread@@@std@@@std@@@std@@QAE@PAU_Node@?$_List_nod@PAVTask@IlmThread@@V?$allocator@PAVTask@IlmThread@@@std@@@1@PBV?$_List_val@PAVTask@IlmThread@@V?$allocator@PAVTask@IlmThread@@@std@@@1@@Z
	??0?$_List_unchecked_const_iterator@V?$_List_val@PAVWorkerThread@?A0x6357f155@IlmThread@@V?$allocator@PAVWorkerThread@?A0x6357f155@IlmThread@@@std@@@std@@U_Iterator_base0@2@@std@@QAE@PAU_Node@?$_List_nod@PAVWorkerThread@?A0x6357f155@IlmThread@@V?$allocator@PAVWorkerThread@?A0x6357f155@IlmThread@@@std@@@1@PBV?$_List_val@PAVWorkerThread@?A0x6357f155@IlmThread@@V?$allocator@PAVWorkerThread@?A0x6357f155@IlmThread@@@std@@@1@@Z
	??0?$_List_const_iterator@V?$_List_val@PAVWorkerThread@?A0x6357f155@IlmThread@@V?$allocator@PAVWorkerThread@?A0x6357f155@IlmThread@@@std@@@std@@@std@@QAE@PAU_Node@?$_List_nod@PAVWorkerThread@?A0x6357f155@IlmThread@@V?$allocator@PAVWorkerThread@?A0x6357f155@IlmThread@@@std@@@1@PBV?$_List_val@PAVWorkerThread@?A0x6357f155@IlmThread@@V?$allocator@PAVWorkerThread@?A0x6357f155@IlmThread@@@std@@@1@@Z
	?_Tidy@?$basic_string@DU?$char_traits@D@std@@V?$allocator@D@2@@std@@QAEX_NI@Z
	??0?$_List_unchecked_const_iterator@V?$_List_val@PAVTask@IlmThread@@V?$allocator@PAVTask@IlmThread@@@std@@@std@@U_Iterator_base0@2@@std@@QAE@PAU_Node@?$_List_nod@PAVTask@IlmThread@@V?$allocator@PAVTask@IlmThread@@@std@@@1@PBV?$_List_val@PAVTask@IlmThread@@V?$allocator@PAVTask@IlmThread@@@std@@@1@@Z
	??0?$_List_iterator@V?$_List_val@PAVTask@IlmThread@@V?$allocator@PAVTask@IlmThread@@@std@@@std@@@std@@QAE@PAU_Node@?$_List_nod@PAVTask@IlmThread@@V?$allocator@PAVTask@IlmThread@@@std@@@1@PBV?$_List_val@PAVTask@IlmThread@@V?$allocator@PAVTask@IlmThread@@@std@@@1@@Z
	??E?$_List_const_iterator@V?$_List_val@PAVTask@IlmThread@@V?$allocator@PAVTask@IlmThread@@@std@@@std@@@std@@QAE?AV01@H@Z
	?adjustfield@?$_Iosb@H@std@@2W4_Fmtflags@12@B
	?construct@?$allocator@PAVWorkerThread@?A0x6357f155@IlmThread@@@std@@QAEXPAPAVWorkerThread@?A0x6357f155@IlmThread@@$$QAPAV345@@Z
	?_Adopt@_Iterator_base0@std@@QAEXPBX@Z
	?failbit@?$_Iosb@H@std@@2W4_Iostate@12@B
	?destroy@?$allocator@U_Node@?$_List_nod@PAVWorkerThread@?A0x6357f155@IlmThread@@V?$allocator@PAVWorkerThread@?A0x6357f155@IlmThread@@@std@@@std@@@std@@QAEXPAU_Node@?$_List_nod@PAVWorkerThread@?A0x6357f155@IlmThread@@V?$allocator@PAVWorkerThread@?A0x6357f155@IlmThread@@@std@@@2@@Z
	??0?$_List_val@PAVTask@IlmThread@@V?$allocator@PAVTask@IlmThread@@@std@@@std@@QAE@V?$allocator@PAVTask@IlmThread@@@1@@Z
	?_Make_iter@?$list@PAVTask@IlmThread@@V?$allocator@PAVTask@IlmThread@@@std@@@std@@QBE?AV?$_List_iterator@V?$_List_val@PAVTask@IlmThread@@V?$allocator@PAVTask@IlmThread@@@std@@@std@@@2@V?$_List_const_iterator@V?$_List_val@PAVTask@IlmThread@@V?$allocator@PAVTask@IlmThread@@@std@@@std@@@2@@Z
	??0?$_List_val@PAVWorkerThread@?A0x6357f155@IlmThread@@V?$allocator@PAVWorkerThread@?A0x6357f155@IlmThread@@@std@@@std@@QAE@V?$allocator@PAVWorkerThread@?A0x6357f155@IlmThread@@@1@@Z
	??D?$_List_const_iterator@V?$_List_val@PAVTask@IlmThread@@V?$allocator@PAVTask@IlmThread@@@std@@@std@@@std@@QBEABQAVTask@IlmThread@@XZ
	??D?$_List_iterator@V?$_List_val@PAVWorkerThread@?A0x6357f155@IlmThread@@V?$allocator@PAVWorkerThread@?A0x6357f155@IlmThread@@@std@@@std@@@std@@QBEAAPAVWorkerThread@?A0x6357f155@IlmThread@@XZ
	??D?$_List_const_iterator@V?$_List_val@PAVWorkerThread@?A0x6357f155@IlmThread@@V?$allocator@PAVWorkerThread@?A0x6357f155@IlmThread@@@std@@@std@@@std@@QBEABQAVWorkerThread@?A0x6357f155@IlmThread@@XZ
	?_Incsize@?$list@PAVWorkerThread@?A0x6357f155@IlmThread@@V?$allocator@PAVWorkerThread@?A0x6357f155@IlmThread@@@std@@@std@@QAEXI@Z
	?monetary@?$_Locbase@H@std@@2HB
	?_Incsize@?$list@PAVTask@IlmThread@@V?$allocator@PAVTask@IlmThread@@@std@@@std@@QAEXI@Z
	??$_Destroy@U_Node@?$_List_nod@PAVTask@IlmThread@@V?$allocator@PAVTask@IlmThread@@@std@@@std@@@std@@YAXPAU_Node@?$_List_nod@PAVTask@IlmThread@@V?$allocator@PAVTask@IlmThread@@@std@@@0@@Z
	??$_Dest_val@V?$allocator@U_Node@?$_List_nod@PAVTask@IlmThread@@V?$allocator@PAVTask@IlmThread@@@std@@@std@@@std@@U_Node@?$_List_nod@PAVTask@IlmThread@@V?$allocator@PAVTask@IlmThread@@@std@@@2@@std@@YAXAAV?$allocator@U_Node@?$_List_nod@PAVTask@IlmThread@@V?$allocator@PAVTask@IlmThread@@@std@@@std@@@0@PAU_Node@?$_List_nod@PAVTask@IlmThread@@V?$allocator@PAVTask@IlmThread@@@std@@@0@@Z
	??$_Destroy@U_Node@?$_List_nod@PAVWorkerThread@?A0x6357f155@IlmThread@@V?$allocator@PAVWorkerThread@?A0x6357f155@IlmThread@@@std@@@std@@@std@@YAXPAU_Node@?$_List_nod@PAVWorkerThread@?A0x6357f155@IlmThread@@V?$allocator@PAVWorkerThread@?A0x6357f155@IlmThread@@@std@@@0@@Z
	??1?$_String_val@DV?$allocator@D@std@@@std@@QAE@XZ
	??$_Cons_val@V?$allocator@PAVTask@IlmThread@@@std@@PAVTask@IlmThread@@ABQAV34@@std@@YAXAAV?$allocator@PAVTask@IlmThread@@@0@PAPAVTask@IlmThread@@ABQAV23@@Z
	??$_Cons_val@V?$allocator@PAVWorkerThread@?A0x6357f155@IlmThread@@@std@@PAVWorkerThread@?A0x6357f155@IlmThread@@PAV345@@std@@YAXAAV?$allocator@PAVWorkerThread@?A0x6357f155@IlmThread@@@0@PAPAVWorkerThread@?A0x6357f155@IlmThread@@$$QAPAV234@@Z
	?_Buynode@?$_List_val@PAVTask@IlmThread@@V?$allocator@PAVTask@IlmThread@@@std@@@std@@QAEPAU_Node@?$_List_nod@PAVTask@IlmThread@@V?$allocator@PAVTask@IlmThread@@@std@@@2@PAU342@0ABQAVTask@IlmThread@@@Z
	??$_Buynode@PAVWorkerThread@?A0x6357f155@IlmThread@@@?$_List_val@PAVWorkerThread@?A0x6357f155@IlmThread@@V?$allocator@PAVWorkerThread@?A0x6357f155@IlmThread@@@std@@@std@@QAEPAU_Node@?$_List_nod@PAVWorkerThread@?A0x6357f155@IlmThread@@V?$allocator@PAVWorkerThread@?A0x6357f155@IlmThread@@@std@@@1@PAU231@0$$QAPAVWorkerThread@?A0x6357f155@IlmThread@@@Z
	??0?$list@PAVWorkerThread@?A0x6357f155@IlmThread@@V?$allocator@PAVWorkerThread@?A0x6357f155@IlmThread@@@std@@@std@@QAE@XZ
	??0?$list@PAVTask@IlmThread@@V?$allocator@PAVTask@IlmThread@@@std@@@std@@QAE@XZ
	?move@?$char_traits@D@std@@SAPADPADPBDI@Z
	?_Tidy@?$list@PAVWorkerThread@?A0x6357f155@IlmThread@@V?$allocator@PAVWorkerThread@?A0x6357f155@IlmThread@@@std@@@std@@QAEXXZ
	?_Tidy@?$list@PAVTask@IlmThread@@V?$allocator@PAVTask@IlmThread@@@std@@@std@@QAEXXZ
	?clear@?$list@PAVWorkerThread@?A0x6357f155@IlmThread@@V?$allocator@PAVWorkerThread@?A0x6357f155@IlmThread@@@std@@@std@@QAEXXZ
	?_Rank@?$_Arithmetic_traits@G@std@@2HB
	?clear@?$list@PAVTask@IlmThread@@V?$allocator@PAVTask@IlmThread@@@std@@@std@@QAEXXZ
	?end@?$list@PAVTask@IlmThread@@V?$allocator@PAVTask@IlmThread@@@std@@@std@@QAE?AV?$_List_iterator@V?$_List_val@PAVTask@IlmThread@@V?$allocator@PAVTask@IlmThread@@@std@@@std@@@2@XZ
	?end@?$list@PAVWorkerThread@?A0x6357f155@IlmThread@@V?$allocator@PAVWorkerThread@?A0x6357f155@IlmThread@@@std@@@std@@QAE?AV?$_List_iterator@V?$_List_val@PAVWorkerThread@?A0x6357f155@IlmThread@@V?$allocator@PAVWorkerThread@?A0x6357f155@IlmThread@@@std@@@std@@@2@XZ
	?begin@?$list@PAVWorkerThread@?A0x6357f155@IlmThread@@V?$allocator@PAVWorkerThread@?A0x6357f155@IlmThread@@@std@@@std@@QAE?AV?$_List_iterator@V?$_List_val@PAVWorkerThread@?A0x6357f155@IlmThread@@V?$allocator@PAVWorkerThread@?A0x6357f155@IlmThread@@@std@@@std@@@2@XZ
	?begin@?$list@PAVTask@IlmThread@@V?$allocator@PAVTask@IlmThread@@@std@@@std@@QAE?AV?$_List_iterator@V?$_List_val@PAVTask@IlmThread@@V?$allocator@PAVTask@IlmThread@@@std@@@std@@@2@XZ
	?front@?$list@PAVTask@IlmThread@@V?$allocator@PAVTask@IlmThread@@@std@@@std@@QAEAAPAVTask@IlmThread@@XZ
	?push_back@?$list@PAVTask@IlmThread@@V?$allocator@PAVTask@IlmThread@@@std@@@std@@QAEXABQAVTask@IlmThread@@@Z
	?push_back@?$list@PAVWorkerThread@?A0x6357f155@IlmThread@@V?$allocator@PAVWorkerThread@?A0x6357f155@IlmThread@@@std@@@std@@QAEX$$QAPAVWorkerThread@?A0x6357f155@IlmThread@@@Z
	??1?$list@PAVWorkerThread@?A0x6357f155@IlmThread@@V?$allocator@PAVWorkerThread@?A0x6357f155@IlmThread@@@std@@@std@@QAE@XZ
	??1?$list@PAVTask@IlmThread@@V?$allocator@PAVTask@IlmThread@@@std@@@std@@QAE@XZ
	??$_Insert_rv@PAVWorkerThread@?A0x6357f155@IlmThread@@@?$list@PAVWorkerThread@?A0x6357f155@IlmThread@@V?$allocator@PAVWorkerThread@?A0x6357f155@IlmThread@@@std@@@std@@QAEXV?$_List_const_iterator@V?$_List_val@PAVWorkerThread@?A0x6357f155@IlmThread@@V?$allocator@PAVWorkerThread@?A0x6357f155@IlmThread@@@std@@@std@@@1@$$QAPAVWorkerThread@?A0x6357f155@IlmThread@@@Z
	??1?$basic_string@DU?$char_traits@D@std@@V?$allocator@D@2@@std@@QAE@XZ
	?erase@?$list@PAVTask@IlmThread@@V?$allocator@PAVTask@IlmThread@@@std@@@std@@QAE?AV?$_List_iterator@V?$_List_val@PAVTask@IlmThread@@V?$allocator@PAVTask@IlmThread@@@std@@@std@@@2@V?$_List_const_iterator@V?$_List_val@PAVTask@IlmThread@@V?$allocator@PAVTask@IlmThread@@@std@@@std@@@2@@Z
	??1Data@ThreadPool@IlmThread@@QAE@XZ
	?setNumThreads@ThreadPool@IlmThread@@QAEXH@Z
	?copy@?$char_traits@D@std@@SAPADPADPBDI@Z
	?assign@?$char_traits@D@std@@SAXAADABD@Z
	??0ArgExc@Iex@@QAE@ABV01@@Z
	?allocate@?$allocator@D@std@@QAEPADI@Z
	?deallocate@?$allocator@D@std@@QAEXPADI@Z
	?deallocate@?$allocator@U_Node@?$_List_nod@PAVWorkerThread@?A0x6357f155@IlmThread@@V?$allocator@PAVWorkerThread@?A0x6357f155@IlmThread@@@std@@@std@@@std@@QAEXPAU_Node@?$_List_nod@PAVWorkerThread@?A0x6357f155@IlmThread@@V?$allocator@PAVWorkerThread@?A0x6357f155@IlmThread@@@std@@@2@I@Z
	??$?6U?$char_traits@D@std@@@std@@YAAAV?$basic_ostream@DU?$char_traits@D@std@@@0@AAV10@PBD@Z
	?c_str@?$basic_string@DU?$char_traits@D@std@@V?$allocator@D@2@@std@@QBEPBDXZ
	?_Xlen@?$basic_string@DU?$char_traits@D@std@@V?$allocator@D@2@@std@@QBEXXZ
	?max_size@?$allocator@D@std@@QBEIXZ
	?eof@?$char_traits@D@std@@SAHXZ
	??$_Allocate@D@std@@YAPADIPAD@Z
	?fixed@?$_Iosb@H@std@@2W4_Fmtflags@12@B
	??0?$_String_val@DV?$allocator@D@std@@@std@@QAE@ABV01@@Z
	?_Eos@?$basic_string@DU?$char_traits@D@std@@V?$allocator@D@2@@std@@QAEXI@Z
	?_Grow@?$basic_string@DU?$char_traits@D@std@@V?$allocator@D@2@@std@@QAE_NI_N@Z
	?max_size@?$basic_string@DU?$char_traits@D@std@@V?$allocator@D@2@@std@@QBEIXZ
	?all@?$_Locbase@H@std@@2HB
	?erase@?$basic_string@DU?$char_traits@D@std@@V?$allocator@D@2@@std@@QAEAAV12@II@Z
	?_Copy@?$basic_string@DU?$char_traits@D@std@@V?$allocator@D@2@@std@@QAEXII@Z
	?cur@?$_Iosb@H@std@@2W4_Seekdir@12@B
	?assign@?$basic_string@DU?$char_traits@D@std@@V?$allocator@D@2@@std@@QAEAAV12@ABV12@II@Z
	?hex@?$_Iosb@H@std@@2W4_Fmtflags@12@B
	??0?$basic_string@DU?$char_traits@D@std@@V?$allocator@D@2@@std@@QAE@ABV01@@Z
	?pop_front@?$list@PAVTask@IlmThread@@V?$allocator@PAVTask@IlmThread@@@std@@@std@@QAEXXZ
	?run@WorkerThread@?A0x6357f155@IlmThread@@UAEXXZ
	??0ThreadPool@IlmThread@@QAE@I@Z
	?addTask@ThreadPool@IlmThread@@QAEXPAVTask@2@@Z
	?globalThreadPool@ThreadPool@IlmThread@@SAAAV12@XZ
	?addGlobalTask@ThreadPool@IlmThread@@SAXPAVTask@2@@Z
	?eq_int_type@?$char_traits@D@std@@SA_NABH0@Z
	??0LogicExc@Iex@@QAE@AAV?$basic_stringstream@DU?$char_traits@D@std@@V?$allocator@D@2@@std@@@Z
	__TI6?AVArgExc@Iex@@
	??1ArgExc@Iex@@UAE@XZ
	??1LogicExc@Iex@@UAE@XZ
	??1Semaphore@IlmThread@@UAE@XZ
	?tryWait@Semaphore@IlmThread@@QAE_NXZ
	??0?$allocator@PAVTask@IlmThread@@@std@@QAE@XZ
	??0?$allocator@D@std@@QAE@XZ
	??0?$allocator@PAVWorkerThread@?A0x6357f155@IlmThread@@@std@@QAE@XZ
	?_Tidy@?$basic_stringbuf@DU?$char_traits@D@std@@V?$allocator@D@2@@std@@IAEXXZ
	??Bsentry@?$basic_ostream@DU?$char_traits@D@std@@@std@@QBEPQ_Bool_struct@2@HXZ
	?get_allocator@?$basic_string@DU?$char_traits@D@std@@V?$allocator@D@2@@std@@QBE?AV?$allocator@D@2@XZ
	??0_Sentry_base@?$basic_ostream@DU?$char_traits@D@std@@@std@@QAE@AAV12@@Z
	??1_Sentry_base@?$basic_ostream@DU?$char_traits@D@std@@@std@@QAE@XZ
	?_Rank@?$_Arithmetic_traits@M@std@@2HB
	??1?$basic_stringbuf@DU?$char_traits@D@std@@V?$allocator@D@2@@std@@UAE@XZ
	?eq@?$char_traits@D@std@@SA_NABD0@Z
	?to_char_type@?$char_traits@D@std@@SADABH@Z
	?to_int_type@?$char_traits@D@std@@SAHABD@Z
	?underflow@?$basic_stringbuf@DU?$char_traits@D@std@@V?$allocator@D@2@@std@@MAEHXZ
	??0?$fpos@H@std@@QAE@_J@Z
	??B?$fpos@H@std@@QBE_JXZ
	?not_eof@?$char_traits@D@std@@SAHABH@Z
	?pbackfail@?$basic_stringbuf@DU?$char_traits@D@std@@V?$allocator@D@2@@std@@MAEHH@Z
	?_Rank@?$_Arithmetic_traits@H@std@@2HB
	?seekoff@?$basic_stringbuf@DU?$char_traits@D@std@@V?$allocator@D@2@@std@@MAE?AV?$fpos@H@2@_JHH@Z
	?seekpos@?$basic_stringbuf@DU?$char_traits@D@std@@V?$allocator@D@2@@std@@MAE?AV?$fpos@H@2@V32@H@Z
	??0sentry@?$basic_ostream@DU?$char_traits@D@std@@@std@@QAE@AAV12@@Z
	?badbit@?$_Iosb@H@std@@2W4_Iostate@12@B
	??1sentry@?$basic_ostream@DU?$char_traits@D@std@@@std@@QAE@XZ
	?_Inside@?$basic_string@DU?$char_traits@D@std@@V?$allocator@D@2@@std@@QAE_NPBD@Z
	??$?6DU?$char_traits@D@std@@V?$allocator@D@1@@std@@YAAAV?$basic_ostream@DU?$char_traits@D@std@@@0@AAV10@ABV?$basic_string@DU?$char_traits@D@std@@V?$allocator@D@2@@0@@Z
	??$?9DD@std@@YA_NABV?$allocator@D@0@0@Z
	?showpoint@?$_Iosb@H@std@@2W4_Fmtflags@12@B
	??1?$basic_stringstream@DU?$char_traits@D@std@@V?$allocator@D@2@@std@@UAE@XZ
	?overflow@?$basic_stringbuf@DU?$char_traits@D@std@@V?$allocator@D@2@@std@@MAEHH@Z
	??0?$basic_stringbuf@DU?$char_traits@D@std@@V?$allocator@D@2@@std@@QAE@H@Z
	??0?$basic_string@DU?$char_traits@D@std@@V?$allocator@D@2@@std@@QAE@XZ
	??0?$basic_stringstream@DU?$char_traits@D@std@@V?$allocator@D@2@@std@@QAE@H@Z
	?skipws@?$_Iosb@H@std@@2W4_Fmtflags@12@B
	?assign@?$basic_string@DU?$char_traits@D@std@@V?$allocator@D@2@@std@@QAEAAV12@PBDI@Z
	?assign@?$basic_string@DU?$char_traits@D@std@@V?$allocator@D@2@@std@@QAEAAV12@PBD@Z
	??4?$basic_string@DU?$char_traits@D@std@@V?$allocator@D@2@@std@@QAEAAV01@PBD@Z
	?assign@?$basic_string@DU?$char_traits@D@std@@V?$allocator@D@2@@std@@QAEAAV12@ABV12@@Z
	??4?$basic_string@DU?$char_traits@D@std@@V?$allocator@D@2@@std@@QAEAAV01@ABV01@@Z
	?assign@?$basic_string@DU?$char_traits@D@std@@V?$allocator@D@2@@std@@QAEAAV12@$$QAV12@@Z
	??0?$basic_string@DU?$char_traits@D@std@@V?$allocator@D@2@@std@@QAE@$$QAV01@@Z
	?errorString@?A0xf8146dba@IlmThread@@YA?AV?$basic_string@DU?$char_traits@D@std@@V?$allocator@D@2@@std@@XZ
	??0Semaphore@IlmThread@@QAE@I@Z
	?_Rank@?$_Arithmetic_traits@_N@std@@2HB
	??0LogicExc@Iex@@QAE@ABV01@@Z
	?wait@Semaphore@IlmThread@@QAEXXZ
	?value@Semaphore@IlmThread@@QBEHXZ
	??$?8DD@std@@YA_NABV?$allocator@D@0@0@Z
	?supportsThreads@IlmThread@@YA_NXZ
	?threadLoop@?A0x2a77d626@IlmThread@@YGIPAX@Z
	??0Thread@IlmThread@@QAE@XZ
	??1Thread@IlmThread@@UAE@XZ
	??0?$basic_string@DU?$char_traits@D@std@@V?$allocator@D@2@@std@@QAE@PBD@Z
	?beg@?$_Iosb@H@std@@2W4_Seekdir@12@B
	?end@?$_Iosb@H@std@@2W4_Seekdir@12@B
	?start@Thread@IlmThread@@QAEXXZ
	?value@?$integral_constant@_N$0A@@tr1@std@@2_NB
	?value@?$integral_constant@_N$00@tr1@std@@2_NB
	?_Rank@?$_Arithmetic_traits@C@std@@2HB
	?ctype@?$_Locbase@H@std@@2HB
	?out@?$_Iosb@H@std@@2W4_Openmode@12@B
	?unitbuf@?$_Iosb@H@std@@2W4_Fmtflags@12@B
	?_Rank@?$_Arithmetic_traits@D@std@@2HB
	?_Rank@?$_Arithmetic_traits@E@std@@2HB
	__CTA6?AVArgExc@Iex@@
	?_Rank@?$_Arithmetic_traits@F@std@@2HB
	?boolalpha@?$_Iosb@H@std@@2W4_Fmtflags@12@B
	?_Rank@?$_Arithmetic_traits@J@std@@2HB
	?_Rank@?$_Arithmetic_traits@K@std@@2HB
	?_Rank@?$_Arithmetic_traits@_K@std@@2HB
	?_Rank@?$_Arithmetic_traits@_J@std@@2HB
	?_Rank@?$_Arithmetic_traits@O@std@@2HB
	?trunc@?$_Iosb@H@std@@2W4_Openmode@12@B
	?time@?$_Locbase@H@std@@2HB
	?internal@?$_Iosb@H@std@@2W4_Fmtflags@12@B
	?dec@?$_Iosb@H@std@@2W4_Fmtflags@12@B
	?oct@?$_Iosb@H@std@@2W4_Fmtflags@12@B
	?scientific@?$_Iosb@H@std@@2W4_Fmtflags@12@B
	?basefield@?$_Iosb@H@std@@2W4_Fmtflags@12@B
	?hexfloat@?$_Iosb@H@std@@2W4_Fmtflags@12@B
	?floatfield@?$_Iosb@H@std@@2W4_Fmtflags@12@B
	?none@?$_Locbase@H@std@@2HB
	?uppercase@?$_Iosb@H@std@@2W4_Fmtflags@12@B
	?_Rank@?$_Arithmetic_traits@I@std@@2HB
	?showbase@?$_Iosb@H@std@@2W4_Fmtflags@12@B
	?numeric@?$_Locbase@H@std@@2HB
	?app@?$_Iosb@H@std@@2W4_Openmode@12@B
	?_Rank@?$_Arithmetic_traits@N@std@@2HB
	?_Nocreate@?$_Iosb@H@std@@2W4_Openmode@12@B
	?left@?$_Iosb@H@std@@2W4_Fmtflags@12@B
	?_Noreplace@?$_Iosb@H@std@@2W4_Openmode@12@B
	?binary@?$_Iosb@H@std@@2W4_Openmode@12@B
	?messages@?$_Locbase@H@std@@2HB
	?showpos@?$_Iosb@H@std@@2W4_Fmtflags@12@B
	?goodbit@?$_Iosb@H@std@@2W4_Iostate@12@B
	?collate@?$_Locbase@H@std@@2HB
	?eofbit@?$_Iosb@H@std@@2W4_Iostate@12@B
	?in@?$_Iosb@H@std@@2W4_Openmode@12@B
	__TI2?AVbad_alloc@std@@
	__TI6?AVLogicExc@Iex@@
	__CTA6?AVLogicExc@Iex@@
