LIBRARY	Imath
EXPORTS
	??YKahanSum@?A0x735d0683@Imath@@QAEXN@Z
	?dimensions@?$Matrix33@M@Imath@@SAIXZ
	?floor@?$Math@N@Imath@@SANN@Z
	??0?$Vec3@N@Imath@@QAE@XZ
	?max_size@?$allocator@D@std@@QBEIXZ
	?rgb2hsv_d@Imath@@YA?AV?$Vec3@N@1@ABV21@@Z
	?in@?$_Iosb@H@std@@2W4_Openmode@12@B
	?succf@Imath@@YAMM@Z
	??0?$Vec3@N@Imath@@QAE@NNN@Z
	??0?$Matrix44@M@Imath@@QAE@MMMMMMMMMMMMMMMM@Z
	?predf@Imath@@YAMM@Z
	??0?$Matrix33@N@Imath@@QAE@XZ
	??D?$Matrix33@N@Imath@@QBE?AV01@ABV01@@Z
	?_Rank@?$_Arithmetic_traits@J@std@@2HB
	?hsv2rgb_d@Imath@@YA?AV?$Vec3@N@1@ABV21@@Z
	?hsv2rgb_d@Imath@@YA?AV?$Color4@N@1@ABV21@@Z
	fabsf
	??0?$Vec3@M@Imath@@QAE@MMM@Z
	?normalizeExc@?$Vec4@F@Imath@@QAEABV12@XZ
	?succd@Imath@@YANN@Z
	sqrtf
	??$jacobiRotation@$0A@$00$01M@?A0x735d0683@Imath@@YA_NAAV?$Matrix33@M@1@0AAV?$Vec3@M@1@M@Z
	?rgb2hsv_d@Imath@@YA?AV?$Color4@N@1@ABV21@@Z
	?dimensions@?$Vec3@M@Imath@@SAIXZ
	?normalizeExc@?$Vec3@H@Imath@@QAEABV12@XZ
	?predd@Imath@@YANN@Z
	??0?$Matrix44@N@Imath@@QAE@ABV01@@Z
	?sqrt@@YAMM@Z
	??$?DN@Imath@@YA?AV?$Vec3@N@0@NABV10@@Z
	??$jacobiRotateRight@$0A@$00V?$Matrix33@N@Imath@@@?A0x735d0683@Imath@@YAXAAV?$Matrix33@N@1@NN@Z
	?size@?$basic_string@DU?$char_traits@D@std@@V?$allocator@D@2@@std@@QBEIXZ
	??$jacobiRotateRight@N@?A0x735d0683@Imath@@YAXAAV?$Matrix44@N@1@HHNN@Z
	??0?$Matrix33@N@Imath@@QAE@N@Z
	?_Rank@?$_Arithmetic_traits@E@std@@2HB
	?abs@@YAMM@Z
	?floatfield@?$_Iosb@H@std@@2W4_Fmtflags@12@B
	?none@?$_Locbase@H@std@@2HB
	?sqrt@?$Math@M@Imath@@SAMM@Z
	??0?$Vec3@N@Imath@@QAE@N@Z
	?abs@@YANN@Z
	?epsilon@?$limits@M@Imath@@SAMXZ
	??$swapColumns@M@?A0x735d0683@Imath@@YAXAAV?$Matrix33@M@1@HH@Z
	?epsilon@?$limits@N@Imath@@SANXZ
	?normalizeNonNull@?$Vec2@F@Imath@@QAEABV12@XZ
	??0?$Matrix33@M@Imath@@QAE@XZ
	?determinant@?$Matrix44@M@Imath@@QBEMXZ
	??0?$Vec4@M@Imath@@QAE@MMMM@Z
	??0KahanSum@?A0x735d0683@Imath@@QAE@XZ
	?collate@?$_Locbase@H@std@@2HB
	??0?$Vec3@M@Imath@@QAE@XZ
	??A?$Vec2@H@Imath@@QAEAAHH@Z
	?_Tidy@?$basic_string@DU?$char_traits@D@std@@V?$allocator@D@2@@std@@QAEX_NI@Z
	?_Rank@?$_Arithmetic_traits@_J@std@@2HB
	?get@KahanSum@?A0x735d0683@Imath@@QBENXZ
	??0?$Matrix33@M@Imath@@QAE@MMMMMMMMM@Z
	??$jacobiEigenSolver@M@Imath@@YAXAAV?$Matrix33@M@0@AAV?$Vec3@M@0@0M@Z
	??0?$Matrix33@N@Imath@@QAE@NNNNNNNNN@Z
	?normalizeExc@?$Vec4@H@Imath@@QAEABV12@XZ
	??0?$Matrix44@N@Imath@@QAE@NNNNNNNNNNNNNNNN@Z
	?makeIdentity@?$Matrix33@N@Imath@@QAEXXZ
	??A?$Matrix44@M@Imath@@QBEPBMH@Z
	?determinant@?$Matrix33@M@Imath@@QBEMXZ
	?dimensions@?$Vec4@M@Imath@@SAIXZ
	?dimensions@?$Vec3@N@Imath@@SAIXZ
	?dimensions@?$Matrix33@N@Imath@@SAIXZ
	??A?$Matrix33@N@Imath@@QAEPANH@Z
	?dimensions@?$Matrix44@M@Imath@@SAIXZ
	??0?$Matrix33@N@Imath@@QAE@ABV01@@Z
	?nextf@Rand32@Imath@@QAEMXZ
	?dimensions@?$Matrix44@N@Imath@@SAIXZ
	??$jacobiRotateRight@$0A@$00V?$Matrix44@N@Imath@@@?A0x735d0683@Imath@@YAXAAV?$Matrix44@N@1@NN@Z
	?dimensions@?$Vec4@N@Imath@@SAIXZ
	??0?$Matrix33@M@Imath@@QAE@ABV01@@Z
	??0?$Vec4@N@Imath@@QAE@XZ
	?makeIdentity@?$Matrix33@M@Imath@@QAEXXZ
	??A?$Matrix44@M@Imath@@QAEPAMH@Z
	??0?$Matrix44@M@Imath@@QAE@ABV01@@Z
	??0?$Matrix44@M@Imath@@QAE@XZ
	??Y?$Vec3@N@Imath@@QAEABV01@ABV01@@Z
	?makeIdentity@?$Matrix44@M@Imath@@QAEXXZ
	??A?$Matrix33@N@Imath@@QBEPBNH@Z
	??0?$Matrix44@N@Imath@@QAE@XZ
	??$normalizeOrThrow@F@?A0x1c54a369@Imath@@YA_NAAV?$Vec3@F@1@@Z
	??Y?$Matrix33@N@Imath@@QAEABV01@ABV01@@Z
	??$jacobiRotateRight@$0A@$02V?$Matrix44@N@Imath@@@?A0x735d0683@Imath@@YAXAAV?$Matrix44@N@1@NN@Z
	?transposed@?$Matrix33@N@Imath@@QBE?AV12@XZ
	??$jacobiRotation@$00$01$0A@$02M@?A0x735d0683@Imath@@YA_NAAV?$Matrix44@M@1@0AAV?$Vec4@M@1@M@Z
	??A?$Matrix44@N@Imath@@QAEPANH@Z
	?identity44f@Imath@@3V?$Matrix44@M@1@A
	?normalized@?$Vec3@F@Imath@@QBE?AV12@XZ
	??A?$Matrix44@N@Imath@@QBEPBNH@Z
	?makeIdentity@?$Matrix44@N@Imath@@QAEXXZ
	??0?$Vec3@N@Imath@@QAE@ABV01@@Z
	??0?$Vec4@M@Imath@@QAE@XZ
	??G?$Vec3@N@Imath@@QBE?AV01@ABV01@@Z
	??$outerProduct@N@Imath@@YA?AV?$Matrix33@N@0@ABV?$Vec3@N@0@0@Z
	??$?DNN@Imath@@YA?AV?$Vec3@N@0@ABV10@ABV?$Matrix33@N@0@@Z
	?_Nocreate@?$_Iosb@H@std@@2W4_Openmode@12@B
	??$?0M@?$Vec3@N@Imath@@QAE@ABV?$Vec3@M@1@@Z
	??$jacobiRotateRight@$00$01V?$Matrix33@M@Imath@@@?A0x735d0683@Imath@@YAXAAV?$Matrix33@M@1@MM@Z
	??0?$Color4@N@Imath@@QAE@NNNN@Z
	?length@?$Vec2@H@Imath@@QBEHXZ
	??0?$Vec4@N@Imath@@QAE@NNNN@Z
	??A?$Matrix33@M@Imath@@QBEPBMH@Z
	??A?$Matrix33@M@Imath@@QAEPAMH@Z
	??0NullVecExc@Imath@@QAE@ABV01@@Z
	?determinant@?$Matrix33@N@Imath@@QBENXZ
	?dot@?$Vec3@N@Imath@@QBENABV12@@Z
	??$jacobiRotation@$0A@$00$01N@?A0x735d0683@Imath@@YA_NAAV?$Matrix33@N@1@0AAV?$Vec3@N@1@N@Z
	??A?$Vec3@N@Imath@@QAEAANH@Z
	??$jacobiRotateRight@$0A@$01V?$Matrix44@M@Imath@@@?A0x735d0683@Imath@@YAXAAV?$Matrix44@M@1@MM@Z
	??A?$Vec4@N@Imath@@QBEABNH@Z
	??A?$Vec4@N@Imath@@QAEAANH@Z
	??$max@M@std@@YAABMABM0@Z
	??$jacobiRotateRight@$0A@$00V?$Matrix33@M@Imath@@@?A0x735d0683@Imath@@YAXAAV?$Matrix33@M@1@MM@Z
	??$jacobiRotateRight@$0A@$01V?$Matrix33@M@Imath@@@?A0x735d0683@Imath@@YAXAAV?$Matrix33@M@1@MM@Z
	??$max@N@std@@YAABNABN0@Z
	??$jacobiRotateRight@$0A@$01V?$Matrix33@N@Imath@@@?A0x735d0683@Imath@@YAXAAV?$Matrix33@N@1@NN@Z
	??$jacobiRotateRight@$00$01V?$Matrix33@N@Imath@@@?A0x735d0683@Imath@@YAXAAV?$Matrix33@N@1@NN@Z
	?normalizeExc@?$Vec2@H@Imath@@QAEABV12@XZ
	??$jacobiRotateRight@$0A@$00V?$Matrix44@M@Imath@@@?A0x735d0683@Imath@@YAXAAV?$Matrix44@M@1@MM@Z
	?all@?$_Locbase@H@std@@2HB
	?erase@?$basic_string@DU?$char_traits@D@std@@V?$allocator@D@2@@std@@QAEAAV12@II@Z
	??$jacobiRotateRight@$0A@$02V?$Matrix44@M@Imath@@@?A0x735d0683@Imath@@YAXAAV?$Matrix44@M@1@MM@Z
	??$jacobiRotateRight@$00$01V?$Matrix44@M@Imath@@@?A0x735d0683@Imath@@YAXAAV?$Matrix44@M@1@MM@Z
	??$twoSidedJacobiRotation@M$0A@$01$00@?A0x735d0683@Imath@@YA_NAAV?$Matrix33@M@1@00M@Z
	??$jacobiRotateRight@$00$02V?$Matrix44@M@Imath@@@?A0x735d0683@Imath@@YAXAAV?$Matrix44@M@1@MM@Z
	??$jacobiRotateRight@$01$02V?$Matrix44@M@Imath@@@?A0x735d0683@Imath@@YAXAAV?$Matrix44@M@1@MM@Z
	?normalizedExc@?$Vec3@F@Imath@@QBE?AV12@XZ
	??$jacobiRotateRight@$0A@$01V?$Matrix44@N@Imath@@@?A0x735d0683@Imath@@YAXAAV?$Matrix44@N@1@NN@Z
	??$jacobiRotateRight@$00$01V?$Matrix44@N@Imath@@@?A0x735d0683@Imath@@YAXAAV?$Matrix44@N@1@NN@Z
	?_Rank@?$_Arithmetic_traits@C@std@@2HB
	??$jacobiRotateRight@$00$02V?$Matrix44@N@Imath@@@?A0x735d0683@Imath@@YAXAAV?$Matrix44@N@1@NN@Z
	??$jacobiRotateRight@$01$02V?$Matrix44@N@Imath@@@?A0x735d0683@Imath@@YAXAAV?$Matrix44@N@1@NN@Z
	?_Noreplace@?$_Iosb@H@std@@2W4_Openmode@12@B
	?normalize@?$Vec3@H@Imath@@QAEABV12@XZ
	?fastMinor@?$Matrix44@M@Imath@@QBEMHHHHHH@Z
	?fastMinor@?$Matrix44@N@Imath@@QBENHHHHHH@Z
	??$jacobiRotateRight@M$0A@$00@?A0x735d0683@Imath@@YAXAAV?$Matrix33@M@1@MM@Z
	??0?$Vec3@H@Imath@@QAE@ABV01@@Z
	__CTA2?AVbad_alloc@std@@
	??$jacobiRotateRight@M$0A@$01@?A0x735d0683@Imath@@YAXAAV?$Matrix33@M@1@MM@Z
	??$jacobiRotateRight@M$00$01@?A0x735d0683@Imath@@YAXAAV?$Matrix33@M@1@MM@Z
	??$_Move@AAN@std@@YA$$QANAAN@Z
	?_Grow@?$basic_string@DU?$char_traits@D@std@@V?$allocator@D@2@@std@@QAE_NI_N@Z
	?max_size@?$basic_string@DU?$char_traits@D@std@@V?$allocator@D@2@@std@@QBEIXZ
	??$_Move@AAM@std@@YA$$QAMAAM@Z
	??$jacobiRotateRight@N$0A@$00@?A0x735d0683@Imath@@YAXAAV?$Matrix33@N@1@NN@Z
	??0?$Vec2@H@Imath@@QAE@ABV01@@Z
	??$jacobiRotateRight@N$0A@$01@?A0x735d0683@Imath@@YAXAAV?$Matrix33@N@1@NN@Z
	?showpoint@?$_Iosb@H@std@@2W4_Fmtflags@12@B
	??$jacobiRotateRight@N$00$01@?A0x735d0683@Imath@@YAXAAV?$Matrix33@N@1@NN@Z
	??$jacobiRotateRight@M@?A0x735d0683@Imath@@YAXAAV?$Matrix44@M@1@HHMM@Z
	?length2@?$Vec3@N@Imath@@QBENXZ
	??$maxOffDiagSymm@V?$Matrix33@M@Imath@@@?A0x735d0683@Imath@@YAMABV?$Matrix33@M@1@@Z
	??$jacobiRotation@$0A@$01$00M@?A0x735d0683@Imath@@YA_NAAV?$Matrix33@M@1@0AAV?$Vec3@M@1@M@Z
	??$jacobiRotation@$00$01$0A@M@?A0x735d0683@Imath@@YA_NAAV?$Matrix33@M@1@0AAV?$Vec3@M@1@M@Z
	??$maxOffDiagSymm@V?$Matrix33@N@Imath@@@?A0x735d0683@Imath@@YANABV?$Matrix33@N@1@@Z
	??$jacobiRotation@$0A@$01$00N@?A0x735d0683@Imath@@YA_NAAV?$Matrix33@N@1@0AAV?$Vec3@N@1@N@Z
	??$jacobiRotation@$00$01$0A@N@?A0x735d0683@Imath@@YA_NAAV?$Matrix33@N@1@0AAV?$Vec3@N@1@N@Z
	??$maxOffDiagSymm@V?$Matrix44@M@Imath@@@?A0x735d0683@Imath@@YAMABV?$Matrix44@M@1@@Z
	??$jacobiRotation@$0A@$00$01$02M@?A0x735d0683@Imath@@YA_NAAV?$Matrix44@M@1@0AAV?$Vec4@M@1@M@Z
	??$jacobiRotation@$0A@$01$00$02M@?A0x735d0683@Imath@@YA_NAAV?$Matrix44@M@1@0AAV?$Vec4@M@1@M@Z
	??A?$Vec3@H@Imath@@QAEAAHH@Z
	??$jacobiRotation@$0A@$02$00$01M@?A0x735d0683@Imath@@YA_NAAV?$Matrix44@M@1@0AAV?$Vec4@M@1@M@Z
	??$jacobiRotation@$00$02$0A@$01M@?A0x735d0683@Imath@@YA_NAAV?$Matrix44@M@1@0AAV?$Vec4@M@1@M@Z
	??$jacobiRotation@$01$02$0A@$00M@?A0x735d0683@Imath@@YA_NAAV?$Matrix44@M@1@0AAV?$Vec4@M@1@M@Z
	??0?$Vec4@F@Imath@@QAE@ABV01@@Z
	??$maxOffDiagSymm@V?$Matrix44@N@Imath@@@?A0x735d0683@Imath@@YANABV?$Matrix44@N@1@@Z
	??$jacobiRotation@$0A@$00$01$02N@?A0x735d0683@Imath@@YA_NAAV?$Matrix44@N@1@0AAV?$Vec4@N@1@N@Z
	?normalizedExc@?$Vec3@H@Imath@@QBE?AV12@XZ
	??$jacobiRotation@$0A@$01$00$02N@?A0x735d0683@Imath@@YA_NAAV?$Matrix44@N@1@0AAV?$Vec4@N@1@N@Z
	??$jacobiRotation@$0A@$02$00$01N@?A0x735d0683@Imath@@YA_NAAV?$Matrix44@N@1@0AAV?$Vec4@N@1@N@Z
	?goodbit@?$_Iosb@H@std@@2W4_Iostate@12@B
	??$jacobiRotation@$00$01$0A@$02N@?A0x735d0683@Imath@@YA_NAAV?$Matrix44@N@1@0AAV?$Vec4@N@1@N@Z
	??$jacobiRotation@$00$02$0A@$01N@?A0x735d0683@Imath@@YA_NAAV?$Matrix44@N@1@0AAV?$Vec4@N@1@N@Z
	??$jacobiRotation@$01$02$0A@$00N@?A0x735d0683@Imath@@YA_NAAV?$Matrix44@N@1@0AAV?$Vec4@N@1@N@Z
	??0bad_alloc@std@@QAE@PBD@Z
	?determinant@?$Matrix44@N@Imath@@QBENXZ
	??$maxOffDiag@M@?A0x735d0683@Imath@@YAMABV?$Matrix33@M@1@@Z
	?right@?$_Iosb@H@std@@2W4_Fmtflags@12@B
	??$twoSidedJacobiRotation@M$0A@$00$01@?A0x735d0683@Imath@@YA_NAAV?$Matrix33@M@1@00M@Z
	??$twoSidedJacobiRotation@M$00$01$0A@@?A0x735d0683@Imath@@YA_NAAV?$Matrix33@M@1@00M@Z
	??$maxEigenVector@V?$Matrix33@M@Imath@@V?$Vec3@M@2@@Imath@@YAXAAV?$Matrix33@M@0@AAV?$Vec3@M@0@@Z
	??$swap@M@std@@YAXAAM0@Z
	??$maxOffDiag@N@?A0x735d0683@Imath@@YANABV?$Matrix33@N@1@@Z
	??$twoSidedJacobiRotation@N$0A@$00$01@?A0x735d0683@Imath@@YA_NAAV?$Matrix33@N@1@00N@Z
	??$twoSidedJacobiRotation@N$0A@$01$00@?A0x735d0683@Imath@@YA_NAAV?$Matrix33@N@1@00N@Z
	??$jacobiEigenSolver@N@Imath@@YAXAAV?$Matrix33@N@0@AAV?$Vec3@N@0@0N@Z
	??$twoSidedJacobiRotation@N$00$01$0A@@?A0x735d0683@Imath@@YA_NAAV?$Matrix33@N@1@00N@Z
	??$swap@N@std@@YAXAAN0@Z
	?failbit@?$_Iosb@H@std@@2W4_Iostate@12@B
	??$swapColumns@N@?A0x735d0683@Imath@@YAXAAV?$Matrix33@N@1@HH@Z
	??$jacobiEigenSolver@N@Imath@@YAXAAV?$Matrix44@N@0@AAV?$Vec4@N@0@0@Z
	??$maxOffDiag@M@?A0x735d0683@Imath@@YAMABV?$Matrix44@M@1@@Z
	??$twoSidedJacobiRotation@M@?A0x735d0683@Imath@@YA_NAAV?$Matrix44@M@1@HH00M@Z
	??$maxOffDiag@N@?A0x735d0683@Imath@@YANABV?$Matrix44@N@1@@Z
	?normalizedNonNull@?$Vec3@F@Imath@@QBE?AV12@XZ
	??$twoSidedJacobiRotation@N@?A0x735d0683@Imath@@YA_NAAV?$Matrix44@N@1@HH00N@Z
	??$jacobiEigenSolver@M@Imath@@YAXAAV?$Matrix44@M@0@AAV?$Vec4@M@0@0M@Z
	??$jacobiEigenSolver@N@Imath@@YAXAAV?$Matrix44@N@0@AAV?$Vec4@N@0@0N@Z
	??$minEigenVector@V?$Matrix33@N@Imath@@V?$Vec3@N@2@@Imath@@YAXAAV?$Matrix33@N@0@AAV?$Vec3@N@0@@Z
	??$twoSidedJacobiSVD@M@?A0x735d0683@Imath@@YAXV?$Matrix33@M@1@AAV21@AAV?$Vec3@M@1@1M_N@Z
	??$twoSidedJacobiSVD@N@?A0x735d0683@Imath@@YAXV?$Matrix33@N@1@AAV21@AAV?$Vec3@N@1@1N_N@Z
	?_Xlen@?$basic_string@DU?$char_traits@D@std@@V?$allocator@D@2@@std@@QBEXXZ
	??$twoSidedJacobiSVD@M@?A0x735d0683@Imath@@YAXV?$Matrix44@M@1@AAV21@AAV?$Vec4@M@1@1M_N@Z
	??$twoSidedJacobiSVD@N@?A0x735d0683@Imath@@YAXV?$Matrix44@N@1@AAV21@AAV?$Vec4@N@1@1N_N@Z
	??1IntVecNormalizeExc@Imath@@UAE@XZ
	??$jacobiEigenSolver@M@Imath@@YAXAAV?$Matrix33@M@0@AAV?$Vec3@M@0@0@Z
	??$jacobiEigenSolver@M@Imath@@YAXAAV?$Matrix44@M@0@AAV?$Vec4@M@0@0@Z
	?_Copy@?$basic_string@DU?$char_traits@D@std@@V?$allocator@D@2@@std@@QAEXII@Z
	?cur@?$_Iosb@H@std@@2W4_Seekdir@12@B
	??$jacobiEigenSolver@N@Imath@@YAXAAV?$Matrix33@N@0@AAV?$Vec3@N@0@0@Z
	??$jacobiSVD@M@Imath@@YAXABV?$Matrix33@M@0@AAV10@AAV?$Vec3@M@0@1M_N@Z
	??$jacobiSVD@N@Imath@@YAXABV?$Matrix33@N@0@AAV10@AAV?$Vec3@N@0@1N_N@Z
	??$maxEigenVector@V?$Matrix44@M@Imath@@V?$Vec4@M@2@@Imath@@YAXAAV?$Matrix44@M@0@AAV?$Vec4@M@0@@Z
	??$jacobiSVD@M@Imath@@YAXABV?$Matrix44@M@0@AAV10@AAV?$Vec4@M@0@1M_N@Z
	?normalizedNonNull@?$Vec4@H@Imath@@QBE?AV12@XZ
	??$jacobiSVD@N@Imath@@YAXABV?$Matrix44@N@0@AAV10@AAV?$Vec4@N@0@1N_N@Z
	??$maxEigenVector@V?$Matrix33@N@Imath@@V?$Vec3@N@2@@Imath@@YAXAAV?$Matrix33@N@0@AAV?$Vec3@N@0@@Z
	??$maxEigenVector@V?$Matrix44@N@Imath@@V?$Vec4@N@2@@Imath@@YAXAAV?$Matrix44@N@0@AAV?$Vec4@N@0@@Z
	??$minEigenVector@V?$Matrix33@M@Imath@@V?$Vec3@M@2@@Imath@@YAXAAV?$Matrix33@M@0@AAV?$Vec3@M@0@@Z
	??$minEigenVector@V?$Matrix44@M@Imath@@V?$Vec4@M@2@@Imath@@YAXAAV?$Matrix44@M@0@AAV?$Vec4@M@0@@Z
	??$minEigenVector@V?$Matrix44@N@Imath@@V?$Vec4@N@2@@Imath@@YAXAAV?$Matrix44@N@0@AAV?$Vec4@N@0@@Z
	??$procrustesRotationAndTranslation@N@Imath@@YA?AV?$Matrix44@N@0@PBV?$Vec3@N@0@0PBNI_N@Z
	?erand48@Imath@@YANQAG@Z
	??$procrustesRotationAndTranslation@M@Imath@@YA?AV?$Matrix44@N@0@PBV?$Vec3@M@0@0PBMI_N@Z
	??$procrustesRotationAndTranslation@N@Imath@@YA?AV?$Matrix44@N@0@PBV?$Vec3@N@0@0I_N@Z
	??$procrustesRotationAndTranslation@M@Imath@@YA?AV?$Matrix44@N@0@PBV?$Vec3@M@0@0I_N@Z
	?badbit@?$_Iosb@H@std@@2W4_Iostate@12@B
	?next@Rand32@Imath@@AAEXXZ
	?normalizedExc@?$Vec4@H@Imath@@QBE?AV12@XZ
	?rand48Next@?A0xf39c232e@Imath@@YAXQAG@Z
	?drand48@Imath@@YANXZ
	?nrand48@Imath@@YAJQAG@Z
	?lrand48@Imath@@YAJXZ
	??$normalizeOrThrow@F@?A0x1c54a369@Imath@@YA_NAAV?$Vec2@F@1@@Z
	?srand48@Imath@@YAXJ@Z
	??0MathExc@Iex@@QAE@PBD@Z
	??0NullVecExc@Imath@@QAE@PBD@Z
	?normalizeNonNull@?$Vec4@F@Imath@@QAEABV12@XZ
	??1NullVecExc@Imath@@UAE@XZ
	?_Rank@?$_Arithmetic_traits@K@std@@2HB
	?_Rank@?$_Arithmetic_traits@_K@std@@2HB
	??1MathExc@Iex@@UAE@XZ
	?app@?$_Iosb@H@std@@2W4_Openmode@12@B
	??0IntVecNormalizeExc@Imath@@QAE@PBD@Z
	??0?$Vec2@F@Imath@@QAE@ABV01@@Z
	?dot@?$Vec2@F@Imath@@QBEFABV12@@Z
	?messages@?$_Locbase@H@std@@2HB
	?normalize@?$Vec3@F@Imath@@QAEABV12@XZ
	?dot@?$Vec2@H@Imath@@QBEHABV12@@Z
	??0?$Vec3@F@Imath@@QAE@ABV01@@Z
	?dot@?$Vec3@F@Imath@@QBEFABV12@@Z
	?dot@?$Vec3@H@Imath@@QBEHABV12@@Z
	?dot@?$Vec4@F@Imath@@QBEFABV12@@Z
	??0?$Vec4@H@Imath@@QAE@ABV01@@Z
	?normalizedNonNull@?$Vec3@H@Imath@@QBE?AV12@XZ
	??A?$Vec4@M@Imath@@QAEAAMH@Z
	?dot@?$Vec4@H@Imath@@QBEHABV12@@Z
	??A?$Vec3@F@Imath@@QAEAAFH@Z
	??A?$Vec2@F@Imath@@QAEAAFH@Z
	??A?$Vec4@F@Imath@@QAEAAFH@Z
	?_Rank@?$_Arithmetic_traits@N@std@@2HB
	??A?$Vec4@H@Imath@@QAEAAHH@Z
	??A?$Vec4@M@Imath@@QBEABMH@Z
	??A?$Vec3@M@Imath@@QAEAAMH@Z
	?trunc@?$_Iosb@H@std@@2W4_Openmode@12@B
	?length@?$Vec2@F@Imath@@QBEFXZ
	?length@?$Vec3@F@Imath@@QBEFXZ
	?length@?$Vec3@H@Imath@@QBEHXZ
	?length@?$Vec4@F@Imath@@QBEFXZ
	?length@?$Vec4@H@Imath@@QBEHXZ
	??1bad_alloc@std@@UAE@XZ
	?copy@?$char_traits@D@std@@SAPADPADPBDI@Z
	?move@?$char_traits@D@std@@SAPADPADPBDI@Z
	?assign@?$char_traits@D@std@@SAXAADABD@Z
	??0MathExc@Iex@@QAE@ABV01@@Z
	??0?$allocator@D@std@@QAE@ABV01@@Z
	??0?$_String_val@DV?$allocator@D@std@@@std@@QAE@V?$allocator@D@1@@Z
	?value@?$integral_constant@I$0A@@tr1@std@@2IB
	??1?$_String_val@DV?$allocator@D@std@@@std@@QAE@XZ
	?allocate@?$allocator@D@std@@QAEPADI@Z
	?deallocate@?$allocator@D@std@@QAEXPADI@Z
	?_Xran@?$basic_string@DU?$char_traits@D@std@@V?$allocator@D@2@@std@@QBEXXZ
	??$_Allocate@D@std@@YAPADIPAD@Z
	?fixed@?$_Iosb@H@std@@2W4_Fmtflags@12@B
	??0IntVecNormalizeExc@Imath@@QAE@ABV01@@Z
	??0bad_alloc@std@@QAE@ABV01@@Z
	??0?$_String_val@DV?$allocator@D@std@@@std@@QAE@ABV01@@Z
	?_Eos@?$basic_string@DU?$char_traits@D@std@@V?$allocator@D@2@@std@@QAEXI@Z
	??$normalizeOrThrow@H@?A0x1c54a369@Imath@@YA_NAAV?$Vec2@H@1@@Z
	?showbase@?$_Iosb@H@std@@2W4_Fmtflags@12@B
	??$normalizeOrThrow@H@?A0x1c54a369@Imath@@YA_NAAV?$Vec3@H@1@@Z
	?normalizeNonNull@?$Vec3@F@Imath@@QAEABV12@XZ
	??$normalizeOrThrow@F@?A0x1c54a369@Imath@@YA_NAAV?$Vec4@F@1@@Z
	??$normalizeOrThrow@H@?A0x1c54a369@Imath@@YA_NAAV?$Vec4@H@1@@Z
	?normalizeExc@?$Vec2@F@Imath@@QAEABV12@XZ
	?normalize@?$Vec2@F@Imath@@QAEABV12@XZ
	__CTA7?AVIntVecNormalizeExc@Imath@@
	?normalizedNonNull@?$Vec2@F@Imath@@QBE?AV12@XZ
	?basefield@?$_Iosb@H@std@@2W4_Fmtflags@12@B
	?normalized@?$Vec2@F@Imath@@QBE?AV12@XZ
	?normalizedExc@?$Vec2@F@Imath@@QBE?AV12@XZ
	?normalizeNonNull@?$Vec2@H@Imath@@QAEABV12@XZ
	?normalize@?$Vec2@H@Imath@@QAEABV12@XZ
	?normalizedNonNull@?$Vec2@H@Imath@@QBE?AV12@XZ
	?normalized@?$Vec2@H@Imath@@QBE?AV12@XZ
	?normalizedExc@?$Vec2@H@Imath@@QBE?AV12@XZ
	?normalizeExc@?$Vec3@F@Imath@@QAEABV12@XZ
	?normalizeNonNull@?$Vec3@H@Imath@@QAEABV12@XZ
	?_Rank@?$_Arithmetic_traits@F@std@@2HB
	?boolalpha@?$_Iosb@H@std@@2W4_Fmtflags@12@B
	?normalized@?$Vec3@H@Imath@@QBE?AV12@XZ
	?normalize@?$Vec4@F@Imath@@QAEABV12@XZ
	?normalizedNonNull@?$Vec4@F@Imath@@QBE?AV12@XZ
	__TI7?AVNullVecExc@Imath@@
	?normalized@?$Vec4@F@Imath@@QBE?AV12@XZ
	?normalizedExc@?$Vec4@F@Imath@@QBE?AV12@XZ
	?normalize@?$Vec4@H@Imath@@QAEABV12@XZ
	?left@?$_Iosb@H@std@@2W4_Fmtflags@12@B
	?normalizeNonNull@?$Vec4@H@Imath@@QAEABV12@XZ
	?normalized@?$Vec4@H@Imath@@QBE?AV12@XZ
	?assign@?$basic_string@DU?$char_traits@D@std@@V?$allocator@D@2@@std@@QAEAAV12@ABV12@II@Z
	?hex@?$_Iosb@H@std@@2W4_Fmtflags@12@B
	??0?$basic_string@DU?$char_traits@D@std@@V?$allocator@D@2@@std@@QAE@ABV01@@Z
	?value@?$integral_constant@_N$0A@@tr1@std@@2_NB
	?value@?$integral_constant@_N$00@tr1@std@@2_NB
	?beg@?$_Iosb@H@std@@2W4_Seekdir@12@B
	?_Rank@?$_Arithmetic_traits@G@std@@2HB
	?_Rank@?$_Arithmetic_traits@M@std@@2HB
	?_Rank@?$_Arithmetic_traits@O@std@@2HB
	?_Hardfail@?$_Iosb@H@std@@2W4_Iostate@12@B
	?time@?$_Locbase@H@std@@2HB
	?internal@?$_Iosb@H@std@@2W4_Fmtflags@12@B
	__TI7?AVIntVecNormalizeExc@Imath@@
	?dec@?$_Iosb@H@std@@2W4_Fmtflags@12@B
	?oct@?$_Iosb@H@std@@2W4_Fmtflags@12@B
	?scientific@?$_Iosb@H@std@@2W4_Fmtflags@12@B
	?_Stdio@?$_Iosb@H@std@@2W4_Fmtflags@12@B
	?adjustfield@?$_Iosb@H@std@@2W4_Fmtflags@12@B
	?hexfloat@?$_Iosb@H@std@@2W4_Fmtflags@12@B
	?out@?$_Iosb@H@std@@2W4_Openmode@12@B
	?ctype@?$_Locbase@H@std@@2HB
	?_Rank@?$_Arithmetic_traits@D@std@@2HB
	?unitbuf@?$_Iosb@H@std@@2W4_Fmtflags@12@B
	?end@?$_Iosb@H@std@@2W4_Seekdir@12@B
	?monetary@?$_Locbase@H@std@@2HB
	?uppercase@?$_Iosb@H@std@@2W4_Fmtflags@12@B
	?_Rank@?$_Arithmetic_traits@I@std@@2HB
	?ate@?$_Iosb@H@std@@2W4_Openmode@12@B
	?_Rank@?$_Arithmetic_traits@H@std@@2HB
	?skipws@?$_Iosb@H@std@@2W4_Fmtflags@12@B
	?_Rank@?$_Arithmetic_traits@_N@std@@2HB
	?eofbit@?$_Iosb@H@std@@2W4_Iostate@12@B
	?numeric@?$_Locbase@H@std@@2HB
	?binary@?$_Iosb@H@std@@2W4_Openmode@12@B
	?showpos@?$_Iosb@H@std@@2W4_Fmtflags@12@B
	__mask@@AbsDouble@
	__mask@@NegFloat@
	__mask@@NegDouble@
	__TI2?AVbad_alloc@std@@
	__CTA7?AVNullVecExc@Imath@@
	?identity33f@Imath@@3V?$Matrix33@M@1@A
	?identity33d@Imath@@3V?$Matrix33@N@1@A
	?identity44d@Imath@@3V?$Matrix44@N@1@A
	?staticState@?A0xf39c232e@Imath@@3PAGA
