 IlmImf

 Timestamp is 50fd5743 (Mon Jan 21 22:57:07 2013)

 Preferred load address is 10000000

 Start         Length     Name                   Class
 0001:00000000 0006ed2aH .textbss                DATA
 0002:00000000 000d8864H .text                   CODE
 0002:000d8870 000103f5H .text$x                 CODE
 0002:000e8c70 00001019H .text$yc                CODE
 0002:000e9c90 000010b7H .text$yd                CODE
 0003:00000000 00000104H .CRT$XCA                DATA
 0003:00000104 00000104H .CRT$XCL                DATA
 0003:00000208 00000104H .CRT$XCZ                DATA
 0003:0000030c 00000104H .CRT$XIA                DATA
 0003:00000410 00000104H .CRT$XIAA               DATA
 0003:00000514 00000104H .CRT$XIC                DATA
 0003:00000618 00000104H .CRT$XIZ                DATA
 0003:00000720 00059791H .rdata                  DATA
 0003:00059eb4 00000187H .rdata$debug            DATA
 0003:0005a03c 00002437H .rdata$r                DATA
 0003:0005c474 00000104H .rtc$IAA                DATA
 0003:0005c578 0000021bH .rtc$IMZ                DATA
 0003:0005c794 00000104H .rtc$IZZ                DATA
 0003:0005c898 00000104H .rtc$TAA                DATA
 0003:0005c99c 0000021bH .rtc$TMZ                DATA
 0003:0005cbb8 00000104H .rtc$TZZ                DATA
 0003:0005ccc0 0000eaa6H .xdata$x                DATA
 0003:0006b766 00000000H .edata                  DATA
 0004:00000000 0000159cH .data                   DATA
 0004:000015a0 00000980H .bss                    DATA
 0005:00000000 0000008cH .idata$2                DATA
 0005:0000008c 00000014H .idata$3                DATA
 0005:000000a0 00000594H .idata$4                DATA
 0005:00000634 00000594H .idata$5                DATA
 0005:00000bc8 0000253fH .idata$6                DATA
 0006:00000000 00000169H .rsrc$01                DATA
 0006:00000170 000002e9H .rsrc$02                DATA

  Address         Publics by Value              Rva+Base       Lib:Object

 0000:00000000       __except_list              00000000     <absolute>
 0000:00000000       ___safe_se_handler_count   00000000     <absolute>
 0000:00000000       ___safe_se_handler_table   00000000     <absolute>
 0000:00009876       __ldused                   00009876     <absolute>
 0000:00009876       __fltused                  00009876     <absolute>
 0000:00000000       ___ImageBase               10000000     <linker-defined>
 0001:00000000       __enc$textbss$begin        10001000     <linker-defined>
 0001:0006ed2a       __enc$textbss$end          1006fd2a     <linker-defined>
 0002:00009cf0       ??0Attribute@Imf@@QAE@XZ   10079cf0 f   ImfAttribute.obj
 0002:00009d40       ??_EAttribute@Imf@@UAEPAXI@Z 10079d40 f i ImfAttribute.obj
 0002:00009d40       ??_GAttribute@Imf@@UAEPAXI@Z 10079d40 f i ImfAttribute.obj
 0002:00009db0       ??1Attribute@Imf@@UAE@XZ   10079db0 f   ImfAttribute.obj
 0002:00009df0       ?typeMap@?A0x0779e1ad@Imf@@YAAAVLockedTypeMap@12@XZ 10079df0 f   ImfAttribute.obj
 0002:00009fa0       ??0Lock@IlmThread@@QAE@ABVMutex@1@_N@Z 10079fa0 f i ImfAttribute.obj
 0002:0000a020       ??1Lock@IlmThread@@QAE@XZ  1007a020 f i ImfAttribute.obj
 0002:0000a080       ??0LockedTypeMap@?A0x0779e1ad@Imf@@QAE@XZ 1007a080 f i ImfAttribute.obj
 0002:0000a130       ??1?$map@PBDP6APAVAttribute@Imf@@XZUNameCompare@?A0x0779e1ad@2@V?$allocator@U?$pair@QBDP6APAVAttribute@Imf@@XZ@std@@@std@@@std@@QAE@XZ 1007a130 f i ImfAttribute.obj
 0002:0000a180       ?knownType@Attribute@Imf@@SA_NQBD@Z 1007a180 f   ImfAttribute.obj
 0002:0000a320       ??1?$_Tree_iterator@V?$_Tree_val@V?$_Tmap_traits@PBDP6APAVAttribute@Imf@@XZUNameCompare@?A0x0779e1ad@2@V?$allocator@U?$pair@QBDP6APAVAttribute@Imf@@XZ@std@@@std@@$0A@@std@@@std@@@std@@QAE@XZ 1007a320 f i ImfAttribute.obj
 0002:0000a370       ??1?$_Tree_const_iterator@V?$_Tree_val@V?$_Tmap_traits@PBDP6APAVAttribute@Imf@@XZUNameCompare@?A0x0779e1ad@2@V?$allocator@U?$pair@QBDP6APAVAttribute@Imf@@XZ@std@@@std@@$0A@@std@@@std@@@std@@QAE@XZ 1007a370 f i ImfAttribute.obj
 0002:0000a3c0       ??1?$_Tree_unchecked_const_iterator@V?$_Tree_val@V?$_Tmap_traits@PBDP6APAVAttribute@Imf@@XZUNameCompare@?A0x0779e1ad@2@V?$allocator@U?$pair@QBDP6APAVAttribute@Imf@@XZ@std@@@std@@$0A@@std@@@std@@U_Iterator_base12@2@@std@@QAE@XZ 1007a3c0 f i ImfAttribute.obj
 0002:0000a410       ??1?$_Iterator012@Ubidirectional_iterator_tag@std@@U?$pair@QBDP6APAVAttribute@Imf@@XZ@2@HPBU32@ABU32@U_Iterator_base12@2@@std@@QAE@XZ 1007a410 f i ImfAttribute.obj
 0002:0000a460       ??1_Iterator_base12@std@@QAE@XZ 1007a460 f i ImfAttribute.obj
 0002:0000a560       ?_Orphan_me@_Iterator_base12@std@@QAEXXZ 1007a560 f i ImfAttribute.obj
 0002:0000a630       ?registerAttributeType@Attribute@Imf@@KAXQBDP6APAV12@XZ@Z 1007a630 f   ImfAttribute.obj
 0002:0000a8f0       ??0ArgExc@Iex@@QAE@AAV?$basic_stringstream@DU?$char_traits@D@std@@V?$allocator@D@2@@std@@@Z 1007a8f0 f i ImfAttribute.obj
 0002:0000a960       ??_EArgExc@Iex@@UAEPAXI@Z  1007a960 f i ImfAttribute.obj
 0002:0000a960       ??_GArgExc@Iex@@UAEPAXI@Z  1007a960 f i ImfAttribute.obj
 0002:0000a9d0       ??1ArgExc@Iex@@UAE@XZ      1007a9d0 f i ImfAttribute.obj
 0002:0000aa20       ??_D?$basic_stringstream@DU?$char_traits@D@std@@V?$allocator@D@2@@std@@QAEXXZ 1007aa20 f i ImfAttribute.obj
 0002:0000aa90       ??1?$pair@V?$_Tree_iterator@V?$_Tree_val@V?$_Tmap_traits@PBDP6APAVAttribute@Imf@@XZUNameCompare@?A0x0779e1ad@2@V?$allocator@U?$pair@QBDP6APAVAttribute@Imf@@XZ@std@@@std@@$0A@@std@@@std@@@std@@_N@std@@QAE@XZ 1007aa90 f i ImfAttribute.obj
 0002:0000aae0       ??0ArgExc@Iex@@QAE@ABV01@@Z 1007aae0 f i ImfAttribute.obj
 0002:0000ab50       ??0?$_String_val@DV?$allocator@D@std@@@std@@QAE@ABV01@@Z 1007ab50 f i ImfAttribute.obj
 0002:0000ac20       ??1?$_Pair_base@V?$_Tree_iterator@V?$_Tree_val@V?$_Tmap_traits@PBDP6APAVAttribute@Imf@@XZUNameCompare@?A0x0779e1ad@2@V?$allocator@U?$pair@QBDP6APAVAttribute@Imf@@XZ@std@@@std@@$0A@@std@@@std@@@std@@_N@std@@QAE@XZ 1007ac20 f i ImfAttribute.obj
 0002:0000ac70       ?unRegisterAttributeType@Attribute@Imf@@KAXQBD@Z 1007ac70 f   ImfAttribute.obj
 0002:0000ad70       ?newAttribute@Attribute@Imf@@SAPAV12@QBD@Z 1007ad70 f   ImfAttribute.obj
 0002:0000b050       ??0?$_Tree_const_iterator@V?$_Tree_val@V?$_Tmap_traits@PBDP6APAVAttribute@Imf@@XZUNameCompare@?A0x0779e1ad@2@V?$allocator@U?$pair@QBDP6APAVAttribute@Imf@@XZ@std@@@std@@$0A@@std@@@std@@@std@@QAE@ABV01@@Z 1007b050 f i ImfAttribute.obj
 0002:0000b0b0       ??0?$_Tree_unchecked_const_iterator@V?$_Tree_val@V?$_Tmap_traits@PBDP6APAVAttribute@Imf@@XZUNameCompare@?A0x0779e1ad@2@V?$allocator@U?$pair@QBDP6APAVAttribute@Imf@@XZ@std@@@std@@$0A@@std@@@std@@U_Iterator_base12@2@@std@@QAE@ABV01@@Z 1007b0b0 f i ImfAttribute.obj
 0002:0000b120       ??0?$_Iterator012@Ubidirectional_iterator_tag@std@@U?$pair@QBDP6APAVAttribute@Imf@@XZ@2@HPBU32@ABU32@U_Iterator_base12@2@@std@@QAE@ABU01@@Z 1007b120 f i ImfAttribute.obj
 0002:0000b180       ??0_Iterator_base12@std@@QAE@ABU01@@Z 1007b180 f i ImfAttribute.obj
 0002:0000b200       ??4_Iterator_base12@std@@QAEAAU01@ABU01@@Z 1007b200 f i ImfAttribute.obj
 0002:0000b270       ?_Adopt@_Iterator_base12@std@@QAEXPBU_Container_base12@2@@Z 1007b270 f i ImfAttribute.obj
 0002:0000b3c0       ??0?$basic_string@DU?$char_traits@D@std@@V?$allocator@D@2@@std@@QAE@ABV01@@Z 1007b3c0 f i ImfAttribute.obj
 0002:0000b4a0       ??0?$allocator@D@std@@QAE@ABV01@@Z 1007b4a0 f i ImfAttribute.obj
 0002:0000b4e0       ??0?$basic_stringstream@DU?$char_traits@D@std@@V?$allocator@D@2@@std@@QAE@H@Z 1007b4e0 f i ImfAttribute.obj
 0002:0000b620       ??1?$basic_stringstream@DU?$char_traits@D@std@@V?$allocator@D@2@@std@@UAE@XZ 1007b620 f i ImfAttribute.obj
 0002:0000b6f0       ??1?$basic_stringbuf@DU?$char_traits@D@std@@V?$allocator@D@2@@std@@UAE@XZ 1007b6f0 f i ImfAttribute.obj
 0002:0000b7b0       ?overflow@?$basic_stringbuf@DU?$char_traits@D@std@@V?$allocator@D@2@@std@@MAEHH@Z 1007b7b0 f i ImfAttribute.obj
 0002:0000bcd0       ?copy@?$char_traits@D@std@@SAPADPADPBDI@Z 1007bcd0 f i ImfAttribute.obj
 0002:0000bd30       ?to_char_type@?$char_traits@D@std@@SADABH@Z 1007bd30 f i ImfAttribute.obj
 0002:0000bd70       ?eq_int_type@?$char_traits@D@std@@SA_NABH0@Z 1007bd70 f i ImfAttribute.obj
 0002:0000bdc0       ?not_eof@?$char_traits@D@std@@SAHABH@Z 1007bdc0 f i ImfAttribute.obj
 0002:0000be40       ?eof@?$char_traits@D@std@@SAHXZ 1007be40 f i ImfAttribute.obj
 0002:0000be80       ?pbackfail@?$basic_stringbuf@DU?$char_traits@D@std@@V?$allocator@D@2@@std@@MAEHH@Z 1007be80 f i ImfAttribute.obj
 0002:0000c040       ?eq@?$char_traits@D@std@@SA_NABD0@Z 1007c040 f i ImfAttribute.obj
 0002:0000c090       ?underflow@?$basic_stringbuf@DU?$char_traits@D@std@@V?$allocator@D@2@@std@@MAEHXZ 1007c090 f i ImfAttribute.obj
 0002:0000c2b0       ?to_int_type@?$char_traits@D@std@@SAHABD@Z 1007c2b0 f i ImfAttribute.obj
 0002:0000c2f0       ?seekoff@?$basic_stringbuf@DU?$char_traits@D@std@@V?$allocator@D@2@@std@@MAE?AV?$fpos@H@2@_JHH@Z 1007c2f0 f i ImfAttribute.obj
 0002:0000c7d0       ?seekpos@?$basic_stringbuf@DU?$char_traits@D@std@@V?$allocator@D@2@@std@@MAE?AV?$fpos@H@2@V32@H@Z 1007c7d0 f i ImfAttribute.obj
 0002:0000cb90       ??0?$map@PBDP6APAVAttribute@Imf@@XZUNameCompare@?A0x0779e1ad@2@V?$allocator@U?$pair@QBDP6APAVAttribute@Imf@@XZ@std@@@std@@@std@@QAE@XZ 1007cb90 f i ImfAttribute.obj
 0002:0000cc00       ??1?$_Tree@V?$_Tmap_traits@PBDP6APAVAttribute@Imf@@XZUNameCompare@?A0x0779e1ad@2@V?$allocator@U?$pair@QBDP6APAVAttribute@Imf@@XZ@std@@@std@@$0A@@std@@@std@@QAE@XZ 1007cc00 f i ImfAttribute.obj
 0002:0000cca0       ?end@?$_Tree@V?$_Tmap_traits@PBDP6APAVAttribute@Imf@@XZUNameCompare@?A0x0779e1ad@2@V?$allocator@U?$pair@QBDP6APAVAttribute@Imf@@XZ@std@@@std@@$0A@@std@@@std@@QAE?AV?$_Tree_iterator@V?$_Tree_val@V?$_Tmap_traits@PBDP6APAVAttribute@Imf@@XZUNameCompare@?A0x0779e1ad@2@V?$allocator@U?$pair@QBDP6APAVAttribute@Imf@@XZ@std@@@std@@$0A@@std@@@std@@@2@XZ 1007cca0 f i ImfAttribute.obj
 0002:0000cd30       ?erase@?$_Tree@V?$_Tmap_traits@PBDP6APAVAttribute@Imf@@XZUNameCompare@?A0x0779e1ad@2@V?$allocator@U?$pair@QBDP6APAVAttribute@Imf@@XZ@std@@@std@@$0A@@std@@@std@@QAEIABQBD@Z 1007cd30 f i ImfAttribute.obj
 0002:0000cf40       ?find@?$_Tree@V?$_Tmap_traits@PBDP6APAVAttribute@Imf@@XZUNameCompare@?A0x0779e1ad@2@V?$allocator@U?$pair@QBDP6APAVAttribute@Imf@@XZ@std@@@std@@$0A@@std@@@std@@QAE?AV?$_Tree_iterator@V?$_Tree_val@V?$_Tmap_traits@PBDP6APAVAttribute@Imf@@XZUNameCompare@?A0x0779e1ad@2@V?$allocator@U?$pair@QBDP6APAVAttribute@Imf@@XZ@std@@@std@@$0A@@std@@@std@@@2@ABQBD@Z 1007cf40 f i ImfAttribute.obj
 0002:0000d240       ??8?$_Tree_const_iterator@V?$_Tree_val@V?$_Tmap_traits@PBDP6APAVAttribute@Imf@@XZUNameCompare@?A0x0779e1ad@2@V?$allocator@U?$pair@QBDP6APAVAttribute@Imf@@XZ@std@@@std@@$0A@@std@@@std@@@std@@QBE_NABV01@@Z 1007d240 f i ImfAttribute.obj
 0002:0000d370       ?_Getcont@_Iterator_base12@std@@QBEPBU_Container_base12@2@XZ 1007d370 f i ImfAttribute.obj
 0002:0000d3e0       ??9?$_Tree_const_iterator@V?$_Tree_val@V?$_Tmap_traits@PBDP6APAVAttribute@Imf@@XZUNameCompare@?A0x0779e1ad@2@V?$allocator@U?$pair@QBDP6APAVAttribute@Imf@@XZ@std@@@std@@$0A@@std@@@std@@@std@@QBE_NABV01@@Z 1007d3e0 f i ImfAttribute.obj
 0002:0000d450       ??C?$_Tree_unchecked_const_iterator@V?$_Tree_val@V?$_Tmap_traits@PBDP6APAVAttribute@Imf@@XZUNameCompare@?A0x0779e1ad@2@V?$allocator@U?$pair@QBDP6APAVAttribute@Imf@@XZ@std@@@std@@$0A@@std@@@std@@U_Iterator_base12@2@@std@@QBEPBU?$pair@QBDP6APAVAttribute@Imf@@XZ@1@XZ 1007d450 f i ImfAttribute.obj
 0002:0000d4a0       ??_G?$basic_stringstream@DU?$char_traits@D@std@@V?$allocator@D@2@@std@@UAEPAXI@Z 1007d4a0 f i ImfAttribute.obj
 0002:0000d4a0       ??_E?$basic_stringstream@DU?$char_traits@D@std@@V?$allocator@D@2@@std@@UAEPAXI@Z 1007d4a0 f i ImfAttribute.obj
 0002:0000d520       ??_E?$basic_stringbuf@DU?$char_traits@D@std@@V?$allocator@D@2@@std@@UAEPAXI@Z 1007d520 f i ImfAttribute.obj
 0002:0000d520       ??_G?$basic_stringbuf@DU?$char_traits@D@std@@V?$allocator@D@2@@std@@UAEPAXI@Z 1007d520 f i ImfAttribute.obj
 0002:0000d590       ??1?$pair@V?$_Tree_iterator@V?$_Tree_val@V?$_Tmap_traits@PBDP6APAVAttribute@Imf@@XZUNameCompare@?A0x0779e1ad@2@V?$allocator@U?$pair@QBDP6APAVAttribute@Imf@@XZ@std@@@std@@$0A@@std@@@std@@@std@@V12@@std@@QAE@XZ 1007d590 f i ImfAttribute.obj
 0002:0000d5e0       ??0?$_Tree_iterator@V?$_Tree_val@V?$_Tmap_traits@PBDP6APAVAttribute@Imf@@XZUNameCompare@?A0x0779e1ad@2@V?$allocator@U?$pair@QBDP6APAVAttribute@Imf@@XZ@std@@@std@@$0A@@std@@@std@@@std@@QAE@ABV01@@Z 1007d5e0 f i ImfAttribute.obj
 0002:0000d640       ??1?$_Pair_base@V?$_Tree_iterator@V?$_Tree_val@V?$_Tmap_traits@PBDP6APAVAttribute@Imf@@XZUNameCompare@?A0x0779e1ad@2@V?$allocator@U?$pair@QBDP6APAVAttribute@Imf@@XZ@std@@@std@@$0A@@std@@@std@@@std@@V12@@std@@QAE@XZ 1007d640 f i ImfAttribute.obj
 0002:0000d6f0       ?assign@?$basic_string@DU?$char_traits@D@std@@V?$allocator@D@2@@std@@QAEAAV12@ABV12@II@Z 1007d6f0 f i ImfAttribute.obj
 0002:0000d810       ?size@?$basic_string@DU?$char_traits@D@std@@V?$allocator@D@2@@std@@QBEIXZ 1007d810 f i ImfAttribute.obj
 0002:0000d850       ?_Tidy@?$basic_string@DU?$char_traits@D@std@@V?$allocator@D@2@@std@@QAEX_NI@Z 1007d850 f i ImfAttribute.obj
 0002:0000d920       ?_Myptr@?$basic_string@DU?$char_traits@D@std@@V?$allocator@D@2@@std@@QBEPBDXZ 1007d920 f i ImfAttribute.obj
 0002:0000d990       ??0?$_String_val@DV?$allocator@D@std@@@std@@QAE@V?$allocator@D@1@@Z 1007d990 f i ImfAttribute.obj
 0002:0000dae0       ??0_Container_proxy@std@@QAE@XZ 1007dae0 f i ImfAttribute.obj
 0002:0000db30       ??1?$_String_val@DV?$allocator@D@std@@@std@@QAE@XZ 1007db30 f i ImfAttribute.obj
 0002:0000dc70       ?deallocate@?$allocator@D@std@@QAEXPADI@Z 1007dc70 f i ImfAttribute.obj
 0002:0000dcd0       ?allocate@?$allocator@D@std@@QAEPADI@Z 1007dcd0 f i ImfAttribute.obj
 0002:0000dd30       ??0?$basic_stringbuf@DU?$char_traits@D@std@@V?$allocator@D@2@@std@@QAE@H@Z 1007dd30 f i ImfAttribute.obj
 0002:0000de10       ??0?$allocator@D@std@@QAE@XZ 1007de10 f i ImfAttribute.obj
 0002:0000de50       ?_Tidy@?$basic_stringbuf@DU?$char_traits@D@std@@V?$allocator@D@2@@std@@IAEXXZ 1007de50 f i ImfAttribute.obj
 0002:0000dfb0       ??0?$_Tree@V?$_Tmap_traits@PBDP6APAVAttribute@Imf@@XZUNameCompare@?A0x0779e1ad@2@V?$allocator@U?$pair@QBDP6APAVAttribute@Imf@@XZ@std@@@std@@$0A@@std@@@std@@QAE@ABUNameCompare@?A0x0779e1ad@Imf@@ABV?$allocator@U?$pair@QBDP6APAVAttribute@Imf@@XZ@std@@@1@@Z 1007dfb0 f i ImfAttribute.obj
 0002:0000e020       ?erase@?$_Tree@V?$_Tmap_traits@PBDP6APAVAttribute@Imf@@XZUNameCompare@?A0x0779e1ad@2@V?$allocator@U?$pair@QBDP6APAVAttribute@Imf@@XZ@std@@@std@@$0A@@std@@@std@@QAE?AV?$_Tree_iterator@V?$_Tree_val@V?$_Tmap_traits@PBDP6APAVAttribute@Imf@@XZUNameCompare@?A0x0779e1ad@2@V?$allocator@U?$pair@QBDP6APAVAttribute@Imf@@XZ@std@@@std@@$0A@@std@@@std@@@2@V?$_Tree_const_iterator@V?$_Tree_val@V?$_Tmap_traits@PBDP6APAVAttribute@Imf@@XZUNameCompare@?A0x0779e1ad@2@V?$allocator@U?$pair@QBDP6APAVAttribute@Imf@@XZ@std@@@std@@$0A@@std@@@std@@@2@0@Z 1007e020 f i ImfAttribute.obj
 0002:0000e330       ?lower_bound@?$_Tree@V?$_Tmap_traits@PBDP6APAVAttribute@Imf@@XZUNameCompare@?A0x0779e1ad@2@V?$allocator@U?$pair@QBDP6APAVAttribute@Imf@@XZ@std@@@std@@$0A@@std@@@std@@QAE?AV?$_Tree_iterator@V?$_Tree_val@V?$_Tmap_traits@PBDP6APAVAttribute@Imf@@XZUNameCompare@?A0x0779e1ad@2@V?$allocator@U?$pair@QBDP6APAVAttribute@Imf@@XZ@std@@@std@@$0A@@std@@@std@@@2@ABQBD@Z 1007e330 f i ImfAttribute.obj
 0002:0000e3c0       ?equal_range@?$_Tree@V?$_Tmap_traits@PBDP6APAVAttribute@Imf@@XZUNameCompare@?A0x0779e1ad@2@V?$allocator@U?$pair@QBDP6APAVAttribute@Imf@@XZ@std@@@std@@$0A@@std@@@std@@QAE?AU?$pair@V?$_Tree_iterator@V?$_Tree_val@V?$_Tmap_traits@PBDP6APAVAttribute@Imf@@XZUNameCompare@?A0x0779e1ad@2@V?$allocator@U?$pair@QBDP6APAVAttribute@Imf@@XZ@std@@@std@@$0A@@std@@@std@@@std@@V12@@2@ABQBD@Z 1007e3c0 f i ImfAttribute.obj
 0002:0000e440       ?_Tidy@?$_Tree@V?$_Tmap_traits@PBDP6APAVAttribute@Imf@@XZUNameCompare@?A0x0779e1ad@2@V?$allocator@U?$pair@QBDP6APAVAttribute@Imf@@XZ@std@@@std@@$0A@@std@@@std@@IAEXXZ 1007e440 f i ImfAttribute.obj
 0002:0000e5d0       ??1?$_Tree_val@V?$_Tmap_traits@PBDP6APAVAttribute@Imf@@XZUNameCompare@?A0x0779e1ad@2@V?$allocator@U?$pair@QBDP6APAVAttribute@Imf@@XZ@std@@@std@@$0A@@std@@@std@@QAE@XZ 1007e5d0 f i ImfAttribute.obj
 0002:0000e680       ?_Key@?$_Tree_val@V?$_Tmap_traits@PBDP6APAVAttribute@Imf@@XZUNameCompare@?A0x0779e1ad@2@V?$allocator@U?$pair@QBDP6APAVAttribute@Imf@@XZ@std@@@std@@$0A@@std@@@std@@SAAAPBDPAU_Node@?$_Tree_nod@V?$_Tmap_traits@PBDP6APAVAttribute@Imf@@XZUNameCompare@?A0x0779e1ad@2@V?$allocator@U?$pair@QBDP6APAVAttribute@Imf@@XZ@std@@@std@@$0A@@std@@@2@@Z 1007e680 f i ImfAttribute.obj
 0002:0000e6e0       ??0?$allocator@U?$pair@QBDP6APAVAttribute@Imf@@XZ@std@@@std@@QAE@XZ 1007e6e0 f i ImfAttribute.obj
 0002:0000e720       ??0?$_Tree_iterator@V?$_Tree_val@V?$_Tmap_traits@PBDP6APAVAttribute@Imf@@XZUNameCompare@?A0x0779e1ad@2@V?$allocator@U?$pair@QBDP6APAVAttribute@Imf@@XZ@std@@@std@@$0A@@std@@@std@@@std@@QAE@PAU_Node@?$_Tree_nod@V?$_Tmap_traits@PBDP6APAVAttribute@Imf@@XZUNameCompare@?A0x0779e1ad@2@V?$allocator@U?$pair@QBDP6APAVAttribute@Imf@@XZ@std@@@std@@$0A@@std@@@1@PBV?$_Tree_val@V?$_Tmap_traits@PBDP6APAVAttribute@Imf@@XZUNameCompare@?A0x0779e1ad@2@V?$allocator@U?$pair@QBDP6APAVAttribute@Imf@@XZ@std@@@std@@$0A@@std@@@1@@Z 1007e720 f i ImfAttribute.obj
 0002:0000e780       ??D?$_Tree_unchecked_const_iterator@V?$_Tree_val@V?$_Tmap_traits@PBDP6APAVAttribute@Imf@@XZUNameCompare@?A0x0779e1ad@2@V?$allocator@U?$pair@QBDP6APAVAttribute@Imf@@XZ@std@@@std@@$0A@@std@@@std@@U_Iterator_base12@2@@std@@QBEABU?$pair@QBDP6APAVAttribute@Imf@@XZ@1@XZ 1007e780 f i ImfAttribute.obj
 0002:0000e7e0       ?_Mynode@?$_Tree_unchecked_const_iterator@V?$_Tree_val@V?$_Tmap_traits@PBDP6APAVAttribute@Imf@@XZUNameCompare@?A0x0779e1ad@2@V?$allocator@U?$pair@QBDP6APAVAttribute@Imf@@XZ@std@@@std@@$0A@@std@@@std@@U_Iterator_base12@2@@std@@QBEPAU_Node@?$_Tree_nod@V?$_Tmap_traits@PBDP6APAVAttribute@Imf@@XZUNameCompare@?A0x0779e1ad@2@V?$allocator@U?$pair@QBDP6APAVAttribute@Imf@@XZ@std@@@std@@$0A@@std@@@2@XZ 1007e7e0 f i ImfAttribute.obj
 0002:0000e820       ??0?$fpos@H@std@@QAE@_J@Z  1007e820 f i ImfAttribute.obj
 0002:0000e890       ??B?$fpos@H@std@@QBE_JXZ   1007e890 f i ImfAttribute.obj
 0002:0000e8e0       ?erase@?$basic_string@DU?$char_traits@D@std@@V?$allocator@D@2@@std@@QAEAAV12@II@Z 1007e8e0 f i ImfAttribute.obj
 0002:0000e9d0       ?move@?$char_traits@D@std@@SAPADPADPBDI@Z 1007e9d0 f i ImfAttribute.obj
 0002:0000ea40       ?_Eos@?$basic_string@DU?$char_traits@D@std@@V?$allocator@D@2@@std@@QAEXI@Z 1007ea40 f i ImfAttribute.obj
 0002:0000eac0       ?assign@?$char_traits@D@std@@SAXAADABD@Z 1007eac0 f i ImfAttribute.obj
 0002:0000eb00       ?_Grow@?$basic_string@DU?$char_traits@D@std@@V?$allocator@D@2@@std@@QAE_NI_N@Z 1007eb00 f i ImfAttribute.obj
 0002:0000ec00       ?_Myptr@?$basic_string@DU?$char_traits@D@std@@V?$allocator@D@2@@std@@QAEPADXZ 1007ec00 f i ImfAttribute.obj
 0002:0000ec70       ?_Xlen@?$basic_string@DU?$char_traits@D@std@@V?$allocator@D@2@@std@@QBEXXZ 1007ec70 f i ImfAttribute.obj
 0002:0000ecd0       ?_Xran@?$basic_string@DU?$char_traits@D@std@@V?$allocator@D@2@@std@@QBEXXZ 1007ecd0 f i ImfAttribute.obj
 0002:0000ed30       ?_Init@?$basic_stringbuf@DU?$char_traits@D@std@@V?$allocator@D@2@@std@@IAEXPBDIH@Z 1007ed30 f i ImfAttribute.obj
 0002:0000eee0       ?_Getstate@?$basic_stringbuf@DU?$char_traits@D@std@@V?$allocator@D@2@@std@@AAEHH@Z 1007eee0 f i ImfAttribute.obj
 0002:0000ef80       ?begin@?$_Tree@V?$_Tmap_traits@PBDP6APAVAttribute@Imf@@XZUNameCompare@?A0x0779e1ad@2@V?$allocator@U?$pair@QBDP6APAVAttribute@Imf@@XZ@std@@@std@@$0A@@std@@@std@@QAE?AV?$_Tree_iterator@V?$_Tree_val@V?$_Tmap_traits@PBDP6APAVAttribute@Imf@@XZUNameCompare@?A0x0779e1ad@2@V?$allocator@U?$pair@QBDP6APAVAttribute@Imf@@XZ@std@@@std@@$0A@@std@@@std@@@2@XZ 1007ef80 f i ImfAttribute.obj
 0002:0000f010       ?erase@?$_Tree@V?$_Tmap_traits@PBDP6APAVAttribute@Imf@@XZUNameCompare@?A0x0779e1ad@2@V?$allocator@U?$pair@QBDP6APAVAttribute@Imf@@XZ@std@@@std@@$0A@@std@@@std@@QAE?AV?$_Tree_iterator@V?$_Tree_val@V?$_Tmap_traits@PBDP6APAVAttribute@Imf@@XZUNameCompare@?A0x0779e1ad@2@V?$allocator@U?$pair@QBDP6APAVAttribute@Imf@@XZ@std@@@std@@$0A@@std@@@std@@@2@V?$_Tree_const_iterator@V?$_Tree_val@V?$_Tmap_traits@PBDP6APAVAttribute@Imf@@XZUNameCompare@?A0x0779e1ad@2@V?$allocator@U?$pair@QBDP6APAVAttribute@Imf@@XZ@std@@@std@@$0A@@std@@@std@@@2@@Z 1007f010 f i ImfAttribute.obj
 0002:0000fa70       ?clear@?$_Tree@V?$_Tmap_traits@PBDP6APAVAttribute@Imf@@XZUNameCompare@?A0x0779e1ad@2@V?$allocator@U?$pair@QBDP6APAVAttribute@Imf@@XZ@std@@@std@@$0A@@std@@@std@@QAEXXZ 1007fa70 f i ImfAttribute.obj
 0002:0000fb30       ?_Eqrange@?$_Tree@V?$_Tmap_traits@PBDP6APAVAttribute@Imf@@XZUNameCompare@?A0x0779e1ad@2@V?$allocator@U?$pair@QBDP6APAVAttribute@Imf@@XZ@std@@@std@@$0A@@std@@@std@@IAE?AU?$pair@V?$_Tree_iterator@V?$_Tree_val@V?$_Tmap_traits@PBDP6APAVAttribute@Imf@@XZUNameCompare@?A0x0779e1ad@2@V?$allocator@U?$pair@QBDP6APAVAttribute@Imf@@XZ@std@@@std@@$0A@@std@@@std@@@std@@V12@@2@ABQBD@Z 1007fb30 f i ImfAttribute.obj
 0002:0000fe80       ?_Lbound@?$_Tree@V?$_Tmap_traits@PBDP6APAVAttribute@Imf@@XZUNameCompare@?A0x0779e1ad@2@V?$allocator@U?$pair@QBDP6APAVAttribute@Imf@@XZ@std@@@std@@$0A@@std@@@std@@IAEPAU_Node@?$_Tree_nod@V?$_Tmap_traits@PBDP6APAVAttribute@Imf@@XZUNameCompare@?A0x0779e1ad@2@V?$allocator@U?$pair@QBDP6APAVAttribute@Imf@@XZ@std@@@std@@$0A@@std@@@2@ABQBD@Z 1007fe80 f i ImfAttribute.obj
 0002:0000ff80       ??0?$_Tree_val@V?$_Tmap_traits@PBDP6APAVAttribute@Imf@@XZUNameCompare@?A0x0779e1ad@2@V?$allocator@U?$pair@QBDP6APAVAttribute@Imf@@XZ@std@@@std@@$0A@@std@@@std@@QAE@ABUNameCompare@?A0x0779e1ad@Imf@@V?$allocator@U?$pair@QBDP6APAVAttribute@Imf@@XZ@std@@@1@@Z 1007ff80 f i ImfAttribute.obj
 0002:000100e0       ?_Myval@?$_Tree_val@V?$_Tmap_traits@PBDP6APAVAttribute@Imf@@XZUNameCompare@?A0x0779e1ad@2@V?$allocator@U?$pair@QBDP6APAVAttribute@Imf@@XZ@std@@@std@@$0A@@std@@@std@@SAAAU?$pair@QBDP6APAVAttribute@Imf@@XZ@2@PAU_Node@?$_Tree_nod@V?$_Tmap_traits@PBDP6APAVAttribute@Imf@@XZUNameCompare@?A0x0779e1ad@2@V?$allocator@U?$pair@QBDP6APAVAttribute@Imf@@XZ@std@@@std@@$0A@@std@@@2@@Z 100800e0 f i ImfAttribute.obj
 0002:00010120       ??1?$_Tree_nod@V?$_Tmap_traits@PBDP6APAVAttribute@Imf@@XZUNameCompare@?A0x0779e1ad@2@V?$allocator@U?$pair@QBDP6APAVAttribute@Imf@@XZ@std@@@std@@$0A@@std@@@std@@QAE@XZ 10080120 f i ImfAttribute.obj
 0002:00010250       ??0?$allocator@U?$pair@QBDP6APAVAttribute@Imf@@XZ@std@@@std@@QAE@ABV01@@Z 10080250 f i ImfAttribute.obj
 0002:00010290       ?deallocate@?$allocator@U_Node@?$_Tree_nod@V?$_Tmap_traits@PBDP6APAVAttribute@Imf@@XZUNameCompare@?A0x0779e1ad@2@V?$allocator@U?$pair@QBDP6APAVAttribute@Imf@@XZ@std@@@std@@$0A@@std@@@std@@@std@@QAEXPAU_Node@?$_Tree_nod@V?$_Tmap_traits@PBDP6APAVAttribute@Imf@@XZUNameCompare@?A0x0779e1ad@2@V?$allocator@U?$pair@QBDP6APAVAttribute@Imf@@XZ@std@@@std@@$0A@@std@@@2@I@Z 10080290 f i ImfAttribute.obj
 0002:000102f0       ??0?$_Tree_const_iterator@V?$_Tree_val@V?$_Tmap_traits@PBDP6APAVAttribute@Imf@@XZUNameCompare@?A0x0779e1ad@2@V?$allocator@U?$pair@QBDP6APAVAttribute@Imf@@XZ@std@@@std@@$0A@@std@@@std@@@std@@QAE@PAU_Node@?$_Tree_nod@V?$_Tmap_traits@PBDP6APAVAttribute@Imf@@XZUNameCompare@?A0x0779e1ad@2@V?$allocator@U?$pair@QBDP6APAVAttribute@Imf@@XZ@std@@@std@@$0A@@std@@@1@PBV?$_Tree_val@V?$_Tmap_traits@PBDP6APAVAttribute@Imf@@XZUNameCompare@?A0x0779e1ad@2@V?$allocator@U?$pair@QBDP6APAVAttribute@Imf@@XZ@std@@@std@@$0A@@std@@@1@@Z 100802f0 f i ImfAttribute.obj
 0002:00010350       ??E?$_Tree_const_iterator@V?$_Tree_val@V?$_Tmap_traits@PBDP6APAVAttribute@Imf@@XZUNameCompare@?A0x0779e1ad@2@V?$allocator@U?$pair@QBDP6APAVAttribute@Imf@@XZ@std@@@std@@$0A@@std@@@std@@@std@@QAE?AV01@H@Z 10080350 f i ImfAttribute.obj
 0002:00010470       ?deallocate@?$allocator@U_Container_proxy@std@@@std@@QAEXPAU_Container_proxy@2@I@Z 10080470 f i ImfAttribute.obj
 0002:000104d0       ?allocate@?$allocator@U_Container_proxy@std@@@std@@QAEPAU_Container_proxy@2@I@Z 100804d0 f i ImfAttribute.obj
 0002:00010530       ??1?$_Tmap_traits@PBDP6APAVAttribute@Imf@@XZUNameCompare@?A0x0779e1ad@2@V?$allocator@U?$pair@QBDP6APAVAttribute@Imf@@XZ@std@@@std@@$0A@@std@@QAE@XZ 10080530 f i ImfAttribute.obj
 0002:00010590       ?max_size@?$basic_string@DU?$char_traits@D@std@@V?$allocator@D@2@@std@@QBEIXZ 10080590 f i ImfAttribute.obj
 0002:00010620       ?_Copy@?$basic_string@DU?$char_traits@D@std@@V?$allocator@D@2@@std@@QAEXII@Z 10080620 f i ImfAttribute.obj
 0002:00010850       ?_Erase@?$_Tree@V?$_Tmap_traits@PBDP6APAVAttribute@Imf@@XZUNameCompare@?A0x0779e1ad@2@V?$allocator@U?$pair@QBDP6APAVAttribute@Imf@@XZ@std@@@std@@$0A@@std@@@std@@IAEXPAU_Node@?$_Tree_nod@V?$_Tmap_traits@PBDP6APAVAttribute@Imf@@XZUNameCompare@?A0x0779e1ad@2@V?$allocator@U?$pair@QBDP6APAVAttribute@Imf@@XZ@std@@@std@@$0A@@std@@@2@@Z 10080850 f i ImfAttribute.obj
 0002:00010940       ?_Lmost@?$_Tree@V?$_Tmap_traits@PBDP6APAVAttribute@Imf@@XZUNameCompare@?A0x0779e1ad@2@V?$allocator@U?$pair@QBDP6APAVAttribute@Imf@@XZ@std@@@std@@$0A@@std@@@std@@IBEAAPAU_Node@?$_Tree_nod@V?$_Tmap_traits@PBDP6APAVAttribute@Imf@@XZUNameCompare@?A0x0779e1ad@2@V?$allocator@U?$pair@QBDP6APAVAttribute@Imf@@XZ@std@@@std@@$0A@@std@@@2@XZ 10080940 f i ImfAttribute.obj
 0002:000109a0       ?_Lrotate@?$_Tree@V?$_Tmap_traits@PBDP6APAVAttribute@Imf@@XZUNameCompare@?A0x0779e1ad@2@V?$allocator@U?$pair@QBDP6APAVAttribute@Imf@@XZ@std@@@std@@$0A@@std@@@std@@IAEXPAU_Node@?$_Tree_nod@V?$_Tmap_traits@PBDP6APAVAttribute@Imf@@XZUNameCompare@?A0x0779e1ad@2@V?$allocator@U?$pair@QBDP6APAVAttribute@Imf@@XZ@std@@@std@@$0A@@std@@@2@@Z 100809a0 f i ImfAttribute.obj
 0002:00010b50       ?_Rmost@?$_Tree@V?$_Tmap_traits@PBDP6APAVAttribute@Imf@@XZUNameCompare@?A0x0779e1ad@2@V?$allocator@U?$pair@QBDP6APAVAttribute@Imf@@XZ@std@@@std@@$0A@@std@@@std@@IBEAAPAU_Node@?$_Tree_nod@V?$_Tmap_traits@PBDP6APAVAttribute@Imf@@XZUNameCompare@?A0x0779e1ad@2@V?$allocator@U?$pair@QBDP6APAVAttribute@Imf@@XZ@std@@@std@@$0A@@std@@@2@XZ 10080b50 f i ImfAttribute.obj
 0002:00010bb0       ?_Root@?$_Tree@V?$_Tmap_traits@PBDP6APAVAttribute@Imf@@XZUNameCompare@?A0x0779e1ad@2@V?$allocator@U?$pair@QBDP6APAVAttribute@Imf@@XZ@std@@@std@@$0A@@std@@@std@@IBEAAPAU_Node@?$_Tree_nod@V?$_Tmap_traits@PBDP6APAVAttribute@Imf@@XZUNameCompare@?A0x0779e1ad@2@V?$allocator@U?$pair@QBDP6APAVAttribute@Imf@@XZ@std@@@std@@$0A@@std@@@2@XZ 10080bb0 f i ImfAttribute.obj
 0002:00010c10       ?_Rrotate@?$_Tree@V?$_Tmap_traits@PBDP6APAVAttribute@Imf@@XZUNameCompare@?A0x0779e1ad@2@V?$allocator@U?$pair@QBDP6APAVAttribute@Imf@@XZ@std@@@std@@$0A@@std@@@std@@IAEXPAU_Node@?$_Tree_nod@V?$_Tmap_traits@PBDP6APAVAttribute@Imf@@XZUNameCompare@?A0x0779e1ad@2@V?$allocator@U?$pair@QBDP6APAVAttribute@Imf@@XZ@std@@@std@@$0A@@std@@@2@@Z 10080c10 f i ImfAttribute.obj
 0002:00010dc0       ?_Orphan_ptr@?$_Tree@V?$_Tmap_traits@PBDP6APAVAttribute@Imf@@XZUNameCompare@?A0x0779e1ad@2@V?$allocator@U?$pair@QBDP6APAVAttribute@Imf@@XZ@std@@@std@@$0A@@std@@@std@@IBEXAAV12@PAU_Node@?$_Tree_nod@V?$_Tmap_traits@PBDP6APAVAttribute@Imf@@XZUNameCompare@?A0x0779e1ad@2@V?$allocator@U?$pair@QBDP6APAVAttribute@Imf@@XZ@std@@@std@@$0A@@std@@@2@@Z 10080dc0 f i ImfAttribute.obj
 0002:00010f50       ?_Clrcont@_Iterator_base12@std@@QAEXXZ 10080f50 f i ImfAttribute.obj
 0002:00010f90       ?_Getpnext@_Iterator_base12@std@@QAEPAPAU12@XZ 10080f90 f i ImfAttribute.obj
 0002:00010fd0       ?_Color@?$_Tree_val@V?$_Tmap_traits@PBDP6APAVAttribute@Imf@@XZUNameCompare@?A0x0779e1ad@2@V?$allocator@U?$pair@QBDP6APAVAttribute@Imf@@XZ@std@@@std@@$0A@@std@@@std@@SAAADPAU_Node@?$_Tree_nod@V?$_Tmap_traits@PBDP6APAVAttribute@Imf@@XZUNameCompare@?A0x0779e1ad@2@V?$allocator@U?$pair@QBDP6APAVAttribute@Imf@@XZ@std@@@std@@$0A@@std@@@2@@Z 10080fd0 f i ImfAttribute.obj
 0002:00011010       ?_Isnil@?$_Tree_val@V?$_Tmap_traits@PBDP6APAVAttribute@Imf@@XZUNameCompare@?A0x0779e1ad@2@V?$allocator@U?$pair@QBDP6APAVAttribute@Imf@@XZ@std@@@std@@$0A@@std@@@std@@SAAADPAU_Node@?$_Tree_nod@V?$_Tmap_traits@PBDP6APAVAttribute@Imf@@XZUNameCompare@?A0x0779e1ad@2@V?$allocator@U?$pair@QBDP6APAVAttribute@Imf@@XZ@std@@@std@@$0A@@std@@@2@@Z 10081010 f i ImfAttribute.obj
 0002:00011050       ?_Left@?$_Tree_val@V?$_Tmap_traits@PBDP6APAVAttribute@Imf@@XZUNameCompare@?A0x0779e1ad@2@V?$allocator@U?$pair@QBDP6APAVAttribute@Imf@@XZ@std@@@std@@$0A@@std@@@std@@SAAAPAU_Node@?$_Tree_nod@V?$_Tmap_traits@PBDP6APAVAttribute@Imf@@XZUNameCompare@?A0x0779e1ad@2@V?$allocator@U?$pair@QBDP6APAVAttribute@Imf@@XZ@std@@@std@@$0A@@std@@@2@PAU342@@Z 10081050 f i ImfAttribute.obj
 0002:00011090       ?_Parent@?$_Tree_val@V?$_Tmap_traits@PBDP6APAVAttribute@Imf@@XZUNameCompare@?A0x0779e1ad@2@V?$allocator@U?$pair@QBDP6APAVAttribute@Imf@@XZ@std@@@std@@$0A@@std@@@std@@SAAAPAU_Node@?$_Tree_nod@V?$_Tmap_traits@PBDP6APAVAttribute@Imf@@XZUNameCompare@?A0x0779e1ad@2@V?$allocator@U?$pair@QBDP6APAVAttribute@Imf@@XZ@std@@@std@@$0A@@std@@@2@PAU342@@Z 10081090 f i ImfAttribute.obj
 0002:000110d0       ?_Right@?$_Tree_val@V?$_Tmap_traits@PBDP6APAVAttribute@Imf@@XZUNameCompare@?A0x0779e1ad@2@V?$allocator@U?$pair@QBDP6APAVAttribute@Imf@@XZ@std@@@std@@$0A@@std@@@std@@SAAAPAU_Node@?$_Tree_nod@V?$_Tmap_traits@PBDP6APAVAttribute@Imf@@XZUNameCompare@?A0x0779e1ad@2@V?$allocator@U?$pair@QBDP6APAVAttribute@Imf@@XZ@std@@@std@@$0A@@std@@@2@PAU342@@Z 100810d0 f i ImfAttribute.obj
 0002:00011110       ?_Max@?$_Tree_val@V?$_Tmap_traits@PBDP6APAVAttribute@Imf@@XZUNameCompare@?A0x0779e1ad@2@V?$allocator@U?$pair@QBDP6APAVAttribute@Imf@@XZ@std@@@std@@$0A@@std@@@std@@SAPAU_Node@?$_Tree_nod@V?$_Tmap_traits@PBDP6APAVAttribute@Imf@@XZUNameCompare@?A0x0779e1ad@2@V?$allocator@U?$pair@QBDP6APAVAttribute@Imf@@XZ@std@@@std@@$0A@@std@@@2@PAU342@@Z 10081110 f i ImfAttribute.obj
 0002:00011190       ?_Min@?$_Tree_val@V?$_Tmap_traits@PBDP6APAVAttribute@Imf@@XZUNameCompare@?A0x0779e1ad@2@V?$allocator@U?$pair@QBDP6APAVAttribute@Imf@@XZ@std@@@std@@$0A@@std@@@std@@SAPAU_Node@?$_Tree_nod@V?$_Tmap_traits@PBDP6APAVAttribute@Imf@@XZUNameCompare@?A0x0779e1ad@2@V?$allocator@U?$pair@QBDP6APAVAttribute@Imf@@XZ@std@@@std@@$0A@@std@@@2@PAU342@@Z 10081190 f i ImfAttribute.obj
 0002:00011210       ??0?$_Tree_nod@V?$_Tmap_traits@PBDP6APAVAttribute@Imf@@XZUNameCompare@?A0x0779e1ad@2@V?$allocator@U?$pair@QBDP6APAVAttribute@Imf@@XZ@std@@@std@@$0A@@std@@@std@@QAE@ABUNameCompare@?A0x0779e1ad@Imf@@V?$allocator@U?$pair@QBDP6APAVAttribute@Imf@@XZ@std@@@1@@Z 10081210 f i ImfAttribute.obj
 0002:00011370       ?allocate@?$allocator@U_Node@?$_Tree_nod@V?$_Tmap_traits@PBDP6APAVAttribute@Imf@@XZUNameCompare@?A0x0779e1ad@2@V?$allocator@U?$pair@QBDP6APAVAttribute@Imf@@XZ@std@@@std@@$0A@@std@@@std@@@std@@QAEPAU_Node@?$_Tree_nod@V?$_Tmap_traits@PBDP6APAVAttribute@Imf@@XZUNameCompare@?A0x0779e1ad@2@V?$allocator@U?$pair@QBDP6APAVAttribute@Imf@@XZ@std@@@std@@$0A@@std@@@2@I@Z 10081370 f i ImfAttribute.obj
 0002:000113d0       ??E?$_Tree_const_iterator@V?$_Tree_val@V?$_Tmap_traits@PBDP6APAVAttribute@Imf@@XZUNameCompare@?A0x0779e1ad@2@V?$allocator@U?$pair@QBDP6APAVAttribute@Imf@@XZ@std@@@std@@$0A@@std@@@std@@@std@@QAEAAV01@XZ 100813d0 f i ImfAttribute.obj
 0002:00011500       ??0?$_Tree_unchecked_const_iterator@V?$_Tree_val@V?$_Tmap_traits@PBDP6APAVAttribute@Imf@@XZUNameCompare@?A0x0779e1ad@2@V?$allocator@U?$pair@QBDP6APAVAttribute@Imf@@XZ@std@@@std@@$0A@@std@@@std@@U_Iterator_base12@2@@std@@QAE@PAU_Node@?$_Tree_nod@V?$_Tmap_traits@PBDP6APAVAttribute@Imf@@XZUNameCompare@?A0x0779e1ad@2@V?$allocator@U?$pair@QBDP6APAVAttribute@Imf@@XZ@std@@@std@@$0A@@std@@@1@PBV?$_Tree_val@V?$_Tmap_traits@PBDP6APAVAttribute@Imf@@XZUNameCompare@?A0x0779e1ad@2@V?$allocator@U?$pair@QBDP6APAVAttribute@Imf@@XZ@std@@@std@@$0A@@std@@@1@@Z 10081500 f i ImfAttribute.obj
 0002:000115c0       ??0?$_Iterator012@Ubidirectional_iterator_tag@std@@U?$pair@QBDP6APAVAttribute@Imf@@XZ@2@HPBU32@ABU32@U_Iterator_base12@2@@std@@QAE@XZ 100815c0 f i ImfAttribute.obj
 0002:00011620       ??0_Iterator_base12@std@@QAE@XZ 10081620 f i ImfAttribute.obj
 0002:00011670       ?max_size@?$allocator@D@std@@QBEIXZ 10081670 f i ImfAttribute.obj
 0002:000116e0       ??0?$_Tmap_traits@PBDP6APAVAttribute@Imf@@XZUNameCompare@?A0x0779e1ad@2@V?$allocator@U?$pair@QBDP6APAVAttribute@Imf@@XZ@std@@@std@@$0A@@std@@QAE@UNameCompare@?A0x0779e1ad@Imf@@@Z 100816e0 f i ImfAttribute.obj
 0002:00011750       ??E?$_Tree_unchecked_const_iterator@V?$_Tree_val@V?$_Tmap_traits@PBDP6APAVAttribute@Imf@@XZUNameCompare@?A0x0779e1ad@2@V?$allocator@U?$pair@QBDP6APAVAttribute@Imf@@XZ@std@@@std@@$0A@@std@@@std@@U_Iterator_base12@2@@std@@QAEAAV01@XZ 10081750 f i ImfAttribute.obj
 0002:00011880       ??0?$TypedAttribute@M@Imf@@QAE@ABV01@@Z 10081880 f i ImfAttribute.obj
 0002:00011950       ??0?$TypedAttribute@M@Imf@@QAE@ABM@Z 10081950 f i ImfAttribute.obj
 0002:000119c0       ??0?$TypedAttribute@M@Imf@@QAE@XZ 100819c0 f i ImfAttribute.obj
 0002:00011a40       ??1?$TypedAttribute@M@Imf@@UAE@XZ 10081a40 f i ImfAttribute.obj
 0002:00011aa0       ?value@?$TypedAttribute@M@Imf@@QBEABMXZ 10081aa0 f i ImfAttribute.obj
 0002:00011ae0       ?value@?$TypedAttribute@M@Imf@@QAEAAMXZ 10081ae0 f i ImfAttribute.obj
 0002:00011b20       ?typeName@?$TypedAttribute@M@Imf@@UBEPBDXZ 10081b20 f i ImfAttribute.obj
 0002:00011b70       ?makeNewAttribute@?$TypedAttribute@M@Imf@@SAPAVAttribute@2@XZ 10081b70 f i ImfAttribute.obj
 0002:00011c50       ?copy@?$TypedAttribute@M@Imf@@UBEPAVAttribute@2@XZ 10081c50 f i ImfAttribute.obj
 0002:00011d60       ?writeValueTo@?$TypedAttribute@M@Imf@@UBEXAAVOStream@2@H@Z 10081d60 f i ImfAttribute.obj
 0002:00011dd0       ?readValueFrom@?$TypedAttribute@M@Imf@@UAEXAAVIStream@2@HH@Z 10081dd0 f i ImfAttribute.obj
 0002:00011e30       ?copyValueFrom@?$TypedAttribute@M@Imf@@UAEXABVAttribute@2@@Z 10081e30 f i ImfAttribute.obj
 0002:00011ea0       ?cast@?$TypedAttribute@M@Imf@@SAABV12@ABVAttribute@2@@Z 10081ea0 f i ImfAttribute.obj
 0002:00011ef0       ?cast@?$TypedAttribute@M@Imf@@SAAAV12@AAVAttribute@2@@Z 10081ef0 f i ImfAttribute.obj
 0002:00011f40       ?cast@?$TypedAttribute@M@Imf@@SAPBV12@PBVAttribute@2@@Z 10081f40 f i ImfAttribute.obj
 0002:00011ff0       ??0TypeExc@Iex@@QAE@PBD@Z  10081ff0 f i ImfAttribute.obj
 0002:00012060       ??_ETypeExc@Iex@@UAEPAXI@Z 10082060 f i ImfAttribute.obj
 0002:00012060       ??_GTypeExc@Iex@@UAEPAXI@Z 10082060 f i ImfAttribute.obj
 0002:000120d0       ??1TypeExc@Iex@@UAE@XZ     100820d0 f i ImfAttribute.obj
 0002:00012120       ?cast@?$TypedAttribute@M@Imf@@SAPAV12@PAVAttribute@2@@Z 10082120 f i ImfAttribute.obj
 0002:000121d0       ?registerAttributeType@?$TypedAttribute@M@Imf@@SAXXZ 100821d0 f i ImfAttribute.obj
 0002:00012230       ?unRegisterAttributeType@?$TypedAttribute@M@Imf@@SAXXZ 10082230 f i ImfAttribute.obj
 0002:00012280       ??0?$TypedAttribute@N@Imf@@QAE@ABV01@@Z 10082280 f i ImfAttribute.obj
 0002:00012350       ??0?$TypedAttribute@N@Imf@@QAE@ABN@Z 10082350 f i ImfAttribute.obj
 0002:000123c0       ??0?$TypedAttribute@N@Imf@@QAE@XZ 100823c0 f i ImfAttribute.obj
 0002:00012440       ??1?$TypedAttribute@N@Imf@@UAE@XZ 10082440 f i ImfAttribute.obj
 0002:000124a0       ?value@?$TypedAttribute@N@Imf@@QBEABNXZ 100824a0 f i ImfAttribute.obj
 0002:000124e0       ?value@?$TypedAttribute@N@Imf@@QAEAANXZ 100824e0 f i ImfAttribute.obj
 0002:00012520       ?typeName@?$TypedAttribute@N@Imf@@UBEPBDXZ 10082520 f i ImfAttribute.obj
 0002:00012570       ?makeNewAttribute@?$TypedAttribute@N@Imf@@SAPAVAttribute@2@XZ 10082570 f i ImfAttribute.obj
 0002:00012650       ?copy@?$TypedAttribute@N@Imf@@UBEPAVAttribute@2@XZ 10082650 f i ImfAttribute.obj
 0002:00012760       ?writeValueTo@?$TypedAttribute@N@Imf@@UBEXAAVOStream@2@H@Z 10082760 f i ImfAttribute.obj
 0002:000127d0       ?readValueFrom@?$TypedAttribute@N@Imf@@UAEXAAVIStream@2@HH@Z 100827d0 f i ImfAttribute.obj
 0002:00012830       ?copyValueFrom@?$TypedAttribute@N@Imf@@UAEXABVAttribute@2@@Z 10082830 f i ImfAttribute.obj
 0002:000128a0       ?cast@?$TypedAttribute@N@Imf@@SAABV12@ABVAttribute@2@@Z 100828a0 f i ImfAttribute.obj
 0002:000128f0       ?cast@?$TypedAttribute@N@Imf@@SAAAV12@AAVAttribute@2@@Z 100828f0 f i ImfAttribute.obj
 0002:00012940       ?cast@?$TypedAttribute@N@Imf@@SAPBV12@PBVAttribute@2@@Z 10082940 f i ImfAttribute.obj
 0002:000129f0       ?cast@?$TypedAttribute@N@Imf@@SAPAV12@PAVAttribute@2@@Z 100829f0 f i ImfAttribute.obj
 0002:00012aa0       ?registerAttributeType@?$TypedAttribute@N@Imf@@SAXXZ 10082aa0 f i ImfAttribute.obj
 0002:00012b00       ?unRegisterAttributeType@?$TypedAttribute@N@Imf@@SAXXZ 10082b00 f i ImfAttribute.obj
 0002:00012b50       ??$?6U?$char_traits@D@std@@@std@@YAAAV?$basic_ostream@DU?$char_traits@D@std@@@0@AAV10@PBD@Z 10082b50 f i ImfAttribute.obj
 0002:00013140       ?length@?$char_traits@D@std@@SAIPBD@Z 10083140 f i ImfAttribute.obj
 0002:00013190       ??0sentry@?$basic_ostream@DU?$char_traits@D@std@@@std@@QAE@AAV12@@Z 10083190 f i ImfAttribute.obj
 0002:000132f0       ??1sentry@?$basic_ostream@DU?$char_traits@D@std@@@std@@QAE@XZ 100832f0 f i ImfAttribute.obj
 0002:000133c0       ??Bsentry@?$basic_ostream@DU?$char_traits@D@std@@@std@@QBEPQ_Bool_struct@2@HXZ 100833c0 f i ImfAttribute.obj
 0002:00013410       ??0_Sentry_base@?$basic_ostream@DU?$char_traits@D@std@@@std@@QAE@AAV12@@Z 10083410 f i ImfAttribute.obj
 0002:000134e0       ??1_Sentry_base@?$basic_ostream@DU?$char_traits@D@std@@@std@@QAE@XZ 100834e0 f i ImfAttribute.obj
 0002:000135a0       ??$?0AAQBDAAP6APAVAttribute@Imf@@XZ@?$pair@QBDP6APAVAttribute@Imf@@XZ@std@@QAE@AAQBDAAP6APAVAttribute@Imf@@XZ@Z 100835a0 f i ImfAttribute.obj
 0002:00013620       ??$insert@U?$pair@QBDP6APAVAttribute@Imf@@XZ@std@@@?$_Tree@V?$_Tmap_traits@PBDP6APAVAttribute@Imf@@XZUNameCompare@?A0x0779e1ad@2@V?$allocator@U?$pair@QBDP6APAVAttribute@Imf@@XZ@std@@@std@@$0A@@std@@@std@@QAE?AU?$pair@V?$_Tree_iterator@V?$_Tree_val@V?$_Tmap_traits@PBDP6APAVAttribute@Imf@@XZUNameCompare@?A0x0779e1ad@2@V?$allocator@U?$pair@QBDP6APAVAttribute@Imf@@XZ@std@@@std@@$0A@@std@@@std@@@std@@_N@1@$$QAU?$pair@QBDP6APAVAttribute@Imf@@XZ@1@@Z 10083620 f i ImfAttribute.obj
 0002:000136c0       ??$_Distance@V?$_Tree_iterator@V?$_Tree_val@V?$_Tmap_traits@PBDP6APAVAttribute@Imf@@XZUNameCompare@?A0x0779e1ad@2@V?$allocator@U?$pair@QBDP6APAVAttribute@Imf@@XZ@std@@@std@@$0A@@std@@@std@@@std@@I@std@@YAXV?$_Tree_iterator@V?$_Tree_val@V?$_Tmap_traits@PBDP6APAVAttribute@Imf@@XZUNameCompare@?A0x0779e1ad@2@V?$allocator@U?$pair@QBDP6APAVAttribute@Imf@@XZ@std@@@std@@$0A@@std@@@std@@@0@0AAI@Z 100836c0 f i ImfAttribute.obj
 0002:000137f0       ??$_Debug_lt_pred@UNameCompare@?A0x0779e1ad@Imf@@PBDPBD@std@@YA_NUNameCompare@?A0x0779e1ad@Imf@@ABQBDAAPBDPB_WI@Z 100837f0 f i ImfAttribute.obj
 0002:000138b0       ??RNameCompare@?A0x0779e1ad@Imf@@QBE_NPBD0@Z 100838b0 f i ImfAttribute.obj
 0002:00013920       ??$?0D@?$allocator@U_Container_proxy@std@@@std@@QAE@ABV?$allocator@D@1@@Z 10083920 f i ImfAttribute.obj
 0002:00013960       ??$_Cons_val@V?$allocator@U_Container_proxy@std@@@std@@U_Container_proxy@2@U32@@std@@YAXAAV?$allocator@U_Container_proxy@std@@@0@PAU_Container_proxy@0@$$QAU20@@Z 10083960 f i ImfAttribute.obj
 0002:000139c0       ??$_Dest_val@V?$allocator@U_Container_proxy@std@@@std@@U_Container_proxy@2@@std@@YAXAAV?$allocator@U_Container_proxy@std@@@0@PAU_Container_proxy@0@@Z 100839c0 f i ImfAttribute.obj
 0002:00013a10       ??$_Allocate@D@std@@YAPADIPAD@Z 10083a10 f i ImfAttribute.obj
 0002:00013ac0       ??0bad_alloc@std@@QAE@PBD@Z 10083ac0 f i ImfAttribute.obj
 0002:00013b40       ??1bad_alloc@std@@UAE@XZ   10083b40 f i ImfAttribute.obj
 0002:00013bb0       ??_Ebad_alloc@std@@UAEPAXI@Z 10083bb0 f i ImfAttribute.obj
 0002:00013bb0       ??_Gbad_alloc@std@@UAEPAXI@Z 10083bb0 f i ImfAttribute.obj
 0002:00013c20       ??$_Kfn@QBDP6APAVAttribute@Imf@@XZ@?$_Tmap_traits@PBDP6APAVAttribute@Imf@@XZUNameCompare@?A0x0779e1ad@2@V?$allocator@U?$pair@QBDP6APAVAttribute@Imf@@XZ@std@@@std@@$0A@@std@@SAABQBDABU?$pair@QBDP6APAVAttribute@Imf@@XZ@1@@Z 10083c20 f i ImfAttribute.obj
 0002:00013c60       ??$swap@D@std@@YAXAAD0@Z   10083c60 f i ImfAttribute.obj
 0002:00013d20       ??$addressof@U?$pair@QBDP6APAVAttribute@Imf@@XZ@std@@@std@@YAPAU?$pair@QBDP6APAVAttribute@Imf@@XZ@0@AAU10@@Z 10083d20 f i ImfAttribute.obj
 0002:00013d60       ??$_Dest_val@V?$allocator@U?$pair@QBDP6APAVAttribute@Imf@@XZ@std@@@std@@U?$pair@QBDP6APAVAttribute@Imf@@XZ@2@@std@@YAXAAV?$allocator@U?$pair@QBDP6APAVAttribute@Imf@@XZ@std@@@0@PAU?$pair@QBDP6APAVAttribute@Imf@@XZ@0@@Z 10083d60 f i ImfAttribute.obj
 0002:00013db0       ??$_Debug_lt_pred@UNameCompare@?A0x0779e1ad@Imf@@PBDPBD@std@@YA_NUNameCompare@?A0x0779e1ad@Imf@@AAPBDABQBDPB_WI@Z 10083db0 f i ImfAttribute.obj
 0002:00013e70       ??$?0AAV?$_Tree_iterator@V?$_Tree_val@V?$_Tmap_traits@PBDP6APAVAttribute@Imf@@XZUNameCompare@?A0x0779e1ad@2@V?$allocator@U?$pair@QBDP6APAVAttribute@Imf@@XZ@std@@@std@@$0A@@std@@@std@@@std@@AAV01@@?$pair@V?$_Tree_iterator@V?$_Tree_val@V?$_Tmap_traits@PBDP6APAVAttribute@Imf@@XZUNameCompare@?A0x0779e1ad@2@V?$allocator@U?$pair@QBDP6APAVAttribute@Imf@@XZ@std@@@std@@$0A@@std@@@std@@@std@@V12@@std@@QAE@AAV?$_Tree_iterator@V?$_Tree_val@V?$_Tmap_traits@PBDP6APAVAttribute@Imf@@XZUNameCompare@?A0x0779e1ad@2@V?$allocator@U?$pair@QBDP6APAVAttribute@Imf@@XZ@std@@@std@@$0A@@std@@@std@@@1@0@Z 10083e70 f i ImfAttribute.obj
 0002:00013ef0       ??$?0U_Node@?$_Tree_nod@V?$_Tmap_traits@PBDP6APAVAttribute@Imf@@XZUNameCompare@?A0x0779e1ad@2@V?$allocator@U?$pair@QBDP6APAVAttribute@Imf@@XZ@std@@@std@@$0A@@std@@@std@@@?$allocator@U_Container_proxy@std@@@std@@QAE@ABV?$allocator@U_Node@?$_Tree_nod@V?$_Tmap_traits@PBDP6APAVAttribute@Imf@@XZUNameCompare@?A0x0779e1ad@2@V?$allocator@U?$pair@QBDP6APAVAttribute@Imf@@XZ@std@@@std@@$0A@@std@@@std@@@1@@Z 10083ef0 f i ImfAttribute.obj
 0002:00013f30       ??$_Allocate@U_Container_proxy@std@@@std@@YAPAU_Container_proxy@0@IPAU10@@Z 10083f30 f i ImfAttribute.obj
 0002:00013fe0       ??$?0U?$pair@QBDP6APAVAttribute@Imf@@XZ@std@@@?$allocator@U_Node@?$_Tree_nod@V?$_Tmap_traits@PBDP6APAVAttribute@Imf@@XZUNameCompare@?A0x0779e1ad@2@V?$allocator@U?$pair@QBDP6APAVAttribute@Imf@@XZ@std@@@std@@$0A@@std@@@std@@@std@@QAE@ABV?$allocator@U?$pair@QBDP6APAVAttribute@Imf@@XZ@std@@@1@@Z 10083fe0 f i ImfAttribute.obj
 0002:00014020       ??$_Allocate@U_Node@?$_Tree_nod@V?$_Tmap_traits@PBDP6APAVAttribute@Imf@@XZUNameCompare@?A0x0779e1ad@2@V?$allocator@U?$pair@QBDP6APAVAttribute@Imf@@XZ@std@@@std@@$0A@@std@@@std@@@std@@YAPAU_Node@?$_Tree_nod@V?$_Tmap_traits@PBDP6APAVAttribute@Imf@@XZUNameCompare@?A0x0779e1ad@2@V?$allocator@U?$pair@QBDP6APAVAttribute@Imf@@XZ@std@@@std@@$0A@@std@@@0@IPAU120@@Z 10084020 f i ImfAttribute.obj
 0002:000140d0       ??_E?$TypedAttribute@M@Imf@@UAEPAXI@Z 100840d0 f i ImfAttribute.obj
 0002:000140d0       ??_G?$TypedAttribute@M@Imf@@UAEPAXI@Z 100840d0 f i ImfAttribute.obj
 0002:00014140       ??0Attribute@Imf@@QAE@ABV01@@Z 10084140 f i ImfAttribute.obj
 0002:00014190       ??0TypeExc@Iex@@QAE@ABV01@@Z 10084190 f i ImfAttribute.obj
 0002:00014200       ??_G?$TypedAttribute@N@Imf@@UAEPAXI@Z 10084200 f i ImfAttribute.obj
 0002:00014200       ??_E?$TypedAttribute@N@Imf@@UAEPAXI@Z 10084200 f i ImfAttribute.obj
 0002:00014270       ??0bad_alloc@std@@QAE@ABV01@@Z 10084270 f i ImfAttribute.obj
 0002:000142f0       ?_Linsert@?$_Tree@V?$_Tmap_traits@PBDP6APAVAttribute@Imf@@XZUNameCompare@?A0x0779e1ad@2@V?$allocator@U?$pair@QBDP6APAVAttribute@Imf@@XZ@std@@@std@@$0A@@std@@@std@@QAE?AU?$pair@V?$_Tree_iterator@V?$_Tree_val@V?$_Tmap_traits@PBDP6APAVAttribute@Imf@@XZUNameCompare@?A0x0779e1ad@2@V?$allocator@U?$pair@QBDP6APAVAttribute@Imf@@XZ@std@@@std@@$0A@@std@@@std@@@std@@_N@2@PAU_Node@?$_Tree_nod@V?$_Tmap_traits@PBDP6APAVAttribute@Imf@@XZUNameCompare@?A0x0779e1ad@2@V?$allocator@U?$pair@QBDP6APAVAttribute@Imf@@XZ@std@@@std@@$0A@@std@@@2@_N@Z 100842f0 f i ImfAttribute.obj
 0002:00014870       ?destroy@?$allocator@U?$pair@QBDP6APAVAttribute@Imf@@XZ@std@@@std@@QAEXPAU?$pair@QBDP6APAVAttribute@Imf@@XZ@2@@Z 10084870 f i ImfAttribute.obj
 0002:000148d0       ?construct@?$allocator@U_Container_proxy@std@@@std@@QAEXPAU_Container_proxy@2@$$QAU32@@Z 100848d0 f i ImfAttribute.obj
 0002:000149e0       ??2@YAPAXIPAX@Z            100849e0 f i ImfAttribute.obj
 0002:00014a20       ??3@YAXPAX0@Z              10084a20 f i ImfAttribute.obj
 0002:00014a50       ?destroy@?$allocator@U_Container_proxy@std@@@std@@QAEXPAU_Container_proxy@2@@Z 10084a50 f i ImfAttribute.obj
 0002:00014ab0       ?_Insert@?$_Tree@V?$_Tmap_traits@PBDP6APAVAttribute@Imf@@XZUNameCompare@?A0x0779e1ad@2@V?$allocator@U?$pair@QBDP6APAVAttribute@Imf@@XZ@std@@@std@@$0A@@std@@@std@@IAE?AV?$_Tree_iterator@V?$_Tree_val@V?$_Tmap_traits@PBDP6APAVAttribute@Imf@@XZUNameCompare@?A0x0779e1ad@2@V?$allocator@U?$pair@QBDP6APAVAttribute@Imf@@XZ@std@@@std@@$0A@@std@@@std@@@2@_NPAU_Node@?$_Tree_nod@V?$_Tmap_traits@PBDP6APAVAttribute@Imf@@XZUNameCompare@?A0x0779e1ad@2@V?$allocator@U?$pair@QBDP6APAVAttribute@Imf@@XZ@std@@@std@@$0A@@std@@@2@1@Z 10084ab0 f i ImfAttribute.obj
 0002:00015050       ??F?$_Tree_iterator@V?$_Tree_val@V?$_Tmap_traits@PBDP6APAVAttribute@Imf@@XZUNameCompare@?A0x0779e1ad@2@V?$allocator@U?$pair@QBDP6APAVAttribute@Imf@@XZ@std@@@std@@$0A@@std@@@std@@@std@@QAEAAV01@XZ 10085050 f i ImfAttribute.obj
 0002:000150b0       ??0?$pair@V?$_Tree_iterator@V?$_Tree_val@V?$_Tmap_traits@PBDP6APAVAttribute@Imf@@XZUNameCompare@?A0x0779e1ad@2@V?$allocator@U?$pair@QBDP6APAVAttribute@Imf@@XZ@std@@@std@@$0A@@std@@@std@@@std@@_N@std@@QAE@$$QAV?$_Tree_iterator@V?$_Tree_val@V?$_Tmap_traits@PBDP6APAVAttribute@Imf@@XZUNameCompare@?A0x0779e1ad@2@V?$allocator@U?$pair@QBDP6APAVAttribute@Imf@@XZ@std@@@std@@$0A@@std@@@std@@@1@$$QA_N@Z 100850b0 f i ImfAttribute.obj
 0002:00015130       ?max_size@?$_Tree@V?$_Tmap_traits@PBDP6APAVAttribute@Imf@@XZUNameCompare@?A0x0779e1ad@2@V?$allocator@U?$pair@QBDP6APAVAttribute@Imf@@XZ@std@@@std@@$0A@@std@@@std@@QBEIXZ 10085130 f i ImfAttribute.obj
 0002:00015190       ??F?$_Tree_const_iterator@V?$_Tree_val@V?$_Tmap_traits@PBDP6APAVAttribute@Imf@@XZUNameCompare@?A0x0779e1ad@2@V?$allocator@U?$pair@QBDP6APAVAttribute@Imf@@XZ@std@@@std@@$0A@@std@@@std@@@std@@QAEAAV01@XZ 10085190 f i ImfAttribute.obj
 0002:00015370       ??0?$_Pair_base@V?$_Tree_iterator@V?$_Tree_val@V?$_Tmap_traits@PBDP6APAVAttribute@Imf@@XZUNameCompare@?A0x0779e1ad@2@V?$allocator@U?$pair@QBDP6APAVAttribute@Imf@@XZ@std@@@std@@$0A@@std@@@std@@@std@@_N@std@@QAE@$$QAV?$_Tree_iterator@V?$_Tree_val@V?$_Tmap_traits@PBDP6APAVAttribute@Imf@@XZUNameCompare@?A0x0779e1ad@2@V?$allocator@U?$pair@QBDP6APAVAttribute@Imf@@XZ@std@@@std@@$0A@@std@@@std@@@1@$$QA_N@Z 10085370 f i ImfAttribute.obj
 0002:00015440       ?max_size@?$allocator@U?$pair@QBDP6APAVAttribute@Imf@@XZ@std@@@std@@QBEIXZ 10085440 f i ImfAttribute.obj
 0002:000154b0       ??F?$_Tree_unchecked_const_iterator@V?$_Tree_val@V?$_Tmap_traits@PBDP6APAVAttribute@Imf@@XZUNameCompare@?A0x0779e1ad@2@V?$allocator@U?$pair@QBDP6APAVAttribute@Imf@@XZ@std@@@std@@$0A@@std@@@std@@U_Iterator_base12@2@@std@@QAEAAV01@XZ 100854b0 f i ImfAttribute.obj
 0002:00015610       ??$write@UStreamIO@Imf@@VOStream@2@@Xdr@Imf@@YAXAAVOStream@1@M@Z 10085610 f i ImfAttribute.obj
 0002:000156e0       ??$read@UStreamIO@Imf@@VIStream@2@@Xdr@Imf@@YAXAAVIStream@1@AAM@Z 100856e0 f i ImfAttribute.obj
 0002:000157d0       ??$write@UStreamIO@Imf@@VOStream@2@@Xdr@Imf@@YAXAAVOStream@1@N@Z 100857d0 f i ImfAttribute.obj
 0002:00015930       ??$read@UStreamIO@Imf@@VIStream@2@@Xdr@Imf@@YAXAAVIStream@1@AAN@Z 10085930 f i ImfAttribute.obj
 0002:00015ae0       ??$forward@AAQBD@std@@YAAAQBDAAQBD@Z 10085ae0 f i ImfAttribute.obj
 0002:00015b20       ??$forward@AAP6APAVAttribute@Imf@@XZ@std@@YAAAP6APAVAttribute@Imf@@XZAAP6APAV12@XZ@Z 10085b20 f i ImfAttribute.obj
 0002:00015b60       ??$?0AAQBDAAP6APAVAttribute@Imf@@XZ@?$_Pair_base@QBDP6APAVAttribute@Imf@@XZ@std@@QAE@AAQBDAAP6APAVAttribute@Imf@@XZ@Z 10085b60 f i ImfAttribute.obj
 0002:00015be0       ??$forward@U?$pair@QBDP6APAVAttribute@Imf@@XZ@std@@@std@@YA$$QAU?$pair@QBDP6APAVAttribute@Imf@@XZ@0@AAU10@@Z 10085be0 f i ImfAttribute.obj
 0002:00015c20       ??$_Buynode@U?$pair@QBDP6APAVAttribute@Imf@@XZ@std@@@?$_Tree_val@V?$_Tmap_traits@PBDP6APAVAttribute@Imf@@XZUNameCompare@?A0x0779e1ad@2@V?$allocator@U?$pair@QBDP6APAVAttribute@Imf@@XZ@std@@@std@@$0A@@std@@@std@@QAEPAU_Node@?$_Tree_nod@V?$_Tmap_traits@PBDP6APAVAttribute@Imf@@XZUNameCompare@?A0x0779e1ad@2@V?$allocator@U?$pair@QBDP6APAVAttribute@Imf@@XZ@std@@@std@@$0A@@std@@@1@$$QAU?$pair@QBDP6APAVAttribute@Imf@@XZ@1@@Z 10085c20 f i ImfAttribute.obj
 0002:00015d70       ??$_Iter_cat@V?$_Tree_iterator@V?$_Tree_val@V?$_Tmap_traits@PBDP6APAVAttribute@Imf@@XZUNameCompare@?A0x0779e1ad@2@V?$allocator@U?$pair@QBDP6APAVAttribute@Imf@@XZ@std@@@std@@$0A@@std@@@std@@@std@@@std@@YA?AUbidirectional_iterator_tag@0@ABV?$_Tree_iterator@V?$_Tree_val@V?$_Tmap_traits@PBDP6APAVAttribute@Imf@@XZUNameCompare@?A0x0779e1ad@2@V?$allocator@U?$pair@QBDP6APAVAttribute@Imf@@XZ@std@@@std@@$0A@@std@@@std@@@0@@Z 10085d70 f i ImfAttribute.obj
 0002:00015df0       ??$_Distance2@V?$_Tree_iterator@V?$_Tree_val@V?$_Tmap_traits@PBDP6APAVAttribute@Imf@@XZUNameCompare@?A0x0779e1ad@2@V?$allocator@U?$pair@QBDP6APAVAttribute@Imf@@XZ@std@@@std@@$0A@@std@@@std@@@std@@I@std@@YAXV?$_Tree_iterator@V?$_Tree_val@V?$_Tmap_traits@PBDP6APAVAttribute@Imf@@XZUNameCompare@?A0x0779e1ad@2@V?$allocator@U?$pair@QBDP6APAVAttribute@Imf@@XZ@std@@@std@@$0A@@std@@@std@@@0@0AAIUbidirectional_iterator_tag@0@@Z 10085df0 f i ImfAttribute.obj
 0002:00015ed0       ??$forward@U_Container_proxy@std@@@std@@YA$$QAU_Container_proxy@0@AAU10@@Z 10085ed0 f i ImfAttribute.obj
 0002:00015f10       ??$_Move@AAD@std@@YA$$QADAAD@Z 10085f10 f i ImfAttribute.obj
 0002:00015f50       ??$forward@AAV?$_Tree_iterator@V?$_Tree_val@V?$_Tmap_traits@PBDP6APAVAttribute@Imf@@XZUNameCompare@?A0x0779e1ad@2@V?$allocator@U?$pair@QBDP6APAVAttribute@Imf@@XZ@std@@@std@@$0A@@std@@@std@@@std@@@std@@YAAAV?$_Tree_iterator@V?$_Tree_val@V?$_Tmap_traits@PBDP6APAVAttribute@Imf@@XZUNameCompare@?A0x0779e1ad@2@V?$allocator@U?$pair@QBDP6APAVAttribute@Imf@@XZ@std@@@std@@$0A@@std@@@std@@@0@AAV10@@Z 10085f50 f i ImfAttribute.obj
 0002:00015f90       ??$?0AAV?$_Tree_iterator@V?$_Tree_val@V?$_Tmap_traits@PBDP6APAVAttribute@Imf@@XZUNameCompare@?A0x0779e1ad@2@V?$allocator@U?$pair@QBDP6APAVAttribute@Imf@@XZ@std@@@std@@$0A@@std@@@std@@@std@@AAV01@@?$_Pair_base@V?$_Tree_iterator@V?$_Tree_val@V?$_Tmap_traits@PBDP6APAVAttribute@Imf@@XZUNameCompare@?A0x0779e1ad@2@V?$allocator@U?$pair@QBDP6APAVAttribute@Imf@@XZ@std@@@std@@$0A@@std@@@std@@@std@@V12@@std@@QAE@AAV?$_Tree_iterator@V?$_Tree_val@V?$_Tmap_traits@PBDP6APAVAttribute@Imf@@XZUNameCompare@?A0x0779e1ad@2@V?$allocator@U?$pair@QBDP6APAVAttribute@Imf@@XZ@std@@@std@@$0A@@std@@@std@@@1@0@Z 10085f90 f i ImfAttribute.obj
 0002:00016060       ??$?0AAV?$_Tree_iterator@V?$_Tree_val@V?$_Tmap_traits@PBDP6APAVAttribute@Imf@@XZUNameCompare@?A0x0779e1ad@2@V?$allocator@U?$pair@QBDP6APAVAttribute@Imf@@XZ@std@@@std@@$0A@@std@@@std@@@std@@_N@?$pair@V?$_Tree_iterator@V?$_Tree_val@V?$_Tmap_traits@PBDP6APAVAttribute@Imf@@XZUNameCompare@?A0x0779e1ad@2@V?$allocator@U?$pair@QBDP6APAVAttribute@Imf@@XZ@std@@@std@@$0A@@std@@@std@@@std@@_N@std@@QAE@AAV?$_Tree_iterator@V?$_Tree_val@V?$_Tmap_traits@PBDP6APAVAttribute@Imf@@XZUNameCompare@?A0x0779e1ad@2@V?$allocator@U?$pair@QBDP6APAVAttribute@Imf@@XZ@std@@@std@@$0A@@std@@@std@@@1@$$QA_N@Z 10086060 f i ImfAttribute.obj
 0002:000160e0       ??$_Destroy@U?$pair@QBDP6APAVAttribute@Imf@@XZ@std@@@std@@YAXPAU?$pair@QBDP6APAVAttribute@Imf@@XZ@0@@Z 100860e0 f i ImfAttribute.obj
 0002:00016110       ??$_Destroy@U_Container_proxy@std@@@std@@YAXPAU_Container_proxy@0@@Z 10086110 f i ImfAttribute.obj
 0002:00016140       ??$move@AAV?$_Tree_iterator@V?$_Tree_val@V?$_Tmap_traits@PBDP6APAVAttribute@Imf@@XZUNameCompare@?A0x0779e1ad@2@V?$allocator@U?$pair@QBDP6APAVAttribute@Imf@@XZ@std@@@std@@$0A@@std@@@std@@@std@@@std@@YA$$QAV?$_Tree_iterator@V?$_Tree_val@V?$_Tmap_traits@PBDP6APAVAttribute@Imf@@XZUNameCompare@?A0x0779e1ad@2@V?$allocator@U?$pair@QBDP6APAVAttribute@Imf@@XZ@std@@@std@@$0A@@std@@@std@@@0@AAV10@@Z 10086140 f i ImfAttribute.obj
 0002:00016180       ??$move@AA_N@std@@YA$$QA_NAA_N@Z 10086180 f i ImfAttribute.obj
 0002:000161c0       ?_Buynode@?$_Tree_val@V?$_Tmap_traits@PBDP6APAVAttribute@Imf@@XZUNameCompare@?A0x0779e1ad@2@V?$allocator@U?$pair@QBDP6APAVAttribute@Imf@@XZ@std@@@std@@$0A@@std@@@std@@QAEPAU_Node@?$_Tree_nod@V?$_Tmap_traits@PBDP6APAVAttribute@Imf@@XZUNameCompare@?A0x0779e1ad@2@V?$allocator@U?$pair@QBDP6APAVAttribute@Imf@@XZ@std@@@std@@$0A@@std@@@2@XZ 100861c0 f i ImfAttribute.obj
 0002:00016290       ??E?$_Tree_iterator@V?$_Tree_val@V?$_Tmap_traits@PBDP6APAVAttribute@Imf@@XZUNameCompare@?A0x0779e1ad@2@V?$allocator@U?$pair@QBDP6APAVAttribute@Imf@@XZ@std@@@std@@$0A@@std@@@std@@@std@@QAEAAV01@XZ 10086290 f i ImfAttribute.obj
 0002:000162f0       ??$writeUnsignedChars@UStreamIO@Imf@@VOStream@2@@Xdr@Imf@@YAXAAVOStream@1@QBEH@Z 100862f0 f i ImfAttribute.obj
 0002:00016350       ?writeChars@StreamIO@Imf@@SAXAAVOStream@2@QBDH@Z 10086350 f i ImfAttribute.obj
 0002:000163c0       ??$readUnsignedChars@UStreamIO@Imf@@VIStream@2@@Xdr@Imf@@YAXAAVIStream@1@QAEH@Z 100863c0 f i ImfAttribute.obj
 0002:00016420       ?readChars@StreamIO@Imf@@SA_NAAVIStream@2@QADH@Z 10086420 f i ImfAttribute.obj
 0002:00016490       ??$_Cons_val@V?$allocator@U?$pair@QBDP6APAVAttribute@Imf@@XZ@std@@@std@@U?$pair@QBDP6APAVAttribute@Imf@@XZ@2@U32@@std@@YAXAAV?$allocator@U?$pair@QBDP6APAVAttribute@Imf@@XZ@std@@@0@PAU?$pair@QBDP6APAVAttribute@Imf@@XZ@0@$$QAU20@@Z 10086490 f i ImfAttribute.obj
 0002:000164f0       ??$forward@_N@std@@YA$$QA_NAA_N@Z 100864f0 f i ImfAttribute.obj
 0002:00016530       ??$?0AAV?$_Tree_iterator@V?$_Tree_val@V?$_Tmap_traits@PBDP6APAVAttribute@Imf@@XZUNameCompare@?A0x0779e1ad@2@V?$allocator@U?$pair@QBDP6APAVAttribute@Imf@@XZ@std@@@std@@$0A@@std@@@std@@@std@@_N@?$_Pair_base@V?$_Tree_iterator@V?$_Tree_val@V?$_Tmap_traits@PBDP6APAVAttribute@Imf@@XZUNameCompare@?A0x0779e1ad@2@V?$allocator@U?$pair@QBDP6APAVAttribute@Imf@@XZ@std@@@std@@$0A@@std@@@std@@@std@@_N@std@@QAE@AAV?$_Tree_iterator@V?$_Tree_val@V?$_Tmap_traits@PBDP6APAVAttribute@Imf@@XZUNameCompare@?A0x0779e1ad@2@V?$allocator@U?$pair@QBDP6APAVAttribute@Imf@@XZ@std@@@std@@$0A@@std@@@std@@@1@$$QA_N@Z 10086530 f i ImfAttribute.obj
 0002:00016600       ?construct@?$allocator@U?$pair@QBDP6APAVAttribute@Imf@@XZ@std@@@std@@QAEXPAU?$pair@QBDP6APAVAttribute@Imf@@XZ@2@$$QAU32@@Z 10086600 f i ImfAttribute.obj
 0002:00016700       ??$?0QBDP6APAVAttribute@Imf@@XZ@?$pair@QBDP6APAVAttribute@Imf@@XZ@std@@QAE@$$QAU01@@Z 10086700 f i ImfAttribute.obj
 0002:00016780       ??0?$_Pair_base@QBDP6APAVAttribute@Imf@@XZ@std@@QAE@$$QBQBD$$QAP6APAVAttribute@Imf@@XZ@Z 10086780 f i ImfAttribute.obj
 0002:00016800       ??$forward@QBD@std@@YA$$QBQBDABQBD@Z 10086800 f i ImfAttribute.obj
 0002:00016840       ??$forward@P6APAVAttribute@Imf@@XZ@std@@YA$$QAP6APAVAttribute@Imf@@XZAAP6APAV12@XZ@Z 10086840 f i ImfAttribute.obj
 0002:00016880       ??$move@ABQBD@std@@YA$$QBQBDABQBD@Z 10086880 f i ImfAttribute.obj
 0002:000168c0       ??$move@AAP6APAVAttribute@Imf@@XZ@std@@YA$$QAP6APAVAttribute@Imf@@XZAAP6APAV12@XZ@Z 100868c0 f i ImfAttribute.obj
 0002:00016900       ?pack@?A0xb36f0740@Imf@@YAHQBGQAE_N2@Z 10086900 f   ImfB44Compressor.obj
 0002:00016f50       ?shiftAndRound@?A0xb36f0740@Imf@@YAHHH@Z 10086f50 f i ImfB44Compressor.obj
 0002:00016fd0       ?notEnoughData@?A0xb36f0740@Imf@@YAXXZ 10086fd0 f   ImfB44Compressor.obj
 0002:00017050       ??0InputExc@Iex@@QAE@PBD@Z 10087050 f i ImfB44Compressor.obj
 0002:000170c0       ??_GInputExc@Iex@@UAEPAXI@Z 100870c0 f i ImfB44Compressor.obj
 0002:000170c0       ??_EInputExc@Iex@@UAEPAXI@Z 100870c0 f i ImfB44Compressor.obj
 0002:00017130       ??1InputExc@Iex@@UAE@XZ    10087130 f i ImfB44Compressor.obj
 0002:00017180       ??0InputExc@Iex@@QAE@ABV01@@Z 10087180 f i ImfB44Compressor.obj
 0002:000171f0       ?tooMuchData@?A0xb36f0740@Imf@@YAXXZ 100871f0 f   ImfB44Compressor.obj
 0002:00017270       ??0B44Compressor@Imf@@QAE@ABVHeader@1@II_N@Z 10087270 f   ImfB44Compressor.obj
 0002:00017820       ?header@Compressor@Imf@@QBEABVHeader@2@XZ 10087820 f i ImfB44Compressor.obj
 0002:00017860       ??EConstIterator@ChannelList@Imf@@QAEAAV012@XZ 10087860 f i ImfB44Compressor.obj
 0002:000178c0       ??1ConstIterator@ChannelList@Imf@@QAE@XZ 100878c0 f i ImfB44Compressor.obj
 0002:00017910       ??1?$_Tree_const_iterator@V?$_Tree_val@V?$_Tmap_traits@VName@Imf@@UChannel@2@U?$less@VName@Imf@@@std@@V?$allocator@U?$pair@$$CBVName@Imf@@UChannel@2@@std@@@5@$0A@@std@@@std@@@std@@QAE@XZ 10087910 f i ImfB44Compressor.obj
 0002:00017960       ??1?$_Tree_unchecked_const_iterator@V?$_Tree_val@V?$_Tmap_traits@VName@Imf@@UChannel@2@U?$less@VName@Imf@@@std@@V?$allocator@U?$pair@$$CBVName@Imf@@UChannel@2@@std@@@5@$0A@@std@@@std@@U_Iterator_base12@2@@std@@QAE@XZ 10087960 f i ImfB44Compressor.obj
 0002:000179b0       ??1?$_Iterator012@Ubidirectional_iterator_tag@std@@U?$pair@$$CBVName@Imf@@UChannel@2@@2@HPBU32@ABU32@U_Iterator_base12@2@@std@@QAE@XZ 100879b0 f i ImfB44Compressor.obj
 0002:00017a00       ?channel@ConstIterator@ChannelList@Imf@@QBEABUChannel@3@XZ 10087a00 f i ImfB44Compressor.obj
 0002:00017a60       ??9Imf@@YA_NABVConstIterator@ChannelList@0@0@Z 10087a60 f i ImfB44Compressor.obj
 0002:00017ac0       ??8Imf@@YA_NABVConstIterator@ChannelList@0@0@Z 10087ac0 f i ImfB44Compressor.obj
 0002:00017b10       ??_EB44Compressor@Imf@@UAEPAXI@Z 10087b10 f i ImfB44Compressor.obj
 0002:00017b10       ??_GB44Compressor@Imf@@UAEPAXI@Z 10087b10 f i ImfB44Compressor.obj
 0002:00017b80       ??1B44Compressor@Imf@@UAE@XZ 10087b80 f   ImfB44Compressor.obj
 0002:00017c40       ?numScanLines@B44Compressor@Imf@@UBEHXZ 10087c40 f   ImfB44Compressor.obj
 0002:00017c80       ?format@B44Compressor@Imf@@UBE?AW4Format@Compressor@2@XZ 10087c80 f   ImfB44Compressor.obj
 0002:00017cc0       ?compress@B44Compressor@Imf@@UAEHPBDHHAAPBD@Z 10087cc0 f   ImfB44Compressor.obj
 0002:00017d90       ?compressTile@B44Compressor@Imf@@UAEHPBDHV?$Box@V?$Vec2@H@Imath@@@Imath@@AAPBD@Z 10087d90 f   ImfB44Compressor.obj
 0002:00017e10       ??0?$Box@V?$Vec2@H@Imath@@@Imath@@QAE@ABV01@@Z 10087e10 f i ImfB44Compressor.obj
 0002:00017e80       ?uncompress@B44Compressor@Imf@@UAEHPBDHHAAPBD@Z 10087e80 f   ImfB44Compressor.obj
 0002:00017f50       ?uncompressTile@B44Compressor@Imf@@UAEHPBDHV?$Box@V?$Vec2@H@Imath@@@Imath@@AAPBD@Z 10087f50 f   ImfB44Compressor.obj
 0002:00017fd0       ?compress@B44Compressor@Imf@@AAEHPBDHV?$Box@V?$Vec2@H@Imath@@@Imath@@AAPBD@Z 10087fd0 f   ImfB44Compressor.obj
 0002:00018a80       ?modp@Imath@@YAHHH@Z       10088a80 f i ImfB44Compressor.obj
 0002:00018ae0       ?divp@Imath@@YAHHH@Z       10088ae0 f i ImfB44Compressor.obj
 0002:00018bc0       ?convertFromLinear@?A0xb36f0740@Imf@@YAXQAG@Z 10088bc0 f i ImfB44Compressor.obj
 0002:00018c40       ?uncompress@B44Compressor@Imf@@AAEHPBDHV?$Box@V?$Vec2@H@Imath@@@Imath@@AAPBD@Z 10088c40 f   ImfB44Compressor.obj
 0002:00019700       ?convertToLinear@?A0xb36f0740@Imf@@YAXQAG@Z 10089700 f i ImfB44Compressor.obj
 0002:00019780       ?unpack14@?A0xb36f0740@Imf@@YAXQBEQAG@Z 10089780 f i ImfB44Compressor.obj
 0002:00019bd0       ?unpack3@?A0xb36f0740@Imf@@YAXQBEQAG@Z 10089bd0 f i ImfB44Compressor.obj
 0002:00019c90       ??E?$_Tree_const_iterator@V?$_Tree_val@V?$_Tmap_traits@VName@Imf@@UChannel@2@U?$less@VName@Imf@@@std@@V?$allocator@U?$pair@$$CBVName@Imf@@UChannel@2@@std@@@5@$0A@@std@@@std@@@std@@QAEAAV01@XZ 10089c90 f i ImfB44Compressor.obj
 0002:00019dc0       ??8?$_Tree_const_iterator@V?$_Tree_val@V?$_Tmap_traits@VName@Imf@@UChannel@2@U?$less@VName@Imf@@@std@@V?$allocator@U?$pair@$$CBVName@Imf@@UChannel@2@@std@@@5@$0A@@std@@@std@@@std@@QBE_NABV01@@Z 10089dc0 f i ImfB44Compressor.obj
 0002:00019ef0       ??C?$_Tree_unchecked_const_iterator@V?$_Tree_val@V?$_Tmap_traits@VName@Imf@@UChannel@2@U?$less@VName@Imf@@@std@@V?$allocator@U?$pair@$$CBVName@Imf@@UChannel@2@@std@@@5@$0A@@std@@@std@@U_Iterator_base12@2@@std@@QBEPBU?$pair@$$CBVName@Imf@@UChannel@2@@1@XZ 10089ef0 f i ImfB44Compressor.obj
 0002:00019f40       ?_Isnil@?$_Tree_val@V?$_Tmap_traits@VName@Imf@@UChannel@2@U?$less@VName@Imf@@@std@@V?$allocator@U?$pair@$$CBVName@Imf@@UChannel@2@@std@@@5@$0A@@std@@@std@@SAAADPAU_Node@?$_Tree_nod@V?$_Tmap_traits@VName@Imf@@UChannel@2@U?$less@VName@Imf@@@std@@V?$allocator@U?$pair@$$CBVName@Imf@@UChannel@2@@std@@@5@$0A@@std@@@2@@Z 10089f40 f i ImfB44Compressor.obj
 0002:00019f80       ??D?$_Tree_unchecked_const_iterator@V?$_Tree_val@V?$_Tmap_traits@VName@Imf@@UChannel@2@U?$less@VName@Imf@@@std@@V?$allocator@U?$pair@$$CBVName@Imf@@UChannel@2@@std@@@5@$0A@@std@@@std@@U_Iterator_base12@2@@std@@QBEABU?$pair@$$CBVName@Imf@@UChannel@2@@1@XZ 10089f80 f i ImfB44Compressor.obj
 0002:00019fe0       ??E?$_Tree_unchecked_const_iterator@V?$_Tree_val@V?$_Tmap_traits@VName@Imf@@UChannel@2@U?$less@VName@Imf@@@std@@V?$allocator@U?$pair@$$CBVName@Imf@@UChannel@2@@std@@@5@$0A@@std@@@std@@U_Iterator_base12@2@@std@@QAEAAV01@XZ 10089fe0 f i ImfB44Compressor.obj
 0002:0001a110       ?_Parent@?$_Tree_val@V?$_Tmap_traits@VName@Imf@@UChannel@2@U?$less@VName@Imf@@@std@@V?$allocator@U?$pair@$$CBVName@Imf@@UChannel@2@@std@@@5@$0A@@std@@@std@@SAAAPAU_Node@?$_Tree_nod@V?$_Tmap_traits@VName@Imf@@UChannel@2@U?$less@VName@Imf@@@std@@V?$allocator@U?$pair@$$CBVName@Imf@@UChannel@2@@std@@@5@$0A@@std@@@2@PAU342@@Z 1008a110 f i ImfB44Compressor.obj
 0002:0001a150       ?_Right@?$_Tree_val@V?$_Tmap_traits@VName@Imf@@UChannel@2@U?$less@VName@Imf@@@std@@V?$allocator@U?$pair@$$CBVName@Imf@@UChannel@2@@std@@@5@$0A@@std@@@std@@SAAAPAU_Node@?$_Tree_nod@V?$_Tmap_traits@VName@Imf@@UChannel@2@U?$less@VName@Imf@@@std@@V?$allocator@U?$pair@$$CBVName@Imf@@UChannel@2@@std@@@5@$0A@@std@@@2@PAU342@@Z 1008a150 f i ImfB44Compressor.obj
 0002:0001a190       ?_Myval@?$_Tree_val@V?$_Tmap_traits@VName@Imf@@UChannel@2@U?$less@VName@Imf@@@std@@V?$allocator@U?$pair@$$CBVName@Imf@@UChannel@2@@std@@@5@$0A@@std@@@std@@SAAAU?$pair@$$CBVName@Imf@@UChannel@2@@2@PAU_Node@?$_Tree_nod@V?$_Tmap_traits@VName@Imf@@UChannel@2@U?$less@VName@Imf@@@std@@V?$allocator@U?$pair@$$CBVName@Imf@@UChannel@2@@std@@@5@$0A@@std@@@2@@Z 1008a190 f i ImfB44Compressor.obj
 0002:0001a1d0       ?_Min@?$_Tree_val@V?$_Tmap_traits@VName@Imf@@UChannel@2@U?$less@VName@Imf@@@std@@V?$allocator@U?$pair@$$CBVName@Imf@@UChannel@2@@std@@@5@$0A@@std@@@std@@SAPAU_Node@?$_Tree_nod@V?$_Tmap_traits@VName@Imf@@UChannel@2@U?$less@VName@Imf@@@std@@V?$allocator@U?$pair@$$CBVName@Imf@@UChannel@2@@std@@@5@$0A@@std@@@2@PAU342@@Z 1008a1d0 f i ImfB44Compressor.obj
 0002:0001a250       ?_Left@?$_Tree_val@V?$_Tmap_traits@VName@Imf@@UChannel@2@U?$less@VName@Imf@@@std@@V?$allocator@U?$pair@$$CBVName@Imf@@UChannel@2@@std@@@5@$0A@@std@@@std@@SAAAPAU_Node@?$_Tree_nod@V?$_Tmap_traits@VName@Imf@@UChannel@2@U?$less@VName@Imf@@@std@@V?$allocator@U?$pair@$$CBVName@Imf@@UChannel@2@@std@@@5@$0A@@std@@@2@PAU342@@Z 1008a250 f i ImfB44Compressor.obj
 0002:0001a290       ??0?$Vec2@H@Imath@@QAE@ABV01@@Z 1008a290 f i ImfB44Compressor.obj
 0002:0001a2f0       ??0?$Vec2@H@Imath@@QAE@HH@Z 1008a2f0 f i ImfB44Compressor.obj
 0002:0001a340       ??$uiMult@I@Imf@@YAIII@Z   1008a340 f i ImfB44Compressor.obj
 0002:0001a450       ??0OverflowExc@Iex@@QAE@PBD@Z 1008a450 f i ImfB44Compressor.obj
 0002:0001a4c0       ??0MathExc@Iex@@QAE@PBD@Z  1008a4c0 f i ImfB44Compressor.obj
 0002:0001a530       ??_GMathExc@Iex@@UAEPAXI@Z 1008a530 f i ImfB44Compressor.obj
 0002:0001a530       ??_EMathExc@Iex@@UAEPAXI@Z 1008a530 f i ImfB44Compressor.obj
 0002:0001a5a0       ??1MathExc@Iex@@UAE@XZ     1008a5a0 f i ImfB44Compressor.obj
 0002:0001a5f0       ??_EOverflowExc@Iex@@UAEPAXI@Z 1008a5f0 f i ImfB44Compressor.obj
 0002:0001a5f0       ??_GOverflowExc@Iex@@UAEPAXI@Z 1008a5f0 f i ImfB44Compressor.obj
 0002:0001a660       ??1OverflowExc@Iex@@UAE@XZ 1008a660 f i ImfB44Compressor.obj
 0002:0001a6b0       ??$checkArraySize@I@Imf@@YAIII@Z 1008a6b0 f i ImfB44Compressor.obj
 0002:0001a7e0       ??$uiAdd@I@Imf@@YAIII@Z    1008a7e0 f i ImfB44Compressor.obj
 0002:0001a8e0       ??0?$Box@V?$Vec2@H@Imath@@@Imath@@QAE@ABV?$Vec2@H@1@0@Z 1008a8e0 f i ImfB44Compressor.obj
 0002:0001a970       ??$min@H@std@@YAABHABH0@Z  1008a970 f i ImfB44Compressor.obj
 0002:0001aa10       ??$read@UCharPtrIO@Imf@@PBD@Xdr@Imf@@YAXAAPBDAAG@Z 1008aa10 f i ImfB44Compressor.obj
 0002:0001aac0       ??$write@UCharPtrIO@Imf@@PAD@Xdr@Imf@@YAXAAPADG@Z 1008aac0 f i ImfB44Compressor.obj
 0002:0001ab60       ??0OverflowExc@Iex@@QAE@ABV01@@Z 1008ab60 f i ImfB44Compressor.obj
 0002:0001abd0       ??0MathExc@Iex@@QAE@ABV01@@Z 1008abd0 f i ImfB44Compressor.obj
 0002:0001ac40       ??0?$Vec2@H@Imath@@QAE@XZ  1008ac40 f i ImfB44Compressor.obj
 0002:0001ac80       ??4?$Vec2@H@Imath@@QAEABV01@ABV01@@Z 1008ac80 f i ImfB44Compressor.obj
 0002:0001ace0       ??$_Debug_lt@HH@std@@YA_NABH0PB_WI@Z 1008ace0 f i ImfB44Compressor.obj
 0002:0001ad70       ??$readUnsignedChars@UCharPtrIO@Imf@@PBD@Xdr@Imf@@YAXAAPBDQAEH@Z 1008ad70 f i ImfB44Compressor.obj
 0002:0001add0       ?readChars@CharPtrIO@Imf@@SA_NAAPBDQADH@Z 1008add0 f i ImfB44Compressor.obj
 0002:0001ae50       ??$writeUnsignedChars@UCharPtrIO@Imf@@PAD@Xdr@Imf@@YAXAAPADQBEH@Z 1008ae50 f i ImfB44Compressor.obj
 0002:0001aeb0       ?writeChars@CharPtrIO@Imf@@SAXAAPADQBDH@Z 1008aeb0 f i ImfB44Compressor.obj
 0002:0001af30       ?staticTypeName@?$TypedAttribute@V?$Box@V?$Vec2@H@Imath@@@Imath@@@Imf@@SAPBDXZ 1008af30 f   ImfBoxAttribute.obj
 0002:0001af70       ?writeValueTo@?$TypedAttribute@V?$Box@V?$Vec2@H@Imath@@@Imath@@@Imf@@UBEXAAVOStream@2@H@Z 1008af70 f   ImfBoxAttribute.obj
 0002:0001b020       ?readValueFrom@?$TypedAttribute@V?$Box@V?$Vec2@H@Imath@@@Imath@@@Imf@@UAEXAAVIStream@2@HH@Z 1008b020 f   ImfBoxAttribute.obj
 0002:0001b0d0       ?staticTypeName@?$TypedAttribute@V?$Box@V?$Vec2@M@Imath@@@Imath@@@Imf@@SAPBDXZ 1008b0d0 f   ImfBoxAttribute.obj
 0002:0001b110       ?writeValueTo@?$TypedAttribute@V?$Box@V?$Vec2@M@Imath@@@Imath@@@Imf@@UBEXAAVOStream@2@H@Z 1008b110 f   ImfBoxAttribute.obj
 0002:0001b1e0       ?readValueFrom@?$TypedAttribute@V?$Box@V?$Vec2@M@Imath@@@Imath@@@Imf@@UAEXAAVIStream@2@HH@Z 1008b1e0 f   ImfBoxAttribute.obj
 0002:0001b290       ??$write@UStreamIO@Imf@@VOStream@2@@Xdr@Imf@@YAXAAVOStream@1@H@Z 1008b290 f i ImfBoxAttribute.obj
 0002:0001b350       ??$read@UStreamIO@Imf@@VIStream@2@@Xdr@Imf@@YAXAAVIStream@1@AAH@Z 1008b350 f i ImfBoxAttribute.obj
 0002:0001b420       ??$writeSignedChars@UStreamIO@Imf@@VOStream@2@@Xdr@Imf@@YAXAAVOStream@1@QBCH@Z 1008b420 f i ImfBoxAttribute.obj
 0002:0001b480       ??$readSignedChars@UStreamIO@Imf@@VIStream@2@@Xdr@Imf@@YAXAAVIStream@1@QACH@Z 1008b480 f i ImfBoxAttribute.obj
 0002:0001b4e0       ??0Channel@Imf@@QAE@W4PixelType@1@HH_N@Z 1008b4e0 f   ImfChannelList.obj
 0002:0001b550       ??8Channel@Imf@@QBE_NABU01@@Z 1008b550 f   ImfChannelList.obj
 0002:0001b600       ?insert@ChannelList@Imf@@QAEXQBDABUChannel@2@@Z 1008b600 f   ImfChannelList.obj
 0002:0001b7d0       ??0Name@Imf@@QAE@QBD@Z     1008b7d0 f i ImfChannelList.obj
 0002:0001b840       ??4Name@Imf@@QAEAAV01@QBD@Z 1008b840 f i ImfChannelList.obj
 0002:0001b8c0       ?insert@ChannelList@Imf@@QAEXABV?$basic_string@DU?$char_traits@D@std@@V?$allocator@D@2@@std@@ABUChannel@2@@Z 1008b8c0 f   ImfChannelList.obj
 0002:0001b930       ??AChannelList@Imf@@QAEAAUChannel@1@QBD@Z 1008b930 f   ImfChannelList.obj
 0002:0001bba0       ??1?$_Tree_iterator@V?$_Tree_val@V?$_Tmap_traits@VName@Imf@@UChannel@2@U?$less@VName@Imf@@@std@@V?$allocator@U?$pair@$$CBVName@Imf@@UChannel@2@@std@@@5@$0A@@std@@@std@@@std@@QAE@XZ 1008bba0 f i ImfChannelList.obj
 0002:0001bbf0       ??AChannelList@Imf@@QBEABUChannel@1@QBD@Z 1008bbf0 f   ImfChannelList.obj
 0002:0001be60       ??AChannelList@Imf@@QAEAAUChannel@1@ABV?$basic_string@DU?$char_traits@D@std@@V?$allocator@D@2@@std@@@Z 1008be60 f   ImfChannelList.obj
 0002:0001bec0       ??AChannelList@Imf@@QBEABUChannel@1@ABV?$basic_string@DU?$char_traits@D@std@@V?$allocator@D@2@@std@@@Z 1008bec0 f   ImfChannelList.obj
 0002:0001bf20       ?findChannel@ChannelList@Imf@@QAEPAUChannel@2@QBD@Z 1008bf20 f   ImfChannelList.obj
 0002:0001c0c0       ?findChannel@ChannelList@Imf@@QBEPBUChannel@2@QBD@Z 1008c0c0 f   ImfChannelList.obj
 0002:0001c260       ?findChannel@ChannelList@Imf@@QAEPAUChannel@2@ABV?$basic_string@DU?$char_traits@D@std@@V?$allocator@D@2@@std@@@Z 1008c260 f   ImfChannelList.obj
 0002:0001c2c0       ?findChannel@ChannelList@Imf@@QBEPBUChannel@2@ABV?$basic_string@DU?$char_traits@D@std@@V?$allocator@D@2@@std@@@Z 1008c2c0 f   ImfChannelList.obj
 0002:0001c320       ?begin@ChannelList@Imf@@QAE?AVIterator@12@XZ 1008c320 f   ImfChannelList.obj
 0002:0001c420       ??0Iterator@ChannelList@Imf@@QAE@ABV?$_Tree_iterator@V?$_Tree_val@V?$_Tmap_traits@VName@Imf@@UChannel@2@U?$less@VName@Imf@@@std@@V?$allocator@U?$pair@$$CBVName@Imf@@UChannel@2@@std@@@5@$0A@@std@@@std@@@std@@@Z 1008c420 f i ImfChannelList.obj
 0002:0001c480       ??0?$_Tree_iterator@V?$_Tree_val@V?$_Tmap_traits@VName@Imf@@UChannel@2@U?$less@VName@Imf@@@std@@V?$allocator@U?$pair@$$CBVName@Imf@@UChannel@2@@std@@@5@$0A@@std@@@std@@@std@@QAE@ABV01@@Z 1008c480 f i ImfChannelList.obj
 0002:0001c4e0       ??0?$_Tree_const_iterator@V?$_Tree_val@V?$_Tmap_traits@VName@Imf@@UChannel@2@U?$less@VName@Imf@@@std@@V?$allocator@U?$pair@$$CBVName@Imf@@UChannel@2@@std@@@5@$0A@@std@@@std@@@std@@QAE@ABV01@@Z 1008c4e0 f i ImfChannelList.obj
 0002:0001c540       ??0?$_Tree_unchecked_const_iterator@V?$_Tree_val@V?$_Tmap_traits@VName@Imf@@UChannel@2@U?$less@VName@Imf@@@std@@V?$allocator@U?$pair@$$CBVName@Imf@@UChannel@2@@std@@@5@$0A@@std@@@std@@U_Iterator_base12@2@@std@@QAE@ABV01@@Z 1008c540 f i ImfChannelList.obj
 0002:0001c5b0       ??0?$_Iterator012@Ubidirectional_iterator_tag@std@@U?$pair@$$CBVName@Imf@@UChannel@2@@2@HPBU32@ABU32@U_Iterator_base12@2@@std@@QAE@ABU01@@Z 1008c5b0 f i ImfChannelList.obj
 0002:0001c610       ??1Iterator@ChannelList@Imf@@QAE@XZ 1008c610 f i ImfChannelList.obj
 0002:0001c660       ?begin@ChannelList@Imf@@QBE?AVConstIterator@12@XZ 1008c660 f   ImfChannelList.obj
 0002:0001c760       ??0ConstIterator@ChannelList@Imf@@QAE@ABV?$_Tree_const_iterator@V?$_Tree_val@V?$_Tmap_traits@VName@Imf@@UChannel@2@U?$less@VName@Imf@@@std@@V?$allocator@U?$pair@$$CBVName@Imf@@UChannel@2@@std@@@5@$0A@@std@@@std@@@std@@@Z 1008c760 f i ImfChannelList.obj
 0002:0001c7c0       ?end@ChannelList@Imf@@QAE?AVIterator@12@XZ 1008c7c0 f   ImfChannelList.obj
 0002:0001c8c0       ?end@ChannelList@Imf@@QBE?AVConstIterator@12@XZ 1008c8c0 f   ImfChannelList.obj
 0002:0001c9c0       ?find@ChannelList@Imf@@QAE?AVIterator@12@QBD@Z 1008c9c0 f   ImfChannelList.obj
 0002:0001caf0       ?find@ChannelList@Imf@@QBE?AVConstIterator@12@QBD@Z 1008caf0 f   ImfChannelList.obj
 0002:0001cc20       ?find@ChannelList@Imf@@QAE?AVIterator@12@ABV?$basic_string@DU?$char_traits@D@std@@V?$allocator@D@2@@std@@@Z 1008cc20 f   ImfChannelList.obj
 0002:0001ccb0       ?find@ChannelList@Imf@@QBE?AVConstIterator@12@ABV?$basic_string@DU?$char_traits@D@std@@V?$allocator@D@2@@std@@@Z 1008ccb0 f   ImfChannelList.obj
 0002:0001cd40       ?layers@ChannelList@Imf@@QBEXAAV?$set@V?$basic_string@DU?$char_traits@D@std@@V?$allocator@D@2@@std@@U?$less@V?$basic_string@DU?$char_traits@D@std@@V?$allocator@D@2@@std@@@2@V?$allocator@V?$basic_string@DU?$char_traits@D@std@@V?$allocator@D@2@@std@@@2@@std@@@Z 1008cd40 f   ImfChannelList.obj
 0002:0001cf80       ?name@ConstIterator@ChannelList@Imf@@QBEPBDXZ 1008cf80 f i ImfChannelList.obj
 0002:0001cfe0       ??DName@Imf@@QBEPBDXZ      1008cfe0 f i ImfChannelList.obj
 0002:0001d020       ??1?$pair@V?$_Tree_const_iterator@V?$_Tree_val@V?$_Tset_traits@V?$basic_string@DU?$char_traits@D@std@@V?$allocator@D@2@@std@@U?$less@V?$basic_string@DU?$char_traits@D@std@@V?$allocator@D@2@@std@@@2@V?$allocator@V?$basic_string@DU?$char_traits@D@std@@V?$allocator@D@2@@std@@@2@$0A@@std@@@std@@@std@@_N@std@@QAE@XZ 1008d020 f i ImfChannelList.obj
 0002:0001d070       ??1?$_Pair_base@V?$_Tree_const_iterator@V?$_Tree_val@V?$_Tset_traits@V?$basic_string@DU?$char_traits@D@std@@V?$allocator@D@2@@std@@U?$less@V?$basic_string@DU?$char_traits@D@std@@V?$allocator@D@2@@std@@@2@V?$allocator@V?$basic_string@DU?$char_traits@D@std@@V?$allocator@D@2@@std@@@2@$0A@@std@@@std@@@std@@_N@std@@QAE@XZ 1008d070 f i ImfChannelList.obj
 0002:0001d0c0       ??1?$_Tree_const_iterator@V?$_Tree_val@V?$_Tset_traits@V?$basic_string@DU?$char_traits@D@std@@V?$allocator@D@2@@std@@U?$less@V?$basic_string@DU?$char_traits@D@std@@V?$allocator@D@2@@std@@@2@V?$allocator@V?$basic_string@DU?$char_traits@D@std@@V?$allocator@D@2@@std@@@2@$0A@@std@@@std@@@std@@QAE@XZ 1008d0c0 f i ImfChannelList.obj
 0002:0001d110       ??1?$_Tree_unchecked_const_iterator@V?$_Tree_val@V?$_Tset_traits@V?$basic_string@DU?$char_traits@D@std@@V?$allocator@D@2@@std@@U?$less@V?$basic_string@DU?$char_traits@D@std@@V?$allocator@D@2@@std@@@2@V?$allocator@V?$basic_string@DU?$char_traits@D@std@@V?$allocator@D@2@@std@@@2@$0A@@std@@@std@@U_Iterator_base12@2@@std@@QAE@XZ 1008d110 f i ImfChannelList.obj
 0002:0001d160       ??1?$_Iterator012@Ubidirectional_iterator_tag@std@@V?$basic_string@DU?$char_traits@D@std@@V?$allocator@D@2@@2@HPBV32@ABV32@U_Iterator_base12@2@@std@@QAE@XZ 1008d160 f i ImfChannelList.obj
 0002:0001d1b0       ?channelsInLayer@ChannelList@Imf@@QAEXABV?$basic_string@DU?$char_traits@D@std@@V?$allocator@D@2@@std@@AAVIterator@12@1@Z 1008d1b0 f   ImfChannelList.obj
 0002:0001d2b0       ?channelsInLayer@ChannelList@Imf@@QBEXABV?$basic_string@DU?$char_traits@D@std@@V?$allocator@D@2@@std@@AAVConstIterator@12@1@Z 1008d2b0 f   ImfChannelList.obj
 0002:0001d3b0       ?channelsWithPrefix@ChannelList@Imf@@QAEXQBDAAVIterator@12@1@Z 1008d3b0 f   ImfChannelList.obj
 0002:0001d750       ??EIterator@ChannelList@Imf@@QAEAAV012@XZ 1008d750 f i ImfChannelList.obj
 0002:0001d7b0       ?name@Iterator@ChannelList@Imf@@QBEPBDXZ 1008d7b0 f i ImfChannelList.obj
 0002:0001d810       ??0ConstIterator@ChannelList@Imf@@QAE@ABVIterator@12@@Z 1008d810 f i ImfChannelList.obj
 0002:0001d870       ??4Iterator@ChannelList@Imf@@QAEAAV012@ABV012@@Z 1008d870 f i ImfChannelList.obj
 0002:0001d8d0       ??4?$_Tree_iterator@V?$_Tree_val@V?$_Tmap_traits@VName@Imf@@UChannel@2@U?$less@VName@Imf@@@std@@V?$allocator@U?$pair@$$CBVName@Imf@@UChannel@2@@std@@@5@$0A@@std@@@std@@@std@@QAEAAV01@ABV01@@Z 1008d8d0 f i ImfChannelList.obj
 0002:0001d930       ??4?$_Tree_const_iterator@V?$_Tree_val@V?$_Tmap_traits@VName@Imf@@UChannel@2@U?$less@VName@Imf@@@std@@V?$allocator@U?$pair@$$CBVName@Imf@@UChannel@2@@std@@@5@$0A@@std@@@std@@@std@@QAEAAV01@ABV01@@Z 1008d930 f i ImfChannelList.obj
 0002:0001d990       ??4?$_Tree_unchecked_const_iterator@V?$_Tree_val@V?$_Tmap_traits@VName@Imf@@UChannel@2@U?$less@VName@Imf@@@std@@V?$allocator@U?$pair@$$CBVName@Imf@@UChannel@2@@std@@@5@$0A@@std@@@std@@U_Iterator_base12@2@@std@@QAEAAV01@ABV01@@Z 1008d990 f i ImfChannelList.obj
 0002:0001da00       ??4?$_Iterator012@Ubidirectional_iterator_tag@std@@U?$pair@$$CBVName@Imf@@UChannel@2@@2@HPBU32@ABU32@U_Iterator_base12@2@@std@@QAEAAU01@ABU01@@Z 1008da00 f i ImfChannelList.obj
 0002:0001da60       ?channelsWithPrefix@ChannelList@Imf@@QBEXQBDAAVConstIterator@12@1@Z 1008da60 f   ImfChannelList.obj
 0002:0001dd40       ??4ConstIterator@ChannelList@Imf@@QAEAAV012@ABV012@@Z 1008dd40 f i ImfChannelList.obj
 0002:0001dda0       ?channelsWithPrefix@ChannelList@Imf@@QAEXABV?$basic_string@DU?$char_traits@D@std@@V?$allocator@D@2@@std@@AAVIterator@12@1@Z 1008dda0 f   ImfChannelList.obj
 0002:0001de10       ?channelsWithPrefix@ChannelList@Imf@@QBEXABV?$basic_string@DU?$char_traits@D@std@@V?$allocator@D@2@@std@@AAVConstIterator@12@1@Z 1008de10 f   ImfChannelList.obj
 0002:0001de80       ??8ChannelList@Imf@@QBE_NABV01@@Z 1008de80 f   ImfChannelList.obj
 0002:0001e2c0       ??0?$basic_string@DU?$char_traits@D@std@@V?$allocator@D@2@@std@@QAE@PBD@Z 1008e2c0 f i ImfChannelList.obj
 0002:0001e390       ??1?$basic_string@DU?$char_traits@D@std@@V?$allocator@D@2@@std@@QAE@XZ 1008e390 f i ImfChannelList.obj
 0002:0001e440       ?assign@?$basic_string@DU?$char_traits@D@std@@V?$allocator@D@2@@std@@QAEAAV12@PBD@Z 1008e440 f i ImfChannelList.obj
 0002:0001e4d0       ?c_str@?$basic_string@DU?$char_traits@D@std@@V?$allocator@D@2@@std@@QBEPBDXZ 1008e4d0 f i ImfChannelList.obj
 0002:0001e520       ?rfind@?$basic_string@DU?$char_traits@D@std@@V?$allocator@D@2@@std@@QBEIDI@Z 1008e520 f i ImfChannelList.obj
 0002:0001e580       ??A?$map@VName@Imf@@UChannel@2@U?$less@VName@Imf@@@std@@V?$allocator@U?$pair@$$CBVName@Imf@@UChannel@2@@std@@@5@@std@@QAEAAUChannel@Imf@@ABVName@3@@Z 1008e580 f i ImfChannelList.obj
 0002:0001e840       ?begin@?$_Tree@V?$_Tmap_traits@VName@Imf@@UChannel@2@U?$less@VName@Imf@@@std@@V?$allocator@U?$pair@$$CBVName@Imf@@UChannel@2@@std@@@5@$0A@@std@@@std@@QAE?AV?$_Tree_iterator@V?$_Tree_val@V?$_Tmap_traits@VName@Imf@@UChannel@2@U?$less@VName@Imf@@@std@@V?$allocator@U?$pair@$$CBVName@Imf@@UChannel@2@@std@@@5@$0A@@std@@@std@@@2@XZ 1008e840 f i ImfChannelList.obj
 0002:0001e8d0       ?begin@?$_Tree@V?$_Tmap_traits@VName@Imf@@UChannel@2@U?$less@VName@Imf@@@std@@V?$allocator@U?$pair@$$CBVName@Imf@@UChannel@2@@std@@@5@$0A@@std@@@std@@QBE?AV?$_Tree_const_iterator@V?$_Tree_val@V?$_Tmap_traits@VName@Imf@@UChannel@2@U?$less@VName@Imf@@@std@@V?$allocator@U?$pair@$$CBVName@Imf@@UChannel@2@@std@@@5@$0A@@std@@@std@@@2@XZ 1008e8d0 f i ImfChannelList.obj
 0002:0001e960       ?end@?$_Tree@V?$_Tmap_traits@VName@Imf@@UChannel@2@U?$less@VName@Imf@@@std@@V?$allocator@U?$pair@$$CBVName@Imf@@UChannel@2@@std@@@5@$0A@@std@@@std@@QAE?AV?$_Tree_iterator@V?$_Tree_val@V?$_Tmap_traits@VName@Imf@@UChannel@2@U?$less@VName@Imf@@@std@@V?$allocator@U?$pair@$$CBVName@Imf@@UChannel@2@@std@@@5@$0A@@std@@@std@@@2@XZ 1008e960 f i ImfChannelList.obj
 0002:0001e9f0       ?end@?$_Tree@V?$_Tmap_traits@VName@Imf@@UChannel@2@U?$less@VName@Imf@@@std@@V?$allocator@U?$pair@$$CBVName@Imf@@UChannel@2@@std@@@5@$0A@@std@@@std@@QBE?AV?$_Tree_const_iterator@V?$_Tree_val@V?$_Tmap_traits@VName@Imf@@UChannel@2@U?$less@VName@Imf@@@std@@V?$allocator@U?$pair@$$CBVName@Imf@@UChannel@2@@std@@@5@$0A@@std@@@std@@@2@XZ 1008e9f0 f i ImfChannelList.obj
 0002:0001ea80       ?find@?$_Tree@V?$_Tmap_traits@VName@Imf@@UChannel@2@U?$less@VName@Imf@@@std@@V?$allocator@U?$pair@$$CBVName@Imf@@UChannel@2@@std@@@5@$0A@@std@@@std@@QAE?AV?$_Tree_iterator@V?$_Tree_val@V?$_Tmap_traits@VName@Imf@@UChannel@2@U?$less@VName@Imf@@@std@@V?$allocator@U?$pair@$$CBVName@Imf@@UChannel@2@@std@@@5@$0A@@std@@@std@@@2@ABVName@Imf@@@Z 1008ea80 f i ImfChannelList.obj
 0002:0001ed80       ?find@?$_Tree@V?$_Tmap_traits@VName@Imf@@UChannel@2@U?$less@VName@Imf@@@std@@V?$allocator@U?$pair@$$CBVName@Imf@@UChannel@2@@std@@@5@$0A@@std@@@std@@QBE?AV?$_Tree_const_iterator@V?$_Tree_val@V?$_Tmap_traits@VName@Imf@@UChannel@2@U?$less@VName@Imf@@@std@@V?$allocator@U?$pair@$$CBVName@Imf@@UChannel@2@@std@@@5@$0A@@std@@@std@@@2@ABVName@Imf@@@Z 1008ed80 f i ImfChannelList.obj
 0002:0001f080       ?lower_bound@?$_Tree@V?$_Tmap_traits@VName@Imf@@UChannel@2@U?$less@VName@Imf@@@std@@V?$allocator@U?$pair@$$CBVName@Imf@@UChannel@2@@std@@@5@$0A@@std@@@std@@QAE?AV?$_Tree_iterator@V?$_Tree_val@V?$_Tmap_traits@VName@Imf@@UChannel@2@U?$less@VName@Imf@@@std@@V?$allocator@U?$pair@$$CBVName@Imf@@UChannel@2@@std@@@5@$0A@@std@@@std@@@2@ABVName@Imf@@@Z 1008f080 f i ImfChannelList.obj
 0002:0001f110       ?lower_bound@?$_Tree@V?$_Tmap_traits@VName@Imf@@UChannel@2@U?$less@VName@Imf@@@std@@V?$allocator@U?$pair@$$CBVName@Imf@@UChannel@2@@std@@@5@$0A@@std@@@std@@QBE?AV?$_Tree_const_iterator@V?$_Tree_val@V?$_Tmap_traits@VName@Imf@@UChannel@2@U?$less@VName@Imf@@@std@@V?$allocator@U?$pair@$$CBVName@Imf@@UChannel@2@@std@@@5@$0A@@std@@@std@@@2@ABVName@Imf@@@Z 1008f110 f i ImfChannelList.obj
 0002:0001f1a0       ??C?$_Tree_iterator@V?$_Tree_val@V?$_Tmap_traits@VName@Imf@@UChannel@2@U?$less@VName@Imf@@@std@@V?$allocator@U?$pair@$$CBVName@Imf@@UChannel@2@@std@@@5@$0A@@std@@@std@@@std@@QBEPAU?$pair@$$CBVName@Imf@@UChannel@2@@1@XZ 1008f1a0 f i ImfChannelList.obj
 0002:0001f1f0       ??E?$_Tree_iterator@V?$_Tree_val@V?$_Tmap_traits@VName@Imf@@UChannel@2@U?$less@VName@Imf@@@std@@V?$allocator@U?$pair@$$CBVName@Imf@@UChannel@2@@std@@@5@$0A@@std@@@std@@@std@@QAEAAV01@XZ 1008f1f0 f i ImfChannelList.obj
 0002:0001f250       ?clear@?$_Tree@V?$_Tset_traits@V?$basic_string@DU?$char_traits@D@std@@V?$allocator@D@2@@std@@U?$less@V?$basic_string@DU?$char_traits@D@std@@V?$allocator@D@2@@std@@@2@V?$allocator@V?$basic_string@DU?$char_traits@D@std@@V?$allocator@D@2@@std@@@2@$0A@@std@@@std@@QAEXXZ 1008f250 f i ImfChannelList.obj
 0002:0001f310       ?assign@?$basic_string@DU?$char_traits@D@std@@V?$allocator@D@2@@std@@QAEAAV12@PBDI@Z 1008f310 f i ImfChannelList.obj
 0002:0001f410       ?rfind@?$basic_string@DU?$char_traits@D@std@@V?$allocator@D@2@@std@@QBEIPBDII@Z 1008f410 f i ImfChannelList.obj
 0002:0001f590       ?compare@?$char_traits@D@std@@SAHPBD0I@Z 1008f590 f i ImfChannelList.obj
 0002:0001f5f0       ?_Lbound@?$_Tree@V?$_Tmap_traits@VName@Imf@@UChannel@2@U?$less@VName@Imf@@@std@@V?$allocator@U?$pair@$$CBVName@Imf@@UChannel@2@@std@@@5@$0A@@std@@@std@@IBEPAU_Node@?$_Tree_nod@V?$_Tmap_traits@VName@Imf@@UChannel@2@U?$less@VName@Imf@@@std@@V?$allocator@U?$pair@$$CBVName@Imf@@UChannel@2@@std@@@5@$0A@@std@@@2@ABVName@Imf@@@Z 1008f5f0 f i ImfChannelList.obj
 0002:0001f6f0       ?_Lbound@?$_Tree@V?$_Tmap_traits@VName@Imf@@UChannel@2@U?$less@VName@Imf@@@std@@V?$allocator@U?$pair@$$CBVName@Imf@@UChannel@2@@std@@@5@$0A@@std@@@std@@IAEPAU_Node@?$_Tree_nod@V?$_Tmap_traits@VName@Imf@@UChannel@2@U?$less@VName@Imf@@@std@@V?$allocator@U?$pair@$$CBVName@Imf@@UChannel@2@@std@@@5@$0A@@std@@@2@ABVName@Imf@@@Z 1008f6f0 f i ImfChannelList.obj
 0002:0001f7f0       ?_Lmost@?$_Tree@V?$_Tmap_traits@VName@Imf@@UChannel@2@U?$less@VName@Imf@@@std@@V?$allocator@U?$pair@$$CBVName@Imf@@UChannel@2@@std@@@5@$0A@@std@@@std@@IBEAAPAU_Node@?$_Tree_nod@V?$_Tmap_traits@VName@Imf@@UChannel@2@U?$less@VName@Imf@@@std@@V?$allocator@U?$pair@$$CBVName@Imf@@UChannel@2@@std@@@5@$0A@@std@@@2@XZ 1008f7f0 f i ImfChannelList.obj
 0002:0001f850       ?_Key@?$_Tree_val@V?$_Tmap_traits@VName@Imf@@UChannel@2@U?$less@VName@Imf@@@std@@V?$allocator@U?$pair@$$CBVName@Imf@@UChannel@2@@std@@@5@$0A@@std@@@std@@SAAAVName@Imf@@PAU_Node@?$_Tree_nod@V?$_Tmap_traits@VName@Imf@@UChannel@2@U?$less@VName@Imf@@@std@@V?$allocator@U?$pair@$$CBVName@Imf@@UChannel@2@@std@@@5@$0A@@std@@@2@@Z 1008f850 f i ImfChannelList.obj
 0002:0001f8b0       ??R?$less@VName@Imf@@@std@@QBE_NABVName@Imf@@0@Z 1008f8b0 f i ImfChannelList.obj
 0002:0001f910       ??MImf@@YA_NABVName@0@0@Z  1008f910 f i ImfChannelList.obj
 0002:0001f980       ??0?$_Tree_iterator@V?$_Tree_val@V?$_Tmap_traits@VName@Imf@@UChannel@2@U?$less@VName@Imf@@@std@@V?$allocator@U?$pair@$$CBVName@Imf@@UChannel@2@@std@@@5@$0A@@std@@@std@@@std@@QAE@PAU_Node@?$_Tree_nod@V?$_Tmap_traits@VName@Imf@@UChannel@2@U?$less@VName@Imf@@@std@@V?$allocator@U?$pair@$$CBVName@Imf@@UChannel@2@@std@@@5@$0A@@std@@@1@PBV?$_Tree_val@V?$_Tmap_traits@VName@Imf@@UChannel@2@U?$less@VName@Imf@@@std@@V?$allocator@U?$pair@$$CBVName@Imf@@UChannel@2@@std@@@5@$0A@@std@@@1@@Z 1008f980 f i ImfChannelList.obj
 0002:0001f9e0       ??D?$_Tree_iterator@V?$_Tree_val@V?$_Tmap_traits@VName@Imf@@UChannel@2@U?$less@VName@Imf@@@std@@V?$allocator@U?$pair@$$CBVName@Imf@@UChannel@2@@std@@@5@$0A@@std@@@std@@@std@@QBEAAU?$pair@$$CBVName@Imf@@UChannel@2@@1@XZ 1008f9e0 f i ImfChannelList.obj
 0002:0001fa30       ??0?$_Tree_const_iterator@V?$_Tree_val@V?$_Tmap_traits@VName@Imf@@UChannel@2@U?$less@VName@Imf@@@std@@V?$allocator@U?$pair@$$CBVName@Imf@@UChannel@2@@std@@@5@$0A@@std@@@std@@@std@@QAE@PAU_Node@?$_Tree_nod@V?$_Tmap_traits@VName@Imf@@UChannel@2@U?$less@VName@Imf@@@std@@V?$allocator@U?$pair@$$CBVName@Imf@@UChannel@2@@std@@@5@$0A@@std@@@1@PBV?$_Tree_val@V?$_Tmap_traits@VName@Imf@@UChannel@2@U?$less@VName@Imf@@@std@@V?$allocator@U?$pair@$$CBVName@Imf@@UChannel@2@@std@@@5@$0A@@std@@@1@@Z 1008fa30 f i ImfChannelList.obj
 0002:0001fa90       ?_Mynode@?$_Tree_unchecked_const_iterator@V?$_Tree_val@V?$_Tmap_traits@VName@Imf@@UChannel@2@U?$less@VName@Imf@@@std@@V?$allocator@U?$pair@$$CBVName@Imf@@UChannel@2@@std@@@5@$0A@@std@@@std@@U_Iterator_base12@2@@std@@QBEPAU_Node@?$_Tree_nod@V?$_Tmap_traits@VName@Imf@@UChannel@2@U?$less@VName@Imf@@@std@@V?$allocator@U?$pair@$$CBVName@Imf@@UChannel@2@@std@@@5@$0A@@std@@@2@XZ 1008fa90 f i ImfChannelList.obj
 0002:0001fad0       ??0?$pair@$$CBVName@Imf@@UChannel@2@@std@@QAE@ABVName@Imf@@$$QAUChannel@3@@Z 1008fad0 f i ImfChannelList.obj
 0002:0001fb40       ?_Erase@?$_Tree@V?$_Tset_traits@V?$basic_string@DU?$char_traits@D@std@@V?$allocator@D@2@@std@@U?$less@V?$basic_string@DU?$char_traits@D@std@@V?$allocator@D@2@@std@@@2@V?$allocator@V?$basic_string@DU?$char_traits@D@std@@V?$allocator@D@2@@std@@@2@$0A@@std@@@std@@IAEXPAU_Node@?$_Tree_nod@V?$_Tset_traits@V?$basic_string@DU?$char_traits@D@std@@V?$allocator@D@2@@std@@U?$less@V?$basic_string@DU?$char_traits@D@std@@V?$allocator@D@2@@std@@@2@V?$allocator@V?$basic_string@DU?$char_traits@D@std@@V?$allocator@D@2@@std@@@2@$0A@@std@@@2@@Z 1008fb40 f i ImfChannelList.obj
 0002:0001fc30       ?_Lmost@?$_Tree@V?$_Tset_traits@V?$basic_string@DU?$char_traits@D@std@@V?$allocator@D@2@@std@@U?$less@V?$basic_string@DU?$char_traits@D@std@@V?$allocator@D@2@@std@@@2@V?$allocator@V?$basic_string@DU?$char_traits@D@std@@V?$allocator@D@2@@std@@@2@$0A@@std@@@std@@IBEAAPAU_Node@?$_Tree_nod@V?$_Tset_traits@V?$basic_string@DU?$char_traits@D@std@@V?$allocator@D@2@@std@@U?$less@V?$basic_string@DU?$char_traits@D@std@@V?$allocator@D@2@@std@@@2@V?$allocator@V?$basic_string@DU?$char_traits@D@std@@V?$allocator@D@2@@std@@@2@$0A@@std@@@2@XZ 1008fc30 f i ImfChannelList.obj
 0002:0001fc90       ?_Rmost@?$_Tree@V?$_Tset_traits@V?$basic_string@DU?$char_traits@D@std@@V?$allocator@D@2@@std@@U?$less@V?$basic_string@DU?$char_traits@D@std@@V?$allocator@D@2@@std@@@2@V?$allocator@V?$basic_string@DU?$char_traits@D@std@@V?$allocator@D@2@@std@@@2@$0A@@std@@@std@@IBEAAPAU_Node@?$_Tree_nod@V?$_Tset_traits@V?$basic_string@DU?$char_traits@D@std@@V?$allocator@D@2@@std@@U?$less@V?$basic_string@DU?$char_traits@D@std@@V?$allocator@D@2@@std@@@2@V?$allocator@V?$basic_string@DU?$char_traits@D@std@@V?$allocator@D@2@@std@@@2@$0A@@std@@@2@XZ 1008fc90 f i ImfChannelList.obj
 0002:0001fcf0       ?_Root@?$_Tree@V?$_Tset_traits@V?$basic_string@DU?$char_traits@D@std@@V?$allocator@D@2@@std@@U?$less@V?$basic_string@DU?$char_traits@D@std@@V?$allocator@D@2@@std@@@2@V?$allocator@V?$basic_string@DU?$char_traits@D@std@@V?$allocator@D@2@@std@@@2@$0A@@std@@@std@@IBEAAPAU_Node@?$_Tree_nod@V?$_Tset_traits@V?$basic_string@DU?$char_traits@D@std@@V?$allocator@D@2@@std@@U?$less@V?$basic_string@DU?$char_traits@D@std@@V?$allocator@D@2@@std@@@2@V?$allocator@V?$basic_string@DU?$char_traits@D@std@@V?$allocator@D@2@@std@@@2@$0A@@std@@@2@XZ 1008fcf0 f i ImfChannelList.obj
 0002:0001fd50       ?_Orphan_ptr@?$_Tree@V?$_Tset_traits@V?$basic_string@DU?$char_traits@D@std@@V?$allocator@D@2@@std@@U?$less@V?$basic_string@DU?$char_traits@D@std@@V?$allocator@D@2@@std@@@2@V?$allocator@V?$basic_string@DU?$char_traits@D@std@@V?$allocator@D@2@@std@@@2@$0A@@std@@@std@@IBEXAAV12@PAU_Node@?$_Tree_nod@V?$_Tset_traits@V?$basic_string@DU?$char_traits@D@std@@V?$allocator@D@2@@std@@U?$less@V?$basic_string@DU?$char_traits@D@std@@V?$allocator@D@2@@std@@@2@V?$allocator@V?$basic_string@DU?$char_traits@D@std@@V?$allocator@D@2@@std@@@2@$0A@@std@@@2@@Z 1008fd50 f i ImfChannelList.obj
 0002:0001fee0       ?_Inside@?$basic_string@DU?$char_traits@D@std@@V?$allocator@D@2@@std@@QAE_NPBD@Z 1008fee0 f i ImfChannelList.obj
 0002:0001ff60       ?_Root@?$_Tree@V?$_Tmap_traits@VName@Imf@@UChannel@2@U?$less@VName@Imf@@@std@@V?$allocator@U?$pair@$$CBVName@Imf@@UChannel@2@@std@@@5@$0A@@std@@@std@@IBEAAPAU_Node@?$_Tree_nod@V?$_Tmap_traits@VName@Imf@@UChannel@2@U?$less@VName@Imf@@@std@@V?$allocator@U?$pair@$$CBVName@Imf@@UChannel@2@@std@@@5@$0A@@std@@@2@XZ 1008ff60 f i ImfChannelList.obj
 0002:0001ffc0       ??D?$_Tree_const_iterator@V?$_Tree_val@V?$_Tmap_traits@VName@Imf@@UChannel@2@U?$less@VName@Imf@@@std@@V?$allocator@U?$pair@$$CBVName@Imf@@UChannel@2@@std@@@5@$0A@@std@@@std@@@std@@QBEABU?$pair@$$CBVName@Imf@@UChannel@2@@1@XZ 1008ffc0 f i ImfChannelList.obj
 0002:000200f0       ??0?$_Tree_unchecked_const_iterator@V?$_Tree_val@V?$_Tmap_traits@VName@Imf@@UChannel@2@U?$less@VName@Imf@@@std@@V?$allocator@U?$pair@$$CBVName@Imf@@UChannel@2@@std@@@5@$0A@@std@@@std@@U_Iterator_base12@2@@std@@QAE@PAU_Node@?$_Tree_nod@V?$_Tmap_traits@VName@Imf@@UChannel@2@U?$less@VName@Imf@@@std@@V?$allocator@U?$pair@$$CBVName@Imf@@UChannel@2@@std@@@5@$0A@@std@@@1@PBV?$_Tree_val@V?$_Tmap_traits@VName@Imf@@UChannel@2@U?$less@VName@Imf@@@std@@V?$allocator@U?$pair@$$CBVName@Imf@@UChannel@2@@std@@@5@$0A@@std@@@1@@Z 100900f0 f i ImfChannelList.obj
 0002:000201b0       ??0?$_Iterator012@Ubidirectional_iterator_tag@std@@U?$pair@$$CBVName@Imf@@UChannel@2@@2@HPBU32@ABU32@U_Iterator_base12@2@@std@@QAE@XZ 100901b0 f i ImfChannelList.obj
 0002:00020210       ??0?$_Pair_base@$$CBVName@Imf@@UChannel@2@@std@@QAE@ABVName@Imf@@$$QAUChannel@3@@Z 10090210 f i ImfChannelList.obj
 0002:000202b0       ?_Isnil@?$_Tree_val@V?$_Tset_traits@V?$basic_string@DU?$char_traits@D@std@@V?$allocator@D@2@@std@@U?$less@V?$basic_string@DU?$char_traits@D@std@@V?$allocator@D@2@@std@@@2@V?$allocator@V?$basic_string@DU?$char_traits@D@std@@V?$allocator@D@2@@std@@@2@$0A@@std@@@std@@SAAADPAU_Node@?$_Tree_nod@V?$_Tset_traits@V?$basic_string@DU?$char_traits@D@std@@V?$allocator@D@2@@std@@U?$less@V?$basic_string@DU?$char_traits@D@std@@V?$allocator@D@2@@std@@@2@V?$allocator@V?$basic_string@DU?$char_traits@D@std@@V?$allocator@D@2@@std@@@2@$0A@@std@@@2@@Z 100902b0 f i ImfChannelList.obj
 0002:000202f0       ?_Left@?$_Tree_val@V?$_Tset_traits@V?$basic_string@DU?$char_traits@D@std@@V?$allocator@D@2@@std@@U?$less@V?$basic_string@DU?$char_traits@D@std@@V?$allocator@D@2@@std@@@2@V?$allocator@V?$basic_string@DU?$char_traits@D@std@@V?$allocator@D@2@@std@@@2@$0A@@std@@@std@@SAAAPAU_Node@?$_Tree_nod@V?$_Tset_traits@V?$basic_string@DU?$char_traits@D@std@@V?$allocator@D@2@@std@@U?$less@V?$basic_string@DU?$char_traits@D@std@@V?$allocator@D@2@@std@@@2@V?$allocator@V?$basic_string@DU?$char_traits@D@std@@V?$allocator@D@2@@std@@@2@$0A@@std@@@2@PAU342@@Z 100902f0 f i ImfChannelList.obj
 0002:00020330       ?_Parent@?$_Tree_val@V?$_Tset_traits@V?$basic_string@DU?$char_traits@D@std@@V?$allocator@D@2@@std@@U?$less@V?$basic_string@DU?$char_traits@D@std@@V?$allocator@D@2@@std@@@2@V?$allocator@V?$basic_string@DU?$char_traits@D@std@@V?$allocator@D@2@@std@@@2@$0A@@std@@@std@@SAAAPAU_Node@?$_Tree_nod@V?$_Tset_traits@V?$basic_string@DU?$char_traits@D@std@@V?$allocator@D@2@@std@@U?$less@V?$basic_string@DU?$char_traits@D@std@@V?$allocator@D@2@@std@@@2@V?$allocator@V?$basic_string@DU?$char_traits@D@std@@V?$allocator@D@2@@std@@@2@$0A@@std@@@2@PAU342@@Z 10090330 f i ImfChannelList.obj
 0002:00020370       ?_Right@?$_Tree_val@V?$_Tset_traits@V?$basic_string@DU?$char_traits@D@std@@V?$allocator@D@2@@std@@U?$less@V?$basic_string@DU?$char_traits@D@std@@V?$allocator@D@2@@std@@@2@V?$allocator@V?$basic_string@DU?$char_traits@D@std@@V?$allocator@D@2@@std@@@2@$0A@@std@@@std@@SAAAPAU_Node@?$_Tree_nod@V?$_Tset_traits@V?$basic_string@DU?$char_traits@D@std@@V?$allocator@D@2@@std@@U?$less@V?$basic_string@DU?$char_traits@D@std@@V?$allocator@D@2@@std@@@2@V?$allocator@V?$basic_string@DU?$char_traits@D@std@@V?$allocator@D@2@@std@@@2@$0A@@std@@@2@PAU342@@Z 10090370 f i ImfChannelList.obj
 0002:000203b0       ?_Myval@?$_Tree_val@V?$_Tset_traits@V?$basic_string@DU?$char_traits@D@std@@V?$allocator@D@2@@std@@U?$less@V?$basic_string@DU?$char_traits@D@std@@V?$allocator@D@2@@std@@@2@V?$allocator@V?$basic_string@DU?$char_traits@D@std@@V?$allocator@D@2@@std@@@2@$0A@@std@@@std@@SAAAV?$basic_string@DU?$char_traits@D@std@@V?$allocator@D@2@@2@PAU_Node@?$_Tree_nod@V?$_Tset_traits@V?$basic_string@DU?$char_traits@D@std@@V?$allocator@D@2@@std@@U?$less@V?$basic_string@DU?$char_traits@D@std@@V?$allocator@D@2@@std@@@2@V?$allocator@V?$basic_string@DU?$char_traits@D@std@@V?$allocator@D@2@@std@@@2@$0A@@std@@@2@@Z 100903b0 f i ImfChannelList.obj
 0002:000203f0       ?deallocate@?$allocator@U_Node@?$_Tree_nod@V?$_Tset_traits@V?$basic_string@DU?$char_traits@D@std@@V?$allocator@D@2@@std@@U?$less@V?$basic_string@DU?$char_traits@D@std@@V?$allocator@D@2@@std@@@2@V?$allocator@V?$basic_string@DU?$char_traits@D@std@@V?$allocator@D@2@@std@@@2@$0A@@std@@@std@@@std@@QAEXPAU_Node@?$_Tree_nod@V?$_Tset_traits@V?$basic_string@DU?$char_traits@D@std@@V?$allocator@D@2@@std@@U?$less@V?$basic_string@DU?$char_traits@D@std@@V?$allocator@D@2@@std@@@2@V?$allocator@V?$basic_string@DU?$char_traits@D@std@@V?$allocator@D@2@@std@@@2@$0A@@std@@@2@I@Z 100903f0 f i ImfChannelList.obj
 0002:00020450       ??$insert@AAV?$basic_string@DU?$char_traits@D@std@@V?$allocator@D@2@@std@@@?$_Tree@V?$_Tset_traits@V?$basic_string@DU?$char_traits@D@std@@V?$allocator@D@2@@std@@U?$less@V?$basic_string@DU?$char_traits@D@std@@V?$allocator@D@2@@std@@@2@V?$allocator@V?$basic_string@DU?$char_traits@D@std@@V?$allocator@D@2@@std@@@2@$0A@@std@@@std@@QAE?AU?$pair@V?$_Tree_const_iterator@V?$_Tree_val@V?$_Tset_traits@V?$basic_string@DU?$char_traits@D@std@@V?$allocator@D@2@@std@@U?$less@V?$basic_string@DU?$char_traits@D@std@@V?$allocator@D@2@@std@@@2@V?$allocator@V?$basic_string@DU?$char_traits@D@std@@V?$allocator@D@2@@std@@@2@$0A@@std@@@std@@@std@@_N@1@AAV?$basic_string@DU?$char_traits@D@std@@V?$allocator@D@2@@1@@Z 10090450 f i ImfChannelList.obj
 0002:000204f0       ??$?HDU?$char_traits@D@std@@V?$allocator@D@1@@std@@YA?AV?$basic_string@DU?$char_traits@D@std@@V?$allocator@D@2@@0@ABV10@D@Z 100904f0 f i ImfChannelList.obj
 0002:00020640       ??0?$basic_string@DU?$char_traits@D@std@@V?$allocator@D@2@@std@@QAE@XZ 10090640 f i ImfChannelList.obj
 0002:00020700       ??0?$basic_string@DU?$char_traits@D@std@@V?$allocator@D@2@@std@@QAE@$$QAV01@@Z 10090700 f i ImfChannelList.obj
 0002:000207f0       ?assign@?$basic_string@DU?$char_traits@D@std@@V?$allocator@D@2@@std@@QAEAAV12@$$QAV12@@Z 100907f0 f i ImfChannelList.obj
 0002:00020930       ??Y?$basic_string@DU?$char_traits@D@std@@V?$allocator@D@2@@std@@QAEAAV01@ABV01@@Z 10090930 f i ImfChannelList.obj
 0002:00020990       ??Y?$basic_string@DU?$char_traits@D@std@@V?$allocator@D@2@@std@@QAEAAV01@D@Z 10090990 f i ImfChannelList.obj
 0002:000209f0       ??4?$basic_string@DU?$char_traits@D@std@@V?$allocator@D@2@@std@@QAEAAV01@ABV01@@Z 100909f0 f i ImfChannelList.obj
 0002:00020a50       ?append@?$basic_string@DU?$char_traits@D@std@@V?$allocator@D@2@@std@@QAEAAV12@ABV12@@Z 10090a50 f i ImfChannelList.obj
 0002:00020ab0       ?append@?$basic_string@DU?$char_traits@D@std@@V?$allocator@D@2@@std@@QAEAAV12@ABV12@II@Z 10090ab0 f i ImfChannelList.obj
 0002:00020bd0       ?append@?$basic_string@DU?$char_traits@D@std@@V?$allocator@D@2@@std@@QAEAAV12@ID@Z 10090bd0 f i ImfChannelList.obj
 0002:00020ca0       ?get_allocator@?$basic_string@DU?$char_traits@D@std@@V?$allocator@D@2@@std@@QBE?AV?$allocator@D@2@XZ 10090ca0 f i ImfChannelList.obj
 0002:00020d00       ?assign@?$basic_string@DU?$char_traits@D@std@@V?$allocator@D@2@@std@@QAEAAV12@ABV12@@Z 10090d00 f i ImfChannelList.obj
 0002:00020d60       ?_Chassign@?$basic_string@DU?$char_traits@D@std@@V?$allocator@D@2@@std@@QAEXIID@Z 10090d60 f i ImfChannelList.obj
 0002:00020e00       ?assign@?$char_traits@D@std@@SAPADPADID@Z 10090e00 f i ImfChannelList.obj
 0002:00020e60       ??$forward@V?$allocator@D@std@@@std@@YA$$QAV?$allocator@D@0@AAV10@@Z 10090e60 f i ImfChannelList.obj
 0002:00020ea0       ??$forward@V?$basic_string@DU?$char_traits@D@std@@V?$allocator@D@2@@std@@@std@@YA$$QAV?$basic_string@DU?$char_traits@D@std@@V?$allocator@D@2@@0@AAV10@@Z 10090ea0 f i ImfChannelList.obj
 0002:00020ee0       ??$_Debug_pointer@D@std@@YAXPBDPB_WI@Z 10090ee0 f i ImfChannelList.obj
 0002:00020f50       ??$insert@U?$pair@$$CBVName@Imf@@UChannel@2@@std@@@?$_Tree@V?$_Tmap_traits@VName@Imf@@UChannel@2@U?$less@VName@Imf@@@std@@V?$allocator@U?$pair@$$CBVName@Imf@@UChannel@2@@std@@@5@$0A@@std@@@std@@QAE?AV?$_Tree_iterator@V?$_Tree_val@V?$_Tmap_traits@VName@Imf@@UChannel@2@U?$less@VName@Imf@@@std@@V?$allocator@U?$pair@$$CBVName@Imf@@UChannel@2@@std@@@5@$0A@@std@@@std@@@1@V?$_Tree_const_iterator@V?$_Tree_val@V?$_Tmap_traits@VName@Imf@@UChannel@2@U?$less@VName@Imf@@@std@@V?$allocator@U?$pair@$$CBVName@Imf@@UChannel@2@@std@@@5@$0A@@std@@@std@@@1@$$QAU?$pair@$$CBVName@Imf@@UChannel@2@@1@@Z 10090f50 f i ImfChannelList.obj
 0002:00021060       ??$_Debug_lt_pred@U?$less@VName@Imf@@@std@@VName@Imf@@V34@@std@@YA_NU?$less@VName@Imf@@@0@ABVName@Imf@@AAV23@PB_WI@Z 10091060 f i ImfChannelList.obj
 0002:00021110       ??$?9DD@std@@YA_NABV?$allocator@D@0@0@Z 10091110 f i ImfChannelList.obj
 0002:00021170       ??$_Debug_lt_pred@U?$less@VName@Imf@@@std@@VName@Imf@@V34@@std@@YA_NU?$less@VName@Imf@@@0@AAVName@Imf@@ABV23@PB_WI@Z 10091170 f i ImfChannelList.obj
 0002:00021220       ??$_Kfn@$$CBVName@Imf@@UChannel@2@@?$_Tmap_traits@VName@Imf@@UChannel@2@U?$less@VName@Imf@@@std@@V?$allocator@U?$pair@$$CBVName@Imf@@UChannel@2@@std@@@5@$0A@@std@@SAABVName@Imf@@ABU?$pair@$$CBVName@Imf@@UChannel@2@@1@@Z 10091220 f i ImfChannelList.obj
 0002:00021260       ??$move@AAUChannel@Imf@@@std@@YA$$QAUChannel@Imf@@AAU12@@Z 10091260 f i ImfChannelList.obj
 0002:000212a0       ??$addressof@V?$basic_string@DU?$char_traits@D@std@@V?$allocator@D@2@@std@@@std@@YAPAV?$basic_string@DU?$char_traits@D@std@@V?$allocator@D@2@@0@AAV10@@Z 100912a0 f i ImfChannelList.obj
 0002:000212e0       ??$_Dest_val@V?$allocator@V?$basic_string@DU?$char_traits@D@std@@V?$allocator@D@2@@std@@@std@@V?$basic_string@DU?$char_traits@D@std@@V?$allocator@D@2@@2@@std@@YAXAAV?$allocator@V?$basic_string@DU?$char_traits@D@std@@V?$allocator@D@2@@std@@@0@PAV?$basic_string@DU?$char_traits@D@std@@V?$allocator@D@2@@0@@Z 100912e0 f i ImfChannelList.obj
 0002:00021330       ?reserve@?$basic_string@DU?$char_traits@D@std@@V?$allocator@D@2@@std@@QAEXI@Z 10091330 f i ImfChannelList.obj
 0002:000213d0       ?_Insert@?$_Tree@V?$_Tmap_traits@VName@Imf@@UChannel@2@U?$less@VName@Imf@@@std@@V?$allocator@U?$pair@$$CBVName@Imf@@UChannel@2@@std@@@5@$0A@@std@@@std@@QAE?AV?$_Tree_iterator@V?$_Tree_val@V?$_Tmap_traits@VName@Imf@@UChannel@2@U?$less@VName@Imf@@@std@@V?$allocator@U?$pair@$$CBVName@Imf@@UChannel@2@@std@@@5@$0A@@std@@@std@@@2@V?$_Tree_const_iterator@V?$_Tree_val@V?$_Tmap_traits@VName@Imf@@UChannel@2@U?$less@VName@Imf@@@std@@V?$allocator@U?$pair@$$CBVName@Imf@@UChannel@2@@std@@@5@$0A@@std@@@std@@@2@PAU_Node@?$_Tree_nod@V?$_Tmap_traits@VName@Imf@@UChannel@2@U?$less@VName@Imf@@@std@@V?$allocator@U?$pair@$$CBVName@Imf@@UChannel@2@@std@@@5@$0A@@std@@@2@@Z 100913d0 f i ImfChannelList.obj
 0002:000222e0       ??0?$_Tree_const_iterator@V?$_Tree_val@V?$_Tmap_traits@VName@Imf@@UChannel@2@U?$less@VName@Imf@@@std@@V?$allocator@U?$pair@$$CBVName@Imf@@UChannel@2@@std@@@5@$0A@@std@@@std@@@std@@QAE@XZ 100922e0 f i ImfChannelList.obj
 0002:00022340       ??0?$_Tree_unchecked_const_iterator@V?$_Tree_val@V?$_Tmap_traits@VName@Imf@@UChannel@2@U?$less@VName@Imf@@@std@@V?$allocator@U?$pair@$$CBVName@Imf@@UChannel@2@@std@@@5@$0A@@std@@@std@@U_Iterator_base12@2@@std@@QAE@XZ 10092340 f i ImfChannelList.obj
 0002:000223a0       ?_Linsert@?$_Tree@V?$_Tset_traits@V?$basic_string@DU?$char_traits@D@std@@V?$allocator@D@2@@std@@U?$less@V?$basic_string@DU?$char_traits@D@std@@V?$allocator@D@2@@std@@@2@V?$allocator@V?$basic_string@DU?$char_traits@D@std@@V?$allocator@D@2@@std@@@2@$0A@@std@@@std@@QAE?AU?$pair@V?$_Tree_const_iterator@V?$_Tree_val@V?$_Tset_traits@V?$basic_string@DU?$char_traits@D@std@@V?$allocator@D@2@@std@@U?$less@V?$basic_string@DU?$char_traits@D@std@@V?$allocator@D@2@@std@@@2@V?$allocator@V?$basic_string@DU?$char_traits@D@std@@V?$allocator@D@2@@std@@@2@$0A@@std@@@std@@@std@@_N@2@PAU_Node@?$_Tree_nod@V?$_Tset_traits@V?$basic_string@DU?$char_traits@D@std@@V?$allocator@D@2@@std@@U?$less@V?$basic_string@DU?$char_traits@D@std@@V?$allocator@D@2@@std@@@2@V?$allocator@V?$basic_string@DU?$char_traits@D@std@@V?$allocator@D@2@@std@@@2@$0A@@std@@@2@_N@Z 100923a0 f i ImfChannelList.obj
 0002:00022920       ?destroy@?$allocator@V?$basic_string@DU?$char_traits@D@std@@V?$allocator@D@2@@std@@@std@@QAEXPAV?$basic_string@DU?$char_traits@D@std@@V?$allocator@D@2@@2@@Z 10092920 f i ImfChannelList.obj
 0002:00022980       ??1?$pair@V?$_Tree_iterator@V?$_Tree_val@V?$_Tmap_traits@VName@Imf@@UChannel@2@U?$less@VName@Imf@@@std@@V?$allocator@U?$pair@$$CBVName@Imf@@UChannel@2@@std@@@5@$0A@@std@@@std@@@std@@_N@std@@QAE@XZ 10092980 f i ImfChannelList.obj
 0002:000229d0       ??1?$_Pair_base@V?$_Tree_iterator@V?$_Tree_val@V?$_Tmap_traits@VName@Imf@@UChannel@2@U?$less@VName@Imf@@@std@@V?$allocator@U?$pair@$$CBVName@Imf@@UChannel@2@@std@@@5@$0A@@std@@@std@@@std@@_N@std@@QAE@XZ 100929d0 f i ImfChannelList.obj
 0002:00022a20       ?size@?$_Tree@V?$_Tmap_traits@VName@Imf@@UChannel@2@U?$less@VName@Imf@@@std@@V?$allocator@U?$pair@$$CBVName@Imf@@UChannel@2@@std@@@5@$0A@@std@@@std@@QBEIXZ 10092a20 f i ImfChannelList.obj
 0002:00022a60       ?_Linsert@?$_Tree@V?$_Tmap_traits@VName@Imf@@UChannel@2@U?$less@VName@Imf@@@std@@V?$allocator@U?$pair@$$CBVName@Imf@@UChannel@2@@std@@@5@$0A@@std@@@std@@QAE?AU?$pair@V?$_Tree_iterator@V?$_Tree_val@V?$_Tmap_traits@VName@Imf@@UChannel@2@U?$less@VName@Imf@@@std@@V?$allocator@U?$pair@$$CBVName@Imf@@UChannel@2@@std@@@5@$0A@@std@@@std@@@std@@_N@2@PAU_Node@?$_Tree_nod@V?$_Tmap_traits@VName@Imf@@UChannel@2@U?$less@VName@Imf@@@std@@V?$allocator@U?$pair@$$CBVName@Imf@@UChannel@2@@std@@@5@$0A@@std@@@2@_N@Z 10092a60 f i ImfChannelList.obj
 0002:00022fe0       ?_Insert@?$_Tree@V?$_Tmap_traits@VName@Imf@@UChannel@2@U?$less@VName@Imf@@@std@@V?$allocator@U?$pair@$$CBVName@Imf@@UChannel@2@@std@@@5@$0A@@std@@@std@@IAE?AV?$_Tree_iterator@V?$_Tree_val@V?$_Tmap_traits@VName@Imf@@UChannel@2@U?$less@VName@Imf@@@std@@V?$allocator@U?$pair@$$CBVName@Imf@@UChannel@2@@std@@@5@$0A@@std@@@std@@@2@_NPAU_Node@?$_Tree_nod@V?$_Tmap_traits@VName@Imf@@UChannel@2@U?$less@VName@Imf@@@std@@V?$allocator@U?$pair@$$CBVName@Imf@@UChannel@2@@std@@@5@$0A@@std@@@2@1@Z 10092fe0 f i ImfChannelList.obj
 0002:00023580       ?_Rmost@?$_Tree@V?$_Tmap_traits@VName@Imf@@UChannel@2@U?$less@VName@Imf@@@std@@V?$allocator@U?$pair@$$CBVName@Imf@@UChannel@2@@std@@@5@$0A@@std@@@std@@IBEAAPAU_Node@?$_Tree_nod@V?$_Tmap_traits@VName@Imf@@UChannel@2@U?$less@VName@Imf@@@std@@V?$allocator@U?$pair@$$CBVName@Imf@@UChannel@2@@std@@@5@$0A@@std@@@2@XZ 10093580 f i ImfChannelList.obj
 0002:000235e0       ??F?$_Tree_const_iterator@V?$_Tree_val@V?$_Tmap_traits@VName@Imf@@UChannel@2@U?$less@VName@Imf@@@std@@V?$allocator@U?$pair@$$CBVName@Imf@@UChannel@2@@std@@@5@$0A@@std@@@std@@@std@@QAEAAV01@XZ 100935e0 f i ImfChannelList.obj
 0002:000237c0       ?begin@?$_Tree@V?$_Tset_traits@V?$basic_string@DU?$char_traits@D@std@@V?$allocator@D@2@@std@@U?$less@V?$basic_string@DU?$char_traits@D@std@@V?$allocator@D@2@@std@@@2@V?$allocator@V?$basic_string@DU?$char_traits@D@std@@V?$allocator@D@2@@std@@@2@$0A@@std@@@std@@QAE?AV?$_Tree_const_iterator@V?$_Tree_val@V?$_Tset_traits@V?$basic_string@DU?$char_traits@D@std@@V?$allocator@D@2@@std@@U?$less@V?$basic_string@DU?$char_traits@D@std@@V?$allocator@D@2@@std@@@2@V?$allocator@V?$basic_string@DU?$char_traits@D@std@@V?$allocator@D@2@@std@@@2@$0A@@std@@@std@@@2@XZ 100937c0 f i ImfChannelList.obj
 0002:00023850       ?_Insert@?$_Tree@V?$_Tset_traits@V?$basic_string@DU?$char_traits@D@std@@V?$allocator@D@2@@std@@U?$less@V?$basic_string@DU?$char_traits@D@std@@V?$allocator@D@2@@std@@@2@V?$allocator@V?$basic_string@DU?$char_traits@D@std@@V?$allocator@D@2@@std@@@2@$0A@@std@@@std@@IAE?AV?$_Tree_const_iterator@V?$_Tree_val@V?$_Tset_traits@V?$basic_string@DU?$char_traits@D@std@@V?$allocator@D@2@@std@@U?$less@V?$basic_string@DU?$char_traits@D@std@@V?$allocator@D@2@@std@@@2@V?$allocator@V?$basic_string@DU?$char_traits@D@std@@V?$allocator@D@2@@std@@@2@$0A@@std@@@std@@@2@_NPAU_Node@?$_Tree_nod@V?$_Tset_traits@V?$basic_string@DU?$char_traits@D@std@@V?$allocator@D@2@@std@@U?$less@V?$basic_string@DU?$char_traits@D@std@@V?$allocator@D@2@@std@@@2@V?$allocator@V?$basic_string@DU?$char_traits@D@std@@V?$allocator@D@2@@std@@@2@$0A@@std@@@2@1@Z 10093850 f i ImfChannelList.obj
 0002:00023df0       ?_Key@?$_Tree_val@V?$_Tset_traits@V?$basic_string@DU?$char_traits@D@std@@V?$allocator@D@2@@std@@U?$less@V?$basic_string@DU?$char_traits@D@std@@V?$allocator@D@2@@std@@@2@V?$allocator@V?$basic_string@DU?$char_traits@D@std@@V?$allocator@D@2@@std@@@2@$0A@@std@@@std@@SAAAV?$basic_string@DU?$char_traits@D@std@@V?$allocator@D@2@@2@PAU_Node@?$_Tree_nod@V?$_Tset_traits@V?$basic_string@DU?$char_traits@D@std@@V?$allocator@D@2@@std@@U?$less@V?$basic_string@DU?$char_traits@D@std@@V?$allocator@D@2@@std@@@2@V?$allocator@V?$basic_string@DU?$char_traits@D@std@@V?$allocator@D@2@@std@@@2@$0A@@std@@@2@@Z 10093df0 f i ImfChannelList.obj
 0002:00023e50       ?_Kfn@?$_Tset_traits@V?$basic_string@DU?$char_traits@D@std@@V?$allocator@D@2@@std@@U?$less@V?$basic_string@DU?$char_traits@D@std@@V?$allocator@D@2@@std@@@2@V?$allocator@V?$basic_string@DU?$char_traits@D@std@@V?$allocator@D@2@@std@@@2@$0A@@std@@SAABV?$basic_string@DU?$char_traits@D@std@@V?$allocator@D@2@@2@ABV32@@Z 10093e50 f i ImfChannelList.obj
 0002:00023e90       ??0?$pair@V?$_Tree_const_iterator@V?$_Tree_val@V?$_Tset_traits@V?$basic_string@DU?$char_traits@D@std@@V?$allocator@D@2@@std@@U?$less@V?$basic_string@DU?$char_traits@D@std@@V?$allocator@D@2@@std@@@2@V?$allocator@V?$basic_string@DU?$char_traits@D@std@@V?$allocator@D@2@@std@@@2@$0A@@std@@@std@@@std@@_N@std@@QAE@$$QAV?$_Tree_const_iterator@V?$_Tree_val@V?$_Tset_traits@V?$basic_string@DU?$char_traits@D@std@@V?$allocator@D@2@@std@@U?$less@V?$basic_string@DU?$char_traits@D@std@@V?$allocator@D@2@@std@@@2@V?$allocator@V?$basic_string@DU?$char_traits@D@std@@V?$allocator@D@2@@std@@@2@$0A@@std@@@std@@@1@$$QA_N@Z 10093e90 f i ImfChannelList.obj
 0002:00023f10       ??0?$_Tree_const_iterator@V?$_Tree_val@V?$_Tset_traits@V?$basic_string@DU?$char_traits@D@std@@V?$allocator@D@2@@std@@U?$less@V?$basic_string@DU?$char_traits@D@std@@V?$allocator@D@2@@std@@@2@V?$allocator@V?$basic_string@DU?$char_traits@D@std@@V?$allocator@D@2@@std@@@2@$0A@@std@@@std@@@std@@QAE@PAU_Node@?$_Tree_nod@V?$_Tset_traits@V?$basic_string@DU?$char_traits@D@std@@V?$allocator@D@2@@std@@U?$less@V?$basic_string@DU?$char_traits@D@std@@V?$allocator@D@2@@std@@@2@V?$allocator@V?$basic_string@DU?$char_traits@D@std@@V?$allocator@D@2@@std@@@2@$0A@@std@@@1@PBV?$_Tree_val@V?$_Tset_traits@V?$basic_string@DU?$char_traits@D@std@@V?$allocator@D@2@@std@@U?$less@V?$basic_string@DU?$char_traits@D@std@@V?$allocator@D@2@@std@@@2@V?$allocator@V?$basic_string@DU?$char_traits@D@std@@V?$allocator@D@2@@std@@@2@$0A@@std@@@1@@Z 10093f10 f i ImfChannelList.obj
 0002:00023f70       ??F?$_Tree_const_iterator@V?$_Tree_val@V?$_Tset_traits@V?$basic_string@DU?$char_traits@D@std@@V?$allocator@D@2@@std@@U?$less@V?$basic_string@DU?$char_traits@D@std@@V?$allocator@D@2@@std@@@2@V?$allocator@V?$basic_string@DU?$char_traits@D@std@@V?$allocator@D@2@@std@@@2@$0A@@std@@@std@@@std@@QAEAAV01@XZ 10093f70 f i ImfChannelList.obj
 0002:00024150       ??8?$_Tree_const_iterator@V?$_Tree_val@V?$_Tset_traits@V?$basic_string@DU?$char_traits@D@std@@V?$allocator@D@2@@std@@U?$less@V?$basic_string@DU?$char_traits@D@std@@V?$allocator@D@2@@std@@@2@V?$allocator@V?$basic_string@DU?$char_traits@D@std@@V?$allocator@D@2@@std@@@2@$0A@@std@@@std@@@std@@QBE_NABV01@@Z 10094150 f i ImfChannelList.obj
 0002:00024280       ?_Mynode@?$_Tree_unchecked_const_iterator@V?$_Tree_val@V?$_Tset_traits@V?$basic_string@DU?$char_traits@D@std@@V?$allocator@D@2@@std@@U?$less@V?$basic_string@DU?$char_traits@D@std@@V?$allocator@D@2@@std@@@2@V?$allocator@V?$basic_string@DU?$char_traits@D@std@@V?$allocator@D@2@@std@@@2@$0A@@std@@@std@@U_Iterator_base12@2@@std@@QBEPAU_Node@?$_Tree_nod@V?$_Tset_traits@V?$basic_string@DU?$char_traits@D@std@@V?$allocator@D@2@@std@@U?$less@V?$basic_string@DU?$char_traits@D@std@@V?$allocator@D@2@@std@@@2@V?$allocator@V?$basic_string@DU?$char_traits@D@std@@V?$allocator@D@2@@std@@@2@$0A@@std@@@2@XZ 10094280 f i ImfChannelList.obj
 0002:000242c0       ?max_size@?$_Tree@V?$_Tmap_traits@VName@Imf@@UChannel@2@U?$less@VName@Imf@@@std@@V?$allocator@U?$pair@$$CBVName@Imf@@UChannel@2@@std@@@5@$0A@@std@@@std@@QBEIXZ 100942c0 f i ImfChannelList.obj
 0002:00024320       ?_Lrotate@?$_Tree@V?$_Tmap_traits@VName@Imf@@UChannel@2@U?$less@VName@Imf@@@std@@V?$allocator@U?$pair@$$CBVName@Imf@@UChannel@2@@std@@@5@$0A@@std@@@std@@IAEXPAU_Node@?$_Tree_nod@V?$_Tmap_traits@VName@Imf@@UChannel@2@U?$less@VName@Imf@@@std@@V?$allocator@U?$pair@$$CBVName@Imf@@UChannel@2@@std@@@5@$0A@@std@@@2@@Z 10094320 f i ImfChannelList.obj
 0002:000244d0       ?_Rrotate@?$_Tree@V?$_Tmap_traits@VName@Imf@@UChannel@2@U?$less@VName@Imf@@@std@@V?$allocator@U?$pair@$$CBVName@Imf@@UChannel@2@@std@@@5@$0A@@std@@@std@@IAEXPAU_Node@?$_Tree_nod@V?$_Tmap_traits@VName@Imf@@UChannel@2@U?$less@VName@Imf@@@std@@V?$allocator@U?$pair@$$CBVName@Imf@@UChannel@2@@std@@@5@$0A@@std@@@2@@Z 100944d0 f i ImfChannelList.obj
 0002:00024680       ?_Color@?$_Tree_val@V?$_Tmap_traits@VName@Imf@@UChannel@2@U?$less@VName@Imf@@@std@@V?$allocator@U?$pair@$$CBVName@Imf@@UChannel@2@@std@@@5@$0A@@std@@@std@@SAAADPAU_Node@?$_Tree_nod@V?$_Tmap_traits@VName@Imf@@UChannel@2@U?$less@VName@Imf@@@std@@V?$allocator@U?$pair@$$CBVName@Imf@@UChannel@2@@std@@@5@$0A@@std@@@2@@Z 10094680 f i ImfChannelList.obj
 0002:000246c0       ?deallocate@?$allocator@U_Node@?$_Tree_nod@V?$_Tmap_traits@VName@Imf@@UChannel@2@U?$less@VName@Imf@@@std@@V?$allocator@U?$pair@$$CBVName@Imf@@UChannel@2@@std@@@5@$0A@@std@@@std@@@std@@QAEXPAU_Node@?$_Tree_nod@V?$_Tmap_traits@VName@Imf@@UChannel@2@U?$less@VName@Imf@@@std@@V?$allocator@U?$pair@$$CBVName@Imf@@UChannel@2@@std@@@5@$0A@@std@@@2@I@Z 100946c0 f i ImfChannelList.obj
 0002:00024720       ??F?$_Tree_iterator@V?$_Tree_val@V?$_Tmap_traits@VName@Imf@@UChannel@2@U?$less@VName@Imf@@@std@@V?$allocator@U?$pair@$$CBVName@Imf@@UChannel@2@@std@@@5@$0A@@std@@@std@@@std@@QAEAAV01@XZ 10094720 f i ImfChannelList.obj
 0002:00024780       ??F?$_Tree_unchecked_const_iterator@V?$_Tree_val@V?$_Tmap_traits@VName@Imf@@UChannel@2@U?$less@VName@Imf@@@std@@V?$allocator@U?$pair@$$CBVName@Imf@@UChannel@2@@std@@@5@$0A@@std@@@std@@U_Iterator_base12@2@@std@@QAEAAV01@XZ 10094780 f i ImfChannelList.obj
 0002:000248e0       ?max_size@?$_Tree@V?$_Tset_traits@V?$basic_string@DU?$char_traits@D@std@@V?$allocator@D@2@@std@@U?$less@V?$basic_string@DU?$char_traits@D@std@@V?$allocator@D@2@@std@@@2@V?$allocator@V?$basic_string@DU?$char_traits@D@std@@V?$allocator@D@2@@std@@@2@$0A@@std@@@std@@QBEIXZ 100948e0 f i ImfChannelList.obj
 0002:00024940       ?_Lrotate@?$_Tree@V?$_Tset_traits@V?$basic_string@DU?$char_traits@D@std@@V?$allocator@D@2@@std@@U?$less@V?$basic_string@DU?$char_traits@D@std@@V?$allocator@D@2@@std@@@2@V?$allocator@V?$basic_string@DU?$char_traits@D@std@@V?$allocator@D@2@@std@@@2@$0A@@std@@@std@@IAEXPAU_Node@?$_Tree_nod@V?$_Tset_traits@V?$basic_string@DU?$char_traits@D@std@@V?$allocator@D@2@@std@@U?$less@V?$basic_string@DU?$char_traits@D@std@@V?$allocator@D@2@@std@@@2@V?$allocator@V?$basic_string@DU?$char_traits@D@std@@V?$allocator@D@2@@std@@@2@$0A@@std@@@2@@Z 10094940 f i ImfChannelList.obj
 0002:00024af0       ?_Rrotate@?$_Tree@V?$_Tset_traits@V?$basic_string@DU?$char_traits@D@std@@V?$allocator@D@2@@std@@U?$less@V?$basic_string@DU?$char_traits@D@std@@V?$allocator@D@2@@std@@@2@V?$allocator@V?$basic_string@DU?$char_traits@D@std@@V?$allocator@D@2@@std@@@2@$0A@@std@@@std@@IAEXPAU_Node@?$_Tree_nod@V?$_Tset_traits@V?$basic_string@DU?$char_traits@D@std@@V?$allocator@D@2@@std@@U?$less@V?$basic_string@DU?$char_traits@D@std@@V?$allocator@D@2@@std@@@2@V?$allocator@V?$basic_string@DU?$char_traits@D@std@@V?$allocator@D@2@@std@@@2@$0A@@std@@@2@@Z 10094af0 f i ImfChannelList.obj
 0002:00024ca0       ?_Color@?$_Tree_val@V?$_Tset_traits@V?$basic_string@DU?$char_traits@D@std@@V?$allocator@D@2@@std@@U?$less@V?$basic_string@DU?$char_traits@D@std@@V?$allocator@D@2@@std@@@2@V?$allocator@V?$basic_string@DU?$char_traits@D@std@@V?$allocator@D@2@@std@@@2@$0A@@std@@@std@@SAAADPAU_Node@?$_Tree_nod@V?$_Tset_traits@V?$basic_string@DU?$char_traits@D@std@@V?$allocator@D@2@@std@@U?$less@V?$basic_string@DU?$char_traits@D@std@@V?$allocator@D@2@@std@@@2@V?$allocator@V?$basic_string@DU?$char_traits@D@std@@V?$allocator@D@2@@std@@@2@$0A@@std@@@2@@Z 10094ca0 f i ImfChannelList.obj
 0002:00024ce0       ??0?$_Pair_base@V?$_Tree_const_iterator@V?$_Tree_val@V?$_Tset_traits@V?$basic_string@DU?$char_traits@D@std@@V?$allocator@D@2@@std@@U?$less@V?$basic_string@DU?$char_traits@D@std@@V?$allocator@D@2@@std@@@2@V?$allocator@V?$basic_string@DU?$char_traits@D@std@@V?$allocator@D@2@@std@@@2@$0A@@std@@@std@@@std@@_N@std@@QAE@$$QAV?$_Tree_const_iterator@V?$_Tree_val@V?$_Tset_traits@V?$basic_string@DU?$char_traits@D@std@@V?$allocator@D@2@@std@@U?$less@V?$basic_string@DU?$char_traits@D@std@@V?$allocator@D@2@@std@@@2@V?$allocator@V?$basic_string@DU?$char_traits@D@std@@V?$allocator@D@2@@std@@@2@$0A@@std@@@std@@@1@$$QA_N@Z 10094ce0 f i ImfChannelList.obj
 0002:00024db0       ??0?$_Tree_unchecked_const_iterator@V?$_Tree_val@V?$_Tset_traits@V?$basic_string@DU?$char_traits@D@std@@V?$allocator@D@2@@std@@U?$less@V?$basic_string@DU?$char_traits@D@std@@V?$allocator@D@2@@std@@@2@V?$allocator@V?$basic_string@DU?$char_traits@D@std@@V?$allocator@D@2@@std@@@2@$0A@@std@@@std@@U_Iterator_base12@2@@std@@QAE@PAU_Node@?$_Tree_nod@V?$_Tset_traits@V?$basic_string@DU?$char_traits@D@std@@V?$allocator@D@2@@std@@U?$less@V?$basic_string@DU?$char_traits@D@std@@V?$allocator@D@2@@std@@@2@V?$allocator@V?$basic_string@DU?$char_traits@D@std@@V?$allocator@D@2@@std@@@2@$0A@@std@@@1@PBV?$_Tree_val@V?$_Tset_traits@V?$basic_string@DU?$char_traits@D@std@@V?$allocator@D@2@@std@@U?$less@V?$basic_string@DU?$char_traits@D@std@@V?$allocator@D@2@@std@@@2@V?$allocator@V?$basic_string@DU?$char_traits@D@std@@V?$allocator@D@2@@std@@@2@$0A@@std@@@1@@Z 10094db0 f i ImfChannelList.obj
 0002:00024e70       ??F?$_Tree_unchecked_const_iterator@V?$_Tree_val@V?$_Tset_traits@V?$basic_string@DU?$char_traits@D@std@@V?$allocator@D@2@@std@@U?$less@V?$basic_string@DU?$char_traits@D@std@@V?$allocator@D@2@@std@@@2@V?$allocator@V?$basic_string@DU?$char_traits@D@std@@V?$allocator@D@2@@std@@@2@$0A@@std@@@std@@U_Iterator_base12@2@@std@@QAEAAV01@XZ 10094e70 f i ImfChannelList.obj
 0002:00024fd0       ??0?$pair@V?$_Tree_iterator@V?$_Tree_val@V?$_Tmap_traits@VName@Imf@@UChannel@2@U?$less@VName@Imf@@@std@@V?$allocator@U?$pair@$$CBVName@Imf@@UChannel@2@@std@@@5@$0A@@std@@@std@@@std@@_N@std@@QAE@$$QAV?$_Tree_iterator@V?$_Tree_val@V?$_Tmap_traits@VName@Imf@@UChannel@2@U?$less@VName@Imf@@@std@@V?$allocator@U?$pair@$$CBVName@Imf@@UChannel@2@@std@@@5@$0A@@std@@@std@@@1@$$QA_N@Z 10094fd0 f i ImfChannelList.obj
 0002:00025050       ??0?$_Tree_const_iterator@V?$_Tree_val@V?$_Tset_traits@V?$basic_string@DU?$char_traits@D@std@@V?$allocator@D@2@@std@@U?$less@V?$basic_string@DU?$char_traits@D@std@@V?$allocator@D@2@@std@@@2@V?$allocator@V?$basic_string@DU?$char_traits@D@std@@V?$allocator@D@2@@std@@@2@$0A@@std@@@std@@@std@@QAE@ABV01@@Z 10095050 f i ImfChannelList.obj
 0002:000250b0       ??0?$_Iterator012@Ubidirectional_iterator_tag@std@@V?$basic_string@DU?$char_traits@D@std@@V?$allocator@D@2@@2@HPBV32@ABV32@U_Iterator_base12@2@@std@@QAE@XZ 100950b0 f i ImfChannelList.obj
 0002:00025110       ??0?$_Tree_unchecked_const_iterator@V?$_Tree_val@V?$_Tset_traits@V?$basic_string@DU?$char_traits@D@std@@V?$allocator@D@2@@std@@U?$less@V?$basic_string@DU?$char_traits@D@std@@V?$allocator@D@2@@std@@@2@V?$allocator@V?$basic_string@DU?$char_traits@D@std@@V?$allocator@D@2@@std@@@2@$0A@@std@@@std@@U_Iterator_base12@2@@std@@QAE@ABV01@@Z 10095110 f i ImfChannelList.obj
 0002:00025180       ??0?$_Iterator012@Ubidirectional_iterator_tag@std@@V?$basic_string@DU?$char_traits@D@std@@V?$allocator@D@2@@2@HPBV32@ABV32@U_Iterator_base12@2@@std@@QAE@ABU01@@Z 10095180 f i ImfChannelList.obj
 0002:000251e0       ?_Max@?$_Tree_val@V?$_Tmap_traits@VName@Imf@@UChannel@2@U?$less@VName@Imf@@@std@@V?$allocator@U?$pair@$$CBVName@Imf@@UChannel@2@@std@@@5@$0A@@std@@@std@@SAPAU_Node@?$_Tree_nod@V?$_Tmap_traits@VName@Imf@@UChannel@2@U?$less@VName@Imf@@@std@@V?$allocator@U?$pair@$$CBVName@Imf@@UChannel@2@@std@@@5@$0A@@std@@@2@PAU342@@Z 100951e0 f i ImfChannelList.obj
 0002:00025260       ?max_size@?$allocator@U?$pair@$$CBVName@Imf@@UChannel@2@@std@@@std@@QBEIXZ 10095260 f i ImfChannelList.obj
 0002:000252d0       ?_Max@?$_Tree_val@V?$_Tset_traits@V?$basic_string@DU?$char_traits@D@std@@V?$allocator@D@2@@std@@U?$less@V?$basic_string@DU?$char_traits@D@std@@V?$allocator@D@2@@std@@@2@V?$allocator@V?$basic_string@DU?$char_traits@D@std@@V?$allocator@D@2@@std@@@2@$0A@@std@@@std@@SAPAU_Node@?$_Tree_nod@V?$_Tset_traits@V?$basic_string@DU?$char_traits@D@std@@V?$allocator@D@2@@std@@U?$less@V?$basic_string@DU?$char_traits@D@std@@V?$allocator@D@2@@std@@@2@V?$allocator@V?$basic_string@DU?$char_traits@D@std@@V?$allocator@D@2@@std@@@2@$0A@@std@@@2@PAU342@@Z 100952d0 f i ImfChannelList.obj
 0002:00025350       ?max_size@?$allocator@V?$basic_string@DU?$char_traits@D@std@@V?$allocator@D@2@@std@@@std@@QBEIXZ 10095350 f i ImfChannelList.obj
 0002:000253c0       ??0?$_Pair_base@V?$_Tree_iterator@V?$_Tree_val@V?$_Tmap_traits@VName@Imf@@UChannel@2@U?$less@VName@Imf@@@std@@V?$allocator@U?$pair@$$CBVName@Imf@@UChannel@2@@std@@@5@$0A@@std@@@std@@@std@@_N@std@@QAE@$$QAV?$_Tree_iterator@V?$_Tree_val@V?$_Tmap_traits@VName@Imf@@UChannel@2@U?$less@VName@Imf@@@std@@V?$allocator@U?$pair@$$CBVName@Imf@@UChannel@2@@std@@@5@$0A@@std@@@std@@@1@$$QA_N@Z 100953c0 f i ImfChannelList.obj
 0002:00025490       ??$forward@AAV?$basic_string@DU?$char_traits@D@std@@V?$allocator@D@2@@std@@@std@@YAAAV?$basic_string@DU?$char_traits@D@std@@V?$allocator@D@2@@0@AAV10@@Z 10095490 f i ImfChannelList.obj
 0002:000254d0       ??$_Buynode@AAV?$basic_string@DU?$char_traits@D@std@@V?$allocator@D@2@@std@@@?$_Tree_val@V?$_Tset_traits@V?$basic_string@DU?$char_traits@D@std@@V?$allocator@D@2@@std@@U?$less@V?$basic_string@DU?$char_traits@D@std@@V?$allocator@D@2@@std@@@2@V?$allocator@V?$basic_string@DU?$char_traits@D@std@@V?$allocator@D@2@@std@@@2@$0A@@std@@@std@@QAEPAU_Node@?$_Tree_nod@V?$_Tset_traits@V?$basic_string@DU?$char_traits@D@std@@V?$allocator@D@2@@std@@U?$less@V?$basic_string@DU?$char_traits@D@std@@V?$allocator@D@2@@std@@@2@V?$allocator@V?$basic_string@DU?$char_traits@D@std@@V?$allocator@D@2@@std@@@2@$0A@@std@@@1@AAV?$basic_string@DU?$char_traits@D@std@@V?$allocator@D@2@@1@@Z 100954d0 f i ImfChannelList.obj
 0002:00025620       ??$forward@U?$pair@$$CBVName@Imf@@UChannel@2@@std@@@std@@YA$$QAU?$pair@$$CBVName@Imf@@UChannel@2@@0@AAU10@@Z 10095620 f i ImfChannelList.obj
 0002:00025660       ??$_Buynode@U?$pair@$$CBVName@Imf@@UChannel@2@@std@@@?$_Tree_val@V?$_Tmap_traits@VName@Imf@@UChannel@2@U?$less@VName@Imf@@@std@@V?$allocator@U?$pair@$$CBVName@Imf@@UChannel@2@@std@@@5@$0A@@std@@@std@@QAEPAU_Node@?$_Tree_nod@V?$_Tmap_traits@VName@Imf@@UChannel@2@U?$less@VName@Imf@@@std@@V?$allocator@U?$pair@$$CBVName@Imf@@UChannel@2@@std@@@5@$0A@@std@@@1@$$QAU?$pair@$$CBVName@Imf@@UChannel@2@@1@@Z 10095660 f i ImfChannelList.obj
 0002:000257b0       ??$?8DD@std@@YA_NABV?$allocator@D@0@0@Z 100957b0 f i ImfChannelList.obj
 0002:000257e0       ??$_Debug_lt_pred@U?$less@V?$basic_string@DU?$char_traits@D@std@@V?$allocator@D@2@@std@@@std@@V?$basic_string@DU?$char_traits@D@std@@V?$allocator@D@2@@2@V32@@std@@YA_NU?$less@V?$basic_string@DU?$char_traits@D@std@@V?$allocator@D@2@@std@@@0@AAV?$basic_string@DU?$char_traits@D@std@@V?$allocator@D@2@@0@ABV20@PB_WI@Z 100957e0 f i ImfChannelList.obj
 0002:00025890       ??$_Debug_lt_pred@U?$less@V?$basic_string@DU?$char_traits@D@std@@V?$allocator@D@2@@std@@@std@@V?$basic_string@DU?$char_traits@D@std@@V?$allocator@D@2@@2@V32@@std@@YA_NU?$less@V?$basic_string@DU?$char_traits@D@std@@V?$allocator@D@2@@std@@@0@ABV?$basic_string@DU?$char_traits@D@std@@V?$allocator@D@2@@0@AAV20@PB_WI@Z 10095890 f i ImfChannelList.obj
 0002:00025940       ??$?0AAV?$_Tree_const_iterator@V?$_Tree_val@V?$_Tset_traits@V?$basic_string@DU?$char_traits@D@std@@V?$allocator@D@2@@std@@U?$less@V?$basic_string@DU?$char_traits@D@std@@V?$allocator@D@2@@std@@@2@V?$allocator@V?$basic_string@DU?$char_traits@D@std@@V?$allocator@D@2@@std@@@2@$0A@@std@@@std@@@std@@_N@?$pair@V?$_Tree_const_iterator@V?$_Tree_val@V?$_Tset_traits@V?$basic_string@DU?$char_traits@D@std@@V?$allocator@D@2@@std@@U?$less@V?$basic_string@DU?$char_traits@D@std@@V?$allocator@D@2@@std@@@2@V?$allocator@V?$basic_string@DU?$char_traits@D@std@@V?$allocator@D@2@@std@@@2@$0A@@std@@@std@@@std@@_N@std@@QAE@AAV?$_Tree_const_iterator@V?$_Tree_val@V?$_Tset_traits@V?$basic_string@DU?$char_traits@D@std@@V?$allocator@D@2@@std@@U?$less@V?$basic_string@DU?$char_traits@D@std@@V?$allocator@D@2@@std@@@2@V?$allocator@V?$basic_string@DU?$char_traits@D@std@@V?$allocator@D@2@@std@@@2@$0A@@std@@@std@@@1@$$QA_N@Z 10095940 f i ImfChannelList.obj
 0002:000259c0       ??$_Destroy@V?$basic_string@DU?$char_traits@D@std@@V?$allocator@D@2@@std@@@std@@YAXPAV?$basic_string@DU?$char_traits@D@std@@V?$allocator@D@2@@0@@Z 100959c0 f i ImfChannelList.obj
 0002:00025a10       ??$addressof@U?$pair@$$CBVName@Imf@@UChannel@2@@std@@@std@@YAPAU?$pair@$$CBVName@Imf@@UChannel@2@@0@AAU10@@Z 10095a10 f i ImfChannelList.obj
 0002:00025a50       ??$_Dest_val@V?$allocator@U?$pair@$$CBVName@Imf@@UChannel@2@@std@@@std@@U?$pair@$$CBVName@Imf@@UChannel@2@@2@@std@@YAXAAV?$allocator@U?$pair@$$CBVName@Imf@@UChannel@2@@std@@@0@PAU?$pair@$$CBVName@Imf@@UChannel@2@@0@@Z 10095a50 f i ImfChannelList.obj
 0002:00025aa0       ??$?0AAV?$_Tree_iterator@V?$_Tree_val@V?$_Tmap_traits@VName@Imf@@UChannel@2@U?$less@VName@Imf@@@std@@V?$allocator@U?$pair@$$CBVName@Imf@@UChannel@2@@std@@@5@$0A@@std@@@std@@@std@@_N@?$pair@V?$_Tree_iterator@V?$_Tree_val@V?$_Tmap_traits@VName@Imf@@UChannel@2@U?$less@VName@Imf@@@std@@V?$allocator@U?$pair@$$CBVName@Imf@@UChannel@2@@std@@@5@$0A@@std@@@std@@@std@@_N@std@@QAE@AAV?$_Tree_iterator@V?$_Tree_val@V?$_Tmap_traits@VName@Imf@@UChannel@2@U?$less@VName@Imf@@@std@@V?$allocator@U?$pair@$$CBVName@Imf@@UChannel@2@@std@@@5@$0A@@std@@@std@@@1@$$QA_N@Z 10095aa0 f i ImfChannelList.obj
 0002:00025b20       ??$move@AAV?$_Tree_const_iterator@V?$_Tree_val@V?$_Tset_traits@V?$basic_string@DU?$char_traits@D@std@@V?$allocator@D@2@@std@@U?$less@V?$basic_string@DU?$char_traits@D@std@@V?$allocator@D@2@@std@@@2@V?$allocator@V?$basic_string@DU?$char_traits@D@std@@V?$allocator@D@2@@std@@@2@$0A@@std@@@std@@@std@@@std@@YA$$QAV?$_Tree_const_iterator@V?$_Tree_val@V?$_Tset_traits@V?$basic_string@DU?$char_traits@D@std@@V?$allocator@D@2@@std@@U?$less@V?$basic_string@DU?$char_traits@D@std@@V?$allocator@D@2@@std@@@2@V?$allocator@V?$basic_string@DU?$char_traits@D@std@@V?$allocator@D@2@@std@@@2@$0A@@std@@@std@@@0@AAV10@@Z 10095b20 f i ImfChannelList.obj
 0002:00025b60       ??$move@AAV?$_Tree_iterator@V?$_Tree_val@V?$_Tmap_traits@VName@Imf@@UChannel@2@U?$less@VName@Imf@@@std@@V?$allocator@U?$pair@$$CBVName@Imf@@UChannel@2@@std@@@5@$0A@@std@@@std@@@std@@@std@@YA$$QAV?$_Tree_iterator@V?$_Tree_val@V?$_Tmap_traits@VName@Imf@@UChannel@2@U?$less@VName@Imf@@@std@@V?$allocator@U?$pair@$$CBVName@Imf@@UChannel@2@@std@@@5@$0A@@std@@@std@@@0@AAV10@@Z 10095b60 f i ImfChannelList.obj
 0002:00025ba0       ??_G?$basic_string@DU?$char_traits@D@std@@V?$allocator@D@2@@std@@QAEPAXI@Z 10095ba0 f i ImfChannelList.obj
 0002:00025c10       ?_Buynode@?$_Tree_val@V?$_Tmap_traits@VName@Imf@@UChannel@2@U?$less@VName@Imf@@@std@@V?$allocator@U?$pair@$$CBVName@Imf@@UChannel@2@@std@@@5@$0A@@std@@@std@@QAEPAU_Node@?$_Tree_nod@V?$_Tmap_traits@VName@Imf@@UChannel@2@U?$less@VName@Imf@@@std@@V?$allocator@U?$pair@$$CBVName@Imf@@UChannel@2@@std@@@5@$0A@@std@@@2@XZ 10095c10 f i ImfChannelList.obj
 0002:00025ce0       ?destroy@?$allocator@U?$pair@$$CBVName@Imf@@UChannel@2@@std@@@std@@QAEXPAU?$pair@$$CBVName@Imf@@UChannel@2@@2@@Z 10095ce0 f i ImfChannelList.obj
 0002:00025d40       ?_Buynode@?$_Tree_val@V?$_Tset_traits@V?$basic_string@DU?$char_traits@D@std@@V?$allocator@D@2@@std@@U?$less@V?$basic_string@DU?$char_traits@D@std@@V?$allocator@D@2@@std@@@2@V?$allocator@V?$basic_string@DU?$char_traits@D@std@@V?$allocator@D@2@@std@@@2@$0A@@std@@@std@@QAEPAU_Node@?$_Tree_nod@V?$_Tset_traits@V?$basic_string@DU?$char_traits@D@std@@V?$allocator@D@2@@std@@U?$less@V?$basic_string@DU?$char_traits@D@std@@V?$allocator@D@2@@std@@@2@V?$allocator@V?$basic_string@DU?$char_traits@D@std@@V?$allocator@D@2@@std@@@2@$0A@@std@@@2@XZ 10095d40 f i ImfChannelList.obj
 0002:00025e10       ??R?$less@V?$basic_string@DU?$char_traits@D@std@@V?$allocator@D@2@@std@@@std@@QBE_NABV?$basic_string@DU?$char_traits@D@std@@V?$allocator@D@2@@1@0@Z 10095e10 f i ImfChannelList.obj
 0002:00025e70       ?allocate@?$allocator@U_Node@?$_Tree_nod@V?$_Tmap_traits@VName@Imf@@UChannel@2@U?$less@VName@Imf@@@std@@V?$allocator@U?$pair@$$CBVName@Imf@@UChannel@2@@std@@@5@$0A@@std@@@std@@@std@@QAEPAU_Node@?$_Tree_nod@V?$_Tmap_traits@VName@Imf@@UChannel@2@U?$less@VName@Imf@@@std@@V?$allocator@U?$pair@$$CBVName@Imf@@UChannel@2@@std@@@5@$0A@@std@@@2@I@Z 10095e70 f i ImfChannelList.obj
 0002:00025ed0       ?allocate@?$allocator@U_Node@?$_Tree_nod@V?$_Tset_traits@V?$basic_string@DU?$char_traits@D@std@@V?$allocator@D@2@@std@@U?$less@V?$basic_string@DU?$char_traits@D@std@@V?$allocator@D@2@@std@@@2@V?$allocator@V?$basic_string@DU?$char_traits@D@std@@V?$allocator@D@2@@std@@@2@$0A@@std@@@std@@@std@@QAEPAU_Node@?$_Tree_nod@V?$_Tset_traits@V?$basic_string@DU?$char_traits@D@std@@V?$allocator@D@2@@std@@U?$less@V?$basic_string@DU?$char_traits@D@std@@V?$allocator@D@2@@std@@@2@V?$allocator@V?$basic_string@DU?$char_traits@D@std@@V?$allocator@D@2@@std@@@2@$0A@@std@@@2@I@Z 10095ed0 f i ImfChannelList.obj
 0002:00025f30       ??$_Cons_val@V?$allocator@V?$basic_string@DU?$char_traits@D@std@@V?$allocator@D@2@@std@@@std@@V?$basic_string@DU?$char_traits@D@std@@V?$allocator@D@2@@2@AAV32@@std@@YAXAAV?$allocator@V?$basic_string@DU?$char_traits@D@std@@V?$allocator@D@2@@std@@@0@PAV?$basic_string@DU?$char_traits@D@std@@V?$allocator@D@2@@0@AAV20@@Z 10095f30 f i ImfChannelList.obj
 0002:00025f90       ??$_Cons_val@V?$allocator@U?$pair@$$CBVName@Imf@@UChannel@2@@std@@@std@@U?$pair@$$CBVName@Imf@@UChannel@2@@2@U32@@std@@YAXAAV?$allocator@U?$pair@$$CBVName@Imf@@UChannel@2@@std@@@0@PAU?$pair@$$CBVName@Imf@@UChannel@2@@0@$$QAU20@@Z 10095f90 f i ImfChannelList.obj
 0002:00025ff0       ??$forward@AAV?$_Tree_const_iterator@V?$_Tree_val@V?$_Tset_traits@V?$basic_string@DU?$char_traits@D@std@@V?$allocator@D@2@@std@@U?$less@V?$basic_string@DU?$char_traits@D@std@@V?$allocator@D@2@@std@@@2@V?$allocator@V?$basic_string@DU?$char_traits@D@std@@V?$allocator@D@2@@std@@@2@$0A@@std@@@std@@@std@@@std@@YAAAV?$_Tree_const_iterator@V?$_Tree_val@V?$_Tset_traits@V?$basic_string@DU?$char_traits@D@std@@V?$allocator@D@2@@std@@U?$less@V?$basic_string@DU?$char_traits@D@std@@V?$allocator@D@2@@std@@@2@V?$allocator@V?$basic_string@DU?$char_traits@D@std@@V?$allocator@D@2@@std@@@2@$0A@@std@@@std@@@0@AAV10@@Z 10095ff0 f i ImfChannelList.obj
 0002:00026030       ??$?0AAV?$_Tree_const_iterator@V?$_Tree_val@V?$_Tset_traits@V?$basic_string@DU?$char_traits@D@std@@V?$allocator@D@2@@std@@U?$less@V?$basic_string@DU?$char_traits@D@std@@V?$allocator@D@2@@std@@@2@V?$allocator@V?$basic_string@DU?$char_traits@D@std@@V?$allocator@D@2@@std@@@2@$0A@@std@@@std@@@std@@_N@?$_Pair_base@V?$_Tree_const_iterator@V?$_Tree_val@V?$_Tset_traits@V?$basic_string@DU?$char_traits@D@std@@V?$allocator@D@2@@std@@U?$less@V?$basic_string@DU?$char_traits@D@std@@V?$allocator@D@2@@std@@@2@V?$allocator@V?$basic_string@DU?$char_traits@D@std@@V?$allocator@D@2@@std@@@2@$0A@@std@@@std@@@std@@_N@std@@QAE@AAV?$_Tree_const_iterator@V?$_Tree_val@V?$_Tset_traits@V?$basic_string@DU?$char_traits@D@std@@V?$allocator@D@2@@std@@U?$less@V?$basic_string@DU?$char_traits@D@std@@V?$allocator@D@2@@std@@@2@V?$allocator@V?$basic_string@DU?$char_traits@D@std@@V?$allocator@D@2@@std@@@2@$0A@@std@@@std@@@1@$$QA_N@Z 10096030 f i ImfChannelList.obj
 0002:00026100       ??$forward@AAV?$_Tree_iterator@V?$_Tree_val@V?$_Tmap_traits@VName@Imf@@UChannel@2@U?$less@VName@Imf@@@std@@V?$allocator@U?$pair@$$CBVName@Imf@@UChannel@2@@std@@@5@$0A@@std@@@std@@@std@@@std@@YAAAV?$_Tree_iterator@V?$_Tree_val@V?$_Tmap_traits@VName@Imf@@UChannel@2@U?$less@VName@Imf@@@std@@V?$allocator@U?$pair@$$CBVName@Imf@@UChannel@2@@std@@@5@$0A@@std@@@std@@@0@AAV10@@Z 10096100 f i ImfChannelList.obj
 0002:00026140       ??$?0AAV?$_Tree_iterator@V?$_Tree_val@V?$_Tmap_traits@VName@Imf@@UChannel@2@U?$less@VName@Imf@@@std@@V?$allocator@U?$pair@$$CBVName@Imf@@UChannel@2@@std@@@5@$0A@@std@@@std@@@std@@_N@?$_Pair_base@V?$_Tree_iterator@V?$_Tree_val@V?$_Tmap_traits@VName@Imf@@UChannel@2@U?$less@VName@Imf@@@std@@V?$allocator@U?$pair@$$CBVName@Imf@@UChannel@2@@std@@@5@$0A@@std@@@std@@@std@@_N@std@@QAE@AAV?$_Tree_iterator@V?$_Tree_val@V?$_Tmap_traits@VName@Imf@@UChannel@2@U?$less@VName@Imf@@@std@@V?$allocator@U?$pair@$$CBVName@Imf@@UChannel@2@@std@@@5@$0A@@std@@@std@@@1@$$QA_N@Z 10096140 f i ImfChannelList.obj
 0002:00026210       ??$_Destroy@U?$pair@$$CBVName@Imf@@UChannel@2@@std@@@std@@YAXPAU?$pair@$$CBVName@Imf@@UChannel@2@@0@@Z 10096210 f i ImfChannelList.obj
 0002:00026240       ??$?MDU?$char_traits@D@std@@V?$allocator@D@1@@std@@YA_NABV?$basic_string@DU?$char_traits@D@std@@V?$allocator@D@2@@0@0@Z 10096240 f i ImfChannelList.obj
 0002:000262a0       ?compare@?$basic_string@DU?$char_traits@D@std@@V?$allocator@D@2@@std@@QBEHABV12@@Z 100962a0 f i ImfChannelList.obj
 0002:00026320       ?compare@?$basic_string@DU?$char_traits@D@std@@V?$allocator@D@2@@std@@QBEHIIPBDI@Z 10096320 f i ImfChannelList.obj
 0002:00026470       ??$_Allocate@U_Node@?$_Tree_nod@V?$_Tmap_traits@VName@Imf@@UChannel@2@U?$less@VName@Imf@@@std@@V?$allocator@U?$pair@$$CBVName@Imf@@UChannel@2@@std@@@5@$0A@@std@@@std@@@std@@YAPAU_Node@?$_Tree_nod@V?$_Tmap_traits@VName@Imf@@UChannel@2@U?$less@VName@Imf@@@std@@V?$allocator@U?$pair@$$CBVName@Imf@@UChannel@2@@std@@@5@$0A@@std@@@0@IPAU120@@Z 10096470 f i ImfChannelList.obj
 0002:00026520       ??$_Allocate@U_Node@?$_Tree_nod@V?$_Tset_traits@V?$basic_string@DU?$char_traits@D@std@@V?$allocator@D@2@@std@@U?$less@V?$basic_string@DU?$char_traits@D@std@@V?$allocator@D@2@@std@@@2@V?$allocator@V?$basic_string@DU?$char_traits@D@std@@V?$allocator@D@2@@std@@@2@$0A@@std@@@std@@@std@@YAPAU_Node@?$_Tree_nod@V?$_Tset_traits@V?$basic_string@DU?$char_traits@D@std@@V?$allocator@D@2@@std@@U?$less@V?$basic_string@DU?$char_traits@D@std@@V?$allocator@D@2@@std@@@2@V?$allocator@V?$basic_string@DU?$char_traits@D@std@@V?$allocator@D@2@@std@@@2@$0A@@std@@@0@IPAU120@@Z 10096520 f i ImfChannelList.obj
 0002:000265d0       ?construct@?$allocator@U?$pair@$$CBVName@Imf@@UChannel@2@@std@@@std@@QAEXPAU?$pair@$$CBVName@Imf@@UChannel@2@@2@$$QAU32@@Z 100965d0 f i ImfChannelList.obj
 0002:000266d0       ??$construct@AAV?$basic_string@DU?$char_traits@D@std@@V?$allocator@D@2@@std@@@?$allocator@V?$basic_string@DU?$char_traits@D@std@@V?$allocator@D@2@@std@@@std@@QAEXPAV?$basic_string@DU?$char_traits@D@std@@V?$allocator@D@2@@1@AAV21@@Z 100966d0 f i ImfChannelList.obj
 0002:000267d0       ??$?0$$CBVName@Imf@@UChannel@1@@?$pair@$$CBVName@Imf@@UChannel@2@@std@@QAE@$$QAU01@@Z 100967d0 f i ImfChannelList.obj
 0002:00026850       ??0?$_Pair_base@$$CBVName@Imf@@UChannel@2@@std@@QAE@$$QBVName@Imf@@$$QAUChannel@3@@Z 10096850 f i ImfChannelList.obj
 0002:000268f0       ??$forward@$$CBVName@Imf@@@std@@YA$$QBVName@Imf@@ABV12@@Z 100968f0 f i ImfChannelList.obj
 0002:00026930       ??$forward@UChannel@Imf@@@std@@YA$$QAUChannel@Imf@@AAU12@@Z 10096930 f i ImfChannelList.obj
 0002:00026970       ??$move@ABVName@Imf@@@std@@YA$$QBVName@Imf@@ABV12@@Z 10096970 f i ImfChannelList.obj
 0002:000269b0       ?staticTypeName@?$TypedAttribute@VChannelList@Imf@@@Imf@@SAPBDXZ 100969b0 f   ImfChannelListAttribute.obj
 0002:000269f0       ?writeValueTo@?$TypedAttribute@VChannelList@Imf@@@Imf@@UBEXAAVOStream@2@H@Z 100969f0 f   ImfChannelListAttribute.obj
 0002:00026c10       ?readValueFrom@?$TypedAttribute@VChannelList@Imf@@@Imf@@UAEXAAVIStream@2@HH@Z 10096c10 f   ImfChannelListAttribute.obj
 0002:00026e30       ??$write@UStreamIO@Imf@@VOStream@2@@Xdr@Imf@@YAXAAVOStream@1@QBD@Z 10096e30 f i ImfChannelListAttribute.obj
 0002:00026ec0       ??$write@UStreamIO@Imf@@VOStream@2@@Xdr@Imf@@YAXAAVOStream@1@_N@Z 10096ec0 f i ImfChannelListAttribute.obj
 0002:00026f60       ??$pad@UStreamIO@Imf@@VOStream@2@@Xdr@Imf@@YAXAAVOStream@1@H@Z 10096f60 f i ImfChannelListAttribute.obj
 0002:00027020       ??$read@UStreamIO@Imf@@VIStream@2@@Xdr@Imf@@YAXAAVIStream@1@HQAD@Z 10097020 f i ImfChannelListAttribute.obj
 0002:000270b0       ??$checkIsNullTerminated@$0BAA@@?A0xac196fcb@Imf@@YAXAAY0BAA@$$CBDPBD@Z 100970b0 f i ImfChannelListAttribute.obj
 0002:000272a0       ??0InputExc@Iex@@QAE@AAV?$basic_stringstream@DU?$char_traits@D@std@@V?$allocator@D@2@@std@@@Z 100972a0 f i ImfChannelListAttribute.obj
 0002:00027310       ??$read@UStreamIO@Imf@@VIStream@2@@Xdr@Imf@@YAXAAVIStream@1@AA_N@Z 10097310 f i ImfChannelListAttribute.obj
 0002:000273b0       ??$skip@UStreamIO@Imf@@VIStream@2@@Xdr@Imf@@YAXAAVIStream@1@H@Z 100973b0 f i ImfChannelListAttribute.obj
 0002:000274b0       ??0Chromaticities@Imf@@QAE@ABV?$Vec2@M@Imath@@000@Z 100974b0 f   ImfChromaticities.obj
 0002:00027550       ?RGBtoXYZ@Imf@@YA?AV?$Matrix44@M@Imath@@UChromaticities@1@M@Z 10097550 f   ImfChromaticities.obj
 0002:00027d30       ?XYZtoRGB@Imf@@YA?AV?$Matrix44@M@Imath@@UChromaticities@1@M@Z 10097d30 f   ImfChromaticities.obj
 0002:00027dd0       ??0Chromaticities@Imf@@QAE@ABU01@@Z 10097dd0 f i ImfChromaticities.obj
 0002:00027e70       ??0?$Vec2@M@Imath@@QAE@ABV01@@Z 10097e70 f i ImfChromaticities.obj
 0002:00027ed0       ??A?$Matrix44@M@Imath@@QAEPAMH@Z 10097ed0 f i ImfChromaticities.obj
 0002:00027f20       ??0?$Matrix44@M@Imath@@QAE@ABV01@@Z 10097f20 f i ImfChromaticities.obj
 0002:00028050       ??0?$Matrix44@M@Imath@@QAE@XZ 10098050 f i ImfChromaticities.obj
 0002:00028100       ?inverse@?$Matrix44@M@Imath@@QBE?AV12@_N@Z 10098100 f i ImfChromaticities.obj
 0002:00028b90       ??0SingMatrixExc@Imath@@QAE@PBD@Z 10098b90 f i ImfChromaticities.obj
 0002:00028c00       ??_GSingMatrixExc@Imath@@UAEPAXI@Z 10098c00 f i ImfChromaticities.obj
 0002:00028c00       ??_ESingMatrixExc@Imath@@UAEPAXI@Z 10098c00 f i ImfChromaticities.obj
 0002:00028c70       ??1SingMatrixExc@Imath@@UAE@XZ 10098c70 f i ImfChromaticities.obj
 0002:00028cc0       ?smallest@?$limits@M@Imath@@SAMXZ 10098cc0 f i ImfChromaticities.obj
 0002:00028d00       ??0SingMatrixExc@Imath@@QAE@ABV01@@Z 10098d00 f i ImfChromaticities.obj
 0002:00028d70       ??0?$Matrix44@M@Imath@@QAE@MMMMMMMMMMMMMMMM@Z 10098d70 f i ImfChromaticities.obj
 0002:00028eb0       ?gjInverse@?$Matrix44@M@Imath@@QBE?AV12@_N@Z 10098eb0 f i ImfChromaticities.obj
 0002:00029740       ??$abs@M@Imath@@YAMM@Z     10099740 f i ImfChromaticities.obj
 0002:000297c0       ?staticTypeName@?$TypedAttribute@UChromaticities@Imf@@@Imf@@SAPBDXZ 100997c0 f   ImfChromaticitiesAttribute.obj
 0002:00029800       ?writeValueTo@?$TypedAttribute@UChromaticities@Imf@@@Imf@@UBEXAAVOStream@2@H@Z 10099800 f   ImfChromaticitiesAttribute.obj
 0002:00029950       ?readValueFrom@?$TypedAttribute@UChromaticities@Imf@@@Imf@@UAEXAAVIStream@2@HH@Z 10099950 f   ImfChromaticitiesAttribute.obj
 0002:00029a60       ?staticTypeName@?$TypedAttribute@W4Compression@Imf@@@Imf@@SAPBDXZ 10099a60 f   ImfCompressionAttribute.obj
 0002:00029aa0       ?writeValueTo@?$TypedAttribute@W4Compression@Imf@@@Imf@@UBEXAAVOStream@2@H@Z 10099aa0 f   ImfCompressionAttribute.obj
 0002:00029b10       ?readValueFrom@?$TypedAttribute@W4Compression@Imf@@@Imf@@UAEXAAVIStream@2@HH@Z 10099b10 f   ImfCompressionAttribute.obj
 0002:00029bb0       ??$write@UStreamIO@Imf@@VOStream@2@@Xdr@Imf@@YAXAAVOStream@1@E@Z 10099bb0 f i ImfCompressionAttribute.obj
 0002:00029c10       ??$read@UStreamIO@Imf@@VIStream@2@@Xdr@Imf@@YAXAAVIStream@1@AAE@Z 10099c10 f i ImfCompressionAttribute.obj
 0002:00029c70       ??0Compressor@Imf@@QAE@ABVHeader@1@@Z 10099c70 f   ImfCompressor.obj
 0002:00029cd0       ??_GCompressor@Imf@@UAEPAXI@Z 10099cd0 f i ImfCompressor.obj
 0002:00029cd0       ??_ECompressor@Imf@@UAEPAXI@Z 10099cd0 f i ImfCompressor.obj
 0002:00029d40       ??1Compressor@Imf@@UAE@XZ  10099d40 f   ImfCompressor.obj
 0002:00029d80       ?format@Compressor@Imf@@UBE?AW4Format@12@XZ 10099d80 f   ImfCompressor.obj
 0002:00029dc0       ?compressTile@Compressor@Imf@@UAEHPBDHV?$Box@V?$Vec2@H@Imath@@@Imath@@AAPBD@Z 10099dc0 f   ImfCompressor.obj
 0002:00029e40       ?uncompressTile@Compressor@Imf@@UAEHPBDHV?$Box@V?$Vec2@H@Imath@@@Imath@@AAPBD@Z 10099e40 f   ImfCompressor.obj
 0002:00029ec0       ?isValidCompression@Imf@@YA_NW4Compression@1@@Z 10099ec0 f   ImfCompressor.obj
 0002:00029f20       ?newCompressor@Imf@@YAPAVCompressor@1@W4Compression@1@IABVHeader@1@@Z 10099f20 f   ImfCompressor.obj
 0002:0002a370       ?newTileCompressor@Imf@@YAPAVCompressor@1@W4Compression@1@IIABVHeader@1@@Z 1009a370 f   ImfCompressor.obj
 0002:0002a760       ?halfToUint@Imf@@YAIVhalf@@@Z 1009a760 f   ImfConvert.obj
 0002:0002a860       ?floatToUint@Imf@@YAIM@Z   1009a860 f   ImfConvert.obj
 0002:0002a970       ?isNegative@?A0xd34937d7@Imf@@YA_NM@Z 1009a970 f i ImfConvert.obj
 0002:0002a9f0       ?isNan@?A0xd34937d7@Imf@@YA_NM@Z 1009a9f0 f i ImfConvert.obj
 0002:0002aa80       ?isInfinity@?A0xd34937d7@Imf@@YA_NM@Z 1009aa80 f i ImfConvert.obj
 0002:0002ab10       ?uintToHalf@Imf@@YA?AVhalf@@I@Z 1009ab10 f   ImfConvert.obj
 0002:0002abe0       ?floatToHalf@Imf@@YA?AVhalf@@M@Z 1009abe0 f   ImfConvert.obj
 0002:0002ace0       ?isFinite@?A0xd34937d7@Imf@@YA_NM@Z 1009ace0 f i ImfConvert.obj
 0002:0002ad70       ?setErrorMessage@?A0xa29ce62f@@YAXABVexception@std@@@Z 1009ad70 f   ImfCRgbaFile.obj
 0002:0002ae00       _ImfFloatToHalf            1009ae00 f   ImfCRgbaFile.obj
 0002:0002ae90       _ImfFloatToHalfArray       1009ae90 f   ImfCRgbaFile.obj
 0002:0002af50       _ImfHalfToFloat            1009af50 f   ImfCRgbaFile.obj
 0002:0002afb0       _ImfHalfToFloatArray       1009afb0 f   ImfCRgbaFile.obj
 0002:0002b040       _ImfNewHeader              1009b040 f   ImfCRgbaFile.obj
 0002:0002b230       _ImfDeleteHeader           1009b230 f   ImfCRgbaFile.obj
 0002:0002b2d0       ?header@?A0xa29ce62f@@YAPAVHeader@Imf@@PAUImfHeader@@@Z 1009b2d0 f i ImfCRgbaFile.obj
 0002:0002b310       ??_GHeader@Imf@@QAEPAXI@Z  1009b310 f i ImfCRgbaFile.obj
 0002:0002b380       _ImfCopyHeader             1009b380 f   ImfCRgbaFile.obj
 0002:0002b520       ?header@?A0xa29ce62f@@YAPBVHeader@Imf@@PBUImfHeader@@@Z 1009b520 f i ImfCRgbaFile.obj
 0002:0002b560       _ImfHeaderSetDisplayWindow 1009b560 f   ImfCRgbaFile.obj
 0002:0002b600       ??4?$Box@V?$Vec2@H@Imath@@@Imath@@QAEAAV01@ABV01@@Z 1009b600 f i ImfCRgbaFile.obj
 0002:0002b670       _ImfHeaderDisplayWindow    1009b670 f   ImfCRgbaFile.obj
 0002:0002b730       _ImfHeaderSetDataWindow    1009b730 f   ImfCRgbaFile.obj
 0002:0002b7d0       _ImfHeaderDataWindow       1009b7d0 f   ImfCRgbaFile.obj
 0002:0002b890       _ImfHeaderSetPixelAspectRatio 1009b890 f   ImfCRgbaFile.obj
 0002:0002b900       _ImfHeaderPixelAspectRatio 1009b900 f   ImfCRgbaFile.obj
 0002:0002b960       _ImfHeaderSetScreenWindowCenter 1009b960 f   ImfCRgbaFile.obj
 0002:0002b9f0       _ImfHeaderScreenWindowCenter 1009b9f0 f   ImfCRgbaFile.obj
 0002:0002bac0       _ImfHeaderSetScreenWindowWidth 1009bac0 f   ImfCRgbaFile.obj
 0002:0002bb30       _ImfHeaderScreenWindowWidth 1009bb30 f   ImfCRgbaFile.obj
 0002:0002bb90       _ImfHeaderSetLineOrder     1009bb90 f   ImfCRgbaFile.obj
 0002:0002bbf0       _ImfHeaderLineOrder        1009bbf0 f   ImfCRgbaFile.obj
 0002:0002bc50       _ImfHeaderSetCompression   1009bc50 f   ImfCRgbaFile.obj
 0002:0002bcb0       _ImfHeaderCompression      1009bcb0 f   ImfCRgbaFile.obj
 0002:0002bd10       _ImfHeaderSetIntAttribute  1009bd10 f   ImfCRgbaFile.obj
 0002:0002c050       ??1Iterator@Header@Imf@@QAE@XZ 1009c050 f i ImfCRgbaFile.obj
 0002:0002c0a0       ??1?$_Tree_iterator@V?$_Tree_val@V?$_Tmap_traits@VName@Imf@@PAVAttribute@2@U?$less@VName@Imf@@@std@@V?$allocator@U?$pair@$$CBVName@Imf@@PAVAttribute@2@@std@@@5@$0A@@std@@@std@@@std@@QAE@XZ 1009c0a0 f i ImfCRgbaFile.obj
 0002:0002c0f0       ??1?$_Tree_const_iterator@V?$_Tree_val@V?$_Tmap_traits@VName@Imf@@PAVAttribute@2@U?$less@VName@Imf@@@std@@V?$allocator@U?$pair@$$CBVName@Imf@@PAVAttribute@2@@std@@@5@$0A@@std@@@std@@@std@@QAE@XZ 1009c0f0 f i ImfCRgbaFile.obj
 0002:0002c140       ??1?$_Tree_unchecked_const_iterator@V?$_Tree_val@V?$_Tmap_traits@VName@Imf@@PAVAttribute@2@U?$less@VName@Imf@@@std@@V?$allocator@U?$pair@$$CBVName@Imf@@PAVAttribute@2@@std@@@5@$0A@@std@@@std@@U_Iterator_base12@2@@std@@QAE@XZ 1009c140 f i ImfCRgbaFile.obj
 0002:0002c190       ??1?$_Iterator012@Ubidirectional_iterator_tag@std@@U?$pair@$$CBVName@Imf@@PAVAttribute@2@@2@HPBU32@ABU32@U_Iterator_base12@2@@std@@QAE@XZ 1009c190 f i ImfCRgbaFile.obj
 0002:0002c1e0       ??0ConstIterator@Header@Imf@@QAE@ABVIterator@12@@Z 1009c1e0 f i ImfCRgbaFile.obj
 0002:0002c240       ??0?$_Tree_const_iterator@V?$_Tree_val@V?$_Tmap_traits@VName@Imf@@PAVAttribute@2@U?$less@VName@Imf@@@std@@V?$allocator@U?$pair@$$CBVName@Imf@@PAVAttribute@2@@std@@@5@$0A@@std@@@std@@@std@@QAE@ABV01@@Z 1009c240 f i ImfCRgbaFile.obj
 0002:0002c2a0       ??0?$_Tree_unchecked_const_iterator@V?$_Tree_val@V?$_Tmap_traits@VName@Imf@@PAVAttribute@2@U?$less@VName@Imf@@@std@@V?$allocator@U?$pair@$$CBVName@Imf@@PAVAttribute@2@@std@@@5@$0A@@std@@@std@@U_Iterator_base12@2@@std@@QAE@ABV01@@Z 1009c2a0 f i ImfCRgbaFile.obj
 0002:0002c310       ??0?$_Iterator012@Ubidirectional_iterator_tag@std@@U?$pair@$$CBVName@Imf@@PAVAttribute@2@@2@HPBU32@ABU32@U_Iterator_base12@2@@std@@QAE@ABU01@@Z 1009c310 f i ImfCRgbaFile.obj
 0002:0002c370       ??1ConstIterator@Header@Imf@@QAE@XZ 1009c370 f i ImfCRgbaFile.obj
 0002:0002c3c0       ??8Imf@@YA_NABVConstIterator@Header@0@0@Z 1009c3c0 f i ImfCRgbaFile.obj
 0002:0002c410       _ImfHeaderIntAttribute     1009c410 f   ImfCRgbaFile.obj
 0002:0002c570       _ImfHeaderSetFloatAttribute 1009c570 f   ImfCRgbaFile.obj
 0002:0002c8b0       _ImfHeaderSetDoubleAttribute 1009c8b0 f   ImfCRgbaFile.obj
 0002:0002cbf0       _ImfHeaderFloatAttribute   1009cbf0 f   ImfCRgbaFile.obj
 0002:0002cd50       _ImfHeaderDoubleAttribute  1009cd50 f   ImfCRgbaFile.obj
 0002:0002ceb0       _ImfHeaderSetStringAttribute 1009ceb0 f   ImfCRgbaFile.obj
 0002:0002d240       _ImfHeaderStringAttribute  1009d240 f   ImfCRgbaFile.obj
 0002:0002d3b0       _ImfHeaderSetBox2iAttribute 1009d3b0 f   ImfCRgbaFile.obj
 0002:0002d760       _ImfHeaderBox2iAttribute   1009d760 f   ImfCRgbaFile.obj
 0002:0002d8f0       _ImfHeaderSetBox2fAttribute 1009d8f0 f   ImfCRgbaFile.obj
 0002:0002dcc0       ??4?$Box@V?$Vec2@M@Imath@@@Imath@@QAEAAV01@ABV01@@Z 1009dcc0 f i ImfCRgbaFile.obj
 0002:0002dd30       _ImfHeaderBox2fAttribute   1009dd30 f   ImfCRgbaFile.obj
 0002:0002dec0       _ImfHeaderSetV2iAttribute  1009dec0 f   ImfCRgbaFile.obj
 0002:0002e220       _ImfHeaderV2iAttribute     1009e220 f   ImfCRgbaFile.obj
 0002:0002e390       _ImfHeaderSetV2fAttribute  1009e390 f   ImfCRgbaFile.obj
 0002:0002e700       _ImfHeaderV2fAttribute     1009e700 f   ImfCRgbaFile.obj
 0002:0002e870       _ImfHeaderSetV3iAttribute  1009e870 f   ImfCRgbaFile.obj
 0002:0002ebe0       _ImfHeaderV3iAttribute     1009ebe0 f   ImfCRgbaFile.obj
 0002:0002ed60       _ImfHeaderSetV3fAttribute  1009ed60 f   ImfCRgbaFile.obj
 0002:0002f0e0       _ImfHeaderV3fAttribute     1009f0e0 f   ImfCRgbaFile.obj
 0002:0002f260       _ImfHeaderSetM33fAttribute 1009f260 f   ImfCRgbaFile.obj
 0002:0002f5d0       _ImfHeaderM33fAttribute    1009f5d0 f   ImfCRgbaFile.obj
 0002:0002f880       _ImfHeaderSetM44fAttribute 1009f880 f   ImfCRgbaFile.obj
 0002:0002fbf0       _ImfHeaderM44fAttribute    1009fbf0 f   ImfCRgbaFile.obj
 0002:0002ffb0       _ImfOpenOutputFile         1009ffb0 f   ImfCRgbaFile.obj
 0002:00030170       _ImfCloseOutputFile        100a0170 f   ImfCRgbaFile.obj
 0002:00030300       ?outfile@?A0xa29ce62f@@YAPAVRgbaOutputFile@Imf@@PAUImfOutputFile@@@Z 100a0300 f i ImfCRgbaFile.obj
 0002:00030340       _ImfOutputSetFrameBuffer   100a0340 f   ImfCRgbaFile.obj
 0002:00030480       _ImfOutputWritePixels      100a0480 f   ImfCRgbaFile.obj
 0002:000305b0       _ImfOutputCurrentScanLine  100a05b0 f   ImfCRgbaFile.obj
 0002:00030610       ?outfile@?A0xa29ce62f@@YAPBVRgbaOutputFile@Imf@@PBUImfOutputFile@@@Z 100a0610 f i ImfCRgbaFile.obj
 0002:00030650       _ImfOutputHeader           100a0650 f   ImfCRgbaFile.obj
 0002:000306b0       _ImfOutputChannels         100a06b0 f   ImfCRgbaFile.obj
 0002:00030710       _ImfOpenTiledOutputFile    100a0710 f   ImfCRgbaFile.obj
 0002:000308f0       _ImfCloseTiledOutputFile   100a08f0 f   ImfCRgbaFile.obj
 0002:00030a80       ?outfile@?A0xa29ce62f@@YAPAVTiledRgbaOutputFile@Imf@@PAUImfTiledOutputFile@@@Z 100a0a80 f i ImfCRgbaFile.obj
 0002:00030ac0       _ImfTiledOutputSetFrameBuffer 100a0ac0 f   ImfCRgbaFile.obj
 0002:00030c00       _ImfTiledOutputWriteTile   100a0c00 f   ImfCRgbaFile.obj
 0002:00030d40       _ImfTiledOutputWriteTiles  100a0d40 f   ImfCRgbaFile.obj
 0002:00030e90       _ImfTiledOutputHeader      100a0e90 f   ImfCRgbaFile.obj
 0002:00030ef0       ?outfile@?A0xa29ce62f@@YAPBVTiledRgbaOutputFile@Imf@@PBUImfTiledOutputFile@@@Z 100a0ef0 f i ImfCRgbaFile.obj
 0002:00030f30       _ImfTiledOutputChannels    100a0f30 f   ImfCRgbaFile.obj
 0002:00030f90       _ImfTiledOutputTileXSize   100a0f90 f   ImfCRgbaFile.obj
 0002:00030ff0       _ImfTiledOutputTileYSize   100a0ff0 f   ImfCRgbaFile.obj
 0002:00031050       _ImfTiledOutputLevelMode   100a1050 f   ImfCRgbaFile.obj
 0002:000310b0       _ImfTiledOutputLevelRoundingMode 100a10b0 f   ImfCRgbaFile.obj
 0002:00031110       _ImfOpenInputFile          100a1110 f   ImfCRgbaFile.obj
 0002:000312b0       _ImfCloseInputFile         100a12b0 f   ImfCRgbaFile.obj
 0002:00031440       ?infile@?A0xa29ce62f@@YAPAVRgbaInputFile@Imf@@PAUImfInputFile@@@Z 100a1440 f i ImfCRgbaFile.obj
 0002:00031480       _ImfInputSetFrameBuffer    100a1480 f   ImfCRgbaFile.obj
 0002:000315c0       _ImfInputReadPixels        100a15c0 f   ImfCRgbaFile.obj
 0002:000316f0       _ImfInputHeader            100a16f0 f   ImfCRgbaFile.obj
 0002:00031750       ?infile@?A0xa29ce62f@@YAPBVRgbaInputFile@Imf@@PBUImfInputFile@@@Z 100a1750 f i ImfCRgbaFile.obj
 0002:00031790       _ImfInputChannels          100a1790 f   ImfCRgbaFile.obj
 0002:000317f0       _ImfInputFileName          100a17f0 f   ImfCRgbaFile.obj
 0002:00031850       _ImfOpenTiledInputFile     100a1850 f   ImfCRgbaFile.obj
 0002:000319f0       _ImfCloseTiledInputFile    100a19f0 f   ImfCRgbaFile.obj
 0002:00031b80       ?infile@?A0xa29ce62f@@YAPAVTiledRgbaInputFile@Imf@@PAUImfTiledInputFile@@@Z 100a1b80 f i ImfCRgbaFile.obj
 0002:00031bc0       _ImfTiledInputSetFrameBuffer 100a1bc0 f   ImfCRgbaFile.obj
 0002:00031d00       _ImfTiledInputReadTile     100a1d00 f   ImfCRgbaFile.obj
 0002:00031e40       _ImfTiledInputReadTiles    100a1e40 f   ImfCRgbaFile.obj
 0002:00031f90       _ImfTiledInputHeader       100a1f90 f   ImfCRgbaFile.obj
 0002:00031ff0       ?infile@?A0xa29ce62f@@YAPBVTiledRgbaInputFile@Imf@@PBUImfTiledInputFile@@@Z 100a1ff0 f i ImfCRgbaFile.obj
 0002:00032030       _ImfTiledInputChannels     100a2030 f   ImfCRgbaFile.obj
 0002:00032090       _ImfTiledInputFileName     100a2090 f   ImfCRgbaFile.obj
 0002:000320f0       _ImfTiledInputTileXSize    100a20f0 f   ImfCRgbaFile.obj
 0002:00032150       _ImfTiledInputTileYSize    100a2150 f   ImfCRgbaFile.obj
 0002:000321b0       _ImfTiledInputLevelMode    100a21b0 f   ImfCRgbaFile.obj
 0002:00032210       _ImfTiledInputLevelRoundingMode 100a2210 f   ImfCRgbaFile.obj
 0002:00032270       _ImfNewRound12logLut       100a2270 f   ImfCRgbaFile.obj
 0002:00032400       _ImfNewRoundNBitLut        100a2400 f   ImfCRgbaFile.obj
 0002:000325b0       ??0roundNBit@Imf@@QAE@H@Z  100a25b0 f i ImfCRgbaFile.obj
 0002:00032600       _ImfDeleteLut              100a2600 f   ImfCRgbaFile.obj
 0002:00032690       ??_GRgbaLut@Imf@@QAEPAXI@Z 100a2690 f i ImfCRgbaFile.obj
 0002:00032700       ??1RgbaLut@Imf@@QAE@XZ     100a2700 f i ImfCRgbaFile.obj
 0002:00032750       _ImfApplyLut               100a2750 f   ImfCRgbaFile.obj
 0002:000327b0       _ImfErrorMessage           100a27b0 f   ImfCRgbaFile.obj
 0002:000327f0       ??4?$basic_string@DU?$char_traits@D@std@@V?$allocator@D@2@@std@@QAEAAV01@PBD@Z 100a27f0 f i ImfCRgbaFile.obj
 0002:00032850       ??8?$_Tree_const_iterator@V?$_Tree_val@V?$_Tmap_traits@VName@Imf@@PAVAttribute@2@U?$less@VName@Imf@@@std@@V?$allocator@U?$pair@$$CBVName@Imf@@PAVAttribute@2@@std@@@5@$0A@@std@@@std@@@std@@QBE_NABV01@@Z 100a2850 f i ImfCRgbaFile.obj
 0002:00032980       ??1?$halfFunction@Vhalf@@@@QAE@XZ 100a2980 f i ImfCRgbaFile.obj
 0002:000329f0       ??0?$Vec3@H@Imath@@QAE@HHH@Z 100a29f0 f i ImfCRgbaFile.obj
 0002:00032a50       ??4?$Vec3@H@Imath@@QAEABV01@ABV01@@Z 100a2a50 f i ImfCRgbaFile.obj
 0002:00032ac0       ??0?$Vec2@M@Imath@@QAE@MM@Z 100a2ac0 f i ImfCRgbaFile.obj
 0002:00032b20       ??4?$Vec2@M@Imath@@QAEABV01@ABV01@@Z 100a2b20 f i ImfCRgbaFile.obj
 0002:00032b80       ??0?$TypedAttribute@H@Imf@@QAE@ABH@Z 100a2b80 f i ImfCRgbaFile.obj
 0002:00032bf0       ??1?$TypedAttribute@H@Imf@@UAE@XZ 100a2bf0 f i ImfCRgbaFile.obj
 0002:00032c50       ?value@?$TypedAttribute@H@Imf@@QBEABHXZ 100a2c50 f i ImfCRgbaFile.obj
 0002:00032c90       ?value@?$TypedAttribute@H@Imf@@QAEAAHXZ 100a2c90 f i ImfCRgbaFile.obj
 0002:00032cd0       ?typeName@?$TypedAttribute@H@Imf@@UBEPBDXZ 100a2cd0 f i ImfCRgbaFile.obj
 0002:00032d20       ?copy@?$TypedAttribute@H@Imf@@UBEPAVAttribute@2@XZ 100a2d20 f i ImfCRgbaFile.obj
 0002:00032e30       ?writeValueTo@?$TypedAttribute@H@Imf@@UBEXAAVOStream@2@H@Z 100a2e30 f i ImfCRgbaFile.obj
 0002:00032e90       ?readValueFrom@?$TypedAttribute@H@Imf@@UAEXAAVIStream@2@HH@Z 100a2e90 f i ImfCRgbaFile.obj
 0002:00032ef0       ?copyValueFrom@?$TypedAttribute@H@Imf@@UAEXABVAttribute@2@@Z 100a2ef0 f i ImfCRgbaFile.obj
 0002:00032f60       ??0?$TypedAttribute@V?$basic_string@DU?$char_traits@D@std@@V?$allocator@D@2@@std@@@Imf@@QAE@ABV?$basic_string@DU?$char_traits@D@std@@V?$allocator@D@2@@std@@@Z 100a2f60 f i ImfCRgbaFile.obj
 0002:00033020       ??1?$TypedAttribute@V?$basic_string@DU?$char_traits@D@std@@V?$allocator@D@2@@std@@@Imf@@UAE@XZ 100a3020 f i ImfCRgbaFile.obj
 0002:000330d0       ?value@?$TypedAttribute@V?$basic_string@DU?$char_traits@D@std@@V?$allocator@D@2@@std@@@Imf@@QBEABV?$basic_string@DU?$char_traits@D@std@@V?$allocator@D@2@@std@@XZ 100a30d0 f i ImfCRgbaFile.obj
 0002:00033110       ?value@?$TypedAttribute@V?$basic_string@DU?$char_traits@D@std@@V?$allocator@D@2@@std@@@Imf@@QAEAAV?$basic_string@DU?$char_traits@D@std@@V?$allocator@D@2@@std@@XZ 100a3110 f i ImfCRgbaFile.obj
 0002:00033150       ?typeName@?$TypedAttribute@V?$basic_string@DU?$char_traits@D@std@@V?$allocator@D@2@@std@@@Imf@@UBEPBDXZ 100a3150 f i ImfCRgbaFile.obj
 0002:000331a0       ?copy@?$TypedAttribute@V?$basic_string@DU?$char_traits@D@std@@V?$allocator@D@2@@std@@@Imf@@UBEPAVAttribute@2@XZ 100a31a0 f i ImfCRgbaFile.obj
 0002:000332b0       ?copyValueFrom@?$TypedAttribute@V?$basic_string@DU?$char_traits@D@std@@V?$allocator@D@2@@std@@@Imf@@UAEXABVAttribute@2@@Z 100a32b0 f i ImfCRgbaFile.obj
 0002:00033320       ??0?$TypedAttribute@V?$Box@V?$Vec2@H@Imath@@@Imath@@@Imf@@QAE@ABV?$Box@V?$Vec2@H@Imath@@@Imath@@@Z 100a3320 f i ImfCRgbaFile.obj
 0002:000333e0       ??1?$TypedAttribute@V?$Box@V?$Vec2@H@Imath@@@Imath@@@Imf@@UAE@XZ 100a33e0 f i ImfCRgbaFile.obj
 0002:00033440       ?value@?$TypedAttribute@V?$Box@V?$Vec2@H@Imath@@@Imath@@@Imf@@QBEABV?$Box@V?$Vec2@H@Imath@@@Imath@@XZ 100a3440 f i ImfCRgbaFile.obj
 0002:00033480       ?value@?$TypedAttribute@V?$Box@V?$Vec2@H@Imath@@@Imath@@@Imf@@QAEAAV?$Box@V?$Vec2@H@Imath@@@Imath@@XZ 100a3480 f i ImfCRgbaFile.obj
 0002:000334c0       ?typeName@?$TypedAttribute@V?$Box@V?$Vec2@H@Imath@@@Imath@@@Imf@@UBEPBDXZ 100a34c0 f i ImfCRgbaFile.obj
 0002:00033510       ?copy@?$TypedAttribute@V?$Box@V?$Vec2@H@Imath@@@Imath@@@Imf@@UBEPAVAttribute@2@XZ 100a3510 f i ImfCRgbaFile.obj
 0002:00033620       ?copyValueFrom@?$TypedAttribute@V?$Box@V?$Vec2@H@Imath@@@Imath@@@Imf@@UAEXABVAttribute@2@@Z 100a3620 f i ImfCRgbaFile.obj
 0002:00033690       ??0?$Box@V?$Vec2@M@Imath@@@Imath@@QAE@ABV?$Vec2@M@1@0@Z 100a3690 f i ImfCRgbaFile.obj
 0002:00033720       ??0?$TypedAttribute@V?$Box@V?$Vec2@M@Imath@@@Imath@@@Imf@@QAE@ABV?$Box@V?$Vec2@M@Imath@@@Imath@@@Z 100a3720 f i ImfCRgbaFile.obj
 0002:000337e0       ??1?$TypedAttribute@V?$Box@V?$Vec2@M@Imath@@@Imath@@@Imf@@UAE@XZ 100a37e0 f i ImfCRgbaFile.obj
 0002:00033840       ?value@?$TypedAttribute@V?$Box@V?$Vec2@M@Imath@@@Imath@@@Imf@@QBEABV?$Box@V?$Vec2@M@Imath@@@Imath@@XZ 100a3840 f i ImfCRgbaFile.obj
 0002:00033880       ?value@?$TypedAttribute@V?$Box@V?$Vec2@M@Imath@@@Imath@@@Imf@@QAEAAV?$Box@V?$Vec2@M@Imath@@@Imath@@XZ 100a3880 f i ImfCRgbaFile.obj
 0002:000338c0       ?typeName@?$TypedAttribute@V?$Box@V?$Vec2@M@Imath@@@Imath@@@Imf@@UBEPBDXZ 100a38c0 f i ImfCRgbaFile.obj
 0002:00033910       ?copy@?$TypedAttribute@V?$Box@V?$Vec2@M@Imath@@@Imath@@@Imf@@UBEPAVAttribute@2@XZ 100a3910 f i ImfCRgbaFile.obj
 0002:00033a20       ?copyValueFrom@?$TypedAttribute@V?$Box@V?$Vec2@M@Imath@@@Imath@@@Imf@@UAEXABVAttribute@2@@Z 100a3a20 f i ImfCRgbaFile.obj
 0002:00033a90       ??0?$TypedAttribute@V?$Vec2@H@Imath@@@Imf@@QAE@ABV?$Vec2@H@Imath@@@Z 100a3a90 f i ImfCRgbaFile.obj
 0002:00033b50       ??1?$TypedAttribute@V?$Vec2@H@Imath@@@Imf@@UAE@XZ 100a3b50 f i ImfCRgbaFile.obj
 0002:00033bb0       ?value@?$TypedAttribute@V?$Vec2@H@Imath@@@Imf@@QBEABV?$Vec2@H@Imath@@XZ 100a3bb0 f i ImfCRgbaFile.obj
 0002:00033bf0       ?value@?$TypedAttribute@V?$Vec2@H@Imath@@@Imf@@QAEAAV?$Vec2@H@Imath@@XZ 100a3bf0 f i ImfCRgbaFile.obj
 0002:00033c30       ?typeName@?$TypedAttribute@V?$Vec2@H@Imath@@@Imf@@UBEPBDXZ 100a3c30 f i ImfCRgbaFile.obj
 0002:00033c80       ?copy@?$TypedAttribute@V?$Vec2@H@Imath@@@Imf@@UBEPAVAttribute@2@XZ 100a3c80 f i ImfCRgbaFile.obj
 0002:00033d90       ?copyValueFrom@?$TypedAttribute@V?$Vec2@H@Imath@@@Imf@@UAEXABVAttribute@2@@Z 100a3d90 f i ImfCRgbaFile.obj
 0002:00033e00       ??0?$TypedAttribute@V?$Vec2@M@Imath@@@Imf@@QAE@ABV?$Vec2@M@Imath@@@Z 100a3e00 f i ImfCRgbaFile.obj
 0002:00033ec0       ??1?$TypedAttribute@V?$Vec2@M@Imath@@@Imf@@UAE@XZ 100a3ec0 f i ImfCRgbaFile.obj
 0002:00033f20       ?value@?$TypedAttribute@V?$Vec2@M@Imath@@@Imf@@QBEABV?$Vec2@M@Imath@@XZ 100a3f20 f i ImfCRgbaFile.obj
 0002:00033f60       ?value@?$TypedAttribute@V?$Vec2@M@Imath@@@Imf@@QAEAAV?$Vec2@M@Imath@@XZ 100a3f60 f i ImfCRgbaFile.obj
 0002:00033fa0       ?typeName@?$TypedAttribute@V?$Vec2@M@Imath@@@Imf@@UBEPBDXZ 100a3fa0 f i ImfCRgbaFile.obj
 0002:00033ff0       ?copy@?$TypedAttribute@V?$Vec2@M@Imath@@@Imf@@UBEPAVAttribute@2@XZ 100a3ff0 f i ImfCRgbaFile.obj
 0002:00034100       ?copyValueFrom@?$TypedAttribute@V?$Vec2@M@Imath@@@Imf@@UAEXABVAttribute@2@@Z 100a4100 f i ImfCRgbaFile.obj
 0002:00034170       ??0?$TypedAttribute@V?$Vec3@H@Imath@@@Imf@@QAE@ABV?$Vec3@H@Imath@@@Z 100a4170 f i ImfCRgbaFile.obj
 0002:00034230       ??1?$TypedAttribute@V?$Vec3@H@Imath@@@Imf@@UAE@XZ 100a4230 f i ImfCRgbaFile.obj
 0002:00034290       ?value@?$TypedAttribute@V?$Vec3@H@Imath@@@Imf@@QBEABV?$Vec3@H@Imath@@XZ 100a4290 f i ImfCRgbaFile.obj
 0002:000342d0       ?value@?$TypedAttribute@V?$Vec3@H@Imath@@@Imf@@QAEAAV?$Vec3@H@Imath@@XZ 100a42d0 f i ImfCRgbaFile.obj
 0002:00034310       ?typeName@?$TypedAttribute@V?$Vec3@H@Imath@@@Imf@@UBEPBDXZ 100a4310 f i ImfCRgbaFile.obj
 0002:00034360       ?copy@?$TypedAttribute@V?$Vec3@H@Imath@@@Imf@@UBEPAVAttribute@2@XZ 100a4360 f i ImfCRgbaFile.obj
 0002:00034470       ?copyValueFrom@?$TypedAttribute@V?$Vec3@H@Imath@@@Imf@@UAEXABVAttribute@2@@Z 100a4470 f i ImfCRgbaFile.obj
 0002:000344e0       ??0?$Vec3@M@Imath@@QAE@MMM@Z 100a44e0 f i ImfCRgbaFile.obj
 0002:00034550       ??4?$Vec3@M@Imath@@QAEABV01@ABV01@@Z 100a4550 f i ImfCRgbaFile.obj
 0002:000345c0       ??0?$TypedAttribute@V?$Vec3@M@Imath@@@Imf@@QAE@ABV?$Vec3@M@Imath@@@Z 100a45c0 f i ImfCRgbaFile.obj
 0002:00034680       ??1?$TypedAttribute@V?$Vec3@M@Imath@@@Imf@@UAE@XZ 100a4680 f i ImfCRgbaFile.obj
 0002:000346e0       ?value@?$TypedAttribute@V?$Vec3@M@Imath@@@Imf@@QBEABV?$Vec3@M@Imath@@XZ 100a46e0 f i ImfCRgbaFile.obj
 0002:00034720       ?value@?$TypedAttribute@V?$Vec3@M@Imath@@@Imf@@QAEAAV?$Vec3@M@Imath@@XZ 100a4720 f i ImfCRgbaFile.obj
 0002:00034760       ?typeName@?$TypedAttribute@V?$Vec3@M@Imath@@@Imf@@UBEPBDXZ 100a4760 f i ImfCRgbaFile.obj
 0002:000347b0       ?copy@?$TypedAttribute@V?$Vec3@M@Imath@@@Imf@@UBEPAVAttribute@2@XZ 100a47b0 f i ImfCRgbaFile.obj
 0002:000348c0       ?copyValueFrom@?$TypedAttribute@V?$Vec3@M@Imath@@@Imf@@UAEXABVAttribute@2@@Z 100a48c0 f i ImfCRgbaFile.obj
 0002:00034930       ??A?$Matrix33@M@Imath@@QBEPBMH@Z 100a4930 f i ImfCRgbaFile.obj
 0002:00034980       ??0?$Matrix33@M@Imath@@QAE@QAY02$$CBM@Z 100a4980 f i ImfCRgbaFile.obj
 0002:000349f0       ??4?$Matrix33@M@Imath@@QAEABV01@ABV01@@Z 100a49f0 f i ImfCRgbaFile.obj
 0002:00034a60       ??0?$TypedAttribute@V?$Matrix33@M@Imath@@@Imf@@QAE@ABV?$Matrix33@M@Imath@@@Z 100a4a60 f i ImfCRgbaFile.obj
 0002:00034b20       ??1?$TypedAttribute@V?$Matrix33@M@Imath@@@Imf@@UAE@XZ 100a4b20 f i ImfCRgbaFile.obj
 0002:00034b80       ?value@?$TypedAttribute@V?$Matrix33@M@Imath@@@Imf@@QBEABV?$Matrix33@M@Imath@@XZ 100a4b80 f i ImfCRgbaFile.obj
 0002:00034bc0       ?value@?$TypedAttribute@V?$Matrix33@M@Imath@@@Imf@@QAEAAV?$Matrix33@M@Imath@@XZ 100a4bc0 f i ImfCRgbaFile.obj
 0002:00034c00       ?typeName@?$TypedAttribute@V?$Matrix33@M@Imath@@@Imf@@UBEPBDXZ 100a4c00 f i ImfCRgbaFile.obj
 0002:00034c50       ?copy@?$TypedAttribute@V?$Matrix33@M@Imath@@@Imf@@UBEPAVAttribute@2@XZ 100a4c50 f i ImfCRgbaFile.obj
 0002:00034d60       ?copyValueFrom@?$TypedAttribute@V?$Matrix33@M@Imath@@@Imf@@UAEXABVAttribute@2@@Z 100a4d60 f i ImfCRgbaFile.obj
 0002:00034dd0       ??A?$Matrix44@M@Imath@@QBEPBMH@Z 100a4dd0 f i ImfCRgbaFile.obj
 0002:00034e20       ??0?$Matrix44@M@Imath@@QAE@QAY03$$CBM@Z 100a4e20 f i ImfCRgbaFile.obj
 0002:00034e90       ??4?$Matrix44@M@Imath@@QAEABV01@ABV01@@Z 100a4e90 f i ImfCRgbaFile.obj
 0002:00034fc0       ??0?$TypedAttribute@V?$Matrix44@M@Imath@@@Imf@@QAE@ABV?$Matrix44@M@Imath@@@Z 100a4fc0 f i ImfCRgbaFile.obj
 0002:00035080       ??1?$TypedAttribute@V?$Matrix44@M@Imath@@@Imf@@UAE@XZ 100a5080 f i ImfCRgbaFile.obj
 0002:000350e0       ?value@?$TypedAttribute@V?$Matrix44@M@Imath@@@Imf@@QBEABV?$Matrix44@M@Imath@@XZ 100a50e0 f i ImfCRgbaFile.obj
 0002:00035120       ?value@?$TypedAttribute@V?$Matrix44@M@Imath@@@Imf@@QAEAAV?$Matrix44@M@Imath@@XZ 100a5120 f i ImfCRgbaFile.obj
 0002:00035160       ?typeName@?$TypedAttribute@V?$Matrix44@M@Imath@@@Imf@@UBEPBDXZ 100a5160 f i ImfCRgbaFile.obj
 0002:000351b0       ?copy@?$TypedAttribute@V?$Matrix44@M@Imath@@@Imf@@UBEPAVAttribute@2@XZ 100a51b0 f i ImfCRgbaFile.obj
 0002:000352c0       ?copyValueFrom@?$TypedAttribute@V?$Matrix44@M@Imath@@@Imf@@UAEXABVAttribute@2@@Z 100a52c0 f i ImfCRgbaFile.obj
 0002:00035330       ??$?0M@?$Vec2@H@Imath@@QAE@ABV?$Vec2@M@1@@Z 100a5330 f i ImfCRgbaFile.obj
 0002:00035390       ??$typedAttribute@V?$TypedAttribute@H@Imf@@@Header@Imf@@QAEAAV?$TypedAttribute@H@1@QBD@Z 100a5390 f i ImfCRgbaFile.obj
 0002:00035460       ??$typedAttribute@V?$TypedAttribute@H@Imf@@@Header@Imf@@QBEABV?$TypedAttribute@H@1@QBD@Z 100a5460 f i ImfCRgbaFile.obj
 0002:00035530       ??$typedAttribute@V?$TypedAttribute@M@Imf@@@Header@Imf@@QAEAAV?$TypedAttribute@M@1@QBD@Z 100a5530 f i ImfCRgbaFile.obj
 0002:00035600       ??$typedAttribute@V?$TypedAttribute@N@Imf@@@Header@Imf@@QAEAAV?$TypedAttribute@N@1@QBD@Z 100a5600 f i ImfCRgbaFile.obj
 0002:000356d0       ??$typedAttribute@V?$TypedAttribute@M@Imf@@@Header@Imf@@QBEABV?$TypedAttribute@M@1@QBD@Z 100a56d0 f i ImfCRgbaFile.obj
 0002:000357a0       ??$typedAttribute@V?$TypedAttribute@N@Imf@@@Header@Imf@@QBEABV?$TypedAttribute@N@1@QBD@Z 100a57a0 f i ImfCRgbaFile.obj
 0002:00035870       ??$typedAttribute@V?$TypedAttribute@V?$basic_string@DU?$char_traits@D@std@@V?$allocator@D@2@@std@@@Imf@@@Header@Imf@@QAEAAV?$TypedAttribute@V?$basic_string@DU?$char_traits@D@std@@V?$allocator@D@2@@std@@@1@QBD@Z 100a5870 f i ImfCRgbaFile.obj
 0002:00035940       ??$typedAttribute@V?$TypedAttribute@V?$basic_string@DU?$char_traits@D@std@@V?$allocator@D@2@@std@@@Imf@@@Header@Imf@@QBEABV?$TypedAttribute@V?$basic_string@DU?$char_traits@D@std@@V?$allocator@D@2@@std@@@1@QBD@Z 100a5940 f i ImfCRgbaFile.obj
 0002:00035a10       ??$typedAttribute@V?$TypedAttribute@V?$Box@V?$Vec2@H@Imath@@@Imath@@@Imf@@@Header@Imf@@QAEAAV?$TypedAttribute@V?$Box@V?$Vec2@H@Imath@@@Imath@@@1@QBD@Z 100a5a10 f i ImfCRgbaFile.obj
 0002:00035ae0       ??$typedAttribute@V?$TypedAttribute@V?$Box@V?$Vec2@H@Imath@@@Imath@@@Imf@@@Header@Imf@@QBEABV?$TypedAttribute@V?$Box@V?$Vec2@H@Imath@@@Imath@@@1@QBD@Z 100a5ae0 f i ImfCRgbaFile.obj
 0002:00035bb0       ??$typedAttribute@V?$TypedAttribute@V?$Box@V?$Vec2@M@Imath@@@Imath@@@Imf@@@Header@Imf@@QAEAAV?$TypedAttribute@V?$Box@V?$Vec2@M@Imath@@@Imath@@@1@QBD@Z 100a5bb0 f i ImfCRgbaFile.obj
 0002:00035c80       ??$typedAttribute@V?$TypedAttribute@V?$Box@V?$Vec2@M@Imath@@@Imath@@@Imf@@@Header@Imf@@QBEABV?$TypedAttribute@V?$Box@V?$Vec2@M@Imath@@@Imath@@@1@QBD@Z 100a5c80 f i ImfCRgbaFile.obj
 0002:00035d50       ??$typedAttribute@V?$TypedAttribute@V?$Vec2@H@Imath@@@Imf@@@Header@Imf@@QAEAAV?$TypedAttribute@V?$Vec2@H@Imath@@@1@QBD@Z 100a5d50 f i ImfCRgbaFile.obj
 0002:00035e20       ??$typedAttribute@V?$TypedAttribute@V?$Vec2@H@Imath@@@Imf@@@Header@Imf@@QBEABV?$TypedAttribute@V?$Vec2@H@Imath@@@1@QBD@Z 100a5e20 f i ImfCRgbaFile.obj
 0002:00035ef0       ??$typedAttribute@V?$TypedAttribute@V?$Vec2@M@Imath@@@Imf@@@Header@Imf@@QAEAAV?$TypedAttribute@V?$Vec2@M@Imath@@@1@QBD@Z 100a5ef0 f i ImfCRgbaFile.obj
 0002:00035fc0       ??$typedAttribute@V?$TypedAttribute@V?$Vec2@M@Imath@@@Imf@@@Header@Imf@@QBEABV?$TypedAttribute@V?$Vec2@M@Imath@@@1@QBD@Z 100a5fc0 f i ImfCRgbaFile.obj
 0002:00036090       ??$typedAttribute@V?$TypedAttribute@V?$Vec3@H@Imath@@@Imf@@@Header@Imf@@QAEAAV?$TypedAttribute@V?$Vec3@H@Imath@@@1@QBD@Z 100a6090 f i ImfCRgbaFile.obj
 0002:00036160       ??$typedAttribute@V?$TypedAttribute@V?$Vec3@H@Imath@@@Imf@@@Header@Imf@@QBEABV?$TypedAttribute@V?$Vec3@H@Imath@@@1@QBD@Z 100a6160 f i ImfCRgbaFile.obj
 0002:00036230       ??$typedAttribute@V?$TypedAttribute@V?$Vec3@M@Imath@@@Imf@@@Header@Imf@@QAEAAV?$TypedAttribute@V?$Vec3@M@Imath@@@1@QBD@Z 100a6230 f i ImfCRgbaFile.obj
 0002:00036300       ??$typedAttribute@V?$TypedAttribute@V?$Vec3@M@Imath@@@Imf@@@Header@Imf@@QBEABV?$TypedAttribute@V?$Vec3@M@Imath@@@1@QBD@Z 100a6300 f i ImfCRgbaFile.obj
 0002:000363d0       ??$typedAttribute@V?$TypedAttribute@V?$Matrix33@M@Imath@@@Imf@@@Header@Imf@@QAEAAV?$TypedAttribute@V?$Matrix33@M@Imath@@@1@QBD@Z 100a63d0 f i ImfCRgbaFile.obj
 0002:000364a0       ??$typedAttribute@V?$TypedAttribute@V?$Matrix33@M@Imath@@@Imf@@@Header@Imf@@QBEABV?$TypedAttribute@V?$Matrix33@M@Imath@@@1@QBD@Z 100a64a0 f i ImfCRgbaFile.obj
 0002:00036570       ??$typedAttribute@V?$TypedAttribute@V?$Matrix44@M@Imath@@@Imf@@@Header@Imf@@QAEAAV?$TypedAttribute@V?$Matrix44@M@Imath@@@1@QBD@Z 100a6570 f i ImfCRgbaFile.obj
 0002:00036640       ??$typedAttribute@V?$TypedAttribute@V?$Matrix44@M@Imath@@@Imf@@@Header@Imf@@QBEABV?$TypedAttribute@V?$Matrix44@M@Imath@@@1@QBD@Z 100a6640 f i ImfCRgbaFile.obj
 0002:00036710       ??$?0P6A?AVhalf@@V0@@Z@RgbaLut@Imf@@QAE@P6A?AVhalf@@V2@@ZW4RgbaChannels@1@@Z 100a6710 f i ImfCRgbaFile.obj
 0002:00036880       ??$?0UroundNBit@Imf@@@RgbaLut@Imf@@QAE@UroundNBit@1@W4RgbaChannels@1@@Z 100a6880 f i ImfCRgbaFile.obj
 0002:000369f0       ??_G?$TypedAttribute@H@Imf@@UAEPAXI@Z 100a69f0 f i ImfCRgbaFile.obj
 0002:000369f0       ??_E?$TypedAttribute@H@Imf@@UAEPAXI@Z 100a69f0 f i ImfCRgbaFile.obj
 0002:00036a60       ??_G?$TypedAttribute@V?$basic_string@DU?$char_traits@D@std@@V?$allocator@D@2@@std@@@Imf@@UAEPAXI@Z 100a6a60 f i ImfCRgbaFile.obj
 0002:00036a60       ??_E?$TypedAttribute@V?$basic_string@DU?$char_traits@D@std@@V?$allocator@D@2@@std@@@Imf@@UAEPAXI@Z 100a6a60 f i ImfCRgbaFile.obj
 0002:00036ad0       ??_E?$TypedAttribute@V?$Box@V?$Vec2@H@Imath@@@Imath@@@Imf@@UAEPAXI@Z 100a6ad0 f i ImfCRgbaFile.obj
 0002:00036ad0       ??_G?$TypedAttribute@V?$Box@V?$Vec2@H@Imath@@@Imath@@@Imf@@UAEPAXI@Z 100a6ad0 f i ImfCRgbaFile.obj
 0002:00036b40       ??_G?$TypedAttribute@V?$Box@V?$Vec2@M@Imath@@@Imath@@@Imf@@UAEPAXI@Z 100a6b40 f i ImfCRgbaFile.obj
 0002:00036b40       ??_E?$TypedAttribute@V?$Box@V?$Vec2@M@Imath@@@Imath@@@Imf@@UAEPAXI@Z 100a6b40 f i ImfCRgbaFile.obj
 0002:00036bb0       ??0?$Box@V?$Vec2@M@Imath@@@Imath@@QAE@ABV01@@Z 100a6bb0 f i ImfCRgbaFile.obj
 0002:00036c20       ??_G?$TypedAttribute@V?$Vec2@H@Imath@@@Imf@@UAEPAXI@Z 100a6c20 f i ImfCRgbaFile.obj
 0002:00036c20       ??_E?$TypedAttribute@V?$Vec2@H@Imath@@@Imf@@UAEPAXI@Z 100a6c20 f i ImfCRgbaFile.obj
 0002:00036c90       ??_G?$TypedAttribute@V?$Vec2@M@Imath@@@Imf@@UAEPAXI@Z 100a6c90 f i ImfCRgbaFile.obj
 0002:00036c90       ??_E?$TypedAttribute@V?$Vec2@M@Imath@@@Imf@@UAEPAXI@Z 100a6c90 f i ImfCRgbaFile.obj
 0002:00036d00       ??_E?$TypedAttribute@V?$Vec3@H@Imath@@@Imf@@UAEPAXI@Z 100a6d00 f i ImfCRgbaFile.obj
 0002:00036d00       ??_G?$TypedAttribute@V?$Vec3@H@Imath@@@Imf@@UAEPAXI@Z 100a6d00 f i ImfCRgbaFile.obj
 0002:00036d70       ??_E?$TypedAttribute@V?$Vec3@M@Imath@@@Imf@@UAEPAXI@Z 100a6d70 f i ImfCRgbaFile.obj
 0002:00036d70       ??_G?$TypedAttribute@V?$Vec3@M@Imath@@@Imf@@UAEPAXI@Z 100a6d70 f i ImfCRgbaFile.obj
 0002:00036de0       ??_E?$TypedAttribute@V?$Matrix33@M@Imath@@@Imf@@UAEPAXI@Z 100a6de0 f i ImfCRgbaFile.obj
 0002:00036de0       ??_G?$TypedAttribute@V?$Matrix33@M@Imath@@@Imf@@UAEPAXI@Z 100a6de0 f i ImfCRgbaFile.obj
 0002:00036e50       ??_E?$TypedAttribute@V?$Matrix44@M@Imath@@@Imf@@UAEPAXI@Z 100a6e50 f i ImfCRgbaFile.obj
 0002:00036e50       ??_G?$TypedAttribute@V?$Matrix44@M@Imath@@@Imf@@UAEPAXI@Z 100a6e50 f i ImfCRgbaFile.obj
 0002:00036ec0       ??0?$Vec3@H@Imath@@QAE@ABV01@@Z 100a6ec0 f i ImfCRgbaFile.obj
 0002:00036f30       ??0?$Vec2@M@Imath@@QAE@XZ  100a6f30 f i ImfCRgbaFile.obj
 0002:00036f70       ??0?$TypedAttribute@H@Imf@@QAE@XZ 100a6f70 f i ImfCRgbaFile.obj
 0002:00036fe0       ?cast@?$TypedAttribute@H@Imf@@SAABV12@ABVAttribute@2@@Z 100a6fe0 f i ImfCRgbaFile.obj
 0002:00037030       ??0?$TypedAttribute@V?$basic_string@DU?$char_traits@D@std@@V?$allocator@D@2@@std@@@Imf@@QAE@XZ 100a7030 f i ImfCRgbaFile.obj
 0002:000370f0       ?cast@?$TypedAttribute@V?$basic_string@DU?$char_traits@D@std@@V?$allocator@D@2@@std@@@Imf@@SAABV12@ABVAttribute@2@@Z 100a70f0 f i ImfCRgbaFile.obj
 0002:00037140       ??0?$TypedAttribute@V?$Box@V?$Vec2@H@Imath@@@Imath@@@Imf@@QAE@XZ 100a7140 f i ImfCRgbaFile.obj
 0002:00037200       ?cast@?$TypedAttribute@V?$Box@V?$Vec2@H@Imath@@@Imath@@@Imf@@SAABV12@ABVAttribute@2@@Z 100a7200 f i ImfCRgbaFile.obj
 0002:00037250       ??0?$TypedAttribute@V?$Box@V?$Vec2@M@Imath@@@Imath@@@Imf@@QAE@XZ 100a7250 f i ImfCRgbaFile.obj
 0002:00037310       ?cast@?$TypedAttribute@V?$Box@V?$Vec2@M@Imath@@@Imath@@@Imf@@SAABV12@ABVAttribute@2@@Z 100a7310 f i ImfCRgbaFile.obj
 0002:00037360       ??0?$TypedAttribute@V?$Vec2@H@Imath@@@Imf@@QAE@XZ 100a7360 f i ImfCRgbaFile.obj
 0002:00037420       ?cast@?$TypedAttribute@V?$Vec2@H@Imath@@@Imf@@SAABV12@ABVAttribute@2@@Z 100a7420 f i ImfCRgbaFile.obj
 0002:00037470       ??0?$TypedAttribute@V?$Vec2@M@Imath@@@Imf@@QAE@XZ 100a7470 f i ImfCRgbaFile.obj
 0002:00037530       ?cast@?$TypedAttribute@V?$Vec2@M@Imath@@@Imf@@SAABV12@ABVAttribute@2@@Z 100a7530 f i ImfCRgbaFile.obj
 0002:00037580       ??0?$TypedAttribute@V?$Vec3@H@Imath@@@Imf@@QAE@XZ 100a7580 f i ImfCRgbaFile.obj
 0002:00037640       ?cast@?$TypedAttribute@V?$Vec3@H@Imath@@@Imf@@SAABV12@ABVAttribute@2@@Z 100a7640 f i ImfCRgbaFile.obj
 0002:00037690       ??0?$Vec3@M@Imath@@QAE@ABV01@@Z 100a7690 f i ImfCRgbaFile.obj
 0002:00037700       ??0?$TypedAttribute@V?$Vec3@M@Imath@@@Imf@@QAE@XZ 100a7700 f i ImfCRgbaFile.obj
 0002:000377c0       ?cast@?$TypedAttribute@V?$Vec3@M@Imath@@@Imf@@SAABV12@ABVAttribute@2@@Z 100a77c0 f i ImfCRgbaFile.obj
 0002:00037810       ??0?$Matrix33@M@Imath@@QAE@ABV01@@Z 100a7810 f i ImfCRgbaFile.obj
 0002:00037880       ??0?$TypedAttribute@V?$Matrix33@M@Imath@@@Imf@@QAE@XZ 100a7880 f i ImfCRgbaFile.obj
 0002:00037940       ?cast@?$TypedAttribute@V?$Matrix33@M@Imath@@@Imf@@SAABV12@ABVAttribute@2@@Z 100a7940 f i ImfCRgbaFile.obj
 0002:00037990       ??0?$TypedAttribute@V?$Matrix44@M@Imath@@@Imf@@QAE@XZ 100a7990 f i ImfCRgbaFile.obj
 0002:00037a50       ?cast@?$TypedAttribute@V?$Matrix44@M@Imath@@@Imf@@SAABV12@ABVAttribute@2@@Z 100a7a50 f i ImfCRgbaFile.obj
 0002:00037aa0       ??$?0P6A?AVhalf@@V0@@Z@?$halfFunction@Vhalf@@@@QAE@P6A?AVhalf@@V1@@Z000000@Z 100a7aa0 f i ImfCRgbaFile.obj
 0002:00037e30       ??$?0UroundNBit@Imf@@@?$halfFunction@Vhalf@@@@QAE@UroundNBit@Imf@@Vhalf@@11111@Z 100a7e30 f i ImfCRgbaFile.obj
 0002:000381c0       ??RroundNBit@Imf@@QAE?AVhalf@@V2@@Z 100a81c0 f i ImfCRgbaFile.obj
 0002:00038230       ??_H@YGXPAXIHP6EPAX0@Z@Z   100a8230 f i ImfCRgbaFile.obj
 0002:000382a0       ??0?$Vec3@H@Imath@@QAE@XZ  100a82a0 f i ImfCRgbaFile.obj
 0002:000382e0       ?cast@?$TypedAttribute@H@Imf@@SAPBV12@PBVAttribute@2@@Z 100a82e0 f i ImfCRgbaFile.obj
 0002:00038390       ?cast@?$TypedAttribute@V?$basic_string@DU?$char_traits@D@std@@V?$allocator@D@2@@std@@@Imf@@SAPBV12@PBVAttribute@2@@Z 100a8390 f i ImfCRgbaFile.obj
 0002:00038440       ?cast@?$TypedAttribute@V?$Box@V?$Vec2@H@Imath@@@Imath@@@Imf@@SAPBV12@PBVAttribute@2@@Z 100a8440 f i ImfCRgbaFile.obj
 0002:000384f0       ??0?$Box@V?$Vec2@H@Imath@@@Imath@@QAE@XZ 100a84f0 f i ImfCRgbaFile.obj
 0002:00038560       ?cast@?$TypedAttribute@V?$Box@V?$Vec2@M@Imath@@@Imath@@@Imf@@SAPBV12@PBVAttribute@2@@Z 100a8560 f i ImfCRgbaFile.obj
 0002:00038610       ??0?$Box@V?$Vec2@M@Imath@@@Imath@@QAE@XZ 100a8610 f i ImfCRgbaFile.obj
 0002:00038680       ?cast@?$TypedAttribute@V?$Vec2@H@Imath@@@Imf@@SAPBV12@PBVAttribute@2@@Z 100a8680 f i ImfCRgbaFile.obj
 0002:00038730       ?cast@?$TypedAttribute@V?$Vec2@M@Imath@@@Imf@@SAPBV12@PBVAttribute@2@@Z 100a8730 f i ImfCRgbaFile.obj
 0002:000387e0       ?cast@?$TypedAttribute@V?$Vec3@H@Imath@@@Imf@@SAPBV12@PBVAttribute@2@@Z 100a87e0 f i ImfCRgbaFile.obj
 0002:00038890       ??0?$Vec3@M@Imath@@QAE@XZ  100a8890 f i ImfCRgbaFile.obj
 0002:000388d0       ?cast@?$TypedAttribute@V?$Vec3@M@Imath@@@Imf@@SAPBV12@PBVAttribute@2@@Z 100a88d0 f i ImfCRgbaFile.obj
 0002:00038980       ??0?$Matrix33@M@Imath@@QAE@XZ 100a8980 f i ImfCRgbaFile.obj
 0002:00038a20       ?cast@?$TypedAttribute@V?$Matrix33@M@Imath@@@Imf@@SAPBV12@PBVAttribute@2@@Z 100a8a20 f i ImfCRgbaFile.obj
 0002:00038ad0       ?cast@?$TypedAttribute@V?$Matrix44@M@Imath@@@Imf@@SAPBV12@PBVAttribute@2@@Z 100a8ad0 f i ImfCRgbaFile.obj
 0002:00038b80       ?makeEmpty@?$Box@V?$Vec2@H@Imath@@@Imath@@QAEXXZ 100a8b80 f i ImfCRgbaFile.obj
 0002:00038c10       ?makeEmpty@?$Box@V?$Vec2@M@Imath@@@Imath@@QAEXXZ 100a8c10 f i ImfCRgbaFile.obj
 0002:00038cb0       ?baseTypeMin@?$Vec2@H@Imath@@SAHXZ 100a8cb0 f i ImfCRgbaFile.obj
 0002:00038d00       ?min@?$limits@H@Imath@@SAHXZ 100a8d00 f i ImfCRgbaFile.obj
 0002:00038d40       ?baseTypeMax@?$Vec2@H@Imath@@SAHXZ 100a8d40 f i ImfCRgbaFile.obj
 0002:00038d90       ?max@?$limits@H@Imath@@SAHXZ 100a8d90 f i ImfCRgbaFile.obj
 0002:00038dd0       ?baseTypeMin@?$Vec2@M@Imath@@SAMXZ 100a8dd0 f i ImfCRgbaFile.obj
 0002:00038e20       ?min@?$limits@M@Imath@@SAMXZ 100a8e20 f i ImfCRgbaFile.obj
 0002:00038e60       ?baseTypeMax@?$Vec2@M@Imath@@SAMXZ 100a8e60 f i ImfCRgbaFile.obj
 0002:00038eb0       ?max@?$limits@M@Imath@@SAMXZ 100a8eb0 f i ImfCRgbaFile.obj
 0002:00038ef0       ??0?$Vec2@H@Imath@@QAE@H@Z 100a8ef0 f i ImfCRgbaFile.obj
 0002:00038f40       ??0?$Vec2@M@Imath@@QAE@M@Z 100a8f40 f i ImfCRgbaFile.obj
 0002:00038fa0       ?staticTypeName@?$TypedAttribute@N@Imf@@SAPBDXZ 100a8fa0 f   ImfDoubleAttribute.obj
 0002:00038fe0       ?latLong@LatLongMap@Imf@@YA?AV?$Vec2@M@Imath@@ABV?$Vec3@M@4@@Z 100a8fe0 f   ImfEnvmap.obj
 0002:00039230       ?abs@@YAMM@Z               100a9230 f i ImfEnvmap.obj
 0002:00039290       _fabsf                     100a9290 f i ImfEnvmap.obj
 0002:00039300       ?acos@@YAMM@Z              100a9300 f i ImfEnvmap.obj
 0002:00039360       _acosf                     100a9360 f i ImfEnvmap.obj
 0002:000393d0       ?asin@@YAMM@Z              100a93d0 f i ImfEnvmap.obj
 0002:00039430       _asinf                     100a9430 f i ImfEnvmap.obj
 0002:000394a0       ?atan2@@YAMMM@Z            100a94a0 f i ImfEnvmap.obj
 0002:00039510       _atan2f                    100a9510 f i ImfEnvmap.obj
 0002:00039590       ?sqrt@@YAMM@Z              100a9590 f i ImfEnvmap.obj
 0002:000395f0       _sqrtf                     100a95f0 f i ImfEnvmap.obj
 0002:00039660       ?latLong@LatLongMap@Imf@@YA?AV?$Vec2@M@Imath@@ABV?$Box@V?$Vec2@H@Imath@@@4@ABV34@@Z 100a9660 f   ImfEnvmap.obj
 0002:000397e0       ?pixelPosition@LatLongMap@Imf@@YA?AV?$Vec2@M@Imath@@ABV?$Box@V?$Vec2@H@Imath@@@4@ABV34@@Z 100a97e0 f   ImfEnvmap.obj
 0002:00039930       ?pixelPosition@LatLongMap@Imf@@YA?AV?$Vec2@M@Imath@@ABV?$Box@V?$Vec2@H@Imath@@@4@ABV?$Vec3@M@4@@Z 100a9930 f   ImfEnvmap.obj
 0002:000399a0       ?direction@LatLongMap@Imf@@YA?AV?$Vec3@M@Imath@@ABV?$Box@V?$Vec2@H@Imath@@@4@ABV?$Vec2@M@4@@Z 100a99a0 f   ImfEnvmap.obj
 0002:00039af0       ?cos@@YAMM@Z               100a9af0 f i ImfEnvmap.obj
 0002:00039b50       _cosf                      100a9b50 f i ImfEnvmap.obj
 0002:00039bc0       ?sin@@YAMM@Z               100a9bc0 f i ImfEnvmap.obj
 0002:00039c20       _sinf                      100a9c20 f i ImfEnvmap.obj
 0002:00039c90       ?sizeOfFace@CubeMap@Imf@@YAHABV?$Box@V?$Vec2@H@Imath@@@Imath@@@Z 100a9c90 f   ImfEnvmap.obj
 0002:00039d30       ?dataWindowForFace@CubeMap@Imf@@YA?AV?$Box@V?$Vec2@H@Imath@@@Imath@@W4CubeMapFace@2@ABV34@@Z 100a9d30 f   ImfEnvmap.obj
 0002:00039e10       ?pixelPosition@CubeMap@Imf@@YA?AV?$Vec2@M@Imath@@W4CubeMapFace@2@ABV?$Box@V?$Vec2@H@Imath@@@4@V34@@Z 100a9e10 f   ImfEnvmap.obj
 0002:0003a150       ?faceAndPixelPosition@CubeMap@Imf@@YAXABV?$Vec3@M@Imath@@ABV?$Box@V?$Vec2@H@Imath@@@4@AAW4CubeMapFace@2@AAV?$Vec2@M@4@@Z 100aa150 f   ImfEnvmap.obj
 0002:0003a590       ?direction@CubeMap@Imf@@YA?AV?$Vec3@M@Imath@@W4CubeMapFace@2@ABV?$Box@V?$Vec2@H@Imath@@@4@ABV?$Vec2@M@4@@Z 100aa590 f   ImfEnvmap.obj
 0002:0003a8e0       ?length@?$Vec3@M@Imath@@QBEMXZ 100aa8e0 f i ImfEnvmap.obj
 0002:0003a980       ?sqrt@?$Math@M@Imath@@SAMM@Z 100aa980 f i ImfEnvmap.obj
 0002:0003a9e0       ??$sign@M@Imath@@YAHM@Z    100aa9e0 f i ImfEnvmap.obj
 0002:0003aa90       ?dot@?$Vec3@M@Imath@@QBEMABV12@@Z 100aaa90 f i ImfEnvmap.obj
 0002:0003ab10       ?lengthTiny@?$Vec3@M@Imath@@ABEMXZ 100aab10 f i ImfEnvmap.obj
 0002:0003ade0       ?staticTypeName@?$TypedAttribute@W4Envmap@Imf@@@Imf@@SAPBDXZ 100aade0 f   ImfEnvmapAttribute.obj
 0002:0003ae20       ?writeValueTo@?$TypedAttribute@W4Envmap@Imf@@@Imf@@UBEXAAVOStream@2@H@Z 100aae20 f   ImfEnvmapAttribute.obj
 0002:0003ae90       ?readValueFrom@?$TypedAttribute@W4Envmap@Imf@@@Imf@@UAEXAAVIStream@2@HH@Z 100aae90 f   ImfEnvmapAttribute.obj
 0002:0003af30       ?staticTypeName@?$TypedAttribute@M@Imf@@SAPBDXZ 100aaf30 f   ImfFloatAttribute.obj
 0002:0003af70       ??0Slice@Imf@@QAE@W4PixelType@1@PADIIHHN_N2@Z 100aaf70 f   ImfFrameBuffer.obj
 0002:0003b020       ?insert@FrameBuffer@Imf@@QAEXQBDABUSlice@2@@Z 100ab020 f   ImfFrameBuffer.obj
 0002:0003b1e0       ?insert@FrameBuffer@Imf@@QAEXABV?$basic_string@DU?$char_traits@D@std@@V?$allocator@D@2@@std@@ABUSlice@2@@Z 100ab1e0 f   ImfFrameBuffer.obj
 0002:0003b250       ??AFrameBuffer@Imf@@QAEAAUSlice@1@QBD@Z 100ab250 f   ImfFrameBuffer.obj
 0002:0003b4c0       ??1?$_Tree_iterator@V?$_Tree_val@V?$_Tmap_traits@VName@Imf@@USlice@2@U?$less@VName@Imf@@@std@@V?$allocator@U?$pair@$$CBVName@Imf@@USlice@2@@std@@@5@$0A@@std@@@std@@@std@@QAE@XZ 100ab4c0 f i ImfFrameBuffer.obj
 0002:0003b510       ??1?$_Tree_const_iterator@V?$_Tree_val@V?$_Tmap_traits@VName@Imf@@USlice@2@U?$less@VName@Imf@@@std@@V?$allocator@U?$pair@$$CBVName@Imf@@USlice@2@@std@@@5@$0A@@std@@@std@@@std@@QAE@XZ 100ab510 f i ImfFrameBuffer.obj
 0002:0003b560       ??1?$_Tree_unchecked_const_iterator@V?$_Tree_val@V?$_Tmap_traits@VName@Imf@@USlice@2@U?$less@VName@Imf@@@std@@V?$allocator@U?$pair@$$CBVName@Imf@@USlice@2@@std@@@5@$0A@@std@@@std@@U_Iterator_base12@2@@std@@QAE@XZ 100ab560 f i ImfFrameBuffer.obj
 0002:0003b5b0       ??1?$_Iterator012@Ubidirectional_iterator_tag@std@@U?$pair@$$CBVName@Imf@@USlice@2@@2@HPBU32@ABU32@U_Iterator_base12@2@@std@@QAE@XZ 100ab5b0 f i ImfFrameBuffer.obj
 0002:0003b600       ??AFrameBuffer@Imf@@QBEABUSlice@1@QBD@Z 100ab600 f   ImfFrameBuffer.obj
 0002:0003b870       ??AFrameBuffer@Imf@@QAEAAUSlice@1@ABV?$basic_string@DU?$char_traits@D@std@@V?$allocator@D@2@@std@@@Z 100ab870 f   ImfFrameBuffer.obj
 0002:0003b8d0       ??AFrameBuffer@Imf@@QBEABUSlice@1@ABV?$basic_string@DU?$char_traits@D@std@@V?$allocator@D@2@@std@@@Z 100ab8d0 f   ImfFrameBuffer.obj
 0002:0003b930       ?findSlice@FrameBuffer@Imf@@QAEPAUSlice@2@QBD@Z 100ab930 f   ImfFrameBuffer.obj
 0002:0003bad0       ?findSlice@FrameBuffer@Imf@@QBEPBUSlice@2@QBD@Z 100abad0 f   ImfFrameBuffer.obj
 0002:0003bc70       ?findSlice@FrameBuffer@Imf@@QAEPAUSlice@2@ABV?$basic_string@DU?$char_traits@D@std@@V?$allocator@D@2@@std@@@Z 100abc70 f   ImfFrameBuffer.obj
 0002:0003bcd0       ?findSlice@FrameBuffer@Imf@@QBEPBUSlice@2@ABV?$basic_string@DU?$char_traits@D@std@@V?$allocator@D@2@@std@@@Z 100abcd0 f   ImfFrameBuffer.obj
 0002:0003bd30       ?begin@FrameBuffer@Imf@@QAE?AVIterator@12@XZ 100abd30 f   ImfFrameBuffer.obj
 0002:0003be30       ??0Iterator@FrameBuffer@Imf@@QAE@ABV?$_Tree_iterator@V?$_Tree_val@V?$_Tmap_traits@VName@Imf@@USlice@2@U?$less@VName@Imf@@@std@@V?$allocator@U?$pair@$$CBVName@Imf@@USlice@2@@std@@@5@$0A@@std@@@std@@@std@@@Z 100abe30 f i ImfFrameBuffer.obj
 0002:0003be90       ??0?$_Tree_iterator@V?$_Tree_val@V?$_Tmap_traits@VName@Imf@@USlice@2@U?$less@VName@Imf@@@std@@V?$allocator@U?$pair@$$CBVName@Imf@@USlice@2@@std@@@5@$0A@@std@@@std@@@std@@QAE@ABV01@@Z 100abe90 f i ImfFrameBuffer.obj
 0002:0003bef0       ??0?$_Tree_const_iterator@V?$_Tree_val@V?$_Tmap_traits@VName@Imf@@USlice@2@U?$less@VName@Imf@@@std@@V?$allocator@U?$pair@$$CBVName@Imf@@USlice@2@@std@@@5@$0A@@std@@@std@@@std@@QAE@ABV01@@Z 100abef0 f i ImfFrameBuffer.obj
 0002:0003bf50       ??0?$_Tree_unchecked_const_iterator@V?$_Tree_val@V?$_Tmap_traits@VName@Imf@@USlice@2@U?$less@VName@Imf@@@std@@V?$allocator@U?$pair@$$CBVName@Imf@@USlice@2@@std@@@5@$0A@@std@@@std@@U_Iterator_base12@2@@std@@QAE@ABV01@@Z 100abf50 f i ImfFrameBuffer.obj
 0002:0003bfc0       ??0?$_Iterator012@Ubidirectional_iterator_tag@std@@U?$pair@$$CBVName@Imf@@USlice@2@@2@HPBU32@ABU32@U_Iterator_base12@2@@std@@QAE@ABU01@@Z 100abfc0 f i ImfFrameBuffer.obj
 0002:0003c020       ??1Iterator@FrameBuffer@Imf@@QAE@XZ 100ac020 f i ImfFrameBuffer.obj
 0002:0003c070       ?begin@FrameBuffer@Imf@@QBE?AVConstIterator@12@XZ 100ac070 f   ImfFrameBuffer.obj
 0002:0003c170       ??0ConstIterator@FrameBuffer@Imf@@QAE@ABV?$_Tree_const_iterator@V?$_Tree_val@V?$_Tmap_traits@VName@Imf@@USlice@2@U?$less@VName@Imf@@@std@@V?$allocator@U?$pair@$$CBVName@Imf@@USlice@2@@std@@@5@$0A@@std@@@std@@@std@@@Z 100ac170 f i ImfFrameBuffer.obj
 0002:0003c1d0       ??1ConstIterator@FrameBuffer@Imf@@QAE@XZ 100ac1d0 f i ImfFrameBuffer.obj
 0002:0003c220       ?end@FrameBuffer@Imf@@QAE?AVIterator@12@XZ 100ac220 f   ImfFrameBuffer.obj
 0002:0003c320       ?end@FrameBuffer@Imf@@QBE?AVConstIterator@12@XZ 100ac320 f   ImfFrameBuffer.obj
 0002:0003c420       ?find@FrameBuffer@Imf@@QAE?AVIterator@12@QBD@Z 100ac420 f   ImfFrameBuffer.obj
 0002:0003c550       ?find@FrameBuffer@Imf@@QBE?AVConstIterator@12@QBD@Z 100ac550 f   ImfFrameBuffer.obj
 0002:0003c680       ?find@FrameBuffer@Imf@@QAE?AVIterator@12@ABV?$basic_string@DU?$char_traits@D@std@@V?$allocator@D@2@@std@@@Z 100ac680 f   ImfFrameBuffer.obj
 0002:0003c710       ?find@FrameBuffer@Imf@@QBE?AVConstIterator@12@ABV?$basic_string@DU?$char_traits@D@std@@V?$allocator@D@2@@std@@@Z 100ac710 f   ImfFrameBuffer.obj
 0002:0003c7a0       ??A?$map@VName@Imf@@USlice@2@U?$less@VName@Imf@@@std@@V?$allocator@U?$pair@$$CBVName@Imf@@USlice@2@@std@@@5@@std@@QAEAAUSlice@Imf@@ABVName@3@@Z 100ac7a0 f i ImfFrameBuffer.obj
 0002:0003ca80       ?begin@?$_Tree@V?$_Tmap_traits@VName@Imf@@USlice@2@U?$less@VName@Imf@@@std@@V?$allocator@U?$pair@$$CBVName@Imf@@USlice@2@@std@@@5@$0A@@std@@@std@@QAE?AV?$_Tree_iterator@V?$_Tree_val@V?$_Tmap_traits@VName@Imf@@USlice@2@U?$less@VName@Imf@@@std@@V?$allocator@U?$pair@$$CBVName@Imf@@USlice@2@@std@@@5@$0A@@std@@@std@@@2@XZ 100aca80 f i ImfFrameBuffer.obj
 0002:0003cb10       ?begin@?$_Tree@V?$_Tmap_traits@VName@Imf@@USlice@2@U?$less@VName@Imf@@@std@@V?$allocator@U?$pair@$$CBVName@Imf@@USlice@2@@std@@@5@$0A@@std@@@std@@QBE?AV?$_Tree_const_iterator@V?$_Tree_val@V?$_Tmap_traits@VName@Imf@@USlice@2@U?$less@VName@Imf@@@std@@V?$allocator@U?$pair@$$CBVName@Imf@@USlice@2@@std@@@5@$0A@@std@@@std@@@2@XZ 100acb10 f i ImfFrameBuffer.obj
 0002:0003cba0       ?end@?$_Tree@V?$_Tmap_traits@VName@Imf@@USlice@2@U?$less@VName@Imf@@@std@@V?$allocator@U?$pair@$$CBVName@Imf@@USlice@2@@std@@@5@$0A@@std@@@std@@QAE?AV?$_Tree_iterator@V?$_Tree_val@V?$_Tmap_traits@VName@Imf@@USlice@2@U?$less@VName@Imf@@@std@@V?$allocator@U?$pair@$$CBVName@Imf@@USlice@2@@std@@@5@$0A@@std@@@std@@@2@XZ 100acba0 f i ImfFrameBuffer.obj
 0002:0003cc30       ?end@?$_Tree@V?$_Tmap_traits@VName@Imf@@USlice@2@U?$less@VName@Imf@@@std@@V?$allocator@U?$pair@$$CBVName@Imf@@USlice@2@@std@@@5@$0A@@std@@@std@@QBE?AV?$_Tree_const_iterator@V?$_Tree_val@V?$_Tmap_traits@VName@Imf@@USlice@2@U?$less@VName@Imf@@@std@@V?$allocator@U?$pair@$$CBVName@Imf@@USlice@2@@std@@@5@$0A@@std@@@std@@@2@XZ 100acc30 f i ImfFrameBuffer.obj
 0002:0003ccc0       ?find@?$_Tree@V?$_Tmap_traits@VName@Imf@@USlice@2@U?$less@VName@Imf@@@std@@V?$allocator@U?$pair@$$CBVName@Imf@@USlice@2@@std@@@5@$0A@@std@@@std@@QAE?AV?$_Tree_iterator@V?$_Tree_val@V?$_Tmap_traits@VName@Imf@@USlice@2@U?$less@VName@Imf@@@std@@V?$allocator@U?$pair@$$CBVName@Imf@@USlice@2@@std@@@5@$0A@@std@@@std@@@2@ABVName@Imf@@@Z 100accc0 f i ImfFrameBuffer.obj
 0002:0003cfc0       ?find@?$_Tree@V?$_Tmap_traits@VName@Imf@@USlice@2@U?$less@VName@Imf@@@std@@V?$allocator@U?$pair@$$CBVName@Imf@@USlice@2@@std@@@5@$0A@@std@@@std@@QBE?AV?$_Tree_const_iterator@V?$_Tree_val@V?$_Tmap_traits@VName@Imf@@USlice@2@U?$less@VName@Imf@@@std@@V?$allocator@U?$pair@$$CBVName@Imf@@USlice@2@@std@@@5@$0A@@std@@@std@@@2@ABVName@Imf@@@Z 100acfc0 f i ImfFrameBuffer.obj
 0002:0003d2c0       ??C?$_Tree_iterator@V?$_Tree_val@V?$_Tmap_traits@VName@Imf@@USlice@2@U?$less@VName@Imf@@@std@@V?$allocator@U?$pair@$$CBVName@Imf@@USlice@2@@std@@@5@$0A@@std@@@std@@@std@@QBEPAU?$pair@$$CBVName@Imf@@USlice@2@@1@XZ 100ad2c0 f i ImfFrameBuffer.obj
 0002:0003d310       ??8?$_Tree_const_iterator@V?$_Tree_val@V?$_Tmap_traits@VName@Imf@@USlice@2@U?$less@VName@Imf@@@std@@V?$allocator@U?$pair@$$CBVName@Imf@@USlice@2@@std@@@5@$0A@@std@@@std@@@std@@QBE_NABV01@@Z 100ad310 f i ImfFrameBuffer.obj
 0002:0003d440       ??C?$_Tree_unchecked_const_iterator@V?$_Tree_val@V?$_Tmap_traits@VName@Imf@@USlice@2@U?$less@VName@Imf@@@std@@V?$allocator@U?$pair@$$CBVName@Imf@@USlice@2@@std@@@5@$0A@@std@@@std@@U_Iterator_base12@2@@std@@QBEPBU?$pair@$$CBVName@Imf@@USlice@2@@1@XZ 100ad440 f i ImfFrameBuffer.obj
 0002:0003d490       ??4?$_Tree_iterator@V?$_Tree_val@V?$_Tmap_traits@VName@Imf@@USlice@2@U?$less@VName@Imf@@@std@@V?$allocator@U?$pair@$$CBVName@Imf@@USlice@2@@std@@@5@$0A@@std@@@std@@@std@@QAEAAV01@ABV01@@Z 100ad490 f i ImfFrameBuffer.obj
 0002:0003d4f0       ??4?$_Tree_const_iterator@V?$_Tree_val@V?$_Tmap_traits@VName@Imf@@USlice@2@U?$less@VName@Imf@@@std@@V?$allocator@U?$pair@$$CBVName@Imf@@USlice@2@@std@@@5@$0A@@std@@@std@@@std@@QAEAAV01@ABV01@@Z 100ad4f0 f i ImfFrameBuffer.obj
 0002:0003d550       ??4?$_Tree_unchecked_const_iterator@V?$_Tree_val@V?$_Tmap_traits@VName@Imf@@USlice@2@U?$less@VName@Imf@@@std@@V?$allocator@U?$pair@$$CBVName@Imf@@USlice@2@@std@@@5@$0A@@std@@@std@@U_Iterator_base12@2@@std@@QAEAAV01@ABV01@@Z 100ad550 f i ImfFrameBuffer.obj
 0002:0003d5c0       ??4?$_Iterator012@Ubidirectional_iterator_tag@std@@U?$pair@$$CBVName@Imf@@USlice@2@@2@HPBU32@ABU32@U_Iterator_base12@2@@std@@QAEAAU01@ABU01@@Z 100ad5c0 f i ImfFrameBuffer.obj
 0002:0003d620       ?lower_bound@?$_Tree@V?$_Tmap_traits@VName@Imf@@USlice@2@U?$less@VName@Imf@@@std@@V?$allocator@U?$pair@$$CBVName@Imf@@USlice@2@@std@@@5@$0A@@std@@@std@@QAE?AV?$_Tree_iterator@V?$_Tree_val@V?$_Tmap_traits@VName@Imf@@USlice@2@U?$less@VName@Imf@@@std@@V?$allocator@U?$pair@$$CBVName@Imf@@USlice@2@@std@@@5@$0A@@std@@@std@@@2@ABVName@Imf@@@Z 100ad620 f i ImfFrameBuffer.obj
 0002:0003d6b0       ?lower_bound@?$_Tree@V?$_Tmap_traits@VName@Imf@@USlice@2@U?$less@VName@Imf@@@std@@V?$allocator@U?$pair@$$CBVName@Imf@@USlice@2@@std@@@5@$0A@@std@@@std@@QBE?AV?$_Tree_const_iterator@V?$_Tree_val@V?$_Tmap_traits@VName@Imf@@USlice@2@U?$less@VName@Imf@@@std@@V?$allocator@U?$pair@$$CBVName@Imf@@USlice@2@@std@@@5@$0A@@std@@@std@@@2@ABVName@Imf@@@Z 100ad6b0 f i ImfFrameBuffer.obj
 0002:0003d740       ?_Lmost@?$_Tree@V?$_Tmap_traits@VName@Imf@@USlice@2@U?$less@VName@Imf@@@std@@V?$allocator@U?$pair@$$CBVName@Imf@@USlice@2@@std@@@5@$0A@@std@@@std@@IBEAAPAU_Node@?$_Tree_nod@V?$_Tmap_traits@VName@Imf@@USlice@2@U?$less@VName@Imf@@@std@@V?$allocator@U?$pair@$$CBVName@Imf@@USlice@2@@std@@@5@$0A@@std@@@2@XZ 100ad740 f i ImfFrameBuffer.obj
 0002:0003d7a0       ?_Key@?$_Tree_val@V?$_Tmap_traits@VName@Imf@@USlice@2@U?$less@VName@Imf@@@std@@V?$allocator@U?$pair@$$CBVName@Imf@@USlice@2@@std@@@5@$0A@@std@@@std@@SAAAVName@Imf@@PAU_Node@?$_Tree_nod@V?$_Tmap_traits@VName@Imf@@USlice@2@U?$less@VName@Imf@@@std@@V?$allocator@U?$pair@$$CBVName@Imf@@USlice@2@@std@@@5@$0A@@std@@@2@@Z 100ad7a0 f i ImfFrameBuffer.obj
 0002:0003d800       ??0?$_Tree_iterator@V?$_Tree_val@V?$_Tmap_traits@VName@Imf@@USlice@2@U?$less@VName@Imf@@@std@@V?$allocator@U?$pair@$$CBVName@Imf@@USlice@2@@std@@@5@$0A@@std@@@std@@@std@@QAE@PAU_Node@?$_Tree_nod@V?$_Tmap_traits@VName@Imf@@USlice@2@U?$less@VName@Imf@@@std@@V?$allocator@U?$pair@$$CBVName@Imf@@USlice@2@@std@@@5@$0A@@std@@@1@PBV?$_Tree_val@V?$_Tmap_traits@VName@Imf@@USlice@2@U?$less@VName@Imf@@@std@@V?$allocator@U?$pair@$$CBVName@Imf@@USlice@2@@std@@@5@$0A@@std@@@1@@Z 100ad800 f i ImfFrameBuffer.obj
 0002:0003d860       ??D?$_Tree_iterator@V?$_Tree_val@V?$_Tmap_traits@VName@Imf@@USlice@2@U?$less@VName@Imf@@@std@@V?$allocator@U?$pair@$$CBVName@Imf@@USlice@2@@std@@@5@$0A@@std@@@std@@@std@@QBEAAU?$pair@$$CBVName@Imf@@USlice@2@@1@XZ 100ad860 f i ImfFrameBuffer.obj
 0002:0003d8b0       ??0?$_Tree_const_iterator@V?$_Tree_val@V?$_Tmap_traits@VName@Imf@@USlice@2@U?$less@VName@Imf@@@std@@V?$allocator@U?$pair@$$CBVName@Imf@@USlice@2@@std@@@5@$0A@@std@@@std@@@std@@QAE@PAU_Node@?$_Tree_nod@V?$_Tmap_traits@VName@Imf@@USlice@2@U?$less@VName@Imf@@@std@@V?$allocator@U?$pair@$$CBVName@Imf@@USlice@2@@std@@@5@$0A@@std@@@1@PBV?$_Tree_val@V?$_Tmap_traits@VName@Imf@@USlice@2@U?$less@VName@Imf@@@std@@V?$allocator@U?$pair@$$CBVName@Imf@@USlice@2@@std@@@5@$0A@@std@@@1@@Z 100ad8b0 f i ImfFrameBuffer.obj
 0002:0003d910       ??D?$_Tree_unchecked_const_iterator@V?$_Tree_val@V?$_Tmap_traits@VName@Imf@@USlice@2@U?$less@VName@Imf@@@std@@V?$allocator@U?$pair@$$CBVName@Imf@@USlice@2@@std@@@5@$0A@@std@@@std@@U_Iterator_base12@2@@std@@QBEABU?$pair@$$CBVName@Imf@@USlice@2@@1@XZ 100ad910 f i ImfFrameBuffer.obj
 0002:0003d970       ?_Mynode@?$_Tree_unchecked_const_iterator@V?$_Tree_val@V?$_Tmap_traits@VName@Imf@@USlice@2@U?$less@VName@Imf@@@std@@V?$allocator@U?$pair@$$CBVName@Imf@@USlice@2@@std@@@5@$0A@@std@@@std@@U_Iterator_base12@2@@std@@QBEPAU_Node@?$_Tree_nod@V?$_Tmap_traits@VName@Imf@@USlice@2@U?$less@VName@Imf@@@std@@V?$allocator@U?$pair@$$CBVName@Imf@@USlice@2@@std@@@5@$0A@@std@@@2@XZ 100ad970 f i ImfFrameBuffer.obj
 0002:0003d9b0       ??0?$pair@$$CBVName@Imf@@USlice@2@@std@@QAE@ABVName@Imf@@$$QAUSlice@3@@Z 100ad9b0 f i ImfFrameBuffer.obj
 0002:0003da20       ?_Lbound@?$_Tree@V?$_Tmap_traits@VName@Imf@@USlice@2@U?$less@VName@Imf@@@std@@V?$allocator@U?$pair@$$CBVName@Imf@@USlice@2@@std@@@5@$0A@@std@@@std@@IBEPAU_Node@?$_Tree_nod@V?$_Tmap_traits@VName@Imf@@USlice@2@U?$less@VName@Imf@@@std@@V?$allocator@U?$pair@$$CBVName@Imf@@USlice@2@@std@@@5@$0A@@std@@@2@ABVName@Imf@@@Z 100ada20 f i ImfFrameBuffer.obj
 0002:0003db20       ?_Isnil@?$_Tree_val@V?$_Tmap_traits@VName@Imf@@USlice@2@U?$less@VName@Imf@@@std@@V?$allocator@U?$pair@$$CBVName@Imf@@USlice@2@@std@@@5@$0A@@std@@@std@@SAAADPAU_Node@?$_Tree_nod@V?$_Tmap_traits@VName@Imf@@USlice@2@U?$less@VName@Imf@@@std@@V?$allocator@U?$pair@$$CBVName@Imf@@USlice@2@@std@@@5@$0A@@std@@@2@@Z 100adb20 f i ImfFrameBuffer.obj
 0002:0003db60       ?_Lbound@?$_Tree@V?$_Tmap_traits@VName@Imf@@USlice@2@U?$less@VName@Imf@@@std@@V?$allocator@U?$pair@$$CBVName@Imf@@USlice@2@@std@@@5@$0A@@std@@@std@@IAEPAU_Node@?$_Tree_nod@V?$_Tmap_traits@VName@Imf@@USlice@2@U?$less@VName@Imf@@@std@@V?$allocator@U?$pair@$$CBVName@Imf@@USlice@2@@std@@@5@$0A@@std@@@2@ABVName@Imf@@@Z 100adb60 f i ImfFrameBuffer.obj
 0002:0003dc60       ?_Left@?$_Tree_val@V?$_Tmap_traits@VName@Imf@@USlice@2@U?$less@VName@Imf@@@std@@V?$allocator@U?$pair@$$CBVName@Imf@@USlice@2@@std@@@5@$0A@@std@@@std@@SAAAPAU_Node@?$_Tree_nod@V?$_Tmap_traits@VName@Imf@@USlice@2@U?$less@VName@Imf@@@std@@V?$allocator@U?$pair@$$CBVName@Imf@@USlice@2@@std@@@5@$0A@@std@@@2@PAU342@@Z 100adc60 f i ImfFrameBuffer.obj
 0002:0003dca0       ?_Right@?$_Tree_val@V?$_Tmap_traits@VName@Imf@@USlice@2@U?$less@VName@Imf@@@std@@V?$allocator@U?$pair@$$CBVName@Imf@@USlice@2@@std@@@5@$0A@@std@@@std@@SAAAPAU_Node@?$_Tree_nod@V?$_Tmap_traits@VName@Imf@@USlice@2@U?$less@VName@Imf@@@std@@V?$allocator@U?$pair@$$CBVName@Imf@@USlice@2@@std@@@5@$0A@@std@@@2@PAU342@@Z 100adca0 f i ImfFrameBuffer.obj
 0002:0003dce0       ?_Myval@?$_Tree_val@V?$_Tmap_traits@VName@Imf@@USlice@2@U?$less@VName@Imf@@@std@@V?$allocator@U?$pair@$$CBVName@Imf@@USlice@2@@std@@@5@$0A@@std@@@std@@SAAAU?$pair@$$CBVName@Imf@@USlice@2@@2@PAU_Node@?$_Tree_nod@V?$_Tmap_traits@VName@Imf@@USlice@2@U?$less@VName@Imf@@@std@@V?$allocator@U?$pair@$$CBVName@Imf@@USlice@2@@std@@@5@$0A@@std@@@2@@Z 100adce0 f i ImfFrameBuffer.obj
 0002:0003dd20       ??D?$_Tree_const_iterator@V?$_Tree_val@V?$_Tmap_traits@VName@Imf@@USlice@2@U?$less@VName@Imf@@@std@@V?$allocator@U?$pair@$$CBVName@Imf@@USlice@2@@std@@@5@$0A@@std@@@std@@@std@@QBEABU?$pair@$$CBVName@Imf@@USlice@2@@1@XZ 100add20 f i ImfFrameBuffer.obj
 0002:0003de50       ??0?$_Tree_unchecked_const_iterator@V?$_Tree_val@V?$_Tmap_traits@VName@Imf@@USlice@2@U?$less@VName@Imf@@@std@@V?$allocator@U?$pair@$$CBVName@Imf@@USlice@2@@std@@@5@$0A@@std@@@std@@U_Iterator_base12@2@@std@@QAE@PAU_Node@?$_Tree_nod@V?$_Tmap_traits@VName@Imf@@USlice@2@U?$less@VName@Imf@@@std@@V?$allocator@U?$pair@$$CBVName@Imf@@USlice@2@@std@@@5@$0A@@std@@@1@PBV?$_Tree_val@V?$_Tmap_traits@VName@Imf@@USlice@2@U?$less@VName@Imf@@@std@@V?$allocator@U?$pair@$$CBVName@Imf@@USlice@2@@std@@@5@$0A@@std@@@1@@Z 100ade50 f i ImfFrameBuffer.obj
 0002:0003df10       ??0?$_Iterator012@Ubidirectional_iterator_tag@std@@U?$pair@$$CBVName@Imf@@USlice@2@@2@HPBU32@ABU32@U_Iterator_base12@2@@std@@QAE@XZ 100adf10 f i ImfFrameBuffer.obj
 0002:0003df70       ??0?$_Pair_base@$$CBVName@Imf@@USlice@2@@std@@QAE@ABVName@Imf@@$$QAUSlice@3@@Z 100adf70 f i ImfFrameBuffer.obj
 0002:0003dff0       ?_Root@?$_Tree@V?$_Tmap_traits@VName@Imf@@USlice@2@U?$less@VName@Imf@@@std@@V?$allocator@U?$pair@$$CBVName@Imf@@USlice@2@@std@@@5@$0A@@std@@@std@@IBEAAPAU_Node@?$_Tree_nod@V?$_Tmap_traits@VName@Imf@@USlice@2@U?$less@VName@Imf@@@std@@V?$allocator@U?$pair@$$CBVName@Imf@@USlice@2@@std@@@5@$0A@@std@@@2@XZ 100adff0 f i ImfFrameBuffer.obj
 0002:0003e050       ?_Parent@?$_Tree_val@V?$_Tmap_traits@VName@Imf@@USlice@2@U?$less@VName@Imf@@@std@@V?$allocator@U?$pair@$$CBVName@Imf@@USlice@2@@std@@@5@$0A@@std@@@std@@SAAAPAU_Node@?$_Tree_nod@V?$_Tmap_traits@VName@Imf@@USlice@2@U?$less@VName@Imf@@@std@@V?$allocator@U?$pair@$$CBVName@Imf@@USlice@2@@std@@@5@$0A@@std@@@2@PAU342@@Z 100ae050 f i ImfFrameBuffer.obj
 0002:0003e090       ??$insert@U?$pair@$$CBVName@Imf@@USlice@2@@std@@@?$_Tree@V?$_Tmap_traits@VName@Imf@@USlice@2@U?$less@VName@Imf@@@std@@V?$allocator@U?$pair@$$CBVName@Imf@@USlice@2@@std@@@5@$0A@@std@@@std@@QAE?AV?$_Tree_iterator@V?$_Tree_val@V?$_Tmap_traits@VName@Imf@@USlice@2@U?$less@VName@Imf@@@std@@V?$allocator@U?$pair@$$CBVName@Imf@@USlice@2@@std@@@5@$0A@@std@@@std@@@1@V?$_Tree_const_iterator@V?$_Tree_val@V?$_Tmap_traits@VName@Imf@@USlice@2@U?$less@VName@Imf@@@std@@V?$allocator@U?$pair@$$CBVName@Imf@@USlice@2@@std@@@5@$0A@@std@@@std@@@1@$$QAU?$pair@$$CBVName@Imf@@USlice@2@@1@@Z 100ae090 f i ImfFrameBuffer.obj
 0002:0003e1a0       ??$_Kfn@$$CBVName@Imf@@USlice@2@@?$_Tmap_traits@VName@Imf@@USlice@2@U?$less@VName@Imf@@@std@@V?$allocator@U?$pair@$$CBVName@Imf@@USlice@2@@std@@@5@$0A@@std@@SAABVName@Imf@@ABU?$pair@$$CBVName@Imf@@USlice@2@@1@@Z 100ae1a0 f i ImfFrameBuffer.obj
 0002:0003e1e0       ??$move@AAUSlice@Imf@@@std@@YA$$QAUSlice@Imf@@AAU12@@Z 100ae1e0 f i ImfFrameBuffer.obj
 0002:0003e220       ?_Insert@?$_Tree@V?$_Tmap_traits@VName@Imf@@USlice@2@U?$less@VName@Imf@@@std@@V?$allocator@U?$pair@$$CBVName@Imf@@USlice@2@@std@@@5@$0A@@std@@@std@@QAE?AV?$_Tree_iterator@V?$_Tree_val@V?$_Tmap_traits@VName@Imf@@USlice@2@U?$less@VName@Imf@@@std@@V?$allocator@U?$pair@$$CBVName@Imf@@USlice@2@@std@@@5@$0A@@std@@@std@@@2@V?$_Tree_const_iterator@V?$_Tree_val@V?$_Tmap_traits@VName@Imf@@USlice@2@U?$less@VName@Imf@@@std@@V?$allocator@U?$pair@$$CBVName@Imf@@USlice@2@@std@@@5@$0A@@std@@@std@@@2@PAU_Node@?$_Tree_nod@V?$_Tmap_traits@VName@Imf@@USlice@2@U?$less@VName@Imf@@@std@@V?$allocator@U?$pair@$$CBVName@Imf@@USlice@2@@std@@@5@$0A@@std@@@2@@Z 100ae220 f i ImfFrameBuffer.obj
 0002:0003f130       ??0?$_Tree_const_iterator@V?$_Tree_val@V?$_Tmap_traits@VName@Imf@@USlice@2@U?$less@VName@Imf@@@std@@V?$allocator@U?$pair@$$CBVName@Imf@@USlice@2@@std@@@5@$0A@@std@@@std@@@std@@QAE@XZ 100af130 f i ImfFrameBuffer.obj
 0002:0003f190       ??E?$_Tree_const_iterator@V?$_Tree_val@V?$_Tmap_traits@VName@Imf@@USlice@2@U?$less@VName@Imf@@@std@@V?$allocator@U?$pair@$$CBVName@Imf@@USlice@2@@std@@@5@$0A@@std@@@std@@@std@@QAEAAV01@XZ 100af190 f i ImfFrameBuffer.obj
 0002:0003f2c0       ??0?$_Tree_unchecked_const_iterator@V?$_Tree_val@V?$_Tmap_traits@VName@Imf@@USlice@2@U?$less@VName@Imf@@@std@@V?$allocator@U?$pair@$$CBVName@Imf@@USlice@2@@std@@@5@$0A@@std@@@std@@U_Iterator_base12@2@@std@@QAE@XZ 100af2c0 f i ImfFrameBuffer.obj
 0002:0003f320       ??E?$_Tree_unchecked_const_iterator@V?$_Tree_val@V?$_Tmap_traits@VName@Imf@@USlice@2@U?$less@VName@Imf@@@std@@V?$allocator@U?$pair@$$CBVName@Imf@@USlice@2@@std@@@5@$0A@@std@@@std@@U_Iterator_base12@2@@std@@QAEAAV01@XZ 100af320 f i ImfFrameBuffer.obj
 0002:0003f450       ?_Min@?$_Tree_val@V?$_Tmap_traits@VName@Imf@@USlice@2@U?$less@VName@Imf@@@std@@V?$allocator@U?$pair@$$CBVName@Imf@@USlice@2@@std@@@5@$0A@@std@@@std@@SAPAU_Node@?$_Tree_nod@V?$_Tmap_traits@VName@Imf@@USlice@2@U?$less@VName@Imf@@@std@@V?$allocator@U?$pair@$$CBVName@Imf@@USlice@2@@std@@@5@$0A@@std@@@2@PAU342@@Z 100af450 f i ImfFrameBuffer.obj
 0002:0003f4d0       ??1?$pair@V?$_Tree_iterator@V?$_Tree_val@V?$_Tmap_traits@VName@Imf@@USlice@2@U?$less@VName@Imf@@@std@@V?$allocator@U?$pair@$$CBVName@Imf@@USlice@2@@std@@@5@$0A@@std@@@std@@@std@@_N@std@@QAE@XZ 100af4d0 f i ImfFrameBuffer.obj
 0002:0003f520       ??1?$_Pair_base@V?$_Tree_iterator@V?$_Tree_val@V?$_Tmap_traits@VName@Imf@@USlice@2@U?$less@VName@Imf@@@std@@V?$allocator@U?$pair@$$CBVName@Imf@@USlice@2@@std@@@5@$0A@@std@@@std@@@std@@_N@std@@QAE@XZ 100af520 f i ImfFrameBuffer.obj
 0002:0003f570       ?size@?$_Tree@V?$_Tmap_traits@VName@Imf@@USlice@2@U?$less@VName@Imf@@@std@@V?$allocator@U?$pair@$$CBVName@Imf@@USlice@2@@std@@@5@$0A@@std@@@std@@QBEIXZ 100af570 f i ImfFrameBuffer.obj
 0002:0003f5b0       ?_Linsert@?$_Tree@V?$_Tmap_traits@VName@Imf@@USlice@2@U?$less@VName@Imf@@@std@@V?$allocator@U?$pair@$$CBVName@Imf@@USlice@2@@std@@@5@$0A@@std@@@std@@QAE?AU?$pair@V?$_Tree_iterator@V?$_Tree_val@V?$_Tmap_traits@VName@Imf@@USlice@2@U?$less@VName@Imf@@@std@@V?$allocator@U?$pair@$$CBVName@Imf@@USlice@2@@std@@@5@$0A@@std@@@std@@@std@@_N@2@PAU_Node@?$_Tree_nod@V?$_Tmap_traits@VName@Imf@@USlice@2@U?$less@VName@Imf@@@std@@V?$allocator@U?$pair@$$CBVName@Imf@@USlice@2@@std@@@5@$0A@@std@@@2@_N@Z 100af5b0 f i ImfFrameBuffer.obj
 0002:0003fb30       ?_Insert@?$_Tree@V?$_Tmap_traits@VName@Imf@@USlice@2@U?$less@VName@Imf@@@std@@V?$allocator@U?$pair@$$CBVName@Imf@@USlice@2@@std@@@5@$0A@@std@@@std@@IAE?AV?$_Tree_iterator@V?$_Tree_val@V?$_Tmap_traits@VName@Imf@@USlice@2@U?$less@VName@Imf@@@std@@V?$allocator@U?$pair@$$CBVName@Imf@@USlice@2@@std@@@5@$0A@@std@@@std@@@2@_NPAU_Node@?$_Tree_nod@V?$_Tmap_traits@VName@Imf@@USlice@2@U?$less@VName@Imf@@@std@@V?$allocator@U?$pair@$$CBVName@Imf@@USlice@2@@std@@@5@$0A@@std@@@2@1@Z 100afb30 f i ImfFrameBuffer.obj
 0002:000400d0       ?_Rmost@?$_Tree@V?$_Tmap_traits@VName@Imf@@USlice@2@U?$less@VName@Imf@@@std@@V?$allocator@U?$pair@$$CBVName@Imf@@USlice@2@@std@@@5@$0A@@std@@@std@@IBEAAPAU_Node@?$_Tree_nod@V?$_Tmap_traits@VName@Imf@@USlice@2@U?$less@VName@Imf@@@std@@V?$allocator@U?$pair@$$CBVName@Imf@@USlice@2@@std@@@5@$0A@@std@@@2@XZ 100b00d0 f i ImfFrameBuffer.obj
 0002:00040130       ??F?$_Tree_const_iterator@V?$_Tree_val@V?$_Tmap_traits@VName@Imf@@USlice@2@U?$less@VName@Imf@@@std@@V?$allocator@U?$pair@$$CBVName@Imf@@USlice@2@@std@@@5@$0A@@std@@@std@@@std@@QAEAAV01@XZ 100b0130 f i ImfFrameBuffer.obj
 0002:00040310       ?max_size@?$_Tree@V?$_Tmap_traits@VName@Imf@@USlice@2@U?$less@VName@Imf@@@std@@V?$allocator@U?$pair@$$CBVName@Imf@@USlice@2@@std@@@5@$0A@@std@@@std@@QBEIXZ 100b0310 f i ImfFrameBuffer.obj
 0002:00040370       ?_Lrotate@?$_Tree@V?$_Tmap_traits@VName@Imf@@USlice@2@U?$less@VName@Imf@@@std@@V?$allocator@U?$pair@$$CBVName@Imf@@USlice@2@@std@@@5@$0A@@std@@@std@@IAEXPAU_Node@?$_Tree_nod@V?$_Tmap_traits@VName@Imf@@USlice@2@U?$less@VName@Imf@@@std@@V?$allocator@U?$pair@$$CBVName@Imf@@USlice@2@@std@@@5@$0A@@std@@@2@@Z 100b0370 f i ImfFrameBuffer.obj
 0002:00040520       ?_Rrotate@?$_Tree@V?$_Tmap_traits@VName@Imf@@USlice@2@U?$less@VName@Imf@@@std@@V?$allocator@U?$pair@$$CBVName@Imf@@USlice@2@@std@@@5@$0A@@std@@@std@@IAEXPAU_Node@?$_Tree_nod@V?$_Tmap_traits@VName@Imf@@USlice@2@U?$less@VName@Imf@@@std@@V?$allocator@U?$pair@$$CBVName@Imf@@USlice@2@@std@@@5@$0A@@std@@@2@@Z 100b0520 f i ImfFrameBuffer.obj
 0002:000406d0       ?_Color@?$_Tree_val@V?$_Tmap_traits@VName@Imf@@USlice@2@U?$less@VName@Imf@@@std@@V?$allocator@U?$pair@$$CBVName@Imf@@USlice@2@@std@@@5@$0A@@std@@@std@@SAAADPAU_Node@?$_Tree_nod@V?$_Tmap_traits@VName@Imf@@USlice@2@U?$less@VName@Imf@@@std@@V?$allocator@U?$pair@$$CBVName@Imf@@USlice@2@@std@@@5@$0A@@std@@@2@@Z 100b06d0 f i ImfFrameBuffer.obj
 0002:00040710       ?deallocate@?$allocator@U_Node@?$_Tree_nod@V?$_Tmap_traits@VName@Imf@@USlice@2@U?$less@VName@Imf@@@std@@V?$allocator@U?$pair@$$CBVName@Imf@@USlice@2@@std@@@5@$0A@@std@@@std@@@std@@QAEXPAU_Node@?$_Tree_nod@V?$_Tmap_traits@VName@Imf@@USlice@2@U?$less@VName@Imf@@@std@@V?$allocator@U?$pair@$$CBVName@Imf@@USlice@2@@std@@@5@$0A@@std@@@2@I@Z 100b0710 f i ImfFrameBuffer.obj
 0002:00040770       ??F?$_Tree_iterator@V?$_Tree_val@V?$_Tmap_traits@VName@Imf@@USlice@2@U?$less@VName@Imf@@@std@@V?$allocator@U?$pair@$$CBVName@Imf@@USlice@2@@std@@@5@$0A@@std@@@std@@@std@@QAEAAV01@XZ 100b0770 f i ImfFrameBuffer.obj
 0002:000407d0       ??F?$_Tree_unchecked_const_iterator@V?$_Tree_val@V?$_Tmap_traits@VName@Imf@@USlice@2@U?$less@VName@Imf@@@std@@V?$allocator@U?$pair@$$CBVName@Imf@@USlice@2@@std@@@5@$0A@@std@@@std@@U_Iterator_base12@2@@std@@QAEAAV01@XZ 100b07d0 f i ImfFrameBuffer.obj
 0002:00040930       ??0?$pair@V?$_Tree_iterator@V?$_Tree_val@V?$_Tmap_traits@VName@Imf@@USlice@2@U?$less@VName@Imf@@@std@@V?$allocator@U?$pair@$$CBVName@Imf@@USlice@2@@std@@@5@$0A@@std@@@std@@@std@@_N@std@@QAE@$$QAV?$_Tree_iterator@V?$_Tree_val@V?$_Tmap_traits@VName@Imf@@USlice@2@U?$less@VName@Imf@@@std@@V?$allocator@U?$pair@$$CBVName@Imf@@USlice@2@@std@@@5@$0A@@std@@@std@@@1@$$QA_N@Z 100b0930 f i ImfFrameBuffer.obj
 0002:000409b0       ?_Max@?$_Tree_val@V?$_Tmap_traits@VName@Imf@@USlice@2@U?$less@VName@Imf@@@std@@V?$allocator@U?$pair@$$CBVName@Imf@@USlice@2@@std@@@5@$0A@@std@@@std@@SAPAU_Node@?$_Tree_nod@V?$_Tmap_traits@VName@Imf@@USlice@2@U?$less@VName@Imf@@@std@@V?$allocator@U?$pair@$$CBVName@Imf@@USlice@2@@std@@@5@$0A@@std@@@2@PAU342@@Z 100b09b0 f i ImfFrameBuffer.obj
 0002:00040a30       ?max_size@?$allocator@U?$pair@$$CBVName@Imf@@USlice@2@@std@@@std@@QBEIXZ 100b0a30 f i ImfFrameBuffer.obj
 0002:00040aa0       ??0?$_Pair_base@V?$_Tree_iterator@V?$_Tree_val@V?$_Tmap_traits@VName@Imf@@USlice@2@U?$less@VName@Imf@@@std@@V?$allocator@U?$pair@$$CBVName@Imf@@USlice@2@@std@@@5@$0A@@std@@@std@@@std@@_N@std@@QAE@$$QAV?$_Tree_iterator@V?$_Tree_val@V?$_Tmap_traits@VName@Imf@@USlice@2@U?$less@VName@Imf@@@std@@V?$allocator@U?$pair@$$CBVName@Imf@@USlice@2@@std@@@5@$0A@@std@@@std@@@1@$$QA_N@Z 100b0aa0 f i ImfFrameBuffer.obj
 0002:00040b70       ??$forward@U?$pair@$$CBVName@Imf@@USlice@2@@std@@@std@@YA$$QAU?$pair@$$CBVName@Imf@@USlice@2@@0@AAU10@@Z 100b0b70 f i ImfFrameBuffer.obj
 0002:00040bb0       ??$_Buynode@U?$pair@$$CBVName@Imf@@USlice@2@@std@@@?$_Tree_val@V?$_Tmap_traits@VName@Imf@@USlice@2@U?$less@VName@Imf@@@std@@V?$allocator@U?$pair@$$CBVName@Imf@@USlice@2@@std@@@5@$0A@@std@@@std@@QAEPAU_Node@?$_Tree_nod@V?$_Tmap_traits@VName@Imf@@USlice@2@U?$less@VName@Imf@@@std@@V?$allocator@U?$pair@$$CBVName@Imf@@USlice@2@@std@@@5@$0A@@std@@@1@$$QAU?$pair@$$CBVName@Imf@@USlice@2@@1@@Z 100b0bb0 f i ImfFrameBuffer.obj
 0002:00040d00       ??$addressof@U?$pair@$$CBVName@Imf@@USlice@2@@std@@@std@@YAPAU?$pair@$$CBVName@Imf@@USlice@2@@0@AAU10@@Z 100b0d00 f i ImfFrameBuffer.obj
 0002:00040d40       ??$_Dest_val@V?$allocator@U?$pair@$$CBVName@Imf@@USlice@2@@std@@@std@@U?$pair@$$CBVName@Imf@@USlice@2@@2@@std@@YAXAAV?$allocator@U?$pair@$$CBVName@Imf@@USlice@2@@std@@@0@PAU?$pair@$$CBVName@Imf@@USlice@2@@0@@Z 100b0d40 f i ImfFrameBuffer.obj
 0002:00040d90       ??$?0AAV?$_Tree_iterator@V?$_Tree_val@V?$_Tmap_traits@VName@Imf@@USlice@2@U?$less@VName@Imf@@@std@@V?$allocator@U?$pair@$$CBVName@Imf@@USlice@2@@std@@@5@$0A@@std@@@std@@@std@@_N@?$pair@V?$_Tree_iterator@V?$_Tree_val@V?$_Tmap_traits@VName@Imf@@USlice@2@U?$less@VName@Imf@@@std@@V?$allocator@U?$pair@$$CBVName@Imf@@USlice@2@@std@@@5@$0A@@std@@@std@@@std@@_N@std@@QAE@AAV?$_Tree_iterator@V?$_Tree_val@V?$_Tmap_traits@VName@Imf@@USlice@2@U?$less@VName@Imf@@@std@@V?$allocator@U?$pair@$$CBVName@Imf@@USlice@2@@std@@@5@$0A@@std@@@std@@@1@$$QA_N@Z 100b0d90 f i ImfFrameBuffer.obj
 0002:00040e10       ??$move@AAV?$_Tree_iterator@V?$_Tree_val@V?$_Tmap_traits@VName@Imf@@USlice@2@U?$less@VName@Imf@@@std@@V?$allocator@U?$pair@$$CBVName@Imf@@USlice@2@@std@@@5@$0A@@std@@@std@@@std@@@std@@YA$$QAV?$_Tree_iterator@V?$_Tree_val@V?$_Tmap_traits@VName@Imf@@USlice@2@U?$less@VName@Imf@@@std@@V?$allocator@U?$pair@$$CBVName@Imf@@USlice@2@@std@@@5@$0A@@std@@@std@@@0@AAV10@@Z 100b0e10 f i ImfFrameBuffer.obj
 0002:00040e50       ?_Buynode@?$_Tree_val@V?$_Tmap_traits@VName@Imf@@USlice@2@U?$less@VName@Imf@@@std@@V?$allocator@U?$pair@$$CBVName@Imf@@USlice@2@@std@@@5@$0A@@std@@@std@@QAEPAU_Node@?$_Tree_nod@V?$_Tmap_traits@VName@Imf@@USlice@2@U?$less@VName@Imf@@@std@@V?$allocator@U?$pair@$$CBVName@Imf@@USlice@2@@std@@@5@$0A@@std@@@2@XZ 100b0e50 f i ImfFrameBuffer.obj
 0002:00040f20       ?destroy@?$allocator@U?$pair@$$CBVName@Imf@@USlice@2@@std@@@std@@QAEXPAU?$pair@$$CBVName@Imf@@USlice@2@@2@@Z 100b0f20 f i ImfFrameBuffer.obj
 0002:00040f80       ?allocate@?$allocator@U_Node@?$_Tree_nod@V?$_Tmap_traits@VName@Imf@@USlice@2@U?$less@VName@Imf@@@std@@V?$allocator@U?$pair@$$CBVName@Imf@@USlice@2@@std@@@5@$0A@@std@@@std@@@std@@QAEPAU_Node@?$_Tree_nod@V?$_Tmap_traits@VName@Imf@@USlice@2@U?$less@VName@Imf@@@std@@V?$allocator@U?$pair@$$CBVName@Imf@@USlice@2@@std@@@5@$0A@@std@@@2@I@Z 100b0f80 f i ImfFrameBuffer.obj
 0002:00040fe0       ??$_Cons_val@V?$allocator@U?$pair@$$CBVName@Imf@@USlice@2@@std@@@std@@U?$pair@$$CBVName@Imf@@USlice@2@@2@U32@@std@@YAXAAV?$allocator@U?$pair@$$CBVName@Imf@@USlice@2@@std@@@0@PAU?$pair@$$CBVName@Imf@@USlice@2@@0@$$QAU20@@Z 100b0fe0 f i ImfFrameBuffer.obj
 0002:00041040       ??$forward@AAV?$_Tree_iterator@V?$_Tree_val@V?$_Tmap_traits@VName@Imf@@USlice@2@U?$less@VName@Imf@@@std@@V?$allocator@U?$pair@$$CBVName@Imf@@USlice@2@@std@@@5@$0A@@std@@@std@@@std@@@std@@YAAAV?$_Tree_iterator@V?$_Tree_val@V?$_Tmap_traits@VName@Imf@@USlice@2@U?$less@VName@Imf@@@std@@V?$allocator@U?$pair@$$CBVName@Imf@@USlice@2@@std@@@5@$0A@@std@@@std@@@0@AAV10@@Z 100b1040 f i ImfFrameBuffer.obj
 0002:00041080       ??$?0AAV?$_Tree_iterator@V?$_Tree_val@V?$_Tmap_traits@VName@Imf@@USlice@2@U?$less@VName@Imf@@@std@@V?$allocator@U?$pair@$$CBVName@Imf@@USlice@2@@std@@@5@$0A@@std@@@std@@@std@@_N@?$_Pair_base@V?$_Tree_iterator@V?$_Tree_val@V?$_Tmap_traits@VName@Imf@@USlice@2@U?$less@VName@Imf@@@std@@V?$allocator@U?$pair@$$CBVName@Imf@@USlice@2@@std@@@5@$0A@@std@@@std@@@std@@_N@std@@QAE@AAV?$_Tree_iterator@V?$_Tree_val@V?$_Tmap_traits@VName@Imf@@USlice@2@U?$less@VName@Imf@@@std@@V?$allocator@U?$pair@$$CBVName@Imf@@USlice@2@@std@@@5@$0A@@std@@@std@@@1@$$QA_N@Z 100b1080 f i ImfFrameBuffer.obj
 0002:00041150       ??$_Destroy@U?$pair@$$CBVName@Imf@@USlice@2@@std@@@std@@YAXPAU?$pair@$$CBVName@Imf@@USlice@2@@0@@Z 100b1150 f i ImfFrameBuffer.obj
 0002:00041180       ??$_Allocate@U_Node@?$_Tree_nod@V?$_Tmap_traits@VName@Imf@@USlice@2@U?$less@VName@Imf@@@std@@V?$allocator@U?$pair@$$CBVName@Imf@@USlice@2@@std@@@5@$0A@@std@@@std@@@std@@YAPAU_Node@?$_Tree_nod@V?$_Tmap_traits@VName@Imf@@USlice@2@U?$less@VName@Imf@@@std@@V?$allocator@U?$pair@$$CBVName@Imf@@USlice@2@@std@@@5@$0A@@std@@@0@IPAU120@@Z 100b1180 f i ImfFrameBuffer.obj
 0002:00041230       ?construct@?$allocator@U?$pair@$$CBVName@Imf@@USlice@2@@std@@@std@@QAEXPAU?$pair@$$CBVName@Imf@@USlice@2@@2@$$QAU32@@Z 100b1230 f i ImfFrameBuffer.obj
 0002:00041330       ??$?0$$CBVName@Imf@@USlice@1@@?$pair@$$CBVName@Imf@@USlice@2@@std@@QAE@$$QAU01@@Z 100b1330 f i ImfFrameBuffer.obj
 0002:000413b0       ??0?$_Pair_base@$$CBVName@Imf@@USlice@2@@std@@QAE@$$QBVName@Imf@@$$QAUSlice@3@@Z 100b13b0 f i ImfFrameBuffer.obj
 0002:00041440       ??$forward@USlice@Imf@@@std@@YA$$QAUSlice@Imf@@AAU12@@Z 100b1440 f i ImfFrameBuffer.obj
 0002:00041480       ?guessExactFps@Imf@@YA?AVRational@1@N@Z 100b1480 f   ImfFramesPerSecond.obj
 0002:000414f0       ?guessExactFps@Imf@@YA?AVRational@1@ABV21@@Z 100b14f0 f   ImfFramesPerSecond.obj
 0002:00041700       ??BRational@Imf@@QBENXZ    100b1700 f i ImfFramesPerSecond.obj
 0002:00041760       ?fps_23_976@Imf@@YA?AVRational@1@XZ 100b1760 f i ImfFramesPerSecond.obj
 0002:000417c0       ??0Rational@Imf@@QAE@HH@Z  100b17c0 f i ImfFramesPerSecond.obj
 0002:00041810       ?fps_29_97@Imf@@YA?AVRational@1@XZ 100b1810 f i ImfFramesPerSecond.obj
 0002:00041870       ?fps_47_952@Imf@@YA?AVRational@1@XZ 100b1870 f i ImfFramesPerSecond.obj
 0002:000418d0       ?fps_59_94@Imf@@YA?AVRational@1@XZ 100b18d0 f i ImfFramesPerSecond.obj
 0002:00041930       ??$abs@N@Imath@@YANN@Z     100b1930 f i ImfFramesPerSecond.obj
 0002:000419b0       ?initialize@?A0x1f5ff9f2@Imf@@YAXAAVHeader@2@ABV?$Box@V?$Vec2@H@Imath@@@Imath@@1MABV?$Vec2@M@5@MW4LineOrder@2@W4Compression@2@@Z 100b19b0 f   ImfHeader.obj
 0002:00041d30       ?usesLongNames@?A0x1f5ff9f2@Imf@@YA_NABVHeader@2@@Z 100b1d30 f   ImfHeader.obj
 0002:00042020       ??EConstIterator@Header@Imf@@QAEAAV012@XZ 100b2020 f i ImfHeader.obj
 0002:00042080       ?name@ConstIterator@Header@Imf@@QBEPBDXZ 100b2080 f i ImfHeader.obj
 0002:000420e0       ?attribute@ConstIterator@Header@Imf@@QBEABVAttribute@3@XZ 100b20e0 f i ImfHeader.obj
 0002:00042140       ??9Imf@@YA_NABVConstIterator@Header@0@0@Z 100b2140 f i ImfHeader.obj
 0002:000421a0       ??0Header@Imf@@QAE@HHMABV?$Vec2@M@Imath@@MW4LineOrder@1@W4Compression@1@@Z 100b21a0 f   ImfHeader.obj
 0002:00042310       ??1?$map@VName@Imf@@PAVAttribute@2@U?$less@VName@Imf@@@std@@V?$allocator@U?$pair@$$CBVName@Imf@@PAVAttribute@2@@std@@@5@@std@@QAE@XZ 100b2310 f i ImfHeader.obj
 0002:00042360       ??0Header@Imf@@QAE@HHABV?$Box@V?$Vec2@H@Imath@@@Imath@@MABV?$Vec2@M@3@MW4LineOrder@1@W4Compression@1@@Z 100b2360 f   ImfHeader.obj
 0002:000424d0       ??0Header@Imf@@QAE@ABV?$Box@V?$Vec2@H@Imath@@@Imath@@0MABV?$Vec2@M@3@MW4LineOrder@1@W4Compression@1@@Z 100b24d0 f   ImfHeader.obj
 0002:000425c0       ??0Header@Imf@@QAE@ABV01@@Z 100b25c0 f   ImfHeader.obj
 0002:00042760       ??1Header@Imf@@QAE@XZ      100b2760 f   ImfHeader.obj
 0002:00042940       ??4Header@Imf@@QAEAAV01@ABV01@@Z 100b2940 f   ImfHeader.obj
 0002:00042d10       ?insert@Header@Imf@@QAEXQBDABVAttribute@2@@Z 100b2d10 f   ImfHeader.obj
 0002:00043300       ??0TypeExc@Iex@@QAE@AAV?$basic_stringstream@DU?$char_traits@D@std@@V?$allocator@D@2@@std@@@Z 100b3300 f i ImfHeader.obj
 0002:00043370       ?insert@Header@Imf@@QAEXABV?$basic_string@DU?$char_traits@D@std@@V?$allocator@D@2@@std@@ABVAttribute@2@@Z 100b3370 f   ImfHeader.obj
 0002:000433e0       ??AHeader@Imf@@QAEAAVAttribute@1@QBD@Z 100b33e0 f   ImfHeader.obj
 0002:00043650       ??AHeader@Imf@@QBEABVAttribute@1@QBD@Z 100b3650 f   ImfHeader.obj
 0002:000438c0       ??AHeader@Imf@@QAEAAVAttribute@1@ABV?$basic_string@DU?$char_traits@D@std@@V?$allocator@D@2@@std@@@Z 100b38c0 f   ImfHeader.obj
 0002:00043920       ??AHeader@Imf@@QBEABVAttribute@1@ABV?$basic_string@DU?$char_traits@D@std@@V?$allocator@D@2@@std@@@Z 100b3920 f   ImfHeader.obj
 0002:00043980       ?begin@Header@Imf@@QAE?AVIterator@12@XZ 100b3980 f   ImfHeader.obj
 0002:00043a80       ??0Iterator@Header@Imf@@QAE@ABV?$_Tree_iterator@V?$_Tree_val@V?$_Tmap_traits@VName@Imf@@PAVAttribute@2@U?$less@VName@Imf@@@std@@V?$allocator@U?$pair@$$CBVName@Imf@@PAVAttribute@2@@std@@@5@$0A@@std@@@std@@@std@@@Z 100b3a80 f i ImfHeader.obj
 0002:00043ae0       ??0?$_Tree_iterator@V?$_Tree_val@V?$_Tmap_traits@VName@Imf@@PAVAttribute@2@U?$less@VName@Imf@@@std@@V?$allocator@U?$pair@$$CBVName@Imf@@PAVAttribute@2@@std@@@5@$0A@@std@@@std@@@std@@QAE@ABV01@@Z 100b3ae0 f i ImfHeader.obj
 0002:00043b40       ?begin@Header@Imf@@QBE?AVConstIterator@12@XZ 100b3b40 f   ImfHeader.obj
 0002:00043c40       ??0ConstIterator@Header@Imf@@QAE@ABV?$_Tree_const_iterator@V?$_Tree_val@V?$_Tmap_traits@VName@Imf@@PAVAttribute@2@U?$less@VName@Imf@@@std@@V?$allocator@U?$pair@$$CBVName@Imf@@PAVAttribute@2@@std@@@5@$0A@@std@@@std@@@std@@@Z 100b3c40 f i ImfHeader.obj
 0002:00043ca0       ?end@Header@Imf@@QAE?AVIterator@12@XZ 100b3ca0 f   ImfHeader.obj
 0002:00043da0       ?end@Header@Imf@@QBE?AVConstIterator@12@XZ 100b3da0 f   ImfHeader.obj
 0002:00043ea0       ?find@Header@Imf@@QAE?AVIterator@12@QBD@Z 100b3ea0 f   ImfHeader.obj
 0002:00043fd0       ?find@Header@Imf@@QBE?AVConstIterator@12@QBD@Z 100b3fd0 f   ImfHeader.obj
 0002:00044100       ?find@Header@Imf@@QAE?AVIterator@12@ABV?$basic_string@DU?$char_traits@D@std@@V?$allocator@D@2@@std@@@Z 100b4100 f   ImfHeader.obj
 0002:00044190       ?find@Header@Imf@@QBE?AVConstIterator@12@ABV?$basic_string@DU?$char_traits@D@std@@V?$allocator@D@2@@std@@@Z 100b4190 f   ImfHeader.obj
 0002:00044220       ?displayWindow@Header@Imf@@QAEAAV?$Box@V?$Vec2@H@Imath@@@Imath@@XZ 100b4220 f   ImfHeader.obj
 0002:00044280       ?displayWindow@Header@Imf@@QBEABV?$Box@V?$Vec2@H@Imath@@@Imath@@XZ 100b4280 f   ImfHeader.obj
 0002:000442e0       ?dataWindow@Header@Imf@@QAEAAV?$Box@V?$Vec2@H@Imath@@@Imath@@XZ 100b42e0 f   ImfHeader.obj
 0002:00044340       ?dataWindow@Header@Imf@@QBEABV?$Box@V?$Vec2@H@Imath@@@Imath@@XZ 100b4340 f   ImfHeader.obj
 0002:000443a0       ?pixelAspectRatio@Header@Imf@@QAEAAMXZ 100b43a0 f   ImfHeader.obj
 0002:00044400       ?pixelAspectRatio@Header@Imf@@QBEABMXZ 100b4400 f   ImfHeader.obj
 0002:00044460       ?screenWindowCenter@Header@Imf@@QAEAAV?$Vec2@M@Imath@@XZ 100b4460 f   ImfHeader.obj
 0002:000444c0       ?screenWindowCenter@Header@Imf@@QBEABV?$Vec2@M@Imath@@XZ 100b44c0 f   ImfHeader.obj
 0002:00044520       ?screenWindowWidth@Header@Imf@@QAEAAMXZ 100b4520 f   ImfHeader.obj
 0002:00044580       ?screenWindowWidth@Header@Imf@@QBEABMXZ 100b4580 f   ImfHeader.obj
 0002:000445e0       ?channels@Header@Imf@@QAEAAVChannelList@2@XZ 100b45e0 f   ImfHeader.obj
 0002:00044640       ?channels@Header@Imf@@QBEABVChannelList@2@XZ 100b4640 f   ImfHeader.obj
 0002:000446a0       ?lineOrder@Header@Imf@@QAEAAW4LineOrder@2@XZ 100b46a0 f   ImfHeader.obj
 0002:00044700       ?lineOrder@Header@Imf@@QBEABW4LineOrder@2@XZ 100b4700 f   ImfHeader.obj
 0002:00044760       ?compression@Header@Imf@@QAEAAW4Compression@2@XZ 100b4760 f   ImfHeader.obj
 0002:000447c0       ?compression@Header@Imf@@QBEABW4Compression@2@XZ 100b47c0 f   ImfHeader.obj
 0002:00044820       ?setTileDescription@Header@Imf@@QAEXABVTileDescription@2@@Z 100b4820 f   ImfHeader.obj
 0002:00044900       ?hasTileDescription@Header@Imf@@QBE_NXZ 100b4900 f   ImfHeader.obj
 0002:00044960       ?tileDescription@Header@Imf@@QAEAAVTileDescription@2@XZ 100b4960 f   ImfHeader.obj
 0002:000449c0       ?tileDescription@Header@Imf@@QBEABVTileDescription@2@XZ 100b49c0 f   ImfHeader.obj
 0002:00044a20       ?setPreviewImage@Header@Imf@@QAEXABVPreviewImage@2@@Z 100b4a20 f   ImfHeader.obj
 0002:00044b00       ?previewImage@Header@Imf@@QAEAAVPreviewImage@2@XZ 100b4b00 f   ImfHeader.obj
 0002:00044b60       ?previewImage@Header@Imf@@QBEABVPreviewImage@2@XZ 100b4b60 f   ImfHeader.obj
 0002:00044bc0       ?hasPreviewImage@Header@Imf@@QBE_NXZ 100b4bc0 f   ImfHeader.obj
 0002:00044c20       ?sanityCheck@Header@Imf@@QBEX_N@Z 100b4c20 f   ImfHeader.obj
 0002:00046230       ??0ArgExc@Iex@@QAE@PBD@Z   100b6230 f i ImfHeader.obj
 0002:000462a0       ?setMaxImageSize@Header@Imf@@SAXHH@Z 100b62a0 f   ImfHeader.obj
 0002:000462f0       ?setMaxTileSize@Header@Imf@@SAXHH@Z 100b62f0 f   ImfHeader.obj
 0002:00046340       ?writeTo@Header@Imf@@QBE_KAAVOStream@2@_N@Z 100b6340 f   ImfHeader.obj
 0002:00046700       ?str@StdOSStream@Imf@@QBE?AV?$basic_string@DU?$char_traits@D@std@@V?$allocator@D@2@@std@@XZ 100b6700 f i ImfHeader.obj
 0002:00046780       ??1StdOSStream@Imf@@UAE@XZ 100b6780 f i ImfHeader.obj
 0002:00046830       ??_D?$basic_ostringstream@DU?$char_traits@D@std@@V?$allocator@D@2@@std@@QAEXXZ 100b6830 f i ImfHeader.obj
 0002:000468a0       ?readFrom@Header@Imf@@QAEXAAVIStream@2@AAH@Z 100b68a0 f   ImfHeader.obj
 0002:00047120       ?getVersion@Imf@@YAHH@Z    100b7120 f i ImfHeader.obj
 0002:00047160       ?getFlags@Imf@@YAHH@Z      100b7160 f i ImfHeader.obj
 0002:000471a0       ?supportsFlags@Imf@@YA_NH@Z 100b71a0 f i ImfHeader.obj
 0002:000471f0       ?staticInitialize@Imf@@YAXXZ 100b71f0 f   ImfHeader.obj
 0002:000473e0       ?data@?$basic_string@DU?$char_traits@D@std@@V?$allocator@D@2@@std@@QBEPBDXZ 100b73e0 f i ImfHeader.obj
 0002:00047430       ?length@?$basic_string@DU?$char_traits@D@std@@V?$allocator@D@2@@std@@QBEIXZ 100b7430 f i ImfHeader.obj
 0002:00047470       ??0?$map@VName@Imf@@PAVAttribute@2@U?$less@VName@Imf@@@std@@V?$allocator@U?$pair@$$CBVName@Imf@@PAVAttribute@2@@std@@@5@@std@@QAE@XZ 100b7470 f i ImfHeader.obj
 0002:000474e0       ??A?$map@VName@Imf@@PAVAttribute@2@U?$less@VName@Imf@@@std@@V?$allocator@U?$pair@$$CBVName@Imf@@PAVAttribute@2@@std@@@5@@std@@QAEAAPAVAttribute@Imf@@ABVName@3@@Z 100b74e0 f i ImfHeader.obj
 0002:00047790       ??1?$_Tree@V?$_Tmap_traits@VName@Imf@@PAVAttribute@2@U?$less@VName@Imf@@@std@@V?$allocator@U?$pair@$$CBVName@Imf@@PAVAttribute@2@@std@@@5@$0A@@std@@@std@@QAE@XZ 100b7790 f i ImfHeader.obj
 0002:00047830       ?begin@?$_Tree@V?$_Tmap_traits@VName@Imf@@PAVAttribute@2@U?$less@VName@Imf@@@std@@V?$allocator@U?$pair@$$CBVName@Imf@@PAVAttribute@2@@std@@@5@$0A@@std@@@std@@QAE?AV?$_Tree_iterator@V?$_Tree_val@V?$_Tmap_traits@VName@Imf@@PAVAttribute@2@U?$less@VName@Imf@@@std@@V?$allocator@U?$pair@$$CBVName@Imf@@PAVAttribute@2@@std@@@5@$0A@@std@@@std@@@2@XZ 100b7830 f i ImfHeader.obj
 0002:000478c0       ?begin@?$_Tree@V?$_Tmap_traits@VName@Imf@@PAVAttribute@2@U?$less@VName@Imf@@@std@@V?$allocator@U?$pair@$$CBVName@Imf@@PAVAttribute@2@@std@@@5@$0A@@std@@@std@@QBE?AV?$_Tree_const_iterator@V?$_Tree_val@V?$_Tmap_traits@VName@Imf@@PAVAttribute@2@U?$less@VName@Imf@@@std@@V?$allocator@U?$pair@$$CBVName@Imf@@PAVAttribute@2@@std@@@5@$0A@@std@@@std@@@2@XZ 100b78c0 f i ImfHeader.obj
 0002:00047950       ?end@?$_Tree@V?$_Tmap_traits@VName@Imf@@PAVAttribute@2@U?$less@VName@Imf@@@std@@V?$allocator@U?$pair@$$CBVName@Imf@@PAVAttribute@2@@std@@@5@$0A@@std@@@std@@QAE?AV?$_Tree_iterator@V?$_Tree_val@V?$_Tmap_traits@VName@Imf@@PAVAttribute@2@U?$less@VName@Imf@@@std@@V?$allocator@U?$pair@$$CBVName@Imf@@PAVAttribute@2@@std@@@5@$0A@@std@@@std@@@2@XZ 100b7950 f i ImfHeader.obj
 0002:000479e0       ?end@?$_Tree@V?$_Tmap_traits@VName@Imf@@PAVAttribute@2@U?$less@VName@Imf@@@std@@V?$allocator@U?$pair@$$CBVName@Imf@@PAVAttribute@2@@std@@@5@$0A@@std@@@std@@QBE?AV?$_Tree_const_iterator@V?$_Tree_val@V?$_Tmap_traits@VName@Imf@@PAVAttribute@2@U?$less@VName@Imf@@@std@@V?$allocator@U?$pair@$$CBVName@Imf@@PAVAttribute@2@@std@@@5@$0A@@std@@@std@@@2@XZ 100b79e0 f i ImfHeader.obj
 0002:00047a70       ?erase@?$_Tree@V?$_Tmap_traits@VName@Imf@@PAVAttribute@2@U?$less@VName@Imf@@@std@@V?$allocator@U?$pair@$$CBVName@Imf@@PAVAttribute@2@@std@@@5@$0A@@std@@@std@@QAE?AV?$_Tree_iterator@V?$_Tree_val@V?$_Tmap_traits@VName@Imf@@PAVAttribute@2@U?$less@VName@Imf@@@std@@V?$allocator@U?$pair@$$CBVName@Imf@@PAVAttribute@2@@std@@@5@$0A@@std@@@std@@@2@V?$_Tree_const_iterator@V?$_Tree_val@V?$_Tmap_traits@VName@Imf@@PAVAttribute@2@U?$less@VName@Imf@@@std@@V?$allocator@U?$pair@$$CBVName@Imf@@PAVAttribute@2@@std@@@5@$0A@@std@@@std@@@2@0@Z 100b7a70 f i ImfHeader.obj
 0002:00047d80       ?find@?$_Tree@V?$_Tmap_traits@VName@Imf@@PAVAttribute@2@U?$less@VName@Imf@@@std@@V?$allocator@U?$pair@$$CBVName@Imf@@PAVAttribute@2@@std@@@5@$0A@@std@@@std@@QAE?AV?$_Tree_iterator@V?$_Tree_val@V?$_Tmap_traits@VName@Imf@@PAVAttribute@2@U?$less@VName@Imf@@@std@@V?$allocator@U?$pair@$$CBVName@Imf@@PAVAttribute@2@@std@@@5@$0A@@std@@@std@@@2@ABVName@Imf@@@Z 100b7d80 f i ImfHeader.obj
 0002:00048080       ?find@?$_Tree@V?$_Tmap_traits@VName@Imf@@PAVAttribute@2@U?$less@VName@Imf@@@std@@V?$allocator@U?$pair@$$CBVName@Imf@@PAVAttribute@2@@std@@@5@$0A@@std@@@std@@QBE?AV?$_Tree_const_iterator@V?$_Tree_val@V?$_Tmap_traits@VName@Imf@@PAVAttribute@2@U?$less@VName@Imf@@@std@@V?$allocator@U?$pair@$$CBVName@Imf@@PAVAttribute@2@@std@@@5@$0A@@std@@@std@@@2@ABVName@Imf@@@Z 100b8080 f i ImfHeader.obj
 0002:00048380       ??C?$_Tree_iterator@V?$_Tree_val@V?$_Tmap_traits@VName@Imf@@PAVAttribute@2@U?$less@VName@Imf@@@std@@V?$allocator@U?$pair@$$CBVName@Imf@@PAVAttribute@2@@std@@@5@$0A@@std@@@std@@@std@@QBEPAU?$pair@$$CBVName@Imf@@PAVAttribute@2@@1@XZ 100b8380 f i ImfHeader.obj
 0002:000483d0       ??E?$_Tree_iterator@V?$_Tree_val@V?$_Tmap_traits@VName@Imf@@PAVAttribute@2@U?$less@VName@Imf@@@std@@V?$allocator@U?$pair@$$CBVName@Imf@@PAVAttribute@2@@std@@@5@$0A@@std@@@std@@@std@@QAEAAV01@XZ 100b83d0 f i ImfHeader.obj
 0002:00048430       ??E?$_Tree_const_iterator@V?$_Tree_val@V?$_Tmap_traits@VName@Imf@@PAVAttribute@2@U?$less@VName@Imf@@@std@@V?$allocator@U?$pair@$$CBVName@Imf@@PAVAttribute@2@@std@@@5@$0A@@std@@@std@@@std@@QAEAAV01@XZ 100b8430 f i ImfHeader.obj
 0002:00048560       ??9?$_Tree_const_iterator@V?$_Tree_val@V?$_Tmap_traits@VName@Imf@@PAVAttribute@2@U?$less@VName@Imf@@@std@@V?$allocator@U?$pair@$$CBVName@Imf@@PAVAttribute@2@@std@@@5@$0A@@std@@@std@@@std@@QBE_NABV01@@Z 100b8560 f i ImfHeader.obj
 0002:000485d0       ??C?$_Tree_unchecked_const_iterator@V?$_Tree_val@V?$_Tmap_traits@VName@Imf@@PAVAttribute@2@U?$less@VName@Imf@@@std@@V?$allocator@U?$pair@$$CBVName@Imf@@PAVAttribute@2@@std@@@5@$0A@@std@@@std@@U_Iterator_base12@2@@std@@QBEPBU?$pair@$$CBVName@Imf@@PAVAttribute@2@@1@XZ 100b85d0 f i ImfHeader.obj
 0002:00048620       ??1?$basic_ostringstream@DU?$char_traits@D@std@@V?$allocator@D@2@@std@@UAE@XZ 100b8620 f i ImfHeader.obj
 0002:000486f0       ?str@?$basic_ostringstream@DU?$char_traits@D@std@@V?$allocator@D@2@@std@@QBE?AV?$basic_string@DU?$char_traits@D@std@@V?$allocator@D@2@@2@XZ 100b86f0 f i ImfHeader.obj
 0002:00048770       ??4?$_Tree_iterator@V?$_Tree_val@V?$_Tmap_traits@VName@Imf@@PAVAttribute@2@U?$less@VName@Imf@@@std@@V?$allocator@U?$pair@$$CBVName@Imf@@PAVAttribute@2@@std@@@5@$0A@@std@@@std@@@std@@QAEAAV01@ABV01@@Z 100b8770 f i ImfHeader.obj
 0002:000487d0       ??_E?$basic_ostringstream@DU?$char_traits@D@std@@V?$allocator@D@2@@std@@UAEPAXI@Z 100b87d0 f i ImfHeader.obj
 0002:000487d0       ??_G?$basic_ostringstream@DU?$char_traits@D@std@@V?$allocator@D@2@@std@@UAEPAXI@Z 100b87d0 f i ImfHeader.obj
 0002:00048850       ??4?$_Tree_const_iterator@V?$_Tree_val@V?$_Tmap_traits@VName@Imf@@PAVAttribute@2@U?$less@VName@Imf@@@std@@V?$allocator@U?$pair@$$CBVName@Imf@@PAVAttribute@2@@std@@@5@$0A@@std@@@std@@@std@@QAEAAV01@ABV01@@Z 100b8850 f i ImfHeader.obj
 0002:000488b0       ??4?$_Tree_unchecked_const_iterator@V?$_Tree_val@V?$_Tmap_traits@VName@Imf@@PAVAttribute@2@U?$less@VName@Imf@@@std@@V?$allocator@U?$pair@$$CBVName@Imf@@PAVAttribute@2@@std@@@5@$0A@@std@@@std@@U_Iterator_base12@2@@std@@QAEAAV01@ABV01@@Z 100b88b0 f i ImfHeader.obj
 0002:00048920       ??4?$_Iterator012@Ubidirectional_iterator_tag@std@@U?$pair@$$CBVName@Imf@@PAVAttribute@2@@2@HPBU32@ABU32@U_Iterator_base12@2@@std@@QAEAAU01@ABU01@@Z 100b8920 f i ImfHeader.obj
 0002:00048980       ?str@?$basic_stringbuf@DU?$char_traits@D@std@@V?$allocator@D@2@@std@@QBE?AV?$basic_string@DU?$char_traits@D@std@@V?$allocator@D@2@@2@XZ 100b8980 f i ImfHeader.obj
 0002:00048cb0       ??0?$basic_string@DU?$char_traits@D@std@@V?$allocator@D@2@@std@@QAE@PBDI@Z 100b8cb0 f i ImfHeader.obj
 0002:00048d80       ??0?$_Tree@V?$_Tmap_traits@VName@Imf@@PAVAttribute@2@U?$less@VName@Imf@@@std@@V?$allocator@U?$pair@$$CBVName@Imf@@PAVAttribute@2@@std@@@5@$0A@@std@@@std@@QAE@ABU?$less@VName@Imf@@@1@ABV?$allocator@U?$pair@$$CBVName@Imf@@PAVAttribute@2@@std@@@1@@Z 100b8d80 f i ImfHeader.obj
 0002:00048df0       ?erase@?$_Tree@V?$_Tmap_traits@VName@Imf@@PAVAttribute@2@U?$less@VName@Imf@@@std@@V?$allocator@U?$pair@$$CBVName@Imf@@PAVAttribute@2@@std@@@5@$0A@@std@@@std@@QAE?AV?$_Tree_iterator@V?$_Tree_val@V?$_Tmap_traits@VName@Imf@@PAVAttribute@2@U?$less@VName@Imf@@@std@@V?$allocator@U?$pair@$$CBVName@Imf@@PAVAttribute@2@@std@@@5@$0A@@std@@@std@@@2@V?$_Tree_const_iterator@V?$_Tree_val@V?$_Tmap_traits@VName@Imf@@PAVAttribute@2@U?$less@VName@Imf@@@std@@V?$allocator@U?$pair@$$CBVName@Imf@@PAVAttribute@2@@std@@@5@$0A@@std@@@std@@@2@@Z 100b8df0 f i ImfHeader.obj
 0002:00049850       ?clear@?$_Tree@V?$_Tmap_traits@VName@Imf@@PAVAttribute@2@U?$less@VName@Imf@@@std@@V?$allocator@U?$pair@$$CBVName@Imf@@PAVAttribute@2@@std@@@5@$0A@@std@@@std@@QAEXXZ 100b9850 f i ImfHeader.obj
 0002:00049910       ?lower_bound@?$_Tree@V?$_Tmap_traits@VName@Imf@@PAVAttribute@2@U?$less@VName@Imf@@@std@@V?$allocator@U?$pair@$$CBVName@Imf@@PAVAttribute@2@@std@@@5@$0A@@std@@@std@@QAE?AV?$_Tree_iterator@V?$_Tree_val@V?$_Tmap_traits@VName@Imf@@PAVAttribute@2@U?$less@VName@Imf@@@std@@V?$allocator@U?$pair@$$CBVName@Imf@@PAVAttribute@2@@std@@@5@$0A@@std@@@std@@@2@ABVName@Imf@@@Z 100b9910 f i ImfHeader.obj
 0002:000499a0       ?lower_bound@?$_Tree@V?$_Tmap_traits@VName@Imf@@PAVAttribute@2@U?$less@VName@Imf@@@std@@V?$allocator@U?$pair@$$CBVName@Imf@@PAVAttribute@2@@std@@@5@$0A@@std@@@std@@QBE?AV?$_Tree_const_iterator@V?$_Tree_val@V?$_Tmap_traits@VName@Imf@@PAVAttribute@2@U?$less@VName@Imf@@@std@@V?$allocator@U?$pair@$$CBVName@Imf@@PAVAttribute@2@@std@@@5@$0A@@std@@@std@@@2@ABVName@Imf@@@Z 100b99a0 f i ImfHeader.obj
 0002:00049a30       ?_Lmost@?$_Tree@V?$_Tmap_traits@VName@Imf@@PAVAttribute@2@U?$less@VName@Imf@@@std@@V?$allocator@U?$pair@$$CBVName@Imf@@PAVAttribute@2@@std@@@5@$0A@@std@@@std@@IBEAAPAU_Node@?$_Tree_nod@V?$_Tmap_traits@VName@Imf@@PAVAttribute@2@U?$less@VName@Imf@@@std@@V?$allocator@U?$pair@$$CBVName@Imf@@PAVAttribute@2@@std@@@5@$0A@@std@@@2@XZ 100b9a30 f i ImfHeader.obj
 0002:00049a90       ?_Tidy@?$_Tree@V?$_Tmap_traits@VName@Imf@@PAVAttribute@2@U?$less@VName@Imf@@@std@@V?$allocator@U?$pair@$$CBVName@Imf@@PAVAttribute@2@@std@@@5@$0A@@std@@@std@@IAEXXZ 100b9a90 f i ImfHeader.obj
 0002:00049c20       ??1?$_Tree_val@V?$_Tmap_traits@VName@Imf@@PAVAttribute@2@U?$less@VName@Imf@@@std@@V?$allocator@U?$pair@$$CBVName@Imf@@PAVAttribute@2@@std@@@5@$0A@@std@@@std@@QAE@XZ 100b9c20 f i ImfHeader.obj
 0002:00049cd0       ?_Isnil@?$_Tree_val@V?$_Tmap_traits@VName@Imf@@PAVAttribute@2@U?$less@VName@Imf@@@std@@V?$allocator@U?$pair@$$CBVName@Imf@@PAVAttribute@2@@std@@@5@$0A@@std@@@std@@SAAADPAU_Node@?$_Tree_nod@V?$_Tmap_traits@VName@Imf@@PAVAttribute@2@U?$less@VName@Imf@@@std@@V?$allocator@U?$pair@$$CBVName@Imf@@PAVAttribute@2@@std@@@5@$0A@@std@@@2@@Z 100b9cd0 f i ImfHeader.obj
 0002:00049d10       ?_Key@?$_Tree_val@V?$_Tmap_traits@VName@Imf@@PAVAttribute@2@U?$less@VName@Imf@@@std@@V?$allocator@U?$pair@$$CBVName@Imf@@PAVAttribute@2@@std@@@5@$0A@@std@@@std@@SAAAVName@Imf@@PAU_Node@?$_Tree_nod@V?$_Tmap_traits@VName@Imf@@PAVAttribute@2@U?$less@VName@Imf@@@std@@V?$allocator@U?$pair@$$CBVName@Imf@@PAVAttribute@2@@std@@@5@$0A@@std@@@2@@Z 100b9d10 f i ImfHeader.obj
 0002:00049d70       ??0?$allocator@U?$pair@$$CBVName@Imf@@PAVAttribute@2@@std@@@std@@QAE@XZ 100b9d70 f i ImfHeader.obj
 0002:00049db0       ??0?$_Tree_iterator@V?$_Tree_val@V?$_Tmap_traits@VName@Imf@@PAVAttribute@2@U?$less@VName@Imf@@@std@@V?$allocator@U?$pair@$$CBVName@Imf@@PAVAttribute@2@@std@@@5@$0A@@std@@@std@@@std@@QAE@PAU_Node@?$_Tree_nod@V?$_Tmap_traits@VName@Imf@@PAVAttribute@2@U?$less@VName@Imf@@@std@@V?$allocator@U?$pair@$$CBVName@Imf@@PAVAttribute@2@@std@@@5@$0A@@std@@@1@PBV?$_Tree_val@V?$_Tmap_traits@VName@Imf@@PAVAttribute@2@U?$less@VName@Imf@@@std@@V?$allocator@U?$pair@$$CBVName@Imf@@PAVAttribute@2@@std@@@5@$0A@@std@@@1@@Z 100b9db0 f i ImfHeader.obj
 0002:00049e10       ??D?$_Tree_iterator@V?$_Tree_val@V?$_Tmap_traits@VName@Imf@@PAVAttribute@2@U?$less@VName@Imf@@@std@@V?$allocator@U?$pair@$$CBVName@Imf@@PAVAttribute@2@@std@@@5@$0A@@std@@@std@@@std@@QBEAAU?$pair@$$CBVName@Imf@@PAVAttribute@2@@1@XZ 100b9e10 f i ImfHeader.obj
 0002:00049e60       ??0?$_Tree_const_iterator@V?$_Tree_val@V?$_Tmap_traits@VName@Imf@@PAVAttribute@2@U?$less@VName@Imf@@@std@@V?$allocator@U?$pair@$$CBVName@Imf@@PAVAttribute@2@@std@@@5@$0A@@std@@@std@@@std@@QAE@PAU_Node@?$_Tree_nod@V?$_Tmap_traits@VName@Imf@@PAVAttribute@2@U?$less@VName@Imf@@@std@@V?$allocator@U?$pair@$$CBVName@Imf@@PAVAttribute@2@@std@@@5@$0A@@std@@@1@PBV?$_Tree_val@V?$_Tmap_traits@VName@Imf@@PAVAttribute@2@U?$less@VName@Imf@@@std@@V?$allocator@U?$pair@$$CBVName@Imf@@PAVAttribute@2@@std@@@5@$0A@@std@@@1@@Z 100b9e60 f i ImfHeader.obj
 0002:00049ec0       ??E?$_Tree_const_iterator@V?$_Tree_val@V?$_Tmap_traits@VName@Imf@@PAVAttribute@2@U?$less@VName@Imf@@@std@@V?$allocator@U?$pair@$$CBVName@Imf@@PAVAttribute@2@@std@@@5@$0A@@std@@@std@@@std@@QAE?AV01@H@Z 100b9ec0 f i ImfHeader.obj
 0002:00049fe0       ??D?$_Tree_unchecked_const_iterator@V?$_Tree_val@V?$_Tmap_traits@VName@Imf@@PAVAttribute@2@U?$less@VName@Imf@@@std@@V?$allocator@U?$pair@$$CBVName@Imf@@PAVAttribute@2@@std@@@5@$0A@@std@@@std@@U_Iterator_base12@2@@std@@QBEABU?$pair@$$CBVName@Imf@@PAVAttribute@2@@1@XZ 100b9fe0 f i ImfHeader.obj
 0002:0004a040       ??E?$_Tree_unchecked_const_iterator@V?$_Tree_val@V?$_Tmap_traits@VName@Imf@@PAVAttribute@2@U?$less@VName@Imf@@@std@@V?$allocator@U?$pair@$$CBVName@Imf@@PAVAttribute@2@@std@@@5@$0A@@std@@@std@@U_Iterator_base12@2@@std@@QAEAAV01@XZ 100ba040 f i ImfHeader.obj
 0002:0004a170       ?_Mynode@?$_Tree_unchecked_const_iterator@V?$_Tree_val@V?$_Tmap_traits@VName@Imf@@PAVAttribute@2@U?$less@VName@Imf@@@std@@V?$allocator@U?$pair@$$CBVName@Imf@@PAVAttribute@2@@std@@@5@$0A@@std@@@std@@U_Iterator_base12@2@@std@@QBEPAU_Node@?$_Tree_nod@V?$_Tmap_traits@VName@Imf@@PAVAttribute@2@U?$less@VName@Imf@@@std@@V?$allocator@U?$pair@$$CBVName@Imf@@PAVAttribute@2@@std@@@5@$0A@@std@@@2@XZ 100ba170 f i ImfHeader.obj
 0002:0004a1b0       ??0?$pair@$$CBVName@Imf@@PAVAttribute@2@@std@@QAE@ABVName@Imf@@$$QAPAVAttribute@3@@Z 100ba1b0 f i ImfHeader.obj
 0002:0004a220       ?_Erase@?$_Tree@V?$_Tmap_traits@VName@Imf@@PAVAttribute@2@U?$less@VName@Imf@@@std@@V?$allocator@U?$pair@$$CBVName@Imf@@PAVAttribute@2@@std@@@5@$0A@@std@@@std@@IAEXPAU_Node@?$_Tree_nod@V?$_Tmap_traits@VName@Imf@@PAVAttribute@2@U?$less@VName@Imf@@@std@@V?$allocator@U?$pair@$$CBVName@Imf@@PAVAttribute@2@@std@@@5@$0A@@std@@@2@@Z 100ba220 f i ImfHeader.obj
 0002:0004a310       ?_Lbound@?$_Tree@V?$_Tmap_traits@VName@Imf@@PAVAttribute@2@U?$less@VName@Imf@@@std@@V?$allocator@U?$pair@$$CBVName@Imf@@PAVAttribute@2@@std@@@5@$0A@@std@@@std@@IBEPAU_Node@?$_Tree_nod@V?$_Tmap_traits@VName@Imf@@PAVAttribute@2@U?$less@VName@Imf@@@std@@V?$allocator@U?$pair@$$CBVName@Imf@@PAVAttribute@2@@std@@@5@$0A@@std@@@2@ABVName@Imf@@@Z 100ba310 f i ImfHeader.obj
 0002:0004a410       ?_Lbound@?$_Tree@V?$_Tmap_traits@VName@Imf@@PAVAttribute@2@U?$less@VName@Imf@@@std@@V?$allocator@U?$pair@$$CBVName@Imf@@PAVAttribute@2@@std@@@5@$0A@@std@@@std@@IAEPAU_Node@?$_Tree_nod@V?$_Tmap_traits@VName@Imf@@PAVAttribute@2@U?$less@VName@Imf@@@std@@V?$allocator@U?$pair@$$CBVName@Imf@@PAVAttribute@2@@std@@@5@$0A@@std@@@2@ABVName@Imf@@@Z 100ba410 f i ImfHeader.obj
 0002:0004a510       ?_Lrotate@?$_Tree@V?$_Tmap_traits@VName@Imf@@PAVAttribute@2@U?$less@VName@Imf@@@std@@V?$allocator@U?$pair@$$CBVName@Imf@@PAVAttribute@2@@std@@@5@$0A@@std@@@std@@IAEXPAU_Node@?$_Tree_nod@V?$_Tmap_traits@VName@Imf@@PAVAttribute@2@U?$less@VName@Imf@@@std@@V?$allocator@U?$pair@$$CBVName@Imf@@PAVAttribute@2@@std@@@5@$0A@@std@@@2@@Z 100ba510 f i ImfHeader.obj
 0002:0004a6c0       ?_Rmost@?$_Tree@V?$_Tmap_traits@VName@Imf@@PAVAttribute@2@U?$less@VName@Imf@@@std@@V?$allocator@U?$pair@$$CBVName@Imf@@PAVAttribute@2@@std@@@5@$0A@@std@@@std@@IBEAAPAU_Node@?$_Tree_nod@V?$_Tmap_traits@VName@Imf@@PAVAttribute@2@U?$less@VName@Imf@@@std@@V?$allocator@U?$pair@$$CBVName@Imf@@PAVAttribute@2@@std@@@5@$0A@@std@@@2@XZ 100ba6c0 f i ImfHeader.obj
 0002:0004a720       ?_Root@?$_Tree@V?$_Tmap_traits@VName@Imf@@PAVAttribute@2@U?$less@VName@Imf@@@std@@V?$allocator@U?$pair@$$CBVName@Imf@@PAVAttribute@2@@std@@@5@$0A@@std@@@std@@IBEAAPAU_Node@?$_Tree_nod@V?$_Tmap_traits@VName@Imf@@PAVAttribute@2@U?$less@VName@Imf@@@std@@V?$allocator@U?$pair@$$CBVName@Imf@@PAVAttribute@2@@std@@@5@$0A@@std@@@2@XZ 100ba720 f i ImfHeader.obj
 0002:0004a780       ?_Rrotate@?$_Tree@V?$_Tmap_traits@VName@Imf@@PAVAttribute@2@U?$less@VName@Imf@@@std@@V?$allocator@U?$pair@$$CBVName@Imf@@PAVAttribute@2@@std@@@5@$0A@@std@@@std@@IAEXPAU_Node@?$_Tree_nod@V?$_Tmap_traits@VName@Imf@@PAVAttribute@2@U?$less@VName@Imf@@@std@@V?$allocator@U?$pair@$$CBVName@Imf@@PAVAttribute@2@@std@@@5@$0A@@std@@@2@@Z 100ba780 f i ImfHeader.obj
 0002:0004a930       ?_Orphan_ptr@?$_Tree@V?$_Tmap_traits@VName@Imf@@PAVAttribute@2@U?$less@VName@Imf@@@std@@V?$allocator@U?$pair@$$CBVName@Imf@@PAVAttribute@2@@std@@@5@$0A@@std@@@std@@IBEXAAV12@PAU_Node@?$_Tree_nod@V?$_Tmap_traits@VName@Imf@@PAVAttribute@2@U?$less@VName@Imf@@@std@@V?$allocator@U?$pair@$$CBVName@Imf@@PAVAttribute@2@@std@@@5@$0A@@std@@@2@@Z 100ba930 f i ImfHeader.obj
 0002:0004aac0       ??0?$_Tree_val@V?$_Tmap_traits@VName@Imf@@PAVAttribute@2@U?$less@VName@Imf@@@std@@V?$allocator@U?$pair@$$CBVName@Imf@@PAVAttribute@2@@std@@@5@$0A@@std@@@std@@QAE@ABU?$less@VName@Imf@@@1@V?$allocator@U?$pair@$$CBVName@Imf@@PAVAttribute@2@@std@@@1@@Z 100baac0 f i ImfHeader.obj
 0002:0004ac20       ?_Color@?$_Tree_val@V?$_Tmap_traits@VName@Imf@@PAVAttribute@2@U?$less@VName@Imf@@@std@@V?$allocator@U?$pair@$$CBVName@Imf@@PAVAttribute@2@@std@@@5@$0A@@std@@@std@@SAAADPAU_Node@?$_Tree_nod@V?$_Tmap_traits@VName@Imf@@PAVAttribute@2@U?$less@VName@Imf@@@std@@V?$allocator@U?$pair@$$CBVName@Imf@@PAVAttribute@2@@std@@@5@$0A@@std@@@2@@Z 100bac20 f i ImfHeader.obj
 0002:0004ac60       ?_Left@?$_Tree_val@V?$_Tmap_traits@VName@Imf@@PAVAttribute@2@U?$less@VName@Imf@@@std@@V?$allocator@U?$pair@$$CBVName@Imf@@PAVAttribute@2@@std@@@5@$0A@@std@@@std@@SAAAPAU_Node@?$_Tree_nod@V?$_Tmap_traits@VName@Imf@@PAVAttribute@2@U?$less@VName@Imf@@@std@@V?$allocator@U?$pair@$$CBVName@Imf@@PAVAttribute@2@@std@@@5@$0A@@std@@@2@PAU342@@Z 100bac60 f i ImfHeader.obj
 0002:0004aca0       ?_Parent@?$_Tree_val@V?$_Tmap_traits@VName@Imf@@PAVAttribute@2@U?$less@VName@Imf@@@std@@V?$allocator@U?$pair@$$CBVName@Imf@@PAVAttribute@2@@std@@@5@$0A@@std@@@std@@SAAAPAU_Node@?$_Tree_nod@V?$_Tmap_traits@VName@Imf@@PAVAttribute@2@U?$less@VName@Imf@@@std@@V?$allocator@U?$pair@$$CBVName@Imf@@PAVAttribute@2@@std@@@5@$0A@@std@@@2@PAU342@@Z 100baca0 f i ImfHeader.obj
 0002:0004ace0       ?_Right@?$_Tree_val@V?$_Tmap_traits@VName@Imf@@PAVAttribute@2@U?$less@VName@Imf@@@std@@V?$allocator@U?$pair@$$CBVName@Imf@@PAVAttribute@2@@std@@@5@$0A@@std@@@std@@SAAAPAU_Node@?$_Tree_nod@V?$_Tmap_traits@VName@Imf@@PAVAttribute@2@U?$less@VName@Imf@@@std@@V?$allocator@U?$pair@$$CBVName@Imf@@PAVAttribute@2@@std@@@5@$0A@@std@@@2@PAU342@@Z 100bace0 f i ImfHeader.obj
 0002:0004ad20       ?_Myval@?$_Tree_val@V?$_Tmap_traits@VName@Imf@@PAVAttribute@2@U?$less@VName@Imf@@@std@@V?$allocator@U?$pair@$$CBVName@Imf@@PAVAttribute@2@@std@@@5@$0A@@std@@@std@@SAAAU?$pair@$$CBVName@Imf@@PAVAttribute@2@@2@PAU_Node@?$_Tree_nod@V?$_Tmap_traits@VName@Imf@@PAVAttribute@2@U?$less@VName@Imf@@@std@@V?$allocator@U?$pair@$$CBVName@Imf@@PAVAttribute@2@@std@@@5@$0A@@std@@@2@@Z 100bad20 f i ImfHeader.obj
 0002:0004ad60       ?_Max@?$_Tree_val@V?$_Tmap_traits@VName@Imf@@PAVAttribute@2@U?$less@VName@Imf@@@std@@V?$allocator@U?$pair@$$CBVName@Imf@@PAVAttribute@2@@std@@@5@$0A@@std@@@std@@SAPAU_Node@?$_Tree_nod@V?$_Tmap_traits@VName@Imf@@PAVAttribute@2@U?$less@VName@Imf@@@std@@V?$allocator@U?$pair@$$CBVName@Imf@@PAVAttribute@2@@std@@@5@$0A@@std@@@2@PAU342@@Z 100bad60 f i ImfHeader.obj
 0002:0004ade0       ?_Min@?$_Tree_val@V?$_Tmap_traits@VName@Imf@@PAVAttribute@2@U?$less@VName@Imf@@@std@@V?$allocator@U?$pair@$$CBVName@Imf@@PAVAttribute@2@@std@@@5@$0A@@std@@@std@@SAPAU_Node@?$_Tree_nod@V?$_Tmap_traits@VName@Imf@@PAVAttribute@2@U?$less@VName@Imf@@@std@@V?$allocator@U?$pair@$$CBVName@Imf@@PAVAttribute@2@@std@@@5@$0A@@std@@@2@PAU342@@Z 100bade0 f i ImfHeader.obj
 0002:0004ae60       ??1?$_Tree_nod@V?$_Tmap_traits@VName@Imf@@PAVAttribute@2@U?$less@VName@Imf@@@std@@V?$allocator@U?$pair@$$CBVName@Imf@@PAVAttribute@2@@std@@@5@$0A@@std@@@std@@QAE@XZ 100bae60 f i ImfHeader.obj
 0002:0004af90       ??0?$allocator@U?$pair@$$CBVName@Imf@@PAVAttribute@2@@std@@@std@@QAE@ABV01@@Z 100baf90 f i ImfHeader.obj
 0002:0004afd0       ?deallocate@?$allocator@U_Node@?$_Tree_nod@V?$_Tmap_traits@VName@Imf@@PAVAttribute@2@U?$less@VName@Imf@@@std@@V?$allocator@U?$pair@$$CBVName@Imf@@PAVAttribute@2@@std@@@5@$0A@@std@@@std@@@std@@QAEXPAU_Node@?$_Tree_nod@V?$_Tmap_traits@VName@Imf@@PAVAttribute@2@U?$less@VName@Imf@@@std@@V?$allocator@U?$pair@$$CBVName@Imf@@PAVAttribute@2@@std@@@5@$0A@@std@@@2@I@Z 100bafd0 f i ImfHeader.obj
 0002:0004b030       ??D?$_Tree_const_iterator@V?$_Tree_val@V?$_Tmap_traits@VName@Imf@@PAVAttribute@2@U?$less@VName@Imf@@@std@@V?$allocator@U?$pair@$$CBVName@Imf@@PAVAttribute@2@@std@@@5@$0A@@std@@@std@@@std@@QBEABU?$pair@$$CBVName@Imf@@PAVAttribute@2@@1@XZ 100bb030 f i ImfHeader.obj
 0002:0004b160       ??0?$_Tree_unchecked_const_iterator@V?$_Tree_val@V?$_Tmap_traits@VName@Imf@@PAVAttribute@2@U?$less@VName@Imf@@@std@@V?$allocator@U?$pair@$$CBVName@Imf@@PAVAttribute@2@@std@@@5@$0A@@std@@@std@@U_Iterator_base12@2@@std@@QAE@PAU_Node@?$_Tree_nod@V?$_Tmap_traits@VName@Imf@@PAVAttribute@2@U?$less@VName@Imf@@@std@@V?$allocator@U?$pair@$$CBVName@Imf@@PAVAttribute@2@@std@@@5@$0A@@std@@@1@PBV?$_Tree_val@V?$_Tmap_traits@VName@Imf@@PAVAttribute@2@U?$less@VName@Imf@@@std@@V?$allocator@U?$pair@$$CBVName@Imf@@PAVAttribute@2@@std@@@5@$0A@@std@@@1@@Z 100bb160 f i ImfHeader.obj
 0002:0004b220       ??0?$_Iterator012@Ubidirectional_iterator_tag@std@@U?$pair@$$CBVName@Imf@@PAVAttribute@2@@2@HPBU32@ABU32@U_Iterator_base12@2@@std@@QAE@XZ 100bb220 f i ImfHeader.obj
 0002:0004b280       ??0?$_Pair_base@$$CBVName@Imf@@PAVAttribute@2@@std@@QAE@ABVName@Imf@@$$QAPAVAttribute@3@@Z 100bb280 f i ImfHeader.obj
 0002:0004b300       ??1?$_Tmap_traits@VName@Imf@@PAVAttribute@2@U?$less@VName@Imf@@@std@@V?$allocator@U?$pair@$$CBVName@Imf@@PAVAttribute@2@@std@@@5@$0A@@std@@QAE@XZ 100bb300 f i ImfHeader.obj
 0002:0004b360       ??0?$_Tree_nod@V?$_Tmap_traits@VName@Imf@@PAVAttribute@2@U?$less@VName@Imf@@@std@@V?$allocator@U?$pair@$$CBVName@Imf@@PAVAttribute@2@@std@@@5@$0A@@std@@@std@@QAE@ABU?$less@VName@Imf@@@1@V?$allocator@U?$pair@$$CBVName@Imf@@PAVAttribute@2@@std@@@1@@Z 100bb360 f i ImfHeader.obj
 0002:0004b4c0       ?allocate@?$allocator@U_Node@?$_Tree_nod@V?$_Tmap_traits@VName@Imf@@PAVAttribute@2@U?$less@VName@Imf@@@std@@V?$allocator@U?$pair@$$CBVName@Imf@@PAVAttribute@2@@std@@@5@$0A@@std@@@std@@@std@@QAEPAU_Node@?$_Tree_nod@V?$_Tmap_traits@VName@Imf@@PAVAttribute@2@U?$less@VName@Imf@@@std@@V?$allocator@U?$pair@$$CBVName@Imf@@PAVAttribute@2@@std@@@5@$0A@@std@@@2@I@Z 100bb4c0 f i ImfHeader.obj
 0002:0004b520       ??0?$_Tmap_traits@VName@Imf@@PAVAttribute@2@U?$less@VName@Imf@@@std@@V?$allocator@U?$pair@$$CBVName@Imf@@PAVAttribute@2@@std@@@5@$0A@@std@@QAE@U?$less@VName@Imf@@@1@@Z 100bb520 f i ImfHeader.obj
 0002:0004b590       ?registerAttributeType@?$TypedAttribute@V?$Box@V?$Vec2@H@Imath@@@Imath@@@Imf@@SAXXZ 100bb590 f i ImfHeader.obj
 0002:0004b5f0       ?registerAttributeType@?$TypedAttribute@V?$Box@V?$Vec2@M@Imath@@@Imath@@@Imf@@SAXXZ 100bb5f0 f i ImfHeader.obj
 0002:0004b650       ??0?$TypedAttribute@VChannelList@Imf@@@Imf@@QAE@XZ 100bb650 f i ImfHeader.obj
 0002:0004b710       ??1?$TypedAttribute@VChannelList@Imf@@@Imf@@UAE@XZ 100bb710 f i ImfHeader.obj
 0002:0004b7c0       ?value@?$TypedAttribute@VChannelList@Imf@@@Imf@@QBEABVChannelList@2@XZ 100bb7c0 f i ImfHeader.obj
 0002:0004b800       ?value@?$TypedAttribute@VChannelList@Imf@@@Imf@@QAEAAVChannelList@2@XZ 100bb800 f i ImfHeader.obj
 0002:0004b840       ?typeName@?$TypedAttribute@VChannelList@Imf@@@Imf@@UBEPBDXZ 100bb840 f i ImfHeader.obj
 0002:0004b890       ?copy@?$TypedAttribute@VChannelList@Imf@@@Imf@@UBEPAVAttribute@2@XZ 100bb890 f i ImfHeader.obj
 0002:0004b9a0       ?copyValueFrom@?$TypedAttribute@VChannelList@Imf@@@Imf@@UAEXABVAttribute@2@@Z 100bb9a0 f i ImfHeader.obj
 0002:0004ba10       ?registerAttributeType@?$TypedAttribute@VChannelList@Imf@@@Imf@@SAXXZ 100bba10 f i ImfHeader.obj
 0002:0004ba70       ?registerAttributeType@?$TypedAttribute@UChromaticities@Imf@@@Imf@@SAXXZ 100bba70 f i ImfHeader.obj
 0002:0004bad0       ??0?$TypedAttribute@W4Compression@Imf@@@Imf@@QAE@ABW4Compression@1@@Z 100bbad0 f i ImfHeader.obj
 0002:0004bb40       ??1?$TypedAttribute@W4Compression@Imf@@@Imf@@UAE@XZ 100bbb40 f i ImfHeader.obj
 0002:0004bba0       ?value@?$TypedAttribute@W4Compression@Imf@@@Imf@@QBEABW4Compression@2@XZ 100bbba0 f i ImfHeader.obj
 0002:0004bbe0       ?value@?$TypedAttribute@W4Compression@Imf@@@Imf@@QAEAAW4Compression@2@XZ 100bbbe0 f i ImfHeader.obj
 0002:0004bc20       ?typeName@?$TypedAttribute@W4Compression@Imf@@@Imf@@UBEPBDXZ 100bbc20 f i ImfHeader.obj
 0002:0004bc70       ?copy@?$TypedAttribute@W4Compression@Imf@@@Imf@@UBEPAVAttribute@2@XZ 100bbc70 f i ImfHeader.obj
 0002:0004bd80       ?copyValueFrom@?$TypedAttribute@W4Compression@Imf@@@Imf@@UAEXABVAttribute@2@@Z 100bbd80 f i ImfHeader.obj
 0002:0004bdf0       ?registerAttributeType@?$TypedAttribute@W4Compression@Imf@@@Imf@@SAXXZ 100bbdf0 f i ImfHeader.obj
 0002:0004be50       ?registerAttributeType@?$TypedAttribute@W4Envmap@Imf@@@Imf@@SAXXZ 100bbe50 f i ImfHeader.obj
 0002:0004beb0       ?registerAttributeType@?$TypedAttribute@H@Imf@@SAXXZ 100bbeb0 f i ImfHeader.obj
 0002:0004bf10       ?registerAttributeType@?$TypedAttribute@VKeyCode@Imf@@@Imf@@SAXXZ 100bbf10 f i ImfHeader.obj
 0002:0004bf70       ??0?$TypedAttribute@W4LineOrder@Imf@@@Imf@@QAE@ABW4LineOrder@1@@Z 100bbf70 f i ImfHeader.obj
 0002:0004bfe0       ??1?$TypedAttribute@W4LineOrder@Imf@@@Imf@@UAE@XZ 100bbfe0 f i ImfHeader.obj
 0002:0004c040       ?value@?$TypedAttribute@W4LineOrder@Imf@@@Imf@@QBEABW4LineOrder@2@XZ 100bc040 f i ImfHeader.obj
 0002:0004c080       ?value@?$TypedAttribute@W4LineOrder@Imf@@@Imf@@QAEAAW4LineOrder@2@XZ 100bc080 f i ImfHeader.obj
 0002:0004c0c0       ?typeName@?$TypedAttribute@W4LineOrder@Imf@@@Imf@@UBEPBDXZ 100bc0c0 f i ImfHeader.obj
 0002:0004c110       ?copy@?$TypedAttribute@W4LineOrder@Imf@@@Imf@@UBEPAVAttribute@2@XZ 100bc110 f i ImfHeader.obj
 0002:0004c220       ?copyValueFrom@?$TypedAttribute@W4LineOrder@Imf@@@Imf@@UAEXABVAttribute@2@@Z 100bc220 f i ImfHeader.obj
 0002:0004c290       ?registerAttributeType@?$TypedAttribute@W4LineOrder@Imf@@@Imf@@SAXXZ 100bc290 f i ImfHeader.obj
 0002:0004c2f0       ?registerAttributeType@?$TypedAttribute@V?$Matrix33@M@Imath@@@Imf@@SAXXZ 100bc2f0 f i ImfHeader.obj
 0002:0004c350       ?registerAttributeType@?$TypedAttribute@V?$Matrix33@N@Imath@@@Imf@@SAXXZ 100bc350 f i ImfHeader.obj
 0002:0004c3b0       ?registerAttributeType@?$TypedAttribute@V?$Matrix44@M@Imath@@@Imf@@SAXXZ 100bc3b0 f i ImfHeader.obj
 0002:0004c410       ?registerAttributeType@?$TypedAttribute@V?$Matrix44@N@Imath@@@Imf@@SAXXZ 100bc410 f i ImfHeader.obj
 0002:0004c470       ??0?$TypedAttribute@VPreviewImage@Imf@@@Imf@@QAE@ABVPreviewImage@1@@Z 100bc470 f i ImfHeader.obj
 0002:0004c530       ??1?$TypedAttribute@VPreviewImage@Imf@@@Imf@@UAE@XZ 100bc530 f i ImfHeader.obj
 0002:0004c5e0       ?value@?$TypedAttribute@VPreviewImage@Imf@@@Imf@@QBEABVPreviewImage@2@XZ 100bc5e0 f i ImfHeader.obj
 0002:0004c620       ?value@?$TypedAttribute@VPreviewImage@Imf@@@Imf@@QAEAAVPreviewImage@2@XZ 100bc620 f i ImfHeader.obj
 0002:0004c660       ?typeName@?$TypedAttribute@VPreviewImage@Imf@@@Imf@@UBEPBDXZ 100bc660 f i ImfHeader.obj
 0002:0004c6b0       ?copy@?$TypedAttribute@VPreviewImage@Imf@@@Imf@@UBEPAVAttribute@2@XZ 100bc6b0 f i ImfHeader.obj
 0002:0004c7c0       ?copyValueFrom@?$TypedAttribute@VPreviewImage@Imf@@@Imf@@UAEXABVAttribute@2@@Z 100bc7c0 f i ImfHeader.obj
 0002:0004c830       ?registerAttributeType@?$TypedAttribute@VPreviewImage@Imf@@@Imf@@SAXXZ 100bc830 f i ImfHeader.obj
 0002:0004c890       ?registerAttributeType@?$TypedAttribute@VRational@Imf@@@Imf@@SAXXZ 100bc890 f i ImfHeader.obj
 0002:0004c8f0       ?registerAttributeType@?$TypedAttribute@V?$basic_string@DU?$char_traits@D@std@@V?$allocator@D@2@@std@@@Imf@@SAXXZ 100bc8f0 f i ImfHeader.obj
 0002:0004c950       ?registerAttributeType@?$TypedAttribute@V?$vector@V?$basic_string@DU?$char_traits@D@std@@V?$allocator@D@2@@std@@V?$allocator@V?$basic_string@DU?$char_traits@D@std@@V?$allocator@D@2@@std@@@2@@std@@@Imf@@SAXXZ 100bc950 f i ImfHeader.obj
 0002:0004c9b0       ??0?$TypedAttribute@VTileDescription@Imf@@@Imf@@QAE@ABVTileDescription@1@@Z 100bc9b0 f i ImfHeader.obj
 0002:0004ca40       ??1?$TypedAttribute@VTileDescription@Imf@@@Imf@@UAE@XZ 100bca40 f i ImfHeader.obj
 0002:0004caa0       ?value@?$TypedAttribute@VTileDescription@Imf@@@Imf@@QBEABVTileDescription@2@XZ 100bcaa0 f i ImfHeader.obj
 0002:0004cae0       ?value@?$TypedAttribute@VTileDescription@Imf@@@Imf@@QAEAAVTileDescription@2@XZ 100bcae0 f i ImfHeader.obj
 0002:0004cb20       ?typeName@?$TypedAttribute@VTileDescription@Imf@@@Imf@@UBEPBDXZ 100bcb20 f i ImfHeader.obj
 0002:0004cb70       ?copy@?$TypedAttribute@VTileDescription@Imf@@@Imf@@UBEPAVAttribute@2@XZ 100bcb70 f i ImfHeader.obj
 0002:0004cc80       ?copyValueFrom@?$TypedAttribute@VTileDescription@Imf@@@Imf@@UAEXABVAttribute@2@@Z 100bcc80 f i ImfHeader.obj
 0002:0004cd00       ?registerAttributeType@?$TypedAttribute@VTileDescription@Imf@@@Imf@@SAXXZ 100bcd00 f i ImfHeader.obj
 0002:0004cd60       ?registerAttributeType@?$TypedAttribute@VTimeCode@Imf@@@Imf@@SAXXZ 100bcd60 f i ImfHeader.obj
 0002:0004cdc0       ?registerAttributeType@?$TypedAttribute@V?$Vec2@H@Imath@@@Imf@@SAXXZ 100bcdc0 f i ImfHeader.obj
 0002:0004ce20       ?registerAttributeType@?$TypedAttribute@V?$Vec2@M@Imath@@@Imf@@SAXXZ 100bce20 f i ImfHeader.obj
 0002:0004ce80       ?registerAttributeType@?$TypedAttribute@V?$Vec2@N@Imath@@@Imf@@SAXXZ 100bce80 f i ImfHeader.obj
 0002:0004cee0       ?registerAttributeType@?$TypedAttribute@V?$Vec3@H@Imath@@@Imf@@SAXXZ 100bcee0 f i ImfHeader.obj
 0002:0004cf40       ?registerAttributeType@?$TypedAttribute@V?$Vec3@M@Imath@@@Imf@@SAXXZ 100bcf40 f i ImfHeader.obj
 0002:0004cfa0       ?registerAttributeType@?$TypedAttribute@V?$Vec3@N@Imath@@@Imf@@SAXXZ 100bcfa0 f i ImfHeader.obj
 0002:0004d000       ??$findTypedAttribute@V?$TypedAttribute@VTileDescription@Imf@@@Imf@@@Header@Imf@@QBEPBV?$TypedAttribute@VTileDescription@Imf@@@1@QBD@Z 100bd000 f i ImfHeader.obj
 0002:0004d1c0       ??$typedAttribute@V?$TypedAttribute@VTileDescription@Imf@@@Imf@@@Header@Imf@@QAEAAV?$TypedAttribute@VTileDescription@Imf@@@1@QBD@Z 100bd1c0 f i ImfHeader.obj
 0002:0004d290       ??$typedAttribute@V?$TypedAttribute@VTileDescription@Imf@@@Imf@@@Header@Imf@@QBEABV?$TypedAttribute@VTileDescription@Imf@@@1@QBD@Z 100bd290 f i ImfHeader.obj
 0002:0004d360       ??$typedAttribute@V?$TypedAttribute@VPreviewImage@Imf@@@Imf@@@Header@Imf@@QAEAAV?$TypedAttribute@VPreviewImage@Imf@@@1@QBD@Z 100bd360 f i ImfHeader.obj
 0002:0004d430       ??$typedAttribute@V?$TypedAttribute@VPreviewImage@Imf@@@Imf@@@Header@Imf@@QBEABV?$TypedAttribute@VPreviewImage@Imf@@@1@QBD@Z 100bd430 f i ImfHeader.obj
 0002:0004d500       ??$findTypedAttribute@V?$TypedAttribute@VPreviewImage@Imf@@@Imf@@@Header@Imf@@QBEPBV?$TypedAttribute@VPreviewImage@Imf@@@1@QBD@Z 100bd500 f i ImfHeader.obj
 0002:0004d6c0       ??$checkIsNullTerminated@$0BAA@@?A0x1f5ff9f2@Imf@@YAXAAY0BAA@$$CBDPBD@Z 100bd6c0 f i ImfHeader.obj
 0002:0004d8b0       ??$insert@U?$pair@$$CBVName@Imf@@PAVAttribute@2@@std@@@?$_Tree@V?$_Tmap_traits@VName@Imf@@PAVAttribute@2@U?$less@VName@Imf@@@std@@V?$allocator@U?$pair@$$CBVName@Imf@@PAVAttribute@2@@std@@@5@$0A@@std@@@std@@QAE?AV?$_Tree_iterator@V?$_Tree_val@V?$_Tmap_traits@VName@Imf@@PAVAttribute@2@U?$less@VName@Imf@@@std@@V?$allocator@U?$pair@$$CBVName@Imf@@PAVAttribute@2@@std@@@5@$0A@@std@@@std@@@1@V?$_Tree_const_iterator@V?$_Tree_val@V?$_Tmap_traits@VName@Imf@@PAVAttribute@2@U?$less@VName@Imf@@@std@@V?$allocator@U?$pair@$$CBVName@Imf@@PAVAttribute@2@@std@@@5@$0A@@std@@@std@@@1@$$QAU?$pair@$$CBVName@Imf@@PAVAttribute@2@@1@@Z 100bd8b0 f i ImfHeader.obj
 0002:0004d9c0       ??$addressof@U?$pair@$$CBVName@Imf@@PAVAttribute@2@@std@@@std@@YAPAU?$pair@$$CBVName@Imf@@PAVAttribute@2@@0@AAU10@@Z 100bd9c0 f i ImfHeader.obj
 0002:0004da00       ??$_Dest_val@V?$allocator@U?$pair@$$CBVName@Imf@@PAVAttribute@2@@std@@@std@@U?$pair@$$CBVName@Imf@@PAVAttribute@2@@2@@std@@YAXAAV?$allocator@U?$pair@$$CBVName@Imf@@PAVAttribute@2@@std@@@0@PAU?$pair@$$CBVName@Imf@@PAVAttribute@2@@0@@Z 100bda00 f i ImfHeader.obj
 0002:0004da50       ??$_Kfn@$$CBVName@Imf@@PAVAttribute@2@@?$_Tmap_traits@VName@Imf@@PAVAttribute@2@U?$less@VName@Imf@@@std@@V?$allocator@U?$pair@$$CBVName@Imf@@PAVAttribute@2@@std@@@5@$0A@@std@@SAABVName@Imf@@ABU?$pair@$$CBVName@Imf@@PAVAttribute@2@@1@@Z 100bda50 f i ImfHeader.obj
 0002:0004da90       ??$move@AAPAVAttribute@Imf@@@std@@YA$$QAPAVAttribute@Imf@@AAPAV12@@Z 100bda90 f i ImfHeader.obj
 0002:0004dad0       ??$?0U_Node@?$_Tree_nod@V?$_Tmap_traits@VName@Imf@@PAVAttribute@2@U?$less@VName@Imf@@@std@@V?$allocator@U?$pair@$$CBVName@Imf@@PAVAttribute@2@@std@@@5@$0A@@std@@@std@@@?$allocator@U_Container_proxy@std@@@std@@QAE@ABV?$allocator@U_Node@?$_Tree_nod@V?$_Tmap_traits@VName@Imf@@PAVAttribute@2@U?$less@VName@Imf@@@std@@V?$allocator@U?$pair@$$CBVName@Imf@@PAVAttribute@2@@std@@@5@$0A@@std@@@std@@@1@@Z 100bdad0 f i ImfHeader.obj
 0002:0004db10       ??$?0U?$pair@$$CBVName@Imf@@PAVAttribute@2@@std@@@?$allocator@U_Node@?$_Tree_nod@V?$_Tmap_traits@VName@Imf@@PAVAttribute@2@U?$less@VName@Imf@@@std@@V?$allocator@U?$pair@$$CBVName@Imf@@PAVAttribute@2@@std@@@5@$0A@@std@@@std@@@std@@QAE@ABV?$allocator@U?$pair@$$CBVName@Imf@@PAVAttribute@2@@std@@@1@@Z 100bdb10 f i ImfHeader.obj
 0002:0004db50       ??$_Allocate@U_Node@?$_Tree_nod@V?$_Tmap_traits@VName@Imf@@PAVAttribute@2@U?$less@VName@Imf@@@std@@V?$allocator@U?$pair@$$CBVName@Imf@@PAVAttribute@2@@std@@@5@$0A@@std@@@std@@@std@@YAPAU_Node@?$_Tree_nod@V?$_Tmap_traits@VName@Imf@@PAVAttribute@2@U?$less@VName@Imf@@@std@@V?$allocator@U?$pair@$$CBVName@Imf@@PAVAttribute@2@@std@@@5@$0A@@std@@@0@IPAU120@@Z 100bdb50 f i ImfHeader.obj
 0002:0004dc00       ??0ChannelList@Imf@@QAE@XZ 100bdc00 f i ImfHeader.obj
 0002:0004dc60       ??1ChannelList@Imf@@QAE@XZ 100bdc60 f i ImfHeader.obj
 0002:0004dcb0       ??_G?$TypedAttribute@VChannelList@Imf@@@Imf@@UAEPAXI@Z 100bdcb0 f i ImfHeader.obj
 0002:0004dcb0       ??_E?$TypedAttribute@VChannelList@Imf@@@Imf@@UAEPAXI@Z 100bdcb0 f i ImfHeader.obj
 0002:0004dd20       ??4ChannelList@Imf@@QAEAAV01@ABV01@@Z 100bdd20 f i ImfHeader.obj
 0002:0004dd80       ??_G?$TypedAttribute@W4Compression@Imf@@@Imf@@UAEPAXI@Z 100bdd80 f i ImfHeader.obj
 0002:0004dd80       ??_E?$TypedAttribute@W4Compression@Imf@@@Imf@@UAEPAXI@Z 100bdd80 f i ImfHeader.obj
 0002:0004ddf0       ??_E?$TypedAttribute@W4LineOrder@Imf@@@Imf@@UAEPAXI@Z 100bddf0 f i ImfHeader.obj
 0002:0004ddf0       ??_G?$TypedAttribute@W4LineOrder@Imf@@@Imf@@UAEPAXI@Z 100bddf0 f i ImfHeader.obj
 0002:0004de60       ??_G?$TypedAttribute@VPreviewImage@Imf@@@Imf@@UAEPAXI@Z 100bde60 f i ImfHeader.obj
 0002:0004de60       ??_E?$TypedAttribute@VPreviewImage@Imf@@@Imf@@UAEPAXI@Z 100bde60 f i ImfHeader.obj
 0002:0004ded0       ??_E?$TypedAttribute@VTileDescription@Imf@@@Imf@@UAEPAXI@Z 100bded0 f i ImfHeader.obj
 0002:0004ded0       ??_G?$TypedAttribute@VTileDescription@Imf@@@Imf@@UAEPAXI@Z 100bded0 f i ImfHeader.obj
 0002:0004df40       ??1?$map@VName@Imf@@UChannel@2@U?$less@VName@Imf@@@std@@V?$allocator@U?$pair@$$CBVName@Imf@@UChannel@2@@std@@@5@@std@@QAE@XZ 100bdf40 f i ImfHeader.obj
 0002:0004df90       ?_Insert@?$_Tree@V?$_Tmap_traits@VName@Imf@@PAVAttribute@2@U?$less@VName@Imf@@@std@@V?$allocator@U?$pair@$$CBVName@Imf@@PAVAttribute@2@@std@@@5@$0A@@std@@@std@@QAE?AV?$_Tree_iterator@V?$_Tree_val@V?$_Tmap_traits@VName@Imf@@PAVAttribute@2@U?$less@VName@Imf@@@std@@V?$allocator@U?$pair@$$CBVName@Imf@@PAVAttribute@2@@std@@@5@$0A@@std@@@std@@@2@V?$_Tree_const_iterator@V?$_Tree_val@V?$_Tmap_traits@VName@Imf@@PAVAttribute@2@U?$less@VName@Imf@@@std@@V?$allocator@U?$pair@$$CBVName@Imf@@PAVAttribute@2@@std@@@5@$0A@@std@@@std@@@2@PAU_Node@?$_Tree_nod@V?$_Tmap_traits@VName@Imf@@PAVAttribute@2@U?$less@VName@Imf@@@std@@V?$allocator@U?$pair@$$CBVName@Imf@@PAVAttribute@2@@std@@@5@$0A@@std@@@2@@Z 100bdf90 f i ImfHeader.obj
 0002:0004eea0       ??0?$_Tree_const_iterator@V?$_Tree_val@V?$_Tmap_traits@VName@Imf@@PAVAttribute@2@U?$less@VName@Imf@@@std@@V?$allocator@U?$pair@$$CBVName@Imf@@PAVAttribute@2@@std@@@5@$0A@@std@@@std@@@std@@QAE@XZ 100beea0 f i ImfHeader.obj
 0002:0004ef00       ??0?$_Tree_unchecked_const_iterator@V?$_Tree_val@V?$_Tmap_traits@VName@Imf@@PAVAttribute@2@U?$less@VName@Imf@@@std@@V?$allocator@U?$pair@$$CBVName@Imf@@PAVAttribute@2@@std@@@5@$0A@@std@@@std@@U_Iterator_base12@2@@std@@QAE@XZ 100bef00 f i ImfHeader.obj
 0002:0004ef60       ?destroy@?$allocator@U?$pair@$$CBVName@Imf@@PAVAttribute@2@@std@@@std@@QAEXPAU?$pair@$$CBVName@Imf@@PAVAttribute@2@@2@@Z 100bef60 f i ImfHeader.obj
 0002:0004efc0       ??0?$map@VName@Imf@@UChannel@2@U?$less@VName@Imf@@@std@@V?$allocator@U?$pair@$$CBVName@Imf@@UChannel@2@@std@@@5@@std@@QAE@XZ 100befc0 f i ImfHeader.obj
 0002:0004f030       ??4?$map@VName@Imf@@UChannel@2@U?$less@VName@Imf@@@std@@V?$allocator@U?$pair@$$CBVName@Imf@@UChannel@2@@std@@@5@@std@@QAEAAV01@ABV01@@Z 100bf030 f i ImfHeader.obj
 0002:0004f090       ??1?$_Tree@V?$_Tmap_traits@VName@Imf@@UChannel@2@U?$less@VName@Imf@@@std@@V?$allocator@U?$pair@$$CBVName@Imf@@UChannel@2@@std@@@5@$0A@@std@@@std@@QAE@XZ 100bf090 f i ImfHeader.obj
 0002:0004f130       ??1?$pair@V?$_Tree_iterator@V?$_Tree_val@V?$_Tmap_traits@VName@Imf@@PAVAttribute@2@U?$less@VName@Imf@@@std@@V?$allocator@U?$pair@$$CBVName@Imf@@PAVAttribute@2@@std@@@5@$0A@@std@@@std@@@std@@_N@std@@QAE@XZ 100bf130 f i ImfHeader.obj
 0002:0004f180       ??1?$_Pair_base@V?$_Tree_iterator@V?$_Tree_val@V?$_Tmap_traits@VName@Imf@@PAVAttribute@2@U?$less@VName@Imf@@@std@@V?$allocator@U?$pair@$$CBVName@Imf@@PAVAttribute@2@@std@@@5@$0A@@std@@@std@@@std@@_N@std@@QAE@XZ 100bf180 f i ImfHeader.obj
 0002:0004f1d0       ?size@?$_Tree@V?$_Tmap_traits@VName@Imf@@PAVAttribute@2@U?$less@VName@Imf@@@std@@V?$allocator@U?$pair@$$CBVName@Imf@@PAVAttribute@2@@std@@@5@$0A@@std@@@std@@QBEIXZ 100bf1d0 f i ImfHeader.obj
 0002:0004f210       ?_Linsert@?$_Tree@V?$_Tmap_traits@VName@Imf@@PAVAttribute@2@U?$less@VName@Imf@@@std@@V?$allocator@U?$pair@$$CBVName@Imf@@PAVAttribute@2@@std@@@5@$0A@@std@@@std@@QAE?AU?$pair@V?$_Tree_iterator@V?$_Tree_val@V?$_Tmap_traits@VName@Imf@@PAVAttribute@2@U?$less@VName@Imf@@@std@@V?$allocator@U?$pair@$$CBVName@Imf@@PAVAttribute@2@@std@@@5@$0A@@std@@@std@@@std@@_N@2@PAU_Node@?$_Tree_nod@V?$_Tmap_traits@VName@Imf@@PAVAttribute@2@U?$less@VName@Imf@@@std@@V?$allocator@U?$pair@$$CBVName@Imf@@PAVAttribute@2@@std@@@5@$0A@@std@@@2@_N@Z 100bf210 f i ImfHeader.obj
 0002:0004f790       ?_Insert@?$_Tree@V?$_Tmap_traits@VName@Imf@@PAVAttribute@2@U?$less@VName@Imf@@@std@@V?$allocator@U?$pair@$$CBVName@Imf@@PAVAttribute@2@@std@@@5@$0A@@std@@@std@@IAE?AV?$_Tree_iterator@V?$_Tree_val@V?$_Tmap_traits@VName@Imf@@PAVAttribute@2@U?$less@VName@Imf@@@std@@V?$allocator@U?$pair@$$CBVName@Imf@@PAVAttribute@2@@std@@@5@$0A@@std@@@std@@@2@_NPAU_Node@?$_Tree_nod@V?$_Tmap_traits@VName@Imf@@PAVAttribute@2@U?$less@VName@Imf@@@std@@V?$allocator@U?$pair@$$CBVName@Imf@@PAVAttribute@2@@std@@@5@$0A@@std@@@2@1@Z 100bf790 f i ImfHeader.obj
 0002:0004fd30       ??F?$_Tree_const_iterator@V?$_Tree_val@V?$_Tmap_traits@VName@Imf@@PAVAttribute@2@U?$less@VName@Imf@@@std@@V?$allocator@U?$pair@$$CBVName@Imf@@PAVAttribute@2@@std@@@5@$0A@@std@@@std@@@std@@QAEAAV01@XZ 100bfd30 f i ImfHeader.obj
 0002:0004ff10       ??0?$_Tree@V?$_Tmap_traits@VName@Imf@@UChannel@2@U?$less@VName@Imf@@@std@@V?$allocator@U?$pair@$$CBVName@Imf@@UChannel@2@@std@@@5@$0A@@std@@@std@@QAE@ABU?$less@VName@Imf@@@1@ABV?$allocator@U?$pair@$$CBVName@Imf@@UChannel@2@@std@@@1@@Z 100bff10 f i ImfHeader.obj
 0002:0004ff80       ??4?$_Tree@V?$_Tmap_traits@VName@Imf@@UChannel@2@U?$less@VName@Imf@@@std@@V?$allocator@U?$pair@$$CBVName@Imf@@UChannel@2@@std@@@5@$0A@@std@@@std@@QAEAAV01@ABV01@@Z 100bff80 f i ImfHeader.obj
 0002:00050130       ?_Tidy@?$_Tree@V?$_Tmap_traits@VName@Imf@@UChannel@2@U?$less@VName@Imf@@@std@@V?$allocator@U?$pair@$$CBVName@Imf@@UChannel@2@@std@@@5@$0A@@std@@@std@@IAEXXZ 100c0130 f i ImfHeader.obj
 0002:000502c0       ??1?$_Tree_val@V?$_Tmap_traits@VName@Imf@@UChannel@2@U?$less@VName@Imf@@@std@@V?$allocator@U?$pair@$$CBVName@Imf@@UChannel@2@@std@@@5@$0A@@std@@@std@@QAE@XZ 100c02c0 f i ImfHeader.obj
 0002:00050370       ??0?$allocator@U?$pair@$$CBVName@Imf@@UChannel@2@@std@@@std@@QAE@XZ 100c0370 f i ImfHeader.obj
 0002:000503b0       ?max_size@?$_Tree@V?$_Tmap_traits@VName@Imf@@PAVAttribute@2@U?$less@VName@Imf@@@std@@V?$allocator@U?$pair@$$CBVName@Imf@@PAVAttribute@2@@std@@@5@$0A@@std@@@std@@QBEIXZ 100c03b0 f i ImfHeader.obj
 0002:00050410       ??F?$_Tree_iterator@V?$_Tree_val@V?$_Tmap_traits@VName@Imf@@PAVAttribute@2@U?$less@VName@Imf@@@std@@V?$allocator@U?$pair@$$CBVName@Imf@@PAVAttribute@2@@std@@@5@$0A@@std@@@std@@@std@@QAEAAV01@XZ 100c0410 f i ImfHeader.obj
 0002:00050470       ??F?$_Tree_unchecked_const_iterator@V?$_Tree_val@V?$_Tmap_traits@VName@Imf@@PAVAttribute@2@U?$less@VName@Imf@@@std@@V?$allocator@U?$pair@$$CBVName@Imf@@PAVAttribute@2@@std@@@5@$0A@@std@@@std@@U_Iterator_base12@2@@std@@QAEAAV01@XZ 100c0470 f i ImfHeader.obj
 0002:000505d0       ?erase@?$_Tree@V?$_Tmap_traits@VName@Imf@@UChannel@2@U?$less@VName@Imf@@@std@@V?$allocator@U?$pair@$$CBVName@Imf@@UChannel@2@@std@@@5@$0A@@std@@@std@@QAE?AV?$_Tree_iterator@V?$_Tree_val@V?$_Tmap_traits@VName@Imf@@UChannel@2@U?$less@VName@Imf@@@std@@V?$allocator@U?$pair@$$CBVName@Imf@@UChannel@2@@std@@@5@$0A@@std@@@std@@@2@V?$_Tree_const_iterator@V?$_Tree_val@V?$_Tmap_traits@VName@Imf@@UChannel@2@U?$less@VName@Imf@@@std@@V?$allocator@U?$pair@$$CBVName@Imf@@UChannel@2@@std@@@5@$0A@@std@@@std@@@2@0@Z 100c05d0 f i ImfHeader.obj
 0002:000508e0       ?_Copy@?$_Tree@V?$_Tmap_traits@VName@Imf@@UChannel@2@U?$less@VName@Imf@@@std@@V?$allocator@U?$pair@$$CBVName@Imf@@UChannel@2@@std@@@5@$0A@@std@@@std@@IAEXABV12@@Z 100c08e0 f i ImfHeader.obj
 0002:00050a00       ??0?$_Tree_val@V?$_Tmap_traits@VName@Imf@@UChannel@2@U?$less@VName@Imf@@@std@@V?$allocator@U?$pair@$$CBVName@Imf@@UChannel@2@@std@@@5@$0A@@std@@@std@@QAE@ABU?$less@VName@Imf@@@1@V?$allocator@U?$pair@$$CBVName@Imf@@UChannel@2@@std@@@1@@Z 100c0a00 f i ImfHeader.obj
 0002:00050b60       ??1?$_Tree_nod@V?$_Tmap_traits@VName@Imf@@UChannel@2@U?$less@VName@Imf@@@std@@V?$allocator@U?$pair@$$CBVName@Imf@@UChannel@2@@std@@@5@$0A@@std@@@std@@QAE@XZ 100c0b60 f i ImfHeader.obj
 0002:00050c90       ??0?$allocator@U?$pair@$$CBVName@Imf@@UChannel@2@@std@@@std@@QAE@ABV01@@Z 100c0c90 f i ImfHeader.obj
 0002:00050cd0       ??0?$pair@V?$_Tree_iterator@V?$_Tree_val@V?$_Tmap_traits@VName@Imf@@PAVAttribute@2@U?$less@VName@Imf@@@std@@V?$allocator@U?$pair@$$CBVName@Imf@@PAVAttribute@2@@std@@@5@$0A@@std@@@std@@@std@@_N@std@@QAE@$$QAV?$_Tree_iterator@V?$_Tree_val@V?$_Tmap_traits@VName@Imf@@PAVAttribute@2@U?$less@VName@Imf@@@std@@V?$allocator@U?$pair@$$CBVName@Imf@@PAVAttribute@2@@std@@@5@$0A@@std@@@std@@@1@$$QA_N@Z 100c0cd0 f i ImfHeader.obj
 0002:00050d50       ??1?$_Tmap_traits@VName@Imf@@UChannel@2@U?$less@VName@Imf@@@std@@V?$allocator@U?$pair@$$CBVName@Imf@@UChannel@2@@std@@@5@$0A@@std@@QAE@XZ 100c0d50 f i ImfHeader.obj
 0002:00050db0       ?max_size@?$allocator@U?$pair@$$CBVName@Imf@@PAVAttribute@2@@std@@@std@@QBEIXZ 100c0db0 f i ImfHeader.obj
 0002:00050e20       ?erase@?$_Tree@V?$_Tmap_traits@VName@Imf@@UChannel@2@U?$less@VName@Imf@@@std@@V?$allocator@U?$pair@$$CBVName@Imf@@UChannel@2@@std@@@5@$0A@@std@@@std@@QAE?AV?$_Tree_iterator@V?$_Tree_val@V?$_Tmap_traits@VName@Imf@@UChannel@2@U?$less@VName@Imf@@@std@@V?$allocator@U?$pair@$$CBVName@Imf@@UChannel@2@@std@@@5@$0A@@std@@@std@@@2@V?$_Tree_const_iterator@V?$_Tree_val@V?$_Tmap_traits@VName@Imf@@UChannel@2@U?$less@VName@Imf@@@std@@V?$allocator@U?$pair@$$CBVName@Imf@@UChannel@2@@std@@@5@$0A@@std@@@std@@@2@@Z 100c0e20 f i ImfHeader.obj
 0002:00051880       ?clear@?$_Tree@V?$_Tmap_traits@VName@Imf@@UChannel@2@U?$less@VName@Imf@@@std@@V?$allocator@U?$pair@$$CBVName@Imf@@UChannel@2@@std@@@5@$0A@@std@@@std@@QAEXXZ 100c1880 f i ImfHeader.obj
 0002:00051940       ?_Copy@?$_Tree@V?$_Tmap_traits@VName@Imf@@UChannel@2@U?$less@VName@Imf@@@std@@V?$allocator@U?$pair@$$CBVName@Imf@@UChannel@2@@std@@@5@$0A@@std@@@std@@IAEPAU_Node@?$_Tree_nod@V?$_Tmap_traits@VName@Imf@@UChannel@2@U?$less@VName@Imf@@@std@@V?$allocator@U?$pair@$$CBVName@Imf@@UChannel@2@@std@@@5@$0A@@std@@@2@PAU342@0@Z 100c1940 f i ImfHeader.obj
 0002:00051b50       ??0?$_Tree_nod@V?$_Tmap_traits@VName@Imf@@UChannel@2@U?$less@VName@Imf@@@std@@V?$allocator@U?$pair@$$CBVName@Imf@@UChannel@2@@std@@@5@$0A@@std@@@std@@QAE@ABU?$less@VName@Imf@@@1@V?$allocator@U?$pair@$$CBVName@Imf@@UChannel@2@@std@@@1@@Z 100c1b50 f i ImfHeader.obj
 0002:00051cb0       ??E?$_Tree_const_iterator@V?$_Tree_val@V?$_Tmap_traits@VName@Imf@@UChannel@2@U?$less@VName@Imf@@@std@@V?$allocator@U?$pair@$$CBVName@Imf@@UChannel@2@@std@@@5@$0A@@std@@@std@@@std@@QAE?AV01@H@Z 100c1cb0 f i ImfHeader.obj
 0002:00051dd0       ??9?$_Tree_const_iterator@V?$_Tree_val@V?$_Tmap_traits@VName@Imf@@UChannel@2@U?$less@VName@Imf@@@std@@V?$allocator@U?$pair@$$CBVName@Imf@@UChannel@2@@std@@@5@$0A@@std@@@std@@@std@@QBE_NABV01@@Z 100c1dd0 f i ImfHeader.obj
 0002:00051e40       ??0?$_Pair_base@V?$_Tree_iterator@V?$_Tree_val@V?$_Tmap_traits@VName@Imf@@PAVAttribute@2@U?$less@VName@Imf@@@std@@V?$allocator@U?$pair@$$CBVName@Imf@@PAVAttribute@2@@std@@@5@$0A@@std@@@std@@@std@@_N@std@@QAE@$$QAV?$_Tree_iterator@V?$_Tree_val@V?$_Tmap_traits@VName@Imf@@PAVAttribute@2@U?$less@VName@Imf@@@std@@V?$allocator@U?$pair@$$CBVName@Imf@@PAVAttribute@2@@std@@@5@$0A@@std@@@std@@@1@$$QA_N@Z 100c1e40 f i ImfHeader.obj
 0002:00051f10       ?_Erase@?$_Tree@V?$_Tmap_traits@VName@Imf@@UChannel@2@U?$less@VName@Imf@@@std@@V?$allocator@U?$pair@$$CBVName@Imf@@UChannel@2@@std@@@5@$0A@@std@@@std@@IAEXPAU_Node@?$_Tree_nod@V?$_Tmap_traits@VName@Imf@@UChannel@2@U?$less@VName@Imf@@@std@@V?$allocator@U?$pair@$$CBVName@Imf@@UChannel@2@@std@@@5@$0A@@std@@@2@@Z 100c1f10 f i ImfHeader.obj
 0002:00052000       ?_Orphan_ptr@?$_Tree@V?$_Tmap_traits@VName@Imf@@UChannel@2@U?$less@VName@Imf@@@std@@V?$allocator@U?$pair@$$CBVName@Imf@@UChannel@2@@std@@@5@$0A@@std@@@std@@IBEXAAV12@PAU_Node@?$_Tree_nod@V?$_Tmap_traits@VName@Imf@@UChannel@2@U?$less@VName@Imf@@@std@@V?$allocator@U?$pair@$$CBVName@Imf@@UChannel@2@@std@@@5@$0A@@std@@@2@@Z 100c2000 f i ImfHeader.obj
 0002:00052190       ??0?$_Tmap_traits@VName@Imf@@UChannel@2@U?$less@VName@Imf@@@std@@V?$allocator@U?$pair@$$CBVName@Imf@@UChannel@2@@std@@@5@$0A@@std@@QAE@U?$less@VName@Imf@@@1@@Z 100c2190 f i ImfHeader.obj
 0002:00052200       ?makeNewAttribute@?$TypedAttribute@V?$Box@V?$Vec2@H@Imath@@@Imath@@@Imf@@SAPAVAttribute@2@XZ 100c2200 f i ImfHeader.obj
 0002:000522e0       ?makeNewAttribute@?$TypedAttribute@V?$Box@V?$Vec2@M@Imath@@@Imath@@@Imf@@SAPAVAttribute@2@XZ 100c22e0 f i ImfHeader.obj
 0002:000523c0       ?makeNewAttribute@?$TypedAttribute@VChannelList@Imf@@@Imf@@SAPAVAttribute@2@XZ 100c23c0 f i ImfHeader.obj
 0002:000524a0       ?cast@?$TypedAttribute@VChannelList@Imf@@@Imf@@SAABV12@ABVAttribute@2@@Z 100c24a0 f i ImfHeader.obj
 0002:000524f0       ?makeNewAttribute@?$TypedAttribute@UChromaticities@Imf@@@Imf@@SAPAVAttribute@2@XZ 100c24f0 f i ImfHeader.obj
 0002:000525d0       ??0?$TypedAttribute@UChromaticities@Imf@@@Imf@@QAE@XZ 100c25d0 f i ImfHeader.obj
 0002:00052750       ?typeName@?$TypedAttribute@UChromaticities@Imf@@@Imf@@UBEPBDXZ 100c2750 f i ImfHeader.obj
 0002:000527a0       ?copy@?$TypedAttribute@UChromaticities@Imf@@@Imf@@UBEPAVAttribute@2@XZ 100c27a0 f i ImfHeader.obj
 0002:000528b0       ?copyValueFrom@?$TypedAttribute@UChromaticities@Imf@@@Imf@@UAEXABVAttribute@2@@Z 100c28b0 f i ImfHeader.obj
 0002:00052920       ??_G?$TypedAttribute@UChromaticities@Imf@@@Imf@@UAEPAXI@Z 100c2920 f i ImfHeader.obj
 0002:00052920       ??_E?$TypedAttribute@UChromaticities@Imf@@@Imf@@UAEPAXI@Z 100c2920 f i ImfHeader.obj
 0002:00052990       ??1?$TypedAttribute@UChromaticities@Imf@@@Imf@@UAE@XZ 100c2990 f i ImfHeader.obj
 0002:000529f0       ??4Chromaticities@Imf@@QAEAAU01@ABU01@@Z 100c29f0 f i ImfHeader.obj
 0002:00052a90       ?cast@?$TypedAttribute@UChromaticities@Imf@@@Imf@@SAABV12@ABVAttribute@2@@Z 100c2a90 f i ImfHeader.obj
 0002:00052ae0       ??0?$TypedAttribute@W4Compression@Imf@@@Imf@@QAE@XZ 100c2ae0 f i ImfHeader.obj
 0002:00052b50       ?makeNewAttribute@?$TypedAttribute@W4Compression@Imf@@@Imf@@SAPAVAttribute@2@XZ 100c2b50 f i ImfHeader.obj
 0002:00052c30       ?cast@?$TypedAttribute@W4Compression@Imf@@@Imf@@SAABV12@ABVAttribute@2@@Z 100c2c30 f i ImfHeader.obj
 0002:00052c80       ?makeNewAttribute@?$TypedAttribute@W4Envmap@Imf@@@Imf@@SAPAVAttribute@2@XZ 100c2c80 f i ImfHeader.obj
 0002:00052d60       ??0?$TypedAttribute@W4Envmap@Imf@@@Imf@@QAE@XZ 100c2d60 f i ImfHeader.obj
 0002:00052dd0       ?typeName@?$TypedAttribute@W4Envmap@Imf@@@Imf@@UBEPBDXZ 100c2dd0 f i ImfHeader.obj
 0002:00052e20       ?copy@?$TypedAttribute@W4Envmap@Imf@@@Imf@@UBEPAVAttribute@2@XZ 100c2e20 f i ImfHeader.obj
 0002:00052f30       ?copyValueFrom@?$TypedAttribute@W4Envmap@Imf@@@Imf@@UAEXABVAttribute@2@@Z 100c2f30 f i ImfHeader.obj
 0002:00052fa0       ??_G?$TypedAttribute@W4Envmap@Imf@@@Imf@@UAEPAXI@Z 100c2fa0 f i ImfHeader.obj
 0002:00052fa0       ??_E?$TypedAttribute@W4Envmap@Imf@@@Imf@@UAEPAXI@Z 100c2fa0 f i ImfHeader.obj
 0002:00053010       ??1?$TypedAttribute@W4Envmap@Imf@@@Imf@@UAE@XZ 100c3010 f i ImfHeader.obj
 0002:00053070       ?cast@?$TypedAttribute@W4Envmap@Imf@@@Imf@@SAABV12@ABVAttribute@2@@Z 100c3070 f i ImfHeader.obj
 0002:000530c0       ?makeNewAttribute@?$TypedAttribute@H@Imf@@SAPAVAttribute@2@XZ 100c30c0 f i ImfHeader.obj
 0002:000531a0       ?makeNewAttribute@?$TypedAttribute@VKeyCode@Imf@@@Imf@@SAPAVAttribute@2@XZ 100c31a0 f i ImfHeader.obj
 0002:00053280       ??0?$TypedAttribute@VKeyCode@Imf@@@Imf@@QAE@XZ 100c3280 f i ImfHeader.obj
 0002:00053350       ?typeName@?$TypedAttribute@VKeyCode@Imf@@@Imf@@UBEPBDXZ 100c3350 f i ImfHeader.obj
 0002:000533a0       ?copy@?$TypedAttribute@VKeyCode@Imf@@@Imf@@UBEPAVAttribute@2@XZ 100c33a0 f i ImfHeader.obj
 0002:000534b0       ?copyValueFrom@?$TypedAttribute@VKeyCode@Imf@@@Imf@@UAEXABVAttribute@2@@Z 100c34b0 f i ImfHeader.obj
 0002:00053520       ??_E?$TypedAttribute@VKeyCode@Imf@@@Imf@@UAEPAXI@Z 100c3520 f i ImfHeader.obj
 0002:00053520       ??_G?$TypedAttribute@VKeyCode@Imf@@@Imf@@UAEPAXI@Z 100c3520 f i ImfHeader.obj
 0002:00053590       ??1?$TypedAttribute@VKeyCode@Imf@@@Imf@@UAE@XZ 100c3590 f i ImfHeader.obj
 0002:000535f0       ?cast@?$TypedAttribute@VKeyCode@Imf@@@Imf@@SAABV12@ABVAttribute@2@@Z 100c35f0 f i ImfHeader.obj
 0002:00053640       ??0?$TypedAttribute@W4LineOrder@Imf@@@Imf@@QAE@XZ 100c3640 f i ImfHeader.obj
 0002:000536b0       ?makeNewAttribute@?$TypedAttribute@W4LineOrder@Imf@@@Imf@@SAPAVAttribute@2@XZ 100c36b0 f i ImfHeader.obj
 0002:00053790       ?cast@?$TypedAttribute@W4LineOrder@Imf@@@Imf@@SAABV12@ABVAttribute@2@@Z 100c3790 f i ImfHeader.obj
 0002:000537e0       ?makeNewAttribute@?$TypedAttribute@V?$Matrix33@M@Imath@@@Imf@@SAPAVAttribute@2@XZ 100c37e0 f i ImfHeader.obj
 0002:000538c0       ?makeNewAttribute@?$TypedAttribute@V?$Matrix33@N@Imath@@@Imf@@SAPAVAttribute@2@XZ 100c38c0 f i ImfHeader.obj
 0002:000539a0       ??0?$TypedAttribute@V?$Matrix33@N@Imath@@@Imf@@QAE@XZ 100c39a0 f i ImfHeader.obj
 0002:00053a60       ?typeName@?$TypedAttribute@V?$Matrix33@N@Imath@@@Imf@@UBEPBDXZ 100c3a60 f i ImfHeader.obj
 0002:00053ab0       ?copy@?$TypedAttribute@V?$Matrix33@N@Imath@@@Imf@@UBEPAVAttribute@2@XZ 100c3ab0 f i ImfHeader.obj
 0002:00053bc0       ?copyValueFrom@?$TypedAttribute@V?$Matrix33@N@Imath@@@Imf@@UAEXABVAttribute@2@@Z 100c3bc0 f i ImfHeader.obj
 0002:00053c30       ??_E?$TypedAttribute@V?$Matrix33@N@Imath@@@Imf@@UAEPAXI@Z 100c3c30 f i ImfHeader.obj
 0002:00053c30       ??_G?$TypedAttribute@V?$Matrix33@N@Imath@@@Imf@@UAEPAXI@Z 100c3c30 f i ImfHeader.obj
 0002:00053ca0       ??1?$TypedAttribute@V?$Matrix33@N@Imath@@@Imf@@UAE@XZ 100c3ca0 f i ImfHeader.obj
 0002:00053d00       ?cast@?$TypedAttribute@V?$Matrix33@N@Imath@@@Imf@@SAABV12@ABVAttribute@2@@Z 100c3d00 f i ImfHeader.obj
 0002:00053d50       ??4?$Matrix33@N@Imath@@QAEABV01@ABV01@@Z 100c3d50 f i ImfHeader.obj
 0002:00053dc0       ?makeNewAttribute@?$TypedAttribute@V?$Matrix44@M@Imath@@@Imf@@SAPAVAttribute@2@XZ 100c3dc0 f i ImfHeader.obj
 0002:00053ea0       ?makeNewAttribute@?$TypedAttribute@V?$Matrix44@N@Imath@@@Imf@@SAPAVAttribute@2@XZ 100c3ea0 f i ImfHeader.obj
 0002:00053f90       ??0?$TypedAttribute@V?$Matrix44@N@Imath@@@Imf@@QAE@XZ 100c3f90 f i ImfHeader.obj
 0002:00054050       ?typeName@?$TypedAttribute@V?$Matrix44@N@Imath@@@Imf@@UBEPBDXZ 100c4050 f i ImfHeader.obj
 0002:000540a0       ?copy@?$TypedAttribute@V?$Matrix44@N@Imath@@@Imf@@UBEPAVAttribute@2@XZ 100c40a0 f i ImfHeader.obj
 0002:000541b0       ?copyValueFrom@?$TypedAttribute@V?$Matrix44@N@Imath@@@Imf@@UAEXABVAttribute@2@@Z 100c41b0 f i ImfHeader.obj
 0002:00054220       ??_G?$TypedAttribute@V?$Matrix44@N@Imath@@@Imf@@UAEPAXI@Z 100c4220 f i ImfHeader.obj
 0002:00054220       ??_E?$TypedAttribute@V?$Matrix44@N@Imath@@@Imf@@UAEPAXI@Z 100c4220 f i ImfHeader.obj
 0002:00054290       ??1?$TypedAttribute@V?$Matrix44@N@Imath@@@Imf@@UAE@XZ 100c4290 f i ImfHeader.obj
 0002:000542f0       ?cast@?$TypedAttribute@V?$Matrix44@N@Imath@@@Imf@@SAABV12@ABVAttribute@2@@Z 100c42f0 f i ImfHeader.obj
 0002:00054340       ??4?$Matrix44@N@Imath@@QAEABV01@ABV01@@Z 100c4340 f i ImfHeader.obj
 0002:00054470       ??0?$TypedAttribute@VPreviewImage@Imf@@@Imf@@QAE@XZ 100c4470 f i ImfHeader.obj
 0002:00054530       ?makeNewAttribute@?$TypedAttribute@VPreviewImage@Imf@@@Imf@@SAPAVAttribute@2@XZ 100c4530 f i ImfHeader.obj
 0002:00054610       ?cast@?$TypedAttribute@VPreviewImage@Imf@@@Imf@@SAABV12@ABVAttribute@2@@Z 100c4610 f i ImfHeader.obj
 0002:00054660       ?makeNewAttribute@?$TypedAttribute@VRational@Imf@@@Imf@@SAPAVAttribute@2@XZ 100c4660 f i ImfHeader.obj
 0002:00054740       ??0?$TypedAttribute@VRational@Imf@@@Imf@@QAE@XZ 100c4740 f i ImfHeader.obj
 0002:00054800       ??0Rational@Imf@@QAE@XZ    100c4800 f i ImfHeader.obj
 0002:00054850       ?typeName@?$TypedAttribute@VRational@Imf@@@Imf@@UBEPBDXZ 100c4850 f i ImfHeader.obj
 0002:000548a0       ?copy@?$TypedAttribute@VRational@Imf@@@Imf@@UBEPAVAttribute@2@XZ 100c48a0 f i ImfHeader.obj
 0002:000549b0       ?copyValueFrom@?$TypedAttribute@VRational@Imf@@@Imf@@UAEXABVAttribute@2@@Z 100c49b0 f i ImfHeader.obj
 0002:00054a20       ??_G?$TypedAttribute@VRational@Imf@@@Imf@@UAEPAXI@Z 100c4a20 f i ImfHeader.obj
 0002:00054a20       ??_E?$TypedAttribute@VRational@Imf@@@Imf@@UAEPAXI@Z 100c4a20 f i ImfHeader.obj
 0002:00054a90       ??1?$TypedAttribute@VRational@Imf@@@Imf@@UAE@XZ 100c4a90 f i ImfHeader.obj
 0002:00054af0       ?cast@?$TypedAttribute@VRational@Imf@@@Imf@@SAABV12@ABVAttribute@2@@Z 100c4af0 f i ImfHeader.obj
 0002:00054b40       ?makeNewAttribute@?$TypedAttribute@V?$basic_string@DU?$char_traits@D@std@@V?$allocator@D@2@@std@@@Imf@@SAPAVAttribute@2@XZ 100c4b40 f i ImfHeader.obj
 0002:00054c20       ?makeNewAttribute@?$TypedAttribute@V?$vector@V?$basic_string@DU?$char_traits@D@std@@V?$allocator@D@2@@std@@V?$allocator@V?$basic_string@DU?$char_traits@D@std@@V?$allocator@D@2@@std@@@2@@std@@@Imf@@SAPAVAttribute@2@XZ 100c4c20 f i ImfHeader.obj
 0002:00054d00       ??0?$TypedAttribute@V?$vector@V?$basic_string@DU?$char_traits@D@std@@V?$allocator@D@2@@std@@V?$allocator@V?$basic_string@DU?$char_traits@D@std@@V?$allocator@D@2@@std@@@2@@std@@@Imf@@QAE@XZ 100c4d00 f i ImfHeader.obj
 0002:00054dc0       ?typeName@?$TypedAttribute@V?$vector@V?$basic_string@DU?$char_traits@D@std@@V?$allocator@D@2@@std@@V?$allocator@V?$basic_string@DU?$char_traits@D@std@@V?$allocator@D@2@@std@@@2@@std@@@Imf@@UBEPBDXZ 100c4dc0 f i ImfHeader.obj
 0002:00054e10       ?copy@?$TypedAttribute@V?$vector@V?$basic_string@DU?$char_traits@D@std@@V?$allocator@D@2@@std@@V?$allocator@V?$basic_string@DU?$char_traits@D@std@@V?$allocator@D@2@@std@@@2@@std@@@Imf@@UBEPAVAttribute@2@XZ 100c4e10 f i ImfHeader.obj
 0002:00054f20       ?copyValueFrom@?$TypedAttribute@V?$vector@V?$basic_string@DU?$char_traits@D@std@@V?$allocator@D@2@@std@@V?$allocator@V?$basic_string@DU?$char_traits@D@std@@V?$allocator@D@2@@std@@@2@@std@@@Imf@@UAEXABVAttribute@2@@Z 100c4f20 f i ImfHeader.obj
 0002:00054f90       ??_G?$TypedAttribute@V?$vector@V?$basic_string@DU?$char_traits@D@std@@V?$allocator@D@2@@std@@V?$allocator@V?$basic_string@DU?$char_traits@D@std@@V?$allocator@D@2@@std@@@2@@std@@@Imf@@UAEPAXI@Z 100c4f90 f i ImfHeader.obj
 0002:00054f90       ??_E?$TypedAttribute@V?$vector@V?$basic_string@DU?$char_traits@D@std@@V?$allocator@D@2@@std@@V?$allocator@V?$basic_string@DU?$char_traits@D@std@@V?$allocator@D@2@@std@@@2@@std@@@Imf@@UAEPAXI@Z 100c4f90 f i ImfHeader.obj
 0002:00055000       ??1?$TypedAttribute@V?$vector@V?$basic_string@DU?$char_traits@D@std@@V?$allocator@D@2@@std@@V?$allocator@V?$basic_string@DU?$char_traits@D@std@@V?$allocator@D@2@@std@@@2@@std@@@Imf@@UAE@XZ 100c5000 f i ImfHeader.obj
 0002:000550b0       ??1?$vector@V?$basic_string@DU?$char_traits@D@std@@V?$allocator@D@2@@std@@V?$allocator@V?$basic_string@DU?$char_traits@D@std@@V?$allocator@D@2@@std@@@2@@std@@QAE@XZ 100c50b0 f i ImfHeader.obj
 0002:00055150       ??4?$vector@V?$basic_string@DU?$char_traits@D@std@@V?$allocator@D@2@@std@@V?$allocator@V?$basic_string@DU?$char_traits@D@std@@V?$allocator@D@2@@std@@@2@@std@@QAEAAV01@ABV01@@Z 100c5150 f i ImfHeader.obj
 0002:00055380       ?capacity@?$vector@V?$basic_string@DU?$char_traits@D@std@@V?$allocator@D@2@@std@@V?$allocator@V?$basic_string@DU?$char_traits@D@std@@V?$allocator@D@2@@std@@@2@@std@@QBEIXZ 100c5380 f i ImfHeader.obj
 0002:000553d0       ?size@?$vector@V?$basic_string@DU?$char_traits@D@std@@V?$allocator@D@2@@std@@V?$allocator@V?$basic_string@DU?$char_traits@D@std@@V?$allocator@D@2@@std@@@2@@std@@QBEIXZ 100c53d0 f i ImfHeader.obj
 0002:00055420       ?clear@?$vector@V?$basic_string@DU?$char_traits@D@std@@V?$allocator@D@2@@std@@V?$allocator@V?$basic_string@DU?$char_traits@D@std@@V?$allocator@D@2@@std@@@2@@std@@QAEXXZ 100c5420 f i ImfHeader.obj
 0002:000555b0       ?_Buy@?$vector@V?$basic_string@DU?$char_traits@D@std@@V?$allocator@D@2@@std@@V?$allocator@V?$basic_string@DU?$char_traits@D@std@@V?$allocator@D@2@@std@@@2@@std@@IAE_NI@Z 100c55b0 f i ImfHeader.obj
 0002:00055690       ?_Destroy@?$vector@V?$basic_string@DU?$char_traits@D@std@@V?$allocator@D@2@@std@@V?$allocator@V?$basic_string@DU?$char_traits@D@std@@V?$allocator@D@2@@std@@@2@@std@@IAEXPAV?$basic_string@DU?$char_traits@D@std@@V?$allocator@D@2@@2@0@Z 100c5690 f i ImfHeader.obj
 0002:00055700       ?_Tidy@?$vector@V?$basic_string@DU?$char_traits@D@std@@V?$allocator@D@2@@std@@V?$allocator@V?$basic_string@DU?$char_traits@D@std@@V?$allocator@D@2@@std@@@2@@std@@IAEXXZ 100c5700 f i ImfHeader.obj
 0002:000557e0       ??1?$_Vector_val@V?$basic_string@DU?$char_traits@D@std@@V?$allocator@D@2@@std@@V?$allocator@V?$basic_string@DU?$char_traits@D@std@@V?$allocator@D@2@@std@@@2@@std@@QAE@XZ 100c57e0 f i ImfHeader.obj
 0002:00055920       ?deallocate@?$allocator@V?$basic_string@DU?$char_traits@D@std@@V?$allocator@D@2@@std@@@std@@QAEXPAV?$basic_string@DU?$char_traits@D@std@@V?$allocator@D@2@@2@I@Z 100c5920 f i ImfHeader.obj
 0002:00055980       ??1?$_Vector_iterator@V?$_Vector_val@V?$basic_string@DU?$char_traits@D@std@@V?$allocator@D@2@@std@@V?$allocator@V?$basic_string@DU?$char_traits@D@std@@V?$allocator@D@2@@std@@@2@@std@@@std@@QAE@XZ 100c5980 f i ImfHeader.obj
 0002:000559d0       ??0?$_Vector_const_iterator@V?$_Vector_val@V?$basic_string@DU?$char_traits@D@std@@V?$allocator@D@2@@std@@V?$allocator@V?$basic_string@DU?$char_traits@D@std@@V?$allocator@D@2@@std@@@2@@std@@@std@@QAE@ABV01@@Z 100c59d0 f i ImfHeader.obj
 0002:00055a40       ??1?$_Vector_const_iterator@V?$_Vector_val@V?$basic_string@DU?$char_traits@D@std@@V?$allocator@D@2@@std@@V?$allocator@V?$basic_string@DU?$char_traits@D@std@@V?$allocator@D@2@@std@@@2@@std@@@std@@QAE@XZ 100c5a40 f i ImfHeader.obj
 0002:00055a90       ??0?$_Iterator012@Urandom_access_iterator_tag@std@@V?$basic_string@DU?$char_traits@D@std@@V?$allocator@D@2@@2@HPBV32@ABV32@U_Iterator_base12@2@@std@@QAE@ABU01@@Z 100c5a90 f i ImfHeader.obj
 0002:00055af0       ??1?$_Iterator012@Urandom_access_iterator_tag@std@@V?$basic_string@DU?$char_traits@D@std@@V?$allocator@D@2@@2@HPBV32@ABV32@U_Iterator_base12@2@@std@@QAE@XZ 100c5af0 f i ImfHeader.obj
 0002:00055b40       ?begin@?$vector@V?$basic_string@DU?$char_traits@D@std@@V?$allocator@D@2@@std@@V?$allocator@V?$basic_string@DU?$char_traits@D@std@@V?$allocator@D@2@@std@@@2@@std@@QAE?AV?$_Vector_iterator@V?$_Vector_val@V?$basic_string@DU?$char_traits@D@std@@V?$allocator@D@2@@std@@V?$allocator@V?$basic_string@DU?$char_traits@D@std@@V?$allocator@D@2@@std@@@2@@std@@@2@XZ 100c5b40 f i ImfHeader.obj
 0002:00055bd0       ?end@?$vector@V?$basic_string@DU?$char_traits@D@std@@V?$allocator@D@2@@std@@V?$allocator@V?$basic_string@DU?$char_traits@D@std@@V?$allocator@D@2@@std@@@2@@std@@QAE?AV?$_Vector_iterator@V?$_Vector_val@V?$basic_string@DU?$char_traits@D@std@@V?$allocator@D@2@@std@@V?$allocator@V?$basic_string@DU?$char_traits@D@std@@V?$allocator@D@2@@std@@@2@@std@@@2@XZ 100c5bd0 f i ImfHeader.obj
 0002:00055c60       ?max_size@?$vector@V?$basic_string@DU?$char_traits@D@std@@V?$allocator@D@2@@std@@V?$allocator@V?$basic_string@DU?$char_traits@D@std@@V?$allocator@D@2@@std@@@2@@std@@QBEIXZ 100c5c60 f i ImfHeader.obj
 0002:00055cc0       ?erase@?$vector@V?$basic_string@DU?$char_traits@D@std@@V?$allocator@D@2@@std@@V?$allocator@V?$basic_string@DU?$char_traits@D@std@@V?$allocator@D@2@@std@@@2@@std@@QAE?AV?$_Vector_iterator@V?$_Vector_val@V?$basic_string@DU?$char_traits@D@std@@V?$allocator@D@2@@std@@V?$allocator@V?$basic_string@DU?$char_traits@D@std@@V?$allocator@D@2@@std@@@2@@std@@@2@V?$_Vector_const_iterator@V?$_Vector_val@V?$basic_string@DU?$char_traits@D@std@@V?$allocator@D@2@@std@@V?$allocator@V?$basic_string@DU?$char_traits@D@std@@V?$allocator@D@2@@std@@@2@@std@@@2@0@Z 100c5cc0 f i ImfHeader.obj
 0002:00055f90       ?_Xlen@?$vector@V?$basic_string@DU?$char_traits@D@std@@V?$allocator@D@2@@std@@V?$allocator@V?$basic_string@DU?$char_traits@D@std@@V?$allocator@D@2@@std@@@2@@std@@IBEXXZ 100c5f90 f i ImfHeader.obj
 0002:00055ff0       ?allocate@?$allocator@V?$basic_string@DU?$char_traits@D@std@@V?$allocator@D@2@@std@@@std@@QAEPAV?$basic_string@DU?$char_traits@D@std@@V?$allocator@D@2@@2@I@Z 100c5ff0 f i ImfHeader.obj
 0002:00056050       ?_Make_iter@?$vector@V?$basic_string@DU?$char_traits@D@std@@V?$allocator@D@2@@std@@V?$allocator@V?$basic_string@DU?$char_traits@D@std@@V?$allocator@D@2@@std@@@2@@std@@QBE?AV?$_Vector_iterator@V?$_Vector_val@V?$basic_string@DU?$char_traits@D@std@@V?$allocator@D@2@@std@@V?$allocator@V?$basic_string@DU?$char_traits@D@std@@V?$allocator@D@2@@std@@@2@@std@@@2@V?$_Vector_const_iterator@V?$_Vector_val@V?$basic_string@DU?$char_traits@D@std@@V?$allocator@D@2@@std@@V?$allocator@V?$basic_string@DU?$char_traits@D@std@@V?$allocator@D@2@@std@@@2@@std@@@2@@Z 100c6050 f i ImfHeader.obj
 0002:00056120       ?_Orphan_range@?$vector@V?$basic_string@DU?$char_traits@D@std@@V?$allocator@D@2@@std@@V?$allocator@V?$basic_string@DU?$char_traits@D@std@@V?$allocator@D@2@@std@@@2@@std@@IBEXPAV?$basic_string@DU?$char_traits@D@std@@V?$allocator@D@2@@2@0@Z 100c6120 f i ImfHeader.obj
 0002:000562a0       ??0?$_Vector_iterator@V?$_Vector_val@V?$basic_string@DU?$char_traits@D@std@@V?$allocator@D@2@@std@@V?$allocator@V?$basic_string@DU?$char_traits@D@std@@V?$allocator@D@2@@std@@@2@@std@@@std@@QAE@PAV?$basic_string@DU?$char_traits@D@std@@V?$allocator@D@2@@1@PBU_Container_base12@1@@Z 100c62a0 f i ImfHeader.obj
 0002:00056300       ??9?$_Vector_const_iterator@V?$_Vector_val@V?$basic_string@DU?$char_traits@D@std@@V?$allocator@D@2@@std@@V?$allocator@V?$basic_string@DU?$char_traits@D@std@@V?$allocator@D@2@@std@@@2@@std@@@std@@QBE_NABV01@@Z 100c6300 f i ImfHeader.obj
 0002:00056370       ??M?$_Vector_const_iterator@V?$_Vector_val@V?$basic_string@DU?$char_traits@D@std@@V?$allocator@D@2@@std@@V?$allocator@V?$basic_string@DU?$char_traits@D@std@@V?$allocator@D@2@@std@@@2@@std@@@std@@QBE_NABV01@@Z 100c6370 f i ImfHeader.obj
 0002:000563e0       ??0?$_Vector_const_iterator@V?$_Vector_val@V?$basic_string@DU?$char_traits@D@std@@V?$allocator@D@2@@std@@V?$allocator@V?$basic_string@DU?$char_traits@D@std@@V?$allocator@D@2@@std@@@2@@std@@@std@@QAE@PAV?$basic_string@DU?$char_traits@D@std@@V?$allocator@D@2@@1@PBU_Container_base12@1@@Z 100c63e0 f i ImfHeader.obj
 0002:000564a0       ??8?$_Vector_const_iterator@V?$_Vector_val@V?$basic_string@DU?$char_traits@D@std@@V?$allocator@D@2@@std@@V?$allocator@V?$basic_string@DU?$char_traits@D@std@@V?$allocator@D@2@@std@@@2@@std@@@std@@QBE_NABV01@@Z 100c64a0 f i ImfHeader.obj
 0002:00056510       ?_Compat@?$_Vector_const_iterator@V?$_Vector_val@V?$basic_string@DU?$char_traits@D@std@@V?$allocator@D@2@@std@@V?$allocator@V?$basic_string@DU?$char_traits@D@std@@V?$allocator@D@2@@std@@@2@@std@@@std@@QBEXABV12@@Z 100c6510 f i ImfHeader.obj
 0002:00056630       ??0?$_Iterator012@Urandom_access_iterator_tag@std@@V?$basic_string@DU?$char_traits@D@std@@V?$allocator@D@2@@2@HPBV32@ABV32@U_Iterator_base12@2@@std@@QAE@XZ 100c6630 f i ImfHeader.obj
 0002:00056690       ?cast@?$TypedAttribute@V?$vector@V?$basic_string@DU?$char_traits@D@std@@V?$allocator@D@2@@std@@V?$allocator@V?$basic_string@DU?$char_traits@D@std@@V?$allocator@D@2@@std@@@2@@std@@@Imf@@SAABV12@ABVAttribute@2@@Z 100c6690 f i ImfHeader.obj
 0002:000566e0       ??0?$TypedAttribute@VTileDescription@Imf@@@Imf@@QAE@XZ 100c66e0 f i ImfHeader.obj
 0002:000567a0       ??0TileDescription@Imf@@QAE@IIW4LevelMode@1@W4LevelRoundingMode@1@@Z 100c67a0 f i ImfHeader.obj
 0002:00056810       ?makeNewAttribute@?$TypedAttribute@VTileDescription@Imf@@@Imf@@SAPAVAttribute@2@XZ 100c6810 f i ImfHeader.obj
 0002:000568f0       ?cast@?$TypedAttribute@VTileDescription@Imf@@@Imf@@SAABV12@ABVAttribute@2@@Z 100c68f0 f i ImfHeader.obj
 0002:00056940       ?makeNewAttribute@?$TypedAttribute@VTimeCode@Imf@@@Imf@@SAPAVAttribute@2@XZ 100c6940 f i ImfHeader.obj
 0002:00056a20       ??0?$TypedAttribute@VTimeCode@Imf@@@Imf@@QAE@XZ 100c6a20 f i ImfHeader.obj
 0002:00056ae0       ?typeName@?$TypedAttribute@VTimeCode@Imf@@@Imf@@UBEPBDXZ 100c6ae0 f i ImfHeader.obj
 0002:00056b30       ?copy@?$TypedAttribute@VTimeCode@Imf@@@Imf@@UBEPAVAttribute@2@XZ 100c6b30 f i ImfHeader.obj
 0002:00056c40       ?copyValueFrom@?$TypedAttribute@VTimeCode@Imf@@@Imf@@UAEXABVAttribute@2@@Z 100c6c40 f i ImfHeader.obj
 0002:00056cb0       ??_G?$TypedAttribute@VTimeCode@Imf@@@Imf@@UAEPAXI@Z 100c6cb0 f i ImfHeader.obj
 0002:00056cb0       ??_E?$TypedAttribute@VTimeCode@Imf@@@Imf@@UAEPAXI@Z 100c6cb0 f i ImfHeader.obj
 0002:00056d20       ??1?$TypedAttribute@VTimeCode@Imf@@@Imf@@UAE@XZ 100c6d20 f i ImfHeader.obj
 0002:00056d80       ?cast@?$TypedAttribute@VTimeCode@Imf@@@Imf@@SAABV12@ABVAttribute@2@@Z 100c6d80 f i ImfHeader.obj
 0002:00056dd0       ?makeNewAttribute@?$TypedAttribute@V?$Vec2@H@Imath@@@Imf@@SAPAVAttribute@2@XZ 100c6dd0 f i ImfHeader.obj
 0002:00056eb0       ?makeNewAttribute@?$TypedAttribute@V?$Vec2@M@Imath@@@Imf@@SAPAVAttribute@2@XZ 100c6eb0 f i ImfHeader.obj
 0002:00056f90       ?makeNewAttribute@?$TypedAttribute@V?$Vec2@N@Imath@@@Imf@@SAPAVAttribute@2@XZ 100c6f90 f i ImfHeader.obj
 0002:00057070       ??0?$TypedAttribute@V?$Vec2@N@Imath@@@Imf@@QAE@XZ 100c7070 f i ImfHeader.obj
 0002:00057130       ?typeName@?$TypedAttribute@V?$Vec2@N@Imath@@@Imf@@UBEPBDXZ 100c7130 f i ImfHeader.obj
 0002:00057180       ?copy@?$TypedAttribute@V?$Vec2@N@Imath@@@Imf@@UBEPAVAttribute@2@XZ 100c7180 f i ImfHeader.obj
 0002:00057290       ?copyValueFrom@?$TypedAttribute@V?$Vec2@N@Imath@@@Imf@@UAEXABVAttribute@2@@Z 100c7290 f i ImfHeader.obj
 0002:00057300       ??_G?$TypedAttribute@V?$Vec2@N@Imath@@@Imf@@UAEPAXI@Z 100c7300 f i ImfHeader.obj
 0002:00057300       ??_E?$TypedAttribute@V?$Vec2@N@Imath@@@Imf@@UAEPAXI@Z 100c7300 f i ImfHeader.obj
 0002:00057370       ??1?$TypedAttribute@V?$Vec2@N@Imath@@@Imf@@UAE@XZ 100c7370 f i ImfHeader.obj
 0002:000573d0       ?cast@?$TypedAttribute@V?$Vec2@N@Imath@@@Imf@@SAABV12@ABVAttribute@2@@Z 100c73d0 f i ImfHeader.obj
 0002:00057420       ??4?$Vec2@N@Imath@@QAEABV01@ABV01@@Z 100c7420 f i ImfHeader.obj
 0002:00057480       ?makeNewAttribute@?$TypedAttribute@V?$Vec3@H@Imath@@@Imf@@SAPAVAttribute@2@XZ 100c7480 f i ImfHeader.obj
 0002:00057560       ?makeNewAttribute@?$TypedAttribute@V?$Vec3@M@Imath@@@Imf@@SAPAVAttribute@2@XZ 100c7560 f i ImfHeader.obj
 0002:00057640       ?makeNewAttribute@?$TypedAttribute@V?$Vec3@N@Imath@@@Imf@@SAPAVAttribute@2@XZ 100c7640 f i ImfHeader.obj
 0002:00057720       ??0?$TypedAttribute@V?$Vec3@N@Imath@@@Imf@@QAE@XZ 100c7720 f i ImfHeader.obj
 0002:000577e0       ?typeName@?$TypedAttribute@V?$Vec3@N@Imath@@@Imf@@UBEPBDXZ 100c77e0 f i ImfHeader.obj
 0002:00057830       ?copy@?$TypedAttribute@V?$Vec3@N@Imath@@@Imf@@UBEPAVAttribute@2@XZ 100c7830 f i ImfHeader.obj
 0002:00057940       ?copyValueFrom@?$TypedAttribute@V?$Vec3@N@Imath@@@Imf@@UAEXABVAttribute@2@@Z 100c7940 f i ImfHeader.obj
 0002:000579b0       ??_G?$TypedAttribute@V?$Vec3@N@Imath@@@Imf@@UAEPAXI@Z 100c79b0 f i ImfHeader.obj
 0002:000579b0       ??_E?$TypedAttribute@V?$Vec3@N@Imath@@@Imf@@UAEPAXI@Z 100c79b0 f i ImfHeader.obj
 0002:00057a20       ??1?$TypedAttribute@V?$Vec3@N@Imath@@@Imf@@UAE@XZ 100c7a20 f i ImfHeader.obj
 0002:00057a80       ?cast@?$TypedAttribute@V?$Vec3@N@Imath@@@Imf@@SAABV12@ABVAttribute@2@@Z 100c7a80 f i ImfHeader.obj
 0002:00057ad0       ??4?$Vec3@N@Imath@@QAEABV01@ABV01@@Z 100c7ad0 f i ImfHeader.obj
 0002:00057b40       ??$forward@U?$pair@$$CBVName@Imf@@PAVAttribute@2@@std@@@std@@YA$$QAU?$pair@$$CBVName@Imf@@PAVAttribute@2@@0@AAU10@@Z 100c7b40 f i ImfHeader.obj
 0002:00057b80       ??$_Buynode@U?$pair@$$CBVName@Imf@@PAVAttribute@2@@std@@@?$_Tree_val@V?$_Tmap_traits@VName@Imf@@PAVAttribute@2@U?$less@VName@Imf@@@std@@V?$allocator@U?$pair@$$CBVName@Imf@@PAVAttribute@2@@std@@@5@$0A@@std@@@std@@QAEPAU_Node@?$_Tree_nod@V?$_Tmap_traits@VName@Imf@@PAVAttribute@2@U?$less@VName@Imf@@@std@@V?$allocator@U?$pair@$$CBVName@Imf@@PAVAttribute@2@@std@@@5@$0A@@std@@@1@$$QAU?$pair@$$CBVName@Imf@@PAVAttribute@2@@1@@Z 100c7b80 f i ImfHeader.obj
 0002:00057cd0       ??$_Destroy@U?$pair@$$CBVName@Imf@@PAVAttribute@2@@std@@@std@@YAXPAU?$pair@$$CBVName@Imf@@PAVAttribute@2@@0@@Z 100c7cd0 f i ImfHeader.obj
 0002:00057d00       ??$_Copy_impl@PAV?$basic_string@DU?$char_traits@D@std@@V?$allocator@D@2@@std@@PAV12@@std@@YAPAV?$basic_string@DU?$char_traits@D@std@@V?$allocator@D@2@@0@PAV10@00@Z 100c7d00 f i ImfHeader.obj
 0002:00057d80       ??$_Ucopy@PAV?$basic_string@DU?$char_traits@D@std@@V?$allocator@D@2@@std@@@?$vector@V?$basic_string@DU?$char_traits@D@std@@V?$allocator@D@2@@std@@V?$allocator@V?$basic_string@DU?$char_traits@D@std@@V?$allocator@D@2@@std@@@2@@std@@IAEPAV?$basic_string@DU?$char_traits@D@std@@V?$allocator@D@2@@1@PAV21@00@Z 100c7d80 f i ImfHeader.obj
 0002:00057df0       ??$?0AAV?$_Tree_iterator@V?$_Tree_val@V?$_Tmap_traits@VName@Imf@@PAVAttribute@2@U?$less@VName@Imf@@@std@@V?$allocator@U?$pair@$$CBVName@Imf@@PAVAttribute@2@@std@@@5@$0A@@std@@@std@@@std@@_N@?$pair@V?$_Tree_iterator@V?$_Tree_val@V?$_Tmap_traits@VName@Imf@@PAVAttribute@2@U?$less@VName@Imf@@@std@@V?$allocator@U?$pair@$$CBVName@Imf@@PAVAttribute@2@@std@@@5@$0A@@std@@@std@@@std@@_N@std@@QAE@AAV?$_Tree_iterator@V?$_Tree_val@V?$_Tmap_traits@VName@Imf@@PAVAttribute@2@U?$less@VName@Imf@@@std@@V?$allocator@U?$pair@$$CBVName@Imf@@PAVAttribute@2@@std@@@5@$0A@@std@@@std@@@1@$$QA_N@Z 100c7df0 f i ImfHeader.obj
 0002:00057e70       ??$_Destroy_range@V?$allocator@V?$basic_string@DU?$char_traits@D@std@@V?$allocator@D@2@@std@@@std@@@std@@YAXPAV?$basic_string@DU?$char_traits@D@std@@V?$allocator@D@2@@0@0AAV?$allocator@V?$basic_string@DU?$char_traits@D@std@@V?$allocator@D@2@@std@@@0@@Z 100c7e70 f i ImfHeader.obj
 0002:00057ef0       ??$?0V?$basic_string@DU?$char_traits@D@std@@V?$allocator@D@2@@std@@@?$allocator@U_Container_proxy@std@@@std@@QAE@ABV?$allocator@V?$basic_string@DU?$char_traits@D@std@@V?$allocator@D@2@@std@@@1@@Z 100c7ef0 f i ImfHeader.obj
 0002:00057f30       ??$?0U_Node@?$_Tree_nod@V?$_Tmap_traits@VName@Imf@@UChannel@2@U?$less@VName@Imf@@@std@@V?$allocator@U?$pair@$$CBVName@Imf@@UChannel@2@@std@@@5@$0A@@std@@@std@@@?$allocator@U_Container_proxy@std@@@std@@QAE@ABV?$allocator@U_Node@?$_Tree_nod@V?$_Tmap_traits@VName@Imf@@UChannel@2@U?$less@VName@Imf@@@std@@V?$allocator@U?$pair@$$CBVName@Imf@@UChannel@2@@std@@@5@$0A@@std@@@std@@@1@@Z 100c7f30 f i ImfHeader.obj
 0002:00057f70       ??$_Move@PAV?$basic_string@DU?$char_traits@D@std@@V?$allocator@D@2@@std@@PAV12@@std@@YAPAV?$basic_string@DU?$char_traits@D@std@@V?$allocator@D@2@@0@PAV10@00@Z 100c7f70 f i ImfHeader.obj
 0002:00057ff0       ??$_Allocate@V?$basic_string@DU?$char_traits@D@std@@V?$allocator@D@2@@std@@@std@@YAPAV?$basic_string@DU?$char_traits@D@std@@V?$allocator@D@2@@0@IPAV10@@Z 100c7ff0 f i ImfHeader.obj
 0002:000580a0       ??$move@AAV?$_Tree_iterator@V?$_Tree_val@V?$_Tmap_traits@VName@Imf@@PAVAttribute@2@U?$less@VName@Imf@@@std@@V?$allocator@U?$pair@$$CBVName@Imf@@PAVAttribute@2@@std@@@5@$0A@@std@@@std@@@std@@@std@@YA$$QAV?$_Tree_iterator@V?$_Tree_val@V?$_Tmap_traits@VName@Imf@@PAVAttribute@2@U?$less@VName@Imf@@@std@@V?$allocator@U?$pair@$$CBVName@Imf@@PAVAttribute@2@@std@@@5@$0A@@std@@@std@@@0@AAV10@@Z 100c80a0 f i ImfHeader.obj
 0002:000580e0       ??$_Buynode@AAU?$pair@$$CBVName@Imf@@UChannel@2@@std@@@?$_Tree_val@V?$_Tmap_traits@VName@Imf@@UChannel@2@U?$less@VName@Imf@@@std@@V?$allocator@U?$pair@$$CBVName@Imf@@UChannel@2@@std@@@5@$0A@@std@@@std@@QAEPAU_Node@?$_Tree_nod@V?$_Tmap_traits@VName@Imf@@UChannel@2@U?$less@VName@Imf@@@std@@V?$allocator@U?$pair@$$CBVName@Imf@@UChannel@2@@std@@@5@$0A@@std@@@1@AAU?$pair@$$CBVName@Imf@@UChannel@2@@1@@Z 100c80e0 f i ImfHeader.obj
 0002:00058230       ??$?0U?$pair@$$CBVName@Imf@@UChannel@2@@std@@@?$allocator@U_Node@?$_Tree_nod@V?$_Tmap_traits@VName@Imf@@UChannel@2@U?$less@VName@Imf@@@std@@V?$allocator@U?$pair@$$CBVName@Imf@@UChannel@2@@std@@@5@$0A@@std@@@std@@@std@@QAE@ABV?$allocator@U?$pair@$$CBVName@Imf@@UChannel@2@@std@@@1@@Z 100c8230 f i ImfHeader.obj
 0002:00058270       ?_Buynode@?$_Tree_val@V?$_Tmap_traits@VName@Imf@@PAVAttribute@2@U?$less@VName@Imf@@@std@@V?$allocator@U?$pair@$$CBVName@Imf@@PAVAttribute@2@@std@@@5@$0A@@std@@@std@@QAEPAU_Node@?$_Tree_nod@V?$_Tmap_traits@VName@Imf@@PAVAttribute@2@U?$less@VName@Imf@@@std@@V?$allocator@U?$pair@$$CBVName@Imf@@PAVAttribute@2@@std@@@5@$0A@@std@@@2@XZ 100c8270 f i ImfHeader.obj
 0002:00058340       ??0?$vector@V?$basic_string@DU?$char_traits@D@std@@V?$allocator@D@2@@std@@V?$allocator@V?$basic_string@DU?$char_traits@D@std@@V?$allocator@D@2@@std@@@2@@std@@QAE@XZ 100c8340 f i ImfHeader.obj
 0002:000583b0       ??0?$_Vector_val@V?$basic_string@DU?$char_traits@D@std@@V?$allocator@D@2@@std@@V?$allocator@V?$basic_string@DU?$char_traits@D@std@@V?$allocator@D@2@@std@@@2@@std@@QAE@V?$allocator@V?$basic_string@DU?$char_traits@D@std@@V?$allocator@D@2@@std@@@1@@Z 100c83b0 f i ImfHeader.obj
 0002:00058530       ??0?$allocator@V?$basic_string@DU?$char_traits@D@std@@V?$allocator@D@2@@std@@@std@@QAE@XZ 100c8530 f i ImfHeader.obj
 0002:00058570       ??0?$allocator@V?$basic_string@DU?$char_traits@D@std@@V?$allocator@D@2@@std@@@std@@QAE@ABV01@@Z 100c8570 f i ImfHeader.obj
 0002:000585b0       ?cast@?$TypedAttribute@VChannelList@Imf@@@Imf@@SAPBV12@PBVAttribute@2@@Z 100c85b0 f i ImfHeader.obj
 0002:00058660       ?cast@?$TypedAttribute@UChromaticities@Imf@@@Imf@@SAPBV12@PBVAttribute@2@@Z 100c8660 f i ImfHeader.obj
 0002:00058710       ?cast@?$TypedAttribute@W4Compression@Imf@@@Imf@@SAPBV12@PBVAttribute@2@@Z 100c8710 f i ImfHeader.obj
 0002:000587c0       ?cast@?$TypedAttribute@W4Envmap@Imf@@@Imf@@SAPBV12@PBVAttribute@2@@Z 100c87c0 f i ImfHeader.obj
 0002:00058870       ?cast@?$TypedAttribute@VKeyCode@Imf@@@Imf@@SAPBV12@PBVAttribute@2@@Z 100c8870 f i ImfHeader.obj
 0002:00058920       ?cast@?$TypedAttribute@W4LineOrder@Imf@@@Imf@@SAPBV12@PBVAttribute@2@@Z 100c8920 f i ImfHeader.obj
 0002:000589d0       ?cast@?$TypedAttribute@V?$Matrix33@N@Imath@@@Imf@@SAPBV12@PBVAttribute@2@@Z 100c89d0 f i ImfHeader.obj
 0002:00058a80       ??0?$Matrix33@N@Imath@@QAE@XZ 100c8a80 f i ImfHeader.obj
 0002:00058b20       ?cast@?$TypedAttribute@V?$Matrix44@N@Imath@@@Imf@@SAPBV12@PBVAttribute@2@@Z 100c8b20 f i ImfHeader.obj
 0002:00058bd0       ??0?$Matrix44@N@Imath@@QAE@XZ 100c8bd0 f i ImfHeader.obj
 0002:00058c80       ?cast@?$TypedAttribute@VPreviewImage@Imf@@@Imf@@SAPBV12@PBVAttribute@2@@Z 100c8c80 f i ImfHeader.obj
 0002:00058d30       ?cast@?$TypedAttribute@VRational@Imf@@@Imf@@SAPBV12@PBVAttribute@2@@Z 100c8d30 f i ImfHeader.obj
 0002:00058de0       ?cast@?$TypedAttribute@V?$vector@V?$basic_string@DU?$char_traits@D@std@@V?$allocator@D@2@@std@@V?$allocator@V?$basic_string@DU?$char_traits@D@std@@V?$allocator@D@2@@std@@@2@@std@@@Imf@@SAPBV12@PBVAttribute@2@@Z 100c8de0 f i ImfHeader.obj
 0002:00058e90       ?cast@?$TypedAttribute@VTileDescription@Imf@@@Imf@@SAPBV12@PBVAttribute@2@@Z 100c8e90 f i ImfHeader.obj
 0002:00058f40       ?cast@?$TypedAttribute@VTimeCode@Imf@@@Imf@@SAPBV12@PBVAttribute@2@@Z 100c8f40 f i ImfHeader.obj
 0002:00058ff0       ?cast@?$TypedAttribute@V?$Vec2@N@Imath@@@Imf@@SAPBV12@PBVAttribute@2@@Z 100c8ff0 f i ImfHeader.obj
 0002:000590a0       ??0?$Vec2@N@Imath@@QAE@XZ  100c90a0 f i ImfHeader.obj
 0002:000590e0       ?cast@?$TypedAttribute@V?$Vec3@N@Imath@@@Imf@@SAPBV12@PBVAttribute@2@@Z 100c90e0 f i ImfHeader.obj
 0002:00059190       ??0?$Vec3@N@Imath@@QAE@XZ  100c9190 f i ImfHeader.obj
 0002:000591d0       ??$_Cons_val@V?$allocator@U?$pair@$$CBVName@Imf@@PAVAttribute@2@@std@@@std@@U?$pair@$$CBVName@Imf@@PAVAttribute@2@@2@U32@@std@@YAXAAV?$allocator@U?$pair@$$CBVName@Imf@@PAVAttribute@2@@std@@@0@PAU?$pair@$$CBVName@Imf@@PAVAttribute@2@@0@$$QAU20@@Z 100c91d0 f i ImfHeader.obj
 0002:00059230       ??$_Ptr_cat@V?$basic_string@DU?$char_traits@D@std@@V?$allocator@D@2@@std@@V12@@std@@YA?AU_Nonscalar_ptr_iterator_tag@0@PAV?$basic_string@DU?$char_traits@D@std@@V?$allocator@D@2@@0@0@Z 100c9230 f i ImfHeader.obj
 0002:000592a0       ??$_Copy_impl@PAV?$basic_string@DU?$char_traits@D@std@@V?$allocator@D@2@@std@@PAV12@@std@@YAPAV?$basic_string@DU?$char_traits@D@std@@V?$allocator@D@2@@0@PAV10@00U_Nonscalar_ptr_iterator_tag@0@@Z 100c92a0 f i ImfHeader.obj
 0002:00059320       ??$_Uninitialized_copy@PAV?$basic_string@DU?$char_traits@D@std@@V?$allocator@D@2@@std@@PAV12@V?$allocator@V?$basic_string@DU?$char_traits@D@std@@V?$allocator@D@2@@std@@@2@@std@@YAPAV?$basic_string@DU?$char_traits@D@std@@V?$allocator@D@2@@0@PAV10@00AAV?$allocator@V?$basic_string@DU?$char_traits@D@std@@V?$allocator@D@2@@std@@@0@@Z 100c9320 f i ImfHeader.obj
 0002:000593b0       ??$forward@AAV?$_Tree_iterator@V?$_Tree_val@V?$_Tmap_traits@VName@Imf@@PAVAttribute@2@U?$less@VName@Imf@@@std@@V?$allocator@U?$pair@$$CBVName@Imf@@PAVAttribute@2@@std@@@5@$0A@@std@@@std@@@std@@@std@@YAAAV?$_Tree_iterator@V?$_Tree_val@V?$_Tmap_traits@VName@Imf@@PAVAttribute@2@U?$less@VName@Imf@@@std@@V?$allocator@U?$pair@$$CBVName@Imf@@PAVAttribute@2@@std@@@5@$0A@@std@@@std@@@0@AAV10@@Z 100c93b0 f i ImfHeader.obj
 0002:000593f0       ??$?0AAV?$_Tree_iterator@V?$_Tree_val@V?$_Tmap_traits@VName@Imf@@PAVAttribute@2@U?$less@VName@Imf@@@std@@V?$allocator@U?$pair@$$CBVName@Imf@@PAVAttribute@2@@std@@@5@$0A@@std@@@std@@@std@@_N@?$_Pair_base@V?$_Tree_iterator@V?$_Tree_val@V?$_Tmap_traits@VName@Imf@@PAVAttribute@2@U?$less@VName@Imf@@@std@@V?$allocator@U?$pair@$$CBVName@Imf@@PAVAttribute@2@@std@@@5@$0A@@std@@@std@@@std@@_N@std@@QAE@AAV?$_Tree_iterator@V?$_Tree_val@V?$_Tmap_traits@VName@Imf@@PAVAttribute@2@U?$less@VName@Imf@@@std@@V?$allocator@U?$pair@$$CBVName@Imf@@PAVAttribute@2@@std@@@5@$0A@@std@@@std@@@1@$$QA_N@Z 100c93f0 f i ImfHeader.obj
 0002:000594c0       ??$_Destroy_range@V?$allocator@V?$basic_string@DU?$char_traits@D@std@@V?$allocator@D@2@@std@@@std@@@std@@YAXPAV?$basic_string@DU?$char_traits@D@std@@V?$allocator@D@2@@0@0AAV?$allocator@V?$basic_string@DU?$char_traits@D@std@@V?$allocator@D@2@@std@@@0@U_Nonscalar_ptr_iterator_tag@0@@Z 100c94c0 f i ImfHeader.obj
 0002:00059530       ??$_Move@PAV?$basic_string@DU?$char_traits@D@std@@V?$allocator@D@2@@std@@PAV12@@std@@YAPAV?$basic_string@DU?$char_traits@D@std@@V?$allocator@D@2@@0@PAV10@00U_Nonscalar_ptr_iterator_tag@0@@Z 100c9530 f i ImfHeader.obj
 0002:000595c0       ??4?$basic_string@DU?$char_traits@D@std@@V?$allocator@D@2@@std@@QAEAAV01@$$QAV01@@Z 100c95c0 f i ImfHeader.obj
 0002:00059630       ??$forward@AAU?$pair@$$CBVName@Imf@@UChannel@2@@std@@@std@@YAAAU?$pair@$$CBVName@Imf@@UChannel@2@@0@AAU10@@Z 100c9630 f i ImfHeader.obj
 0002:00059670       ??$_Cons_val@V?$allocator@U?$pair@$$CBVName@Imf@@UChannel@2@@std@@@std@@U?$pair@$$CBVName@Imf@@UChannel@2@@2@AAU32@@std@@YAXAAV?$allocator@U?$pair@$$CBVName@Imf@@UChannel@2@@std@@@0@PAU?$pair@$$CBVName@Imf@@UChannel@2@@0@AAU20@@Z 100c9670 f i ImfHeader.obj
 0002:000596d0       ?construct@?$allocator@U?$pair@$$CBVName@Imf@@PAVAttribute@2@@std@@@std@@QAEXPAU?$pair@$$CBVName@Imf@@PAVAttribute@2@@2@$$QAU32@@Z 100c96d0 f i ImfHeader.obj
 0002:000597d0       ??$_Uninit_copy@PAV?$basic_string@DU?$char_traits@D@std@@V?$allocator@D@2@@std@@PAV12@V?$allocator@V?$basic_string@DU?$char_traits@D@std@@V?$allocator@D@2@@std@@@2@@std@@YAPAV?$basic_string@DU?$char_traits@D@std@@V?$allocator@D@2@@0@PAV10@00AAV?$allocator@V?$basic_string@DU?$char_traits@D@std@@V?$allocator@D@2@@std@@@0@U_Nonscalar_ptr_iterator_tag@0@@Z 100c97d0 f i ImfHeader.obj
 0002:00059930       ??$move@AAV?$basic_string@DU?$char_traits@D@std@@V?$allocator@D@2@@std@@@std@@YA$$QAV?$basic_string@DU?$char_traits@D@std@@V?$allocator@D@2@@0@AAV10@@Z 100c9930 f i ImfHeader.obj
 0002:00059970       ??$construct@AAU?$pair@$$CBVName@Imf@@UChannel@2@@std@@@?$allocator@U?$pair@$$CBVName@Imf@@UChannel@2@@std@@@std@@QAEXPAU?$pair@$$CBVName@Imf@@UChannel@2@@1@AAU21@@Z 100c9970 f i ImfHeader.obj
 0002:00059a70       ??$?0$$CBVName@Imf@@PAVAttribute@1@@?$pair@$$CBVName@Imf@@PAVAttribute@2@@std@@QAE@$$QAU01@@Z 100c9a70 f i ImfHeader.obj
 0002:00059af0       ??0?$_Pair_base@$$CBVName@Imf@@PAVAttribute@2@@std@@QAE@$$QBVName@Imf@@$$QAPAVAttribute@3@@Z 100c9af0 f i ImfHeader.obj
 0002:00059b80       ??$_Debug_range@PAV?$basic_string@DU?$char_traits@D@std@@V?$allocator@D@2@@std@@@std@@YAXPAV?$basic_string@DU?$char_traits@D@std@@V?$allocator@D@2@@0@0PB_WI@Z 100c9b80 f i ImfHeader.obj
 0002:00059c00       ??$_Debug_pointer@V?$basic_string@DU?$char_traits@D@std@@V?$allocator@D@2@@std@@@std@@YAXPAV?$basic_string@DU?$char_traits@D@std@@V?$allocator@D@2@@0@PB_WI@Z 100c9c00 f i ImfHeader.obj
 0002:00059c70       ??$?0$$CBVName@Imf@@UChannel@1@@?$pair@$$CBVName@Imf@@UChannel@2@@std@@QAE@AAU01@@Z 100c9c70 f i ImfHeader.obj
 0002:00059ce0       ??$forward@PAVAttribute@Imf@@@std@@YA$$QAPAVAttribute@Imf@@AAPAV12@@Z 100c9ce0 f i ImfHeader.obj
 0002:00059d20       ??$_Iter_cat@PAV?$basic_string@DU?$char_traits@D@std@@V?$allocator@D@2@@std@@@std@@YA?AUrandom_access_iterator_tag@0@ABQAV?$basic_string@DU?$char_traits@D@std@@V?$allocator@D@2@@0@@Z 100c9d20 f i ImfHeader.obj
 0002:00059da0       ??$_Debug_range2@PAV?$basic_string@DU?$char_traits@D@std@@V?$allocator@D@2@@std@@@std@@YAXPAV?$basic_string@DU?$char_traits@D@std@@V?$allocator@D@2@@0@0PB_WIUrandom_access_iterator_tag@0@@Z 100c9da0 f i ImfHeader.obj
 0002:00059e50       ??$?0ABVName@Imf@@AAUChannel@1@@?$_Pair_base@$$CBVName@Imf@@UChannel@2@@std@@QAE@ABVName@Imf@@AAUChannel@3@@Z 100c9e50 f i ImfHeader.obj
 0002:00059ef0       ??$forward@ABVName@Imf@@@std@@YAABVName@Imf@@ABV12@@Z 100c9ef0 f i ImfHeader.obj
 0002:00059f30       ??$forward@AAUChannel@Imf@@@std@@YAAAUChannel@Imf@@AAU12@@Z 100c9f30 f i ImfHeader.obj
 0002:00059f70       ?invalidNBits@?A0xc87c6bb7@Imf@@YAXXZ 100c9f70 f   ImfHuf.obj
 0002:00059ff0       ?tooMuchData@?A0xc87c6bb7@Imf@@YAXXZ 100c9ff0 f   ImfHuf.obj
 0002:0005a070       ?notEnoughData@?A0xc87c6bb7@Imf@@YAXXZ 100ca070 f   ImfHuf.obj
 0002:0005a0f0       ?invalidCode@?A0xc87c6bb7@Imf@@YAXXZ 100ca0f0 f   ImfHuf.obj
 0002:0005a170       ?invalidTableSize@?A0xc87c6bb7@Imf@@YAXXZ 100ca170 f   ImfHuf.obj
 0002:0005a1f0       ?unexpectedEndOfTable@?A0xc87c6bb7@Imf@@YAXXZ 100ca1f0 f   ImfHuf.obj
 0002:0005a270       ?tableTooLong@?A0xc87c6bb7@Imf@@YAXXZ 100ca270 f   ImfHuf.obj
 0002:0005a2f0       ?invalidTableEntry@?A0xc87c6bb7@Imf@@YAXXZ 100ca2f0 f   ImfHuf.obj
 0002:0005a370       ?hufCanonicalCodeTable@?A0xc87c6bb7@Imf@@YAXQA_K@Z 100ca370 f   ImfHuf.obj
 0002:0005a6a0       ?hufBuildEncTable@?A0xc87c6bb7@Imf@@YAXPA_KPAH1@Z 100ca6a0 f   ImfHuf.obj
 0002:0005ad30       ?hufPackEncTable@?A0xc87c6bb7@Imf@@YAXPB_KHHPAPAD@Z 100cad30 f   ImfHuf.obj
 0002:0005afa0       ?hufLength@?A0xc87c6bb7@Imf@@YA_K_K@Z 100cafa0 f i ImfHuf.obj
 0002:0005afe0       ?outputBits@?A0xc87c6bb7@Imf@@YAXH_KAA_KAAHAAPAD@Z 100cafe0 f i ImfHuf.obj
 0002:0005b0c0       ?hufUnpackEncTable@?A0xc87c6bb7@Imf@@YAXPAPBDHHHPA_K@Z 100cb0c0 f   ImfHuf.obj
 0002:0005b3a0       ?getBits@?A0xc87c6bb7@Imf@@YA_KHAA_KAAHAAPBD@Z 100cb3a0 f i ImfHuf.obj
 0002:0005b490       ?hufClearDecTable@?A0xc87c6bb7@Imf@@YAXPAUHufDec@12@@Z 100cb490 f   ImfHuf.obj
 0002:0005b4f0       ?hufBuildDecTable@?A0xc87c6bb7@Imf@@YAXPB_KHHPAUHufDec@12@@Z 100cb4f0 f   ImfHuf.obj
 0002:0005b860       ?hufCode@?A0xc87c6bb7@Imf@@YA_K_K@Z 100cb860 f i ImfHuf.obj
 0002:0005b8b0       ?hufFreeDecTable@?A0xc87c6bb7@Imf@@YAXPAUHufDec@12@@Z 100cb8b0 f   ImfHuf.obj
 0002:0005b960       ?hufEncode@?A0xc87c6bb7@Imf@@YAHPB_KPBGHHPAD@Z 100cb960 f   ImfHuf.obj
 0002:0005bb50       ?sendCode@?A0xc87c6bb7@Imf@@YAX_KH0AA_KAAHAAPAD@Z 100cbb50 f i ImfHuf.obj
 0002:0005bc70       ?outputCode@?A0xc87c6bb7@Imf@@YAX_KAA_KAAHAAPAD@Z 100cbc70 f i ImfHuf.obj
 0002:0005bd00       ?hufDecode@?A0xc87c6bb7@Imf@@YAXPB_KPBUHufDec@12@PBDHHHPAG@Z 100cbd00 f   ImfHuf.obj
 0002:0005c520       ?countFrequencies@?A0xc87c6bb7@Imf@@YAXQA_KQBGH@Z 100cc520 f   ImfHuf.obj
 0002:0005c5f0       ?writeUInt@?A0xc87c6bb7@Imf@@YAXQADI@Z 100cc5f0 f   ImfHuf.obj
 0002:0005c660       ?readUInt@?A0xc87c6bb7@Imf@@YAIQBD@Z 100cc660 f   ImfHuf.obj
 0002:0005c6f0       ?hufCompress@Imf@@YAHQBGHQAD@Z 100cc6f0 f   ImfHuf.obj
 0002:0005c970       ?hufUncompress@Imf@@YAXQBDHQAGH@Z 100cc970 f   ImfHuf.obj
 0002:0005cc80       ??0?$AutoArray@H$0BAAAB@@Imf@@QAE@XZ 100ccc80 f i ImfHuf.obj
 0002:0005cd10       ??1?$AutoArray@H$0BAAAB@@Imf@@QAE@XZ 100ccd10 f i ImfHuf.obj
 0002:0005cd80       ??B?$AutoArray@H$0BAAAB@@Imf@@QAEPAHXZ 100ccd80 f i ImfHuf.obj
 0002:0005cdc0       ??0?$AutoArray@PA_K$0BAAAB@@Imf@@QAE@XZ 100ccdc0 f i ImfHuf.obj
 0002:0005ce50       ??1?$AutoArray@PA_K$0BAAAB@@Imf@@QAE@XZ 100cce50 f i ImfHuf.obj
 0002:0005cec0       ??B?$AutoArray@PA_K$0BAAAB@@Imf@@QAEPAPA_KXZ 100ccec0 f i ImfHuf.obj
 0002:0005cf00       ??0?$AutoArray@_K$0BAAAB@@Imf@@QAE@XZ 100ccf00 f i ImfHuf.obj
 0002:0005cf90       ??1?$AutoArray@_K$0BAAAB@@Imf@@QAE@XZ 100ccf90 f i ImfHuf.obj
 0002:0005d000       ??B?$AutoArray@_K$0BAAAB@@Imf@@QAEPA_KXZ 100cd000 f i ImfHuf.obj
 0002:0005d040       ??0?$AutoArray@UHufDec@?A0xc87c6bb7@Imf@@$0EAAA@@Imf@@QAE@XZ 100cd040 f i ImfHuf.obj
 0002:0005d0d0       ??1?$AutoArray@UHufDec@?A0xc87c6bb7@Imf@@$0EAAA@@Imf@@QAE@XZ 100cd0d0 f i ImfHuf.obj
 0002:0005d140       ??B?$AutoArray@UHufDec@?A0xc87c6bb7@Imf@@$0EAAA@@Imf@@QAEPAUHufDec@?A0xc87c6bb7@1@XZ 100cd140 f i ImfHuf.obj
 0002:0005d180       ??$make_heap@PAPA_KUFHeapCompare@?A0xc87c6bb7@Imf@@@std@@YAXPAPA_K0UFHeapCompare@?A0xc87c6bb7@Imf@@@Z 100cd180 f i ImfHuf.obj
 0002:0005d260       ??$pop_heap@PAPA_KUFHeapCompare@?A0xc87c6bb7@Imf@@@std@@YAXPAPA_K0UFHeapCompare@?A0xc87c6bb7@Imf@@@Z 100cd260 f i ImfHuf.obj
 0002:0005d350       ??$push_heap@PAPA_KUFHeapCompare@?A0xc87c6bb7@Imf@@@std@@YAXPAPA_K0UFHeapCompare@?A0xc87c6bb7@Imf@@@Z 100cd350 f i ImfHuf.obj
 0002:0005d470       ??$_Debug_range@PAPA_K@std@@YAXPAPA_K0PB_WI@Z 100cd470 f i ImfHuf.obj
 0002:0005d4f0       ??$_Debug_pointer@UFHeapCompare@?A0xc87c6bb7@Imf@@@std@@YAXAAUFHeapCompare@?A0xc87c6bb7@Imf@@PB_WI@Z 100cd4f0 f i ImfHuf.obj
 0002:0005d520       ??$_Unchecked@PAPA_K@std@@YAPAPA_KPAPA_K@Z 100cd520 f i ImfHuf.obj
 0002:0005d560       ??$_Dist_type@PAPA_K@std@@YAPAHPAPA_K@Z 100cd560 f i ImfHuf.obj
 0002:0005d590       ??$_Val_type@PAPA_K@std@@YAPAPA_KPAPA_K@Z 100cd590 f i ImfHuf.obj
 0002:0005d5c0       ??$_Make_heap@PAPA_KHPA_KUFHeapCompare@?A0xc87c6bb7@Imf@@@std@@YAXPAPA_K0UFHeapCompare@?A0xc87c6bb7@Imf@@PAH0@Z 100cd5c0 f i ImfHuf.obj
 0002:0005d6c0       ??$_Debug_heap@PAPA_KUFHeapCompare@?A0xc87c6bb7@Imf@@@std@@YAXPAPA_K0UFHeapCompare@?A0xc87c6bb7@Imf@@@Z 100cd6c0 f i ImfHuf.obj
 0002:0005d820       ??$_Pop_heap@PAPA_KUFHeapCompare@?A0xc87c6bb7@Imf@@@std@@YAXPAPA_K0UFHeapCompare@?A0xc87c6bb7@Imf@@@Z 100cd820 f i ImfHuf.obj
 0002:0005d8a0       ??$_Push_heap_0@PAPA_KHPA_KUFHeapCompare@?A0xc87c6bb7@Imf@@@std@@YAXPAPA_K0UFHeapCompare@?A0xc87c6bb7@Imf@@PAH0@Z 100cd8a0 f i ImfHuf.obj
 0002:0005d970       ??$_Iter_cat@PAPA_K@std@@YA?AUrandom_access_iterator_tag@0@ABQAPA_K@Z 100cd970 f i ImfHuf.obj
 0002:0005d9f0       ??$_Debug_range2@PAPA_K@std@@YAXPAPA_K0PB_WIUrandom_access_iterator_tag@0@@Z 100cd9f0 f i ImfHuf.obj
 0002:0005daa0       ??$_Move@AAPA_K@std@@YA$$QAPA_KAAPA_K@Z 100cdaa0 f i ImfHuf.obj
 0002:0005dae0       ??$_Adjust_heap@PAPA_KHPA_KUFHeapCompare@?A0xc87c6bb7@Imf@@@std@@YAXPAPA_KHH$$QAPA_KUFHeapCompare@?A0xc87c6bb7@Imf@@@Z 100cdae0 f i ImfHuf.obj
 0002:0005dc30       ??$_Debug_lt_pred@UFHeapCompare@?A0xc87c6bb7@Imf@@PA_KPA_K@std@@YA_NUFHeapCompare@?A0xc87c6bb7@Imf@@AAPA_K1PB_WI@Z 100cdc30 f i ImfHuf.obj
 0002:0005dcf0       ??RFHeapCompare@?A0xc87c6bb7@Imf@@QAE_NPA_K0@Z 100cdcf0 f i ImfHuf.obj
 0002:0005dda0       ??$_Pop_heap_0@PAPA_KPA_KUFHeapCompare@?A0xc87c6bb7@Imf@@@std@@YAXPAPA_K0UFHeapCompare@?A0xc87c6bb7@Imf@@0@Z 100cdda0 f i ImfHuf.obj
 0002:0005de80       ??$_Push_heap@PAPA_KHPA_KUFHeapCompare@?A0xc87c6bb7@Imf@@@std@@YAXPAPA_KHH$$QAPA_KUFHeapCompare@?A0xc87c6bb7@Imf@@@Z 100cde80 f i ImfHuf.obj
 0002:0005df70       ??$_Debug_pointer@PA_K@std@@YAXPAPA_KPB_WI@Z 100cdf70 f i ImfHuf.obj
 0002:0005dfe0       ??$_Pop_heap@PAPA_KHPA_KUFHeapCompare@?A0xc87c6bb7@Imf@@@std@@YAXPAPA_K00$$QAPA_KUFHeapCompare@?A0xc87c6bb7@Imf@@PAH@Z 100cdfe0 f i ImfHuf.obj
 0002:0005e070       ??0Data@InputFile@Imf@@QAE@_NH@Z 100ce070 f   ImfInputFile.obj
 0002:0005e1f0       ??_EData@InputFile@Imf@@UAEPAXI@Z 100ce1f0 f i ImfInputFile.obj
 0002:0005e1f0       ??_GData@InputFile@Imf@@UAEPAXI@Z 100ce1f0 f i ImfInputFile.obj
 0002:0005e260       ??0FrameBuffer@Imf@@QAE@XZ 100ce260 f i ImfInputFile.obj
 0002:0005e2c0       ??1Data@InputFile@Imf@@UAE@XZ 100ce2c0 f   ImfInputFile.obj
 0002:0005e4d0       ??1FrameBuffer@Imf@@QAE@XZ 100ce4d0 f i ImfInputFile.obj
 0002:0005e520       ??1?$map@VName@Imf@@USlice@2@U?$less@VName@Imf@@@std@@V?$allocator@U?$pair@$$CBVName@Imf@@USlice@2@@std@@@5@@std@@QAE@XZ 100ce520 f i ImfInputFile.obj
 0002:0005e570       ?deleteCachedBuffer@Data@InputFile@Imf@@QAEXXZ 100ce570 f   ImfInputFile.obj
 0002:0005e870       ??EIterator@FrameBuffer@Imf@@QAEAAV012@XZ 100ce870 f i ImfInputFile.obj
 0002:0005e8d0       ?slice@Iterator@FrameBuffer@Imf@@QBEAAUSlice@3@XZ 100ce8d0 f i ImfInputFile.obj
 0002:0005e930       ??0ConstIterator@FrameBuffer@Imf@@QAE@ABVIterator@12@@Z 100ce930 f i ImfInputFile.obj
 0002:0005e990       ??9Imf@@YA_NABVConstIterator@FrameBuffer@0@0@Z 100ce990 f i ImfInputFile.obj
 0002:0005e9f0       ??8Imf@@YA_NABVConstIterator@FrameBuffer@0@0@Z 100ce9f0 f i ImfInputFile.obj
 0002:0005ea40       ??_GFrameBuffer@Imf@@QAEPAXI@Z 100cea40 f i ImfInputFile.obj
 0002:0005eab0       ?bufferedReadPixels@?A0x60dcbc02@Imf@@YAXPAUData@InputFile@2@HH@Z 100ceab0 f   ImfInputFile.obj
 0002:0005f1f0       ??EConstIterator@FrameBuffer@Imf@@QAEAAV012@XZ 100cf1f0 f i ImfInputFile.obj
 0002:0005f250       ?name@ConstIterator@FrameBuffer@Imf@@QBEPBDXZ 100cf250 f i ImfInputFile.obj
 0002:0005f2b0       ?slice@ConstIterator@FrameBuffer@Imf@@QBEABUSlice@3@XZ 100cf2b0 f i ImfInputFile.obj
 0002:0005f310       ??0InputFile@Imf@@QAE@QBDH@Z 100cf310 f   ImfInputFile.obj
 0002:0005f700       ??_GInputFile@Imf@@UAEPAXI@Z 100cf700 f i ImfInputFile.obj
 0002:0005f700       ??_EInputFile@Imf@@UAEPAXI@Z 100cf700 f i ImfInputFile.obj
 0002:0005f770       ??0InputFile@Imf@@QAE@AAVIStream@1@H@Z 100cf770 f   ImfInputFile.obj
 0002:0005fae0       ?initialize@InputFile@Imf@@AAEXXZ 100cfae0 f   ImfInputFile.obj
 0002:0005fd80       ?isTiled@Imf@@YA_NH@Z      100cfd80 f i ImfInputFile.obj
 0002:0005fdc0       ??1InputFile@Imf@@UAE@XZ   100cfdc0 f   ImfInputFile.obj
 0002:0005fe80       ?fileName@InputFile@Imf@@QBEPBDXZ 100cfe80 f   ImfInputFile.obj
 0002:0005fee0       ?header@InputFile@Imf@@QBEABVHeader@2@XZ 100cfee0 f   ImfInputFile.obj
 0002:0005ff20       ?version@InputFile@Imf@@QBEHXZ 100cff20 f   ImfInputFile.obj
 0002:0005ff60       ?setFrameBuffer@InputFile@Imf@@QAEXABVFrameBuffer@2@@Z 100cff60 f   ImfInputFile.obj
 0002:00060940       ??4FrameBuffer@Imf@@QAEAAV01@ABV01@@Z 100d0940 f i ImfInputFile.obj
 0002:000609a0       ?frameBuffer@InputFile@Imf@@QBEABVFrameBuffer@2@XZ 100d09a0 f   ImfInputFile.obj
 0002:00060a90       ?isComplete@InputFile@Imf@@QBE_NXZ 100d0a90 f   ImfInputFile.obj
 0002:00060b20       ?readPixels@InputFile@Imf@@QAEXHH@Z 100d0b20 f   ImfInputFile.obj
 0002:00060c60       ?readPixels@InputFile@Imf@@QAEXH@Z 100d0c60 f   ImfInputFile.obj
 0002:00060cc0       ?rawPixelData@InputFile@Imf@@QAEXHAAPBDAAH@Z 100d0cc0 f   ImfInputFile.obj
 0002:00060f30       ?rawTileData@InputFile@Imf@@QAEXAAH000AAPBD0@Z 100d0f30 f   ImfInputFile.obj
 0002:000611b0       ?tFile@InputFile@Imf@@AAEPAVTiledInputFile@2@XZ 100d11b0 f   ImfInputFile.obj
 0002:00061270       ??0?$map@VName@Imf@@USlice@2@U?$less@VName@Imf@@@std@@V?$allocator@U?$pair@$$CBVName@Imf@@USlice@2@@std@@@5@@std@@QAE@XZ 100d1270 f i ImfInputFile.obj
 0002:000612e0       ??4?$map@VName@Imf@@USlice@2@U?$less@VName@Imf@@@std@@V?$allocator@U?$pair@$$CBVName@Imf@@USlice@2@@std@@@5@@std@@QAEAAV01@ABV01@@Z 100d12e0 f i ImfInputFile.obj
 0002:00061340       ??1?$_Tree@V?$_Tmap_traits@VName@Imf@@USlice@2@U?$less@VName@Imf@@@std@@V?$allocator@U?$pair@$$CBVName@Imf@@USlice@2@@std@@@5@$0A@@std@@@std@@QAE@XZ 100d1340 f i ImfInputFile.obj
 0002:000613e0       ??E?$_Tree_iterator@V?$_Tree_val@V?$_Tmap_traits@VName@Imf@@USlice@2@U?$less@VName@Imf@@@std@@V?$allocator@U?$pair@$$CBVName@Imf@@USlice@2@@std@@@5@$0A@@std@@@std@@@std@@QAEAAV01@XZ 100d13e0 f i ImfInputFile.obj
 0002:00061440       ??0?$_Tree@V?$_Tmap_traits@VName@Imf@@USlice@2@U?$less@VName@Imf@@@std@@V?$allocator@U?$pair@$$CBVName@Imf@@USlice@2@@std@@@5@$0A@@std@@@std@@QAE@ABU?$less@VName@Imf@@@1@ABV?$allocator@U?$pair@$$CBVName@Imf@@USlice@2@@std@@@1@@Z 100d1440 f i ImfInputFile.obj
 0002:000614b0       ??4?$_Tree@V?$_Tmap_traits@VName@Imf@@USlice@2@U?$less@VName@Imf@@@std@@V?$allocator@U?$pair@$$CBVName@Imf@@USlice@2@@std@@@5@$0A@@std@@@std@@QAEAAV01@ABV01@@Z 100d14b0 f i ImfInputFile.obj
 0002:00061660       ?_Tidy@?$_Tree@V?$_Tmap_traits@VName@Imf@@USlice@2@U?$less@VName@Imf@@@std@@V?$allocator@U?$pair@$$CBVName@Imf@@USlice@2@@std@@@5@$0A@@std@@@std@@IAEXXZ 100d1660 f i ImfInputFile.obj
 0002:000617f0       ??1?$_Tree_val@V?$_Tmap_traits@VName@Imf@@USlice@2@U?$less@VName@Imf@@@std@@V?$allocator@U?$pair@$$CBVName@Imf@@USlice@2@@std@@@5@$0A@@std@@@std@@QAE@XZ 100d17f0 f i ImfInputFile.obj
 0002:000618a0       ??0?$allocator@U?$pair@$$CBVName@Imf@@USlice@2@@std@@@std@@QAE@XZ 100d18a0 f i ImfInputFile.obj
 0002:000618e0       ?erase@?$_Tree@V?$_Tmap_traits@VName@Imf@@USlice@2@U?$less@VName@Imf@@@std@@V?$allocator@U?$pair@$$CBVName@Imf@@USlice@2@@std@@@5@$0A@@std@@@std@@QAE?AV?$_Tree_iterator@V?$_Tree_val@V?$_Tmap_traits@VName@Imf@@USlice@2@U?$less@VName@Imf@@@std@@V?$allocator@U?$pair@$$CBVName@Imf@@USlice@2@@std@@@5@$0A@@std@@@std@@@2@V?$_Tree_const_iterator@V?$_Tree_val@V?$_Tmap_traits@VName@Imf@@USlice@2@U?$less@VName@Imf@@@std@@V?$allocator@U?$pair@$$CBVName@Imf@@USlice@2@@std@@@5@$0A@@std@@@std@@@2@0@Z 100d18e0 f i ImfInputFile.obj
 0002:00061bf0       ?_Copy@?$_Tree@V?$_Tmap_traits@VName@Imf@@USlice@2@U?$less@VName@Imf@@@std@@V?$allocator@U?$pair@$$CBVName@Imf@@USlice@2@@std@@@5@$0A@@std@@@std@@IAEXABV12@@Z 100d1bf0 f i ImfInputFile.obj
 0002:00061d10       ??0?$_Tree_val@V?$_Tmap_traits@VName@Imf@@USlice@2@U?$less@VName@Imf@@@std@@V?$allocator@U?$pair@$$CBVName@Imf@@USlice@2@@std@@@5@$0A@@std@@@std@@QAE@ABU?$less@VName@Imf@@@1@V?$allocator@U?$pair@$$CBVName@Imf@@USlice@2@@std@@@1@@Z 100d1d10 f i ImfInputFile.obj
 0002:00061e70       ??1?$_Tree_nod@V?$_Tmap_traits@VName@Imf@@USlice@2@U?$less@VName@Imf@@@std@@V?$allocator@U?$pair@$$CBVName@Imf@@USlice@2@@std@@@5@$0A@@std@@@std@@QAE@XZ 100d1e70 f i ImfInputFile.obj
 0002:00061fa0       ??0?$allocator@U?$pair@$$CBVName@Imf@@USlice@2@@std@@@std@@QAE@ABV01@@Z 100d1fa0 f i ImfInputFile.obj
 0002:00061fe0       ??1?$_Tmap_traits@VName@Imf@@USlice@2@U?$less@VName@Imf@@@std@@V?$allocator@U?$pair@$$CBVName@Imf@@USlice@2@@std@@@5@$0A@@std@@QAE@XZ 100d1fe0 f i ImfInputFile.obj
 0002:00062040       ?erase@?$_Tree@V?$_Tmap_traits@VName@Imf@@USlice@2@U?$less@VName@Imf@@@std@@V?$allocator@U?$pair@$$CBVName@Imf@@USlice@2@@std@@@5@$0A@@std@@@std@@QAE?AV?$_Tree_iterator@V?$_Tree_val@V?$_Tmap_traits@VName@Imf@@USlice@2@U?$less@VName@Imf@@@std@@V?$allocator@U?$pair@$$CBVName@Imf@@USlice@2@@std@@@5@$0A@@std@@@std@@@2@V?$_Tree_const_iterator@V?$_Tree_val@V?$_Tmap_traits@VName@Imf@@USlice@2@U?$less@VName@Imf@@@std@@V?$allocator@U?$pair@$$CBVName@Imf@@USlice@2@@std@@@5@$0A@@std@@@std@@@2@@Z 100d2040 f i ImfInputFile.obj
 0002:00062aa0       ?clear@?$_Tree@V?$_Tmap_traits@VName@Imf@@USlice@2@U?$less@VName@Imf@@@std@@V?$allocator@U?$pair@$$CBVName@Imf@@USlice@2@@std@@@5@$0A@@std@@@std@@QAEXXZ 100d2aa0 f i ImfInputFile.obj
 0002:00062b60       ?_Copy@?$_Tree@V?$_Tmap_traits@VName@Imf@@USlice@2@U?$less@VName@Imf@@@std@@V?$allocator@U?$pair@$$CBVName@Imf@@USlice@2@@std@@@5@$0A@@std@@@std@@IAEPAU_Node@?$_Tree_nod@V?$_Tmap_traits@VName@Imf@@USlice@2@U?$less@VName@Imf@@@std@@V?$allocator@U?$pair@$$CBVName@Imf@@USlice@2@@std@@@5@$0A@@std@@@2@PAU342@0@Z 100d2b60 f i ImfInputFile.obj
 0002:00062d70       ??0?$_Tree_nod@V?$_Tmap_traits@VName@Imf@@USlice@2@U?$less@VName@Imf@@@std@@V?$allocator@U?$pair@$$CBVName@Imf@@USlice@2@@std@@@5@$0A@@std@@@std@@QAE@ABU?$less@VName@Imf@@@1@V?$allocator@U?$pair@$$CBVName@Imf@@USlice@2@@std@@@1@@Z 100d2d70 f i ImfInputFile.obj
 0002:00062ed0       ??E?$_Tree_const_iterator@V?$_Tree_val@V?$_Tmap_traits@VName@Imf@@USlice@2@U?$less@VName@Imf@@@std@@V?$allocator@U?$pair@$$CBVName@Imf@@USlice@2@@std@@@5@$0A@@std@@@std@@@std@@QAE?AV01@H@Z 100d2ed0 f i ImfInputFile.obj
 0002:00062ff0       ??9?$_Tree_const_iterator@V?$_Tree_val@V?$_Tmap_traits@VName@Imf@@USlice@2@U?$less@VName@Imf@@@std@@V?$allocator@U?$pair@$$CBVName@Imf@@USlice@2@@std@@@5@$0A@@std@@@std@@@std@@QBE_NABV01@@Z 100d2ff0 f i ImfInputFile.obj
 0002:00063060       ?_Erase@?$_Tree@V?$_Tmap_traits@VName@Imf@@USlice@2@U?$less@VName@Imf@@@std@@V?$allocator@U?$pair@$$CBVName@Imf@@USlice@2@@std@@@5@$0A@@std@@@std@@IAEXPAU_Node@?$_Tree_nod@V?$_Tmap_traits@VName@Imf@@USlice@2@U?$less@VName@Imf@@@std@@V?$allocator@U?$pair@$$CBVName@Imf@@USlice@2@@std@@@5@$0A@@std@@@2@@Z 100d3060 f i ImfInputFile.obj
 0002:00063150       ?_Orphan_ptr@?$_Tree@V?$_Tmap_traits@VName@Imf@@USlice@2@U?$less@VName@Imf@@@std@@V?$allocator@U?$pair@$$CBVName@Imf@@USlice@2@@std@@@5@$0A@@std@@@std@@IBEXAAV12@PAU_Node@?$_Tree_nod@V?$_Tmap_traits@VName@Imf@@USlice@2@U?$less@VName@Imf@@@std@@V?$allocator@U?$pair@$$CBVName@Imf@@USlice@2@@std@@@5@$0A@@std@@@2@@Z 100d3150 f i ImfInputFile.obj
 0002:000632e0       ??0?$_Tmap_traits@VName@Imf@@USlice@2@U?$less@VName@Imf@@@std@@V?$allocator@U?$pair@$$CBVName@Imf@@USlice@2@@std@@@5@$0A@@std@@QAE@U?$less@VName@Imf@@@1@@Z 100d32e0 f i ImfInputFile.obj
 0002:00063350       ??$max@H@std@@YAABHABH0@Z  100d3350 f i ImfInputFile.obj
 0002:000633f0       ??$?6DU?$char_traits@D@std@@V?$allocator@D@1@@std@@YAAAV?$basic_ostream@DU?$char_traits@D@std@@@0@AAV10@ABV?$basic_string@DU?$char_traits@D@std@@V?$allocator@D@2@@0@@Z 100d33f0 f i ImfInputFile.obj
 0002:00063990       ??$?0U_Node@?$_Tree_nod@V?$_Tmap_traits@VName@Imf@@USlice@2@U?$less@VName@Imf@@@std@@V?$allocator@U?$pair@$$CBVName@Imf@@USlice@2@@std@@@5@$0A@@std@@@std@@@?$allocator@U_Container_proxy@std@@@std@@QAE@ABV?$allocator@U_Node@?$_Tree_nod@V?$_Tmap_traits@VName@Imf@@USlice@2@U?$less@VName@Imf@@@std@@V?$allocator@U?$pair@$$CBVName@Imf@@USlice@2@@std@@@5@$0A@@std@@@std@@@1@@Z 100d3990 f i ImfInputFile.obj
 0002:000639d0       ??$_Buynode@AAU?$pair@$$CBVName@Imf@@USlice@2@@std@@@?$_Tree_val@V?$_Tmap_traits@VName@Imf@@USlice@2@U?$less@VName@Imf@@@std@@V?$allocator@U?$pair@$$CBVName@Imf@@USlice@2@@std@@@5@$0A@@std@@@std@@QAEPAU_Node@?$_Tree_nod@V?$_Tmap_traits@VName@Imf@@USlice@2@U?$less@VName@Imf@@@std@@V?$allocator@U?$pair@$$CBVName@Imf@@USlice@2@@std@@@5@$0A@@std@@@1@AAU?$pair@$$CBVName@Imf@@USlice@2@@1@@Z 100d39d0 f i ImfInputFile.obj
 0002:00063b20       ??$?0U?$pair@$$CBVName@Imf@@USlice@2@@std@@@?$allocator@U_Node@?$_Tree_nod@V?$_Tmap_traits@VName@Imf@@USlice@2@U?$less@VName@Imf@@@std@@V?$allocator@U?$pair@$$CBVName@Imf@@USlice@2@@std@@@5@$0A@@std@@@std@@@std@@QAE@ABV?$allocator@U?$pair@$$CBVName@Imf@@USlice@2@@std@@@1@@Z 100d3b20 f i ImfInputFile.obj
 0002:00063b60       ??$forward@AAU?$pair@$$CBVName@Imf@@USlice@2@@std@@@std@@YAAAU?$pair@$$CBVName@Imf@@USlice@2@@0@AAU10@@Z 100d3b60 f i ImfInputFile.obj
 0002:00063ba0       ??$_Cons_val@V?$allocator@U?$pair@$$CBVName@Imf@@USlice@2@@std@@@std@@U?$pair@$$CBVName@Imf@@USlice@2@@2@AAU32@@std@@YAXAAV?$allocator@U?$pair@$$CBVName@Imf@@USlice@2@@std@@@0@PAU?$pair@$$CBVName@Imf@@USlice@2@@0@AAU20@@Z 100d3ba0 f i ImfInputFile.obj
 0002:00063c00       ??$construct@AAU?$pair@$$CBVName@Imf@@USlice@2@@std@@@?$allocator@U?$pair@$$CBVName@Imf@@USlice@2@@std@@@std@@QAEXPAU?$pair@$$CBVName@Imf@@USlice@2@@1@AAU21@@Z 100d3c00 f i ImfInputFile.obj
 0002:00063d00       ??$?0$$CBVName@Imf@@USlice@1@@?$pair@$$CBVName@Imf@@USlice@2@@std@@QAE@AAU01@@Z 100d3d00 f i ImfInputFile.obj
 0002:00063d70       ??$?0ABVName@Imf@@AAUSlice@1@@?$_Pair_base@$$CBVName@Imf@@USlice@2@@std@@QAE@ABVName@Imf@@AAUSlice@3@@Z 100d3d70 f i ImfInputFile.obj
 0002:00063e00       ??$forward@AAUSlice@Imf@@@std@@YAAAUSlice@Imf@@AAU12@@Z 100d3e00 f i ImfInputFile.obj
 0002:00063e40       ?staticTypeName@?$TypedAttribute@H@Imf@@SAPBDXZ 100d3e40 f   ImfIntAttribute.obj
 0002:00063e80       ??0IStream@Imf@@IAE@QBD@Z  100d3e80 f   ImfIO.obj
 0002:00063ef0       ??_EIStream@Imf@@UAEPAXI@Z 100d3ef0 f i ImfIO.obj
 0002:00063ef0       ??_GIStream@Imf@@UAEPAXI@Z 100d3ef0 f i ImfIO.obj
 0002:00063f60       ??1IStream@Imf@@UAE@XZ     100d3f60 f   ImfIO.obj
 0002:00063fc0       ?isMemoryMapped@IStream@Imf@@UBE_NXZ 100d3fc0 f   ImfIO.obj
 0002:00064000       ?readMemoryMapped@IStream@Imf@@UAEPADH@Z 100d4000 f   ImfIO.obj
 0002:00064090       ?clear@IStream@Imf@@UAEXXZ 100d4090 f   ImfIO.obj
 0002:000640d0       ?fileName@IStream@Imf@@QBEPBDXZ 100d40d0 f   ImfIO.obj
 0002:00064130       ??0OStream@Imf@@IAE@QBD@Z  100d4130 f   ImfIO.obj
 0002:000641a0       ??_GOStream@Imf@@UAEPAXI@Z 100d41a0 f i ImfIO.obj
 0002:000641a0       ??_EOStream@Imf@@UAEPAXI@Z 100d41a0 f i ImfIO.obj
 0002:00064210       ??1OStream@Imf@@UAE@XZ     100d4210 f   ImfIO.obj
 0002:00064270       ?fileName@OStream@Imf@@QBEPBDXZ 100d4270 f   ImfIO.obj
 0002:000642d0       ??0KeyCode@Imf@@QAE@HHHHHHH@Z 100d42d0 f   ImfKeyCode.obj
 0002:00064390       ??0KeyCode@Imf@@QAE@ABV01@@Z 100d4390 f   ImfKeyCode.obj
 0002:00064440       ??4KeyCode@Imf@@QAEAAV01@ABV01@@Z 100d4440 f   ImfKeyCode.obj
 0002:000644f0       ?filmMfcCode@KeyCode@Imf@@QBEHXZ 100d44f0 f   ImfKeyCode.obj
 0002:00064530       ?setFilmMfcCode@KeyCode@Imf@@QAEXH@Z 100d4530 f   ImfKeyCode.obj
 0002:000645e0       ?filmType@KeyCode@Imf@@QBEHXZ 100d45e0 f   ImfKeyCode.obj
 0002:00064620       ?setFilmType@KeyCode@Imf@@QAEXH@Z 100d4620 f   ImfKeyCode.obj
 0002:000646d0       ?prefix@KeyCode@Imf@@QBEHXZ 100d46d0 f   ImfKeyCode.obj
 0002:00064710       ?setPrefix@KeyCode@Imf@@QAEXH@Z 100d4710 f   ImfKeyCode.obj
 0002:000647c0       ?count@KeyCode@Imf@@QBEHXZ 100d47c0 f   ImfKeyCode.obj
 0002:00064800       ?setCount@KeyCode@Imf@@QAEXH@Z 100d4800 f   ImfKeyCode.obj
 0002:000648b0       ?perfOffset@KeyCode@Imf@@QBEHXZ 100d48b0 f   ImfKeyCode.obj
 0002:000648f0       ?setPerfOffset@KeyCode@Imf@@QAEXH@Z 100d48f0 f   ImfKeyCode.obj
 0002:000649a0       ?perfsPerFrame@KeyCode@Imf@@QBEHXZ 100d49a0 f   ImfKeyCode.obj
 0002:000649e0       ?setPerfsPerFrame@KeyCode@Imf@@QAEXH@Z 100d49e0 f   ImfKeyCode.obj
 0002:00064a90       ?perfsPerCount@KeyCode@Imf@@QBEHXZ 100d4a90 f   ImfKeyCode.obj
 0002:00064ad0       ?setPerfsPerCount@KeyCode@Imf@@QAEXH@Z 100d4ad0 f   ImfKeyCode.obj
 0002:00064b80       ?staticTypeName@?$TypedAttribute@VKeyCode@Imf@@@Imf@@SAPBDXZ 100d4b80 f   ImfKeyCodeAttribute.obj
 0002:00064bc0       ?writeValueTo@?$TypedAttribute@VKeyCode@Imf@@@Imf@@UBEXAAVOStream@2@H@Z 100d4bc0 f   ImfKeyCodeAttribute.obj
 0002:00064ce0       ?readValueFrom@?$TypedAttribute@VKeyCode@Imf@@@Imf@@UAEXAAVIStream@2@HH@Z 100d4ce0 f   ImfKeyCodeAttribute.obj
 0002:00064e70       ?staticTypeName@?$TypedAttribute@W4LineOrder@Imf@@@Imf@@SAPBDXZ 100d4e70 f   ImfLineOrderAttribute.obj
 0002:00064eb0       ?writeValueTo@?$TypedAttribute@W4LineOrder@Imf@@@Imf@@UBEXAAVOStream@2@H@Z 100d4eb0 f   ImfLineOrderAttribute.obj
 0002:00064f20       ?readValueFrom@?$TypedAttribute@W4LineOrder@Imf@@@Imf@@UAEXAAVIStream@2@HH@Z 100d4f20 f   ImfLineOrderAttribute.obj
 0002:00064fc0       ?apply@HalfLut@Imf@@QBEXPAVhalf@@HH@Z 100d4fc0 f   ImfLut.obj
 0002:00065070       ?apply@HalfLut@Imf@@QBEXABUSlice@2@ABV?$Box@V?$Vec2@H@Imath@@@Imath@@@Z 100d5070 f   ImfLut.obj
 0002:00065320       ?apply@RgbaLut@Imf@@QBEXPAURgba@2@HH@Z 100d5320 f   ImfLut.obj
 0002:000654c0       ?apply@RgbaLut@Imf@@QBEXPAURgba@2@HHABV?$Box@V?$Vec2@H@Imath@@@Imath@@@Z 100d54c0 f   ImfLut.obj
 0002:000656e0       ?round12log@Imf@@YA?AVhalf@@V2@@Z 100d56e0 f   ImfLut.obj
 0002:000658e0       ?log@@YAMM@Z               100d58e0 f i ImfLut.obj
 0002:00065940       _logf                      100d5940 f i ImfLut.obj
 0002:000659b0       ??R?$halfFunction@Vhalf@@@@QBE?AVhalf@@V1@@Z 100d59b0 f i ImfLut.obj
 0002:00065a30       ?staticTypeName@?$TypedAttribute@V?$Matrix33@M@Imath@@@Imf@@SAPBDXZ 100d5a30 f   ImfMatrixAttribute.obj
 0002:00065a70       ?writeValueTo@?$TypedAttribute@V?$Matrix33@M@Imath@@@Imf@@UBEXAAVOStream@2@H@Z 100d5a70 f   ImfMatrixAttribute.obj
 0002:00065c50       ?readValueFrom@?$TypedAttribute@V?$Matrix33@M@Imath@@@Imf@@UAEXAAVIStream@2@HH@Z 100d5c50 f   ImfMatrixAttribute.obj
 0002:00065de0       ?staticTypeName@?$TypedAttribute@V?$Matrix33@N@Imath@@@Imf@@SAPBDXZ 100d5de0 f   ImfMatrixAttribute.obj
 0002:00065e20       ?writeValueTo@?$TypedAttribute@V?$Matrix33@N@Imath@@@Imf@@UBEXAAVOStream@2@H@Z 100d5e20 f   ImfMatrixAttribute.obj
 0002:00066010       ?readValueFrom@?$TypedAttribute@V?$Matrix33@N@Imath@@@Imf@@UAEXAAVIStream@2@HH@Z 100d6010 f   ImfMatrixAttribute.obj
 0002:000661a0       ?staticTypeName@?$TypedAttribute@V?$Matrix44@M@Imath@@@Imf@@SAPBDXZ 100d61a0 f   ImfMatrixAttribute.obj
 0002:000661e0       ?writeValueTo@?$TypedAttribute@V?$Matrix44@M@Imath@@@Imf@@UBEXAAVOStream@2@H@Z 100d61e0 f   ImfMatrixAttribute.obj
 0002:00066500       ?readValueFrom@?$TypedAttribute@V?$Matrix44@M@Imath@@@Imf@@UAEXAAVIStream@2@HH@Z 100d6500 f   ImfMatrixAttribute.obj
 0002:00066780       ?staticTypeName@?$TypedAttribute@V?$Matrix44@N@Imath@@@Imf@@SAPBDXZ 100d6780 f   ImfMatrixAttribute.obj
 0002:000667c0       ?writeValueTo@?$TypedAttribute@V?$Matrix44@N@Imath@@@Imf@@UBEXAAVOStream@2@H@Z 100d67c0 f   ImfMatrixAttribute.obj
 0002:00066b00       ?readValueFrom@?$TypedAttribute@V?$Matrix44@N@Imath@@@Imf@@UAEXAAVIStream@2@HH@Z 100d6b00 f   ImfMatrixAttribute.obj
 0002:00066d80       ??A?$Matrix33@M@Imath@@QAEPAMH@Z 100d6d80 f i ImfMatrixAttribute.obj
 0002:00066dd0       ??A?$Matrix33@N@Imath@@QBEPBNH@Z 100d6dd0 f i ImfMatrixAttribute.obj
 0002:00066e20       ??A?$Matrix33@N@Imath@@QAEPANH@Z 100d6e20 f i ImfMatrixAttribute.obj
 0002:00066e70       ??A?$Matrix44@N@Imath@@QBEPBNH@Z 100d6e70 f i ImfMatrixAttribute.obj
 0002:00066ec0       ??A?$Matrix44@N@Imath@@QAEPANH@Z 100d6ec0 f i ImfMatrixAttribute.obj
 0002:00066f10       ?pixelTypeSize@Imf@@YAHW4PixelType@1@@Z 100d6f10 f   ImfMisc.obj
 0002:00066ff0       ??$size@I@Xdr@Imf@@YAHXZ   100d6ff0 f i ImfMisc.obj
 0002:00067030       ??$size@M@Xdr@Imf@@YAHXZ   100d7030 f i ImfMisc.obj
 0002:00067070       ??$size@Vhalf@@@Xdr@Imf@@YAHXZ 100d7070 f i ImfMisc.obj
 0002:000670b0       ?numSamples@Imf@@YAHHHH@Z  100d70b0 f   ImfMisc.obj
 0002:00067140       ?bytesPerLineTable@Imf@@YAIABVHeader@1@AAV?$vector@IV?$allocator@I@std@@@std@@@Z 100d7140 f   ImfMisc.obj
 0002:00067420       ?offsetInLineBufferTable@Imf@@YAXABV?$vector@IV?$allocator@I@std@@@std@@HAAV23@@Z 100d7420 f   ImfMisc.obj
 0002:000674f0       ?lineBufferMinY@Imf@@YAHHHH@Z 100d74f0 f   ImfMisc.obj
 0002:00067540       ?lineBufferMaxY@Imf@@YAHHHH@Z 100d7540 f   ImfMisc.obj
 0002:000675a0       ?defaultFormat@Imf@@YA?AW4Format@Compressor@1@PAV31@@Z 100d75a0 f   ImfMisc.obj
 0002:00067620       ?numLinesInBuffer@Imf@@YAHPAVCompressor@1@@Z 100d7620 f   ImfMisc.obj
 0002:000676a0       ?copyIntoFrameBuffer@Imf@@YAXAAPBDPAD1I_NNW4Format@Compressor@1@W4PixelType@1@4@Z 100d76a0 f   ImfMisc.obj
 0002:00068400       ?skipChannel@Imf@@YAXAAPBDW4PixelType@1@I@Z 100d8400 f   ImfMisc.obj
 0002:00068510       ?convertInPlace@Imf@@YAXAAPADAAPBDW4PixelType@1@I@Z 100d8510 f   ImfMisc.obj
 0002:000686d0       ?copyFromFrameBuffer@Imf@@YAXAAPADAAPBDPBDIW4Format@Compressor@1@W4PixelType@1@@Z 100d86d0 f   ImfMisc.obj
 0002:000689f0       ?fillChannelWithZeroes@Imf@@YAXAAPADW4Format@Compressor@1@W4PixelType@1@I@Z 100d89f0 f   ImfMisc.obj
 0002:00068d60       ?resize@?$vector@IV?$allocator@I@std@@@std@@QAEXI@Z 100d8d60 f i ImfMisc.obj
 0002:00068fd0       ?size@?$vector@IV?$allocator@I@std@@@std@@QBEIXZ 100d8fd0 f i ImfMisc.obj
 0002:00069020       ??A?$vector@IV?$allocator@I@std@@@std@@QBEABII@Z 100d9020 f i ImfMisc.obj
 0002:00069130       ??A?$vector@IV?$allocator@I@std@@@std@@QAEAAII@Z 100d9130 f i ImfMisc.obj
 0002:00069240       ??1?$_Vector_iterator@V?$_Vector_val@IV?$allocator@I@std@@@std@@@std@@QAE@XZ 100d9240 f i ImfMisc.obj
 0002:00069290       ??0?$_Vector_const_iterator@V?$_Vector_val@IV?$allocator@I@std@@@std@@@std@@QAE@ABV01@@Z 100d9290 f i ImfMisc.obj
 0002:00069300       ??1?$_Vector_const_iterator@V?$_Vector_val@IV?$allocator@I@std@@@std@@@std@@QAE@XZ 100d9300 f i ImfMisc.obj
 0002:00069350       ??0?$_Iterator012@Urandom_access_iterator_tag@std@@IHPBIABIU_Iterator_base12@2@@std@@QAE@ABU01@@Z 100d9350 f i ImfMisc.obj
 0002:000693b0       ??1?$_Iterator012@Urandom_access_iterator_tag@std@@IHPBIABIU_Iterator_base12@2@@std@@QAE@XZ 100d93b0 f i ImfMisc.obj
 0002:00069400       ?begin@?$vector@IV?$allocator@I@std@@@std@@QAE?AV?$_Vector_iterator@V?$_Vector_val@IV?$allocator@I@std@@@std@@@2@XZ 100d9400 f i ImfMisc.obj
 0002:00069490       ?end@?$vector@IV?$allocator@I@std@@@std@@QAE?AV?$_Vector_iterator@V?$_Vector_val@IV?$allocator@I@std@@@std@@@2@XZ 100d9490 f i ImfMisc.obj
 0002:00069520       ?erase@?$vector@IV?$allocator@I@std@@@std@@QAE?AV?$_Vector_iterator@V?$_Vector_val@IV?$allocator@I@std@@@std@@@2@V?$_Vector_const_iterator@V?$_Vector_val@IV?$allocator@I@std@@@std@@@2@0@Z 100d9520 f i ImfMisc.obj
 0002:000697f0       ?_Reserve@?$vector@IV?$allocator@I@std@@@std@@IAEXI@Z 100d97f0 f i ImfMisc.obj
 0002:000698a0       ??H?$_Vector_iterator@V?$_Vector_val@IV?$allocator@I@std@@@std@@@std@@QBE?AV01@H@Z 100d98a0 f i ImfMisc.obj
 0002:000699c0       ??0?$_Vector_iterator@V?$_Vector_val@IV?$allocator@I@std@@@std@@@std@@QAE@ABV01@@Z 100d99c0 f i ImfMisc.obj
 0002:00069a20       ?reserve@?$vector@IV?$allocator@I@std@@@std@@QAEXI@Z 100d9a20 f i ImfMisc.obj
 0002:00069c00       ?capacity@?$vector@IV?$allocator@I@std@@@std@@QBEIXZ 100d9c00 f i ImfMisc.obj
 0002:00069c50       ?_Make_iter@?$vector@IV?$allocator@I@std@@@std@@QBE?AV?$_Vector_iterator@V?$_Vector_val@IV?$allocator@I@std@@@std@@@2@V?$_Vector_const_iterator@V?$_Vector_val@IV?$allocator@I@std@@@std@@@2@@Z 100d9c50 f i ImfMisc.obj
 0002:00069d20       ?max_size@?$vector@IV?$allocator@I@std@@@std@@QBEIXZ 100d9d20 f i ImfMisc.obj
 0002:00069d80       ?_Destroy@?$vector@IV?$allocator@I@std@@@std@@IAEXPAI0@Z 100d9d80 f i ImfMisc.obj
 0002:00069df0       ?_Grow_to@?$vector@IV?$allocator@I@std@@@std@@IBEII@Z 100d9df0 f i ImfMisc.obj
 0002:00069ea0       ?_Xlen@?$vector@IV?$allocator@I@std@@@std@@IBEXXZ 100d9ea0 f i ImfMisc.obj
 0002:00069f00       ?_Orphan_range@?$vector@IV?$allocator@I@std@@@std@@IBEXPAI0@Z 100d9f00 f i ImfMisc.obj
 0002:0006a080       ??0?$_Vector_iterator@V?$_Vector_val@IV?$allocator@I@std@@@std@@@std@@QAE@PAIPBU_Container_base12@1@@Z 100da080 f i ImfMisc.obj
 0002:0006a0e0       ??Y?$_Vector_iterator@V?$_Vector_val@IV?$allocator@I@std@@@std@@@std@@QAEAAV01@H@Z 100da0e0 f i ImfMisc.obj
 0002:0006a140       ??9?$_Vector_const_iterator@V?$_Vector_val@IV?$allocator@I@std@@@std@@@std@@QBE_NABV01@@Z 100da140 f i ImfMisc.obj
 0002:0006a1b0       ??M?$_Vector_const_iterator@V?$_Vector_val@IV?$allocator@I@std@@@std@@@std@@QBE_NABV01@@Z 100da1b0 f i ImfMisc.obj
 0002:0006a220       ?deallocate@?$allocator@I@std@@QAEXPAII@Z 100da220 f i ImfMisc.obj
 0002:0006a280       ?allocate@?$allocator@I@std@@QAEPAII@Z 100da280 f i ImfMisc.obj
 0002:0006a2e0       ?max_size@?$allocator@I@std@@QBEIXZ 100da2e0 f i ImfMisc.obj
 0002:0006a350       ??0?$_Vector_const_iterator@V?$_Vector_val@IV?$allocator@I@std@@@std@@@std@@QAE@PAIPBU_Container_base12@1@@Z 100da350 f i ImfMisc.obj
 0002:0006a410       ??Y?$_Vector_const_iterator@V?$_Vector_val@IV?$allocator@I@std@@@std@@@std@@QAEAAV01@H@Z 100da410 f i ImfMisc.obj
 0002:0006a570       ??8?$_Vector_const_iterator@V?$_Vector_val@IV?$allocator@I@std@@@std@@@std@@QBE_NABV01@@Z 100da570 f i ImfMisc.obj
 0002:0006a5e0       ?_Compat@?$_Vector_const_iterator@V?$_Vector_val@IV?$allocator@I@std@@@std@@@std@@QBEXABV12@@Z 100da5e0 f i ImfMisc.obj
 0002:0006a700       ??0?$_Iterator012@Urandom_access_iterator_tag@std@@IHPBIABIU_Iterator_base12@2@@std@@QAE@XZ 100da700 f i ImfMisc.obj
 0002:0006a760       ??$read@UCharPtrIO@Imf@@PBD@Xdr@Imf@@YAXAAPBDAAI@Z 100da760 f i ImfMisc.obj
 0002:0006a830       ??$read@UCharPtrIO@Imf@@PBD@Xdr@Imf@@YAXAAPBDAAVhalf@@@Z 100da830 f i ImfMisc.obj
 0002:0006a8f0       ??$read@UCharPtrIO@Imf@@PBD@Xdr@Imf@@YAXAAPBDAAM@Z 100da8f0 f i ImfMisc.obj
 0002:0006a9e0       ??$skip@UCharPtrIO@Imf@@PBD@Xdr@Imf@@YAXAAPBDH@Z 100da9e0 f i ImfMisc.obj
 0002:0006aae0       ??$write@UCharPtrIO@Imf@@PAD@Xdr@Imf@@YAXAAPADI@Z 100daae0 f i ImfMisc.obj
 0002:0006aba0       ??$write@UCharPtrIO@Imf@@PAD@Xdr@Imf@@YAXAAPADVhalf@@@Z 100daba0 f i ImfMisc.obj
 0002:0006ac70       ??$write@UCharPtrIO@Imf@@PAD@Xdr@Imf@@YAXAAPADM@Z 100dac70 f i ImfMisc.obj
 0002:0006ad40       ??$_Uninitialized_default_fill_n@PAIIIV?$allocator@I@std@@@std@@YAXPAIIPBIAAV?$allocator@I@0@@Z 100dad40 f i ImfMisc.obj
 0002:0006ade0       ??$_Move@PAIPAI@std@@YAPAIPAI00@Z 100dade0 f i ImfMisc.obj
 0002:0006ae60       ??$_Umove@PAI@?$vector@IV?$allocator@I@std@@@std@@IAEPAIPAI00@Z 100dae60 f i ImfMisc.obj
 0002:0006aed0       ??$_Destroy_range@V?$allocator@I@std@@@std@@YAXPAI0AAV?$allocator@I@0@@Z 100daed0 f i ImfMisc.obj
 0002:0006af50       ??$_Allocate@I@std@@YAPAIIPAI@Z 100daf50 f i ImfMisc.obj
 0002:0006b000       ??$_Val_type@PAI@std@@YAPAIPAI@Z 100db000 f i ImfMisc.obj
 0002:0006b030       ??$_Ptr_cat@II@std@@YA?AU_Scalar_ptr_iterator_tag@0@PAI0@Z 100db030 f i ImfMisc.obj
 0002:0006b0a0       ??$_Uninit_def_fill_n@IIII@std@@YAXPAIIPBIAAV?$allocator@I@0@0U_Scalar_ptr_iterator_tag@0@@Z 100db0a0 f i ImfMisc.obj
 0002:0006b110       ??$_Move@PAIPAI@std@@YAPAIPAI00U_Scalar_ptr_iterator_tag@0@@Z 100db110 f i ImfMisc.obj
 0002:0006b1a0       ??$_Uninitialized_move@PAIPAIV?$allocator@I@std@@@std@@YAPAIPAI00AAV?$allocator@I@0@@Z 100db1a0 f i ImfMisc.obj
 0002:0006b240       ??$_Destroy_range@V?$allocator@I@std@@@std@@YAXPAI0AAV?$allocator@I@0@U_Scalar_ptr_iterator_tag@0@@Z 100db240 f i ImfMisc.obj
 0002:0006b270       ??$_Fill_n@PAIII@std@@YAXPAIIABI@Z 100db270 f i ImfMisc.obj
 0002:0006b2d0       ??$_Uninit_move@III@std@@YAPAIPAI00AAV?$allocator@I@0@0U_Scalar_ptr_iterator_tag@0@@Z 100db2d0 f i ImfMisc.obj
 0002:0006b390       ??$_Debug_range@PAI@std@@YAXPAI0PB_WI@Z 100db390 f i ImfMisc.obj
 0002:0006b410       ??$_Debug_pointer@I@std@@YAXPAIPB_WI@Z 100db410 f i ImfMisc.obj
 0002:0006b480       ??$_Iter_cat@PAI@std@@YA?AUrandom_access_iterator_tag@0@ABQAI@Z 100db480 f i ImfMisc.obj
 0002:0006b500       ??$_Debug_range2@PAI@std@@YAXPAI0PB_WIUrandom_access_iterator_tag@0@@Z 100db500 f i ImfMisc.obj
 0002:0006b5b0       ?parseString@?A0x4734fbb7@Imf@@YA?AV?$vector@V?$basic_string@DU?$char_traits@D@std@@V?$allocator@D@2@@std@@V?$allocator@V?$basic_string@DU?$char_traits@D@std@@V?$allocator@D@2@@std@@@2@@std@@V?$basic_string@DU?$char_traits@D@std@@V?$allocator@D@2@@4@D@Z 100db5b0 f   ImfMultiView.obj
 0002:0006b860       ?viewNum@?A0x4734fbb7@Imf@@YAHABV?$basic_string@DU?$char_traits@D@std@@V?$allocator@D@2@@std@@ABV?$vector@V?$basic_string@DU?$char_traits@D@std@@V?$allocator@D@2@@std@@V?$allocator@V?$basic_string@DU?$char_traits@D@std@@V?$allocator@D@2@@std@@@2@@4@@Z 100db860 f   ImfMultiView.obj
 0002:0006b900       ?defaultViewName@Imf@@YA?AV?$basic_string@DU?$char_traits@D@std@@V?$allocator@D@2@@std@@ABV?$vector@V?$basic_string@DU?$char_traits@D@std@@V?$allocator@D@2@@std@@V?$allocator@V?$basic_string@DU?$char_traits@D@std@@V?$allocator@D@2@@std@@@2@@3@@Z 100db900 f   ImfMultiView.obj
 0002:0006b9c0       ?viewFromChannelName@Imf@@YA?AV?$basic_string@DU?$char_traits@D@std@@V?$allocator@D@2@@std@@ABV23@ABV?$vector@V?$basic_string@DU?$char_traits@D@std@@V?$allocator@D@2@@std@@V?$allocator@V?$basic_string@DU?$char_traits@D@std@@V?$allocator@D@2@@std@@@2@@3@@Z 100db9c0 f   ImfMultiView.obj
 0002:0006bc10       ?channelsInView@Imf@@YA?AVChannelList@1@ABV?$basic_string@DU?$char_traits@D@std@@V?$allocator@D@2@@std@@ABV21@ABV?$vector@V?$basic_string@DU?$char_traits@D@std@@V?$allocator@D@2@@std@@V?$allocator@V?$basic_string@DU?$char_traits@D@std@@V?$allocator@D@2@@std@@@2@@4@@Z 100dbc10 f   ImfMultiView.obj
 0002:0006be90       ??0ChannelList@Imf@@QAE@ABV01@@Z 100dbe90 f i ImfMultiView.obj
 0002:0006bef0       ?channelsInNoView@Imf@@YA?AVChannelList@1@ABV21@ABV?$vector@V?$basic_string@DU?$char_traits@D@std@@V?$allocator@D@2@@std@@V?$allocator@V?$basic_string@DU?$char_traits@D@std@@V?$allocator@D@2@@std@@@2@@std@@@Z 100dbef0 f   ImfMultiView.obj
 0002:0006bff0       ?areCounterparts@Imf@@YA_NABV?$basic_string@DU?$char_traits@D@std@@V?$allocator@D@2@@std@@0ABV?$vector@V?$basic_string@DU?$char_traits@D@std@@V?$allocator@D@2@@std@@V?$allocator@V?$basic_string@DU?$char_traits@D@std@@V?$allocator@D@2@@std@@@2@@3@@Z 100dbff0 f   ImfMultiView.obj
 0002:0006c5c0       ?channelInAllViews@Imf@@YA?AVChannelList@1@ABV?$basic_string@DU?$char_traits@D@std@@V?$allocator@D@2@@std@@ABV21@ABV?$vector@V?$basic_string@DU?$char_traits@D@std@@V?$allocator@D@2@@std@@V?$allocator@V?$basic_string@DU?$char_traits@D@std@@V?$allocator@D@2@@std@@@2@@4@@Z 100dc5c0 f   ImfMultiView.obj
 0002:0006c890       ?channelInOtherView@Imf@@YA?AV?$basic_string@DU?$char_traits@D@std@@V?$allocator@D@2@@std@@ABV23@ABVChannelList@1@ABV?$vector@V?$basic_string@DU?$char_traits@D@std@@V?$allocator@D@2@@std@@V?$allocator@V?$basic_string@DU?$char_traits@D@std@@V?$allocator@D@2@@std@@@2@@3@0@Z 100dc890 f   ImfMultiView.obj
 0002:0006cc30       ?insertViewName@Imf@@YA?AV?$basic_string@DU?$char_traits@D@std@@V?$allocator@D@2@@std@@ABV23@ABV?$vector@V?$basic_string@DU?$char_traits@D@std@@V?$allocator@D@2@@std@@V?$allocator@V?$basic_string@DU?$char_traits@D@std@@V?$allocator@D@2@@std@@@2@@3@H@Z 100dcc30 f   ImfMultiView.obj
 0002:0006cfc0       ??A?$basic_string@DU?$char_traits@D@std@@V?$allocator@D@2@@std@@QAEAADI@Z 100dcfc0 f i ImfMultiView.obj
 0002:0006d050       ?find@?$basic_string@DU?$char_traits@D@std@@V?$allocator@D@2@@std@@QBEIDI@Z 100dd050 f i ImfMultiView.obj
 0002:0006d0b0       ?substr@?$basic_string@DU?$char_traits@D@std@@V?$allocator@D@2@@std@@QBE?AV12@II@Z 100dd0b0 f i ImfMultiView.obj
 0002:0006d150       ??0?$map@VName@Imf@@UChannel@2@U?$less@VName@Imf@@@std@@V?$allocator@U?$pair@$$CBVName@Imf@@UChannel@2@@std@@@5@@std@@QAE@ABV01@@Z 100dd150 f i ImfMultiView.obj
 0002:0006d1b0       ??0?$vector@V?$basic_string@DU?$char_traits@D@std@@V?$allocator@D@2@@std@@V?$allocator@V?$basic_string@DU?$char_traits@D@std@@V?$allocator@D@2@@std@@@2@@std@@QAE@$$QAV01@@Z 100dd1b0 f i ImfMultiView.obj
 0002:0006d280       ??A?$vector@V?$basic_string@DU?$char_traits@D@std@@V?$allocator@D@2@@std@@V?$allocator@V?$basic_string@DU?$char_traits@D@std@@V?$allocator@D@2@@std@@@2@@std@@QBEABV?$basic_string@DU?$char_traits@D@std@@V?$allocator@D@2@@1@I@Z 100dd280 f i ImfMultiView.obj
 0002:0006d390       ??A?$vector@V?$basic_string@DU?$char_traits@D@std@@V?$allocator@D@2@@std@@V?$allocator@V?$basic_string@DU?$char_traits@D@std@@V?$allocator@D@2@@std@@@2@@std@@QAEAAV?$basic_string@DU?$char_traits@D@std@@V?$allocator@D@2@@1@I@Z 100dd390 f i ImfMultiView.obj
 0002:0006d4a0       ?push_back@?$vector@V?$basic_string@DU?$char_traits@D@std@@V?$allocator@D@2@@std@@V?$allocator@V?$basic_string@DU?$char_traits@D@std@@V?$allocator@D@2@@std@@@2@@std@@QAEXABV?$basic_string@DU?$char_traits@D@std@@V?$allocator@D@2@@2@@Z 100dd4a0 f i ImfMultiView.obj
 0002:0006d610       ??0?$basic_string@DU?$char_traits@D@std@@V?$allocator@D@2@@std@@QAE@ABV01@IIABV?$allocator@D@1@@Z 100dd610 f i ImfMultiView.obj
 0002:0006d6f0       ?find@?$basic_string@DU?$char_traits@D@std@@V?$allocator@D@2@@std@@QBEIPBDII@Z 100dd6f0 f i ImfMultiView.obj
 0002:0006d850       ?find@?$char_traits@D@std@@SAPBDPBDIABD@Z 100dd850 f i ImfMultiView.obj
 0002:0006d8c0       ??0?$_Tree@V?$_Tmap_traits@VName@Imf@@UChannel@2@U?$less@VName@Imf@@@std@@V?$allocator@U?$pair@$$CBVName@Imf@@UChannel@2@@std@@@5@$0A@@std@@@std@@QAE@ABV01@@Z 100dd8c0 f i ImfMultiView.obj
 0002:0006d9e0       ?_Assign_rv@?$vector@V?$basic_string@DU?$char_traits@D@std@@V?$allocator@D@2@@std@@V?$allocator@V?$basic_string@DU?$char_traits@D@std@@V?$allocator@D@2@@std@@@2@@std@@QAEX$$QAV12@@Z 100dd9e0 f i ImfMultiView.obj
 0002:0006dc30       ?_Inside@?$vector@V?$basic_string@DU?$char_traits@D@std@@V?$allocator@D@2@@std@@V?$allocator@V?$basic_string@DU?$char_traits@D@std@@V?$allocator@D@2@@std@@@2@@std@@IBE_NPBV?$basic_string@DU?$char_traits@D@std@@V?$allocator@D@2@@2@@Z 100ddc30 f i ImfMultiView.obj
 0002:0006dcb0       ?_Reserve@?$vector@V?$basic_string@DU?$char_traits@D@std@@V?$allocator@D@2@@std@@V?$allocator@V?$basic_string@DU?$char_traits@D@std@@V?$allocator@D@2@@std@@@2@@std@@IAEXI@Z 100ddcb0 f i ImfMultiView.obj
 0002:0006dd60       ?key_comp@?$_Tree@V?$_Tmap_traits@VName@Imf@@UChannel@2@U?$less@VName@Imf@@@std@@V?$allocator@U?$pair@$$CBVName@Imf@@UChannel@2@@std@@@5@$0A@@std@@@std@@QBE?AU?$less@VName@Imf@@@2@XZ 100ddd60 f i ImfMultiView.obj
 0002:0006dda0       ?push_back@?$vector@V?$basic_string@DU?$char_traits@D@std@@V?$allocator@D@2@@std@@V?$allocator@V?$basic_string@DU?$char_traits@D@std@@V?$allocator@D@2@@std@@@2@@std@@QAEX$$QAV?$basic_string@DU?$char_traits@D@std@@V?$allocator@D@2@@2@@Z 100ddda0 f i ImfMultiView.obj
 0002:0006df30       ?reserve@?$vector@V?$basic_string@DU?$char_traits@D@std@@V?$allocator@D@2@@std@@V?$allocator@V?$basic_string@DU?$char_traits@D@std@@V?$allocator@D@2@@std@@@2@@std@@QAEXI@Z 100ddf30 f i ImfMultiView.obj
 0002:0006e110       ?get_allocator@?$vector@V?$basic_string@DU?$char_traits@D@std@@V?$allocator@D@2@@std@@V?$allocator@V?$basic_string@DU?$char_traits@D@std@@V?$allocator@D@2@@std@@@2@@std@@QBE?AV?$allocator@V?$basic_string@DU?$char_traits@D@std@@V?$allocator@D@2@@std@@@2@XZ 100de110 f i ImfMultiView.obj
 0002:0006e170       ?_Grow_to@?$vector@V?$basic_string@DU?$char_traits@D@std@@V?$allocator@D@2@@std@@V?$allocator@V?$basic_string@DU?$char_traits@D@std@@V?$allocator@D@2@@std@@@2@@std@@IBEII@Z 100de170 f i ImfMultiView.obj
 0002:0006e220       ??D?$_Vector_iterator@V?$_Vector_val@V?$basic_string@DU?$char_traits@D@std@@V?$allocator@D@2@@std@@V?$allocator@V?$basic_string@DU?$char_traits@D@std@@V?$allocator@D@2@@std@@@2@@std@@@std@@QBEAAV?$basic_string@DU?$char_traits@D@std@@V?$allocator@D@2@@1@XZ 100de220 f i ImfMultiView.obj
 0002:0006e270       ??E?$_Vector_iterator@V?$_Vector_val@V?$basic_string@DU?$char_traits@D@std@@V?$allocator@D@2@@std@@V?$allocator@V?$basic_string@DU?$char_traits@D@std@@V?$allocator@D@2@@std@@@2@@std@@@std@@QAEAAV01@XZ 100de270 f i ImfMultiView.obj
 0002:0006e2d0       ??D?$_Vector_const_iterator@V?$_Vector_val@V?$basic_string@DU?$char_traits@D@std@@V?$allocator@D@2@@std@@V?$allocator@V?$basic_string@DU?$char_traits@D@std@@V?$allocator@D@2@@std@@@2@@std@@@std@@QBEABV?$basic_string@DU?$char_traits@D@std@@V?$allocator@D@2@@1@XZ 100de2d0 f i ImfMultiView.obj
 0002:0006e400       ??E?$_Vector_const_iterator@V?$_Vector_val@V?$basic_string@DU?$char_traits@D@std@@V?$allocator@D@2@@std@@V?$allocator@V?$basic_string@DU?$char_traits@D@std@@V?$allocator@D@2@@std@@@2@@std@@@std@@QAEAAV01@XZ 100de400 f i ImfMultiView.obj
 0002:0006e530       ??$?8DU?$char_traits@D@std@@V?$allocator@D@1@@std@@YA_NABV?$basic_string@DU?$char_traits@D@std@@V?$allocator@D@2@@0@0@Z 100de530 f i ImfMultiView.obj
 0002:0006e590       ??$?9DU?$char_traits@D@std@@V?$allocator@D@1@@std@@YA_NABV?$basic_string@DU?$char_traits@D@std@@V?$allocator@D@2@@0@0@Z 100de590 f i ImfMultiView.obj
 0002:0006e5f0       ??$?8DU?$char_traits@D@std@@V?$allocator@D@1@@std@@YA_NPBDABV?$basic_string@DU?$char_traits@D@std@@V?$allocator@D@2@@0@@Z 100de5f0 f i ImfMultiView.obj
 0002:0006e650       ?compare@?$basic_string@DU?$char_traits@D@std@@V?$allocator@D@2@@std@@QBEHPBD@Z 100de650 f i ImfMultiView.obj
 0002:0006e6e0       ??$?HDU?$char_traits@D@std@@V?$allocator@D@1@@std@@YA?AV?$basic_string@DU?$char_traits@D@std@@V?$allocator@D@2@@0@ABV10@PBD@Z 100de6e0 f i ImfMultiView.obj
 0002:0006e840       ??$?HDU?$char_traits@D@std@@V?$allocator@D@1@@std@@YA?AV?$basic_string@DU?$char_traits@D@std@@V?$allocator@D@2@@0@$$QAV10@ABV10@@Z 100de840 f i ImfMultiView.obj
 0002:0006e8d0       ??$forward@V?$vector@V?$basic_string@DU?$char_traits@D@std@@V?$allocator@D@2@@std@@V?$allocator@V?$basic_string@DU?$char_traits@D@std@@V?$allocator@D@2@@std@@@2@@std@@@std@@YA$$QAV?$vector@V?$basic_string@DU?$char_traits@D@std@@V?$allocator@D@2@@std@@V?$allocator@V?$basic_string@DU?$char_traits@D@std@@V?$allocator@D@2@@std@@@2@@0@AAV10@@Z 100de8d0 f i ImfMultiView.obj
 0002:0006e910       ??$addressof@$$CBV?$basic_string@DU?$char_traits@D@std@@V?$allocator@D@2@@std@@@std@@YAPBV?$basic_string@DU?$char_traits@D@std@@V?$allocator@D@2@@0@ABV10@@Z 100de910 f i ImfMultiView.obj
 0002:0006e950       ??$_Cons_val@V?$allocator@V?$basic_string@DU?$char_traits@D@std@@V?$allocator@D@2@@std@@@std@@V?$basic_string@DU?$char_traits@D@std@@V?$allocator@D@2@@2@ABV32@@std@@YAXAAV?$allocator@V?$basic_string@DU?$char_traits@D@std@@V?$allocator@D@2@@std@@@0@PAV?$basic_string@DU?$char_traits@D@std@@V?$allocator@D@2@@0@ABV20@@Z 100de950 f i ImfMultiView.obj
 0002:0006e9b0       ??$?9V?$basic_string@DU?$char_traits@D@std@@V?$allocator@D@2@@std@@V01@@std@@YA_NABV?$allocator@V?$basic_string@DU?$char_traits@D@std@@V?$allocator@D@2@@std@@@0@0@Z 100de9b0 f i ImfMultiView.obj
 0002:0006ea10       ??$_Cons_val@V?$allocator@V?$basic_string@DU?$char_traits@D@std@@V?$allocator@D@2@@std@@@std@@V?$basic_string@DU?$char_traits@D@std@@V?$allocator@D@2@@2@V32@@std@@YAXAAV?$allocator@V?$basic_string@DU?$char_traits@D@std@@V?$allocator@D@2@@std@@@0@PAV?$basic_string@DU?$char_traits@D@std@@V?$allocator@D@2@@0@$$QAV20@@Z 100dea10 f i ImfMultiView.obj
 0002:0006ea70       ??$_Umove@PAV?$basic_string@DU?$char_traits@D@std@@V?$allocator@D@2@@std@@@?$vector@V?$basic_string@DU?$char_traits@D@std@@V?$allocator@D@2@@std@@V?$allocator@V?$basic_string@DU?$char_traits@D@std@@V?$allocator@D@2@@std@@@2@@std@@IAEPAV?$basic_string@DU?$char_traits@D@std@@V?$allocator@D@2@@1@PAV21@00@Z 100dea70 f i ImfMultiView.obj
 0002:0006eae0       ??Y?$basic_string@DU?$char_traits@D@std@@V?$allocator@D@2@@std@@QAEAAV01@PBD@Z 100deae0 f i ImfMultiView.obj
 0002:0006eb40       ?append@?$basic_string@DU?$char_traits@D@std@@V?$allocator@D@2@@std@@QAEAAV12@PBD@Z 100deb40 f i ImfMultiView.obj
 0002:0006ebd0       ?append@?$basic_string@DU?$char_traits@D@std@@V?$allocator@D@2@@std@@QAEAAV12@PBDI@Z 100debd0 f i ImfMultiView.obj
 0002:0006ed10       ?construct@?$allocator@V?$basic_string@DU?$char_traits@D@std@@V?$allocator@D@2@@std@@@std@@QAEXPAV?$basic_string@DU?$char_traits@D@std@@V?$allocator@D@2@@2@ABV32@@Z 100ded10 f i ImfMultiView.obj
 0002:0006ed70       ?construct@?$allocator@V?$basic_string@DU?$char_traits@D@std@@V?$allocator@D@2@@std@@@std@@QAEXPAV?$basic_string@DU?$char_traits@D@std@@V?$allocator@D@2@@2@$$QAV32@@Z 100ded70 f i ImfMultiView.obj
 0002:0006ee70       ??$forward@ABV?$basic_string@DU?$char_traits@D@std@@V?$allocator@D@2@@std@@@std@@YAABV?$basic_string@DU?$char_traits@D@std@@V?$allocator@D@2@@0@ABV10@@Z 100dee70 f i ImfMultiView.obj
 0002:0006eeb0       ??$?8V?$basic_string@DU?$char_traits@D@std@@V?$allocator@D@2@@std@@V01@@std@@YA_NABV?$allocator@V?$basic_string@DU?$char_traits@D@std@@V?$allocator@D@2@@std@@@0@0@Z 100deeb0 f i ImfMultiView.obj
 0002:0006eee0       ??$_Uninitialized_move@PAV?$basic_string@DU?$char_traits@D@std@@V?$allocator@D@2@@std@@PAV12@V?$allocator@V?$basic_string@DU?$char_traits@D@std@@V?$allocator@D@2@@std@@@2@@std@@YAPAV?$basic_string@DU?$char_traits@D@std@@V?$allocator@D@2@@0@PAV10@00AAV?$allocator@V?$basic_string@DU?$char_traits@D@std@@V?$allocator@D@2@@std@@@0@@Z 100deee0 f i ImfMultiView.obj
 0002:0006ef80       ??$_Construct@V?$basic_string@DU?$char_traits@D@std@@V?$allocator@D@2@@std@@ABV12@@std@@YAXPAV?$basic_string@DU?$char_traits@D@std@@V?$allocator@D@2@@0@ABV10@@Z 100def80 f i ImfMultiView.obj
 0002:0006f080       ??$_Val_type@PAV?$basic_string@DU?$char_traits@D@std@@V?$allocator@D@2@@std@@@std@@YAPAV?$basic_string@DU?$char_traits@D@std@@V?$allocator@D@2@@0@PAV10@@Z 100df080 f i ImfMultiView.obj
 0002:0006f0b0       ??$_Uninit_move@PAV?$basic_string@DU?$char_traits@D@std@@V?$allocator@D@2@@std@@PAV12@V?$allocator@V?$basic_string@DU?$char_traits@D@std@@V?$allocator@D@2@@std@@@2@V12@@std@@YAPAV?$basic_string@DU?$char_traits@D@std@@V?$allocator@D@2@@0@PAV10@00AAV?$allocator@V?$basic_string@DU?$char_traits@D@std@@V?$allocator@D@2@@std@@@0@0U_Nonscalar_ptr_iterator_tag@0@@Z 100df0b0 f i ImfMultiView.obj
 0002:0006f210       ??0OpaqueAttribute@Imf@@QAE@QBD@Z 100df210 f   ImfOpaqueAttribute.obj
 0002:0006f320       ??_GOpaqueAttribute@Imf@@UAEPAXI@Z 100df320 f i ImfOpaqueAttribute.obj
 0002:0006f320       ??_EOpaqueAttribute@Imf@@UAEPAXI@Z 100df320 f i ImfOpaqueAttribute.obj
 0002:0006f390       ??0OpaqueAttribute@Imf@@QAE@ABV01@@Z 100df390 f   ImfOpaqueAttribute.obj
 0002:0006f500       ??1OpaqueAttribute@Imf@@UAE@XZ 100df500 f   ImfOpaqueAttribute.obj
 0002:0006f5c0       ?typeName@OpaqueAttribute@Imf@@UBEPBDXZ 100df5c0 f   ImfOpaqueAttribute.obj
 0002:0006f620       ?copy@OpaqueAttribute@Imf@@UBEPAVAttribute@2@XZ 100df620 f   ImfOpaqueAttribute.obj
 0002:0006f710       ?writeValueTo@OpaqueAttribute@Imf@@UBEXAAVOStream@2@H@Z 100df710 f   ImfOpaqueAttribute.obj
 0002:0006f780       ?readValueFrom@OpaqueAttribute@Imf@@UAEXAAVIStream@2@HH@Z 100df780 f   ImfOpaqueAttribute.obj
 0002:0006f810       ?copyValueFrom@OpaqueAttribute@Imf@@UAEXABVAttribute@2@@Z 100df810 f   ImfOpaqueAttribute.obj
 0002:0006faa0       ??0?$Array@D@Imf@@QAE@XZ   100dfaa0 f i ImfOpaqueAttribute.obj
 0002:0006faf0       ??0?$Array@D@Imf@@QAE@J@Z  100dfaf0 f i ImfOpaqueAttribute.obj
 0002:0006fb60       ??1?$Array@D@Imf@@QAE@XZ   100dfb60 f i ImfOpaqueAttribute.obj
 0002:0006fbd0       ??B?$Array@D@Imf@@QAEPADXZ 100dfbd0 f i ImfOpaqueAttribute.obj
 0002:0006fc10       ??B?$Array@D@Imf@@QBEPBDXZ 100dfc10 f i ImfOpaqueAttribute.obj
 0002:0006fc50       ?resizeErase@?$Array@D@Imf@@QAEXJ@Z 100dfc50 f i ImfOpaqueAttribute.obj
 0002:0006fcf0       ??$write@UStreamIO@Imf@@VOStream@2@@Xdr@Imf@@YAXAAVOStream@1@QBDH@Z 100dfcf0 f i ImfOpaqueAttribute.obj
 0002:0006fd50       ??$read@UStreamIO@Imf@@VIStream@2@@Xdr@Imf@@YAXAAVIStream@1@QADH@Z 100dfd50 f i ImfOpaqueAttribute.obj
 0002:0006fdb0       ??0OutSliceInfo@?A0xf57f9ec6@Imf@@QAE@W4PixelType@2@PBDIIHH_N@Z 100dfdb0 f   ImfOutputFile.obj
 0002:0006fe40       ??0LineBuffer@?A0xf57f9ec6@Imf@@QAE@PAVCompressor@2@@Z 100dfe40 f   ImfOutputFile.obj
 0002:0006ff40       ??1LineBuffer@?A0xf57f9ec6@Imf@@QAE@XZ 100dff40 f   ImfOutputFile.obj
 0002:00070060       ??0Data@OutputFile@Imf@@QAE@_NH@Z 100e0060 f   ImfOutputFile.obj
 0002:00070280       ??_EData@OutputFile@Imf@@UAEPAXI@Z 100e0280 f i ImfOutputFile.obj
 0002:00070280       ??_GData@OutputFile@Imf@@UAEPAXI@Z 100e0280 f i ImfOutputFile.obj
 0002:000702f0       ??1Data@OutputFile@Imf@@UAE@XZ 100e02f0 f   ImfOutputFile.obj
 0002:00070530       ??_GLineBuffer@?A0xf57f9ec6@Imf@@QAEPAXI@Z 100e0530 f i ImfOutputFile.obj
 0002:000705a0       ?writeLineOffsets@?A0xf57f9ec6@Imf@@YA_KAAVOStream@2@ABV?$vector@_KV?$allocator@_K@std@@@std@@@Z 100e05a0 f   ImfOutputFile.obj
 0002:00070700       ?writePixelData@?A0xf57f9ec6@Imf@@YAXPAUData@OutputFile@2@HQBDH@Z 100e0700 f   ImfOutputFile.obj
 0002:000708a0       ??$size@H@Xdr@Imf@@YAHXZ   100e08a0 f i ImfOutputFile.obj
 0002:000708e0       ?convertToXdr@?A0xf57f9ec6@Imf@@YAXPAUData@OutputFile@2@AAV?$Array@D@2@HHH@Z 100e08e0 f   ImfOutputFile.obj
 0002:00070b50       ??0LineBufferTask@?A0xf57f9ec6@Imf@@QAE@PAVTaskGroup@IlmThread@@PAUData@OutputFile@2@HHH@Z 100e0b50 f   ImfOutputFile.obj
 0002:00070d40       ?wait@LineBuffer@?A0xf57f9ec6@Imf@@QAEXXZ 100e0d40 f i ImfOutputFile.obj
 0002:00070da0       ?getLineBuffer@Data@OutputFile@Imf@@QAEPAULineBuffer@?A0xf57f9ec6@3@H@Z 100e0da0 f i ImfOutputFile.obj
 0002:00070e20       ??_ELineBufferTask@?A0xf57f9ec6@Imf@@UAEPAXI@Z 100e0e20 f i ImfOutputFile.obj
 0002:00070e20       ??_GLineBufferTask@?A0xf57f9ec6@Imf@@UAEPAXI@Z 100e0e20 f i ImfOutputFile.obj
 0002:00070e90       ??1LineBufferTask@?A0xf57f9ec6@Imf@@UAE@XZ 100e0e90 f   ImfOutputFile.obj
 0002:00070f40       ?post@LineBuffer@?A0xf57f9ec6@Imf@@QAEXXZ 100e0f40 f i ImfOutputFile.obj
 0002:00070fa0       ?execute@LineBufferTask@?A0xf57f9ec6@Imf@@UAEXXZ 100e0fa0 f   ImfOutputFile.obj
 0002:00071630       ??0OutputFile@Imf@@QAE@QBDABVHeader@1@H@Z 100e1630 f   ImfOutputFile.obj
 0002:00071a40       ??_GOutputFile@Imf@@UAEPAXI@Z 100e1a40 f i ImfOutputFile.obj
 0002:00071a40       ??_EOutputFile@Imf@@UAEPAXI@Z 100e1a40 f i ImfOutputFile.obj
 0002:00071ab0       ??0OutputFile@Imf@@QAE@AAVOStream@1@ABVHeader@1@H@Z 100e1ab0 f   ImfOutputFile.obj
 0002:00071e40       ?initialize@OutputFile@Imf@@AAEXABVHeader@2@@Z 100e1e40 f   ImfOutputFile.obj
 0002:000722f0       ??1OutputFile@Imf@@UAE@XZ  100e22f0 f   ImfOutputFile.obj
 0002:000724c0       ?fileName@OutputFile@Imf@@QBEPBDXZ 100e24c0 f   ImfOutputFile.obj
 0002:00072520       ?header@OutputFile@Imf@@QBEABVHeader@2@XZ 100e2520 f   ImfOutputFile.obj
 0002:00072560       ?setFrameBuffer@OutputFile@Imf@@QAEXABVFrameBuffer@2@@Z 100e2560 f   ImfOutputFile.obj
 0002:00072d50       ?frameBuffer@OutputFile@Imf@@QBEABVFrameBuffer@2@XZ 100e2d50 f   ImfOutputFile.obj
 0002:00072e10       ?writePixels@OutputFile@Imf@@QAEXH@Z 100e2e10 f   ImfOutputFile.obj
 0002:000738f0       ??0IoExc@Iex@@QAE@ABV?$basic_string@DU?$char_traits@D@std@@V?$allocator@D@2@@std@@@Z 100e38f0 f i ImfOutputFile.obj
 0002:00073960       ??_GIoExc@Iex@@UAEPAXI@Z   100e3960 f i ImfOutputFile.obj
 0002:00073960       ??_EIoExc@Iex@@UAEPAXI@Z   100e3960 f i ImfOutputFile.obj
 0002:000739d0       ??1IoExc@Iex@@UAE@XZ       100e39d0 f i ImfOutputFile.obj
 0002:00073a20       ?writePixelData@?A0xf57f9ec6@Imf@@YAXPAUData@OutputFile@2@PBULineBuffer@12@@Z 100e3a20 f i ImfOutputFile.obj
 0002:00073a90       ??0IoExc@Iex@@QAE@ABV01@@Z 100e3a90 f i ImfOutputFile.obj
 0002:00073b00       ?currentScanLine@OutputFile@Imf@@QBEHXZ 100e3b00 f   ImfOutputFile.obj
 0002:00073bc0       ?copyPixels@OutputFile@Imf@@QAEXAAVInputFile@2@@Z 100e3bc0 f   ImfOutputFile.obj
 0002:00074630       ??0LogicExc@Iex@@QAE@AAV?$basic_stringstream@DU?$char_traits@D@std@@V?$allocator@D@2@@std@@@Z 100e4630 f i ImfOutputFile.obj
 0002:000746a0       ??_GLogicExc@Iex@@UAEPAXI@Z 100e46a0 f i ImfOutputFile.obj
 0002:000746a0       ??_ELogicExc@Iex@@UAEPAXI@Z 100e46a0 f i ImfOutputFile.obj
 0002:00074710       ??1LogicExc@Iex@@UAE@XZ    100e4710 f i ImfOutputFile.obj
 0002:00074760       ??0LogicExc@Iex@@QAE@ABV01@@Z 100e4760 f i ImfOutputFile.obj
 0002:000747d0       ?updatePreviewImage@OutputFile@Imf@@QAEXQBUPreviewRgba@2@@Z 100e47d0 f   ImfOutputFile.obj
 0002:00074d00       ?width@PreviewImage@Imf@@QBEIXZ 100e4d00 f i ImfOutputFile.obj
 0002:00074d40       ?height@PreviewImage@Imf@@QBEIXZ 100e4d40 f i ImfOutputFile.obj
 0002:00074d80       ?pixels@PreviewImage@Imf@@QAEPAUPreviewRgba@2@XZ 100e4d80 f i ImfOutputFile.obj
 0002:00074dc0       ?breakScanLine@OutputFile@Imf@@QAEXHHHD@Z 100e4dc0 f   ImfOutputFile.obj
 0002:000750e0       ??0?$vector@_KV?$allocator@_K@std@@@std@@QAE@XZ 100e50e0 f i ImfOutputFile.obj
 0002:00075150       ??1?$vector@_KV?$allocator@_K@std@@@std@@QAE@XZ 100e5150 f i ImfOutputFile.obj
 0002:000751f0       ?resize@?$vector@_KV?$allocator@_K@std@@@std@@QAEXI@Z 100e51f0 f i ImfOutputFile.obj
 0002:00075460       ?size@?$vector@_KV?$allocator@_K@std@@@std@@QBEIXZ 100e5460 f i ImfOutputFile.obj
 0002:000754b0       ??A?$vector@_KV?$allocator@_K@std@@@std@@QBEAB_KI@Z 100e54b0 f i ImfOutputFile.obj
 0002:000755c0       ??A?$vector@_KV?$allocator@_K@std@@@std@@QAEAA_KI@Z 100e55c0 f i ImfOutputFile.obj
 0002:000756d0       ??0?$vector@IV?$allocator@I@std@@@std@@QAE@XZ 100e56d0 f i ImfOutputFile.obj
 0002:00075740       ??1?$vector@IV?$allocator@I@std@@@std@@QAE@XZ 100e5740 f i ImfOutputFile.obj
 0002:000757e0       ??0?$vector@UOutSliceInfo@?A0xf57f9ec6@Imf@@V?$allocator@UOutSliceInfo@?A0xf57f9ec6@Imf@@@std@@@std@@QAE@XZ 100e57e0 f i ImfOutputFile.obj
 0002:00075850       ?push_back@?$vector@UOutSliceInfo@?A0xf57f9ec6@Imf@@V?$allocator@UOutSliceInfo@?A0xf57f9ec6@Imf@@@std@@@std@@QAEX$$QAUOutSliceInfo@?A0xf57f9ec6@Imf@@@Z 100e5850 f i ImfOutputFile.obj
 0002:000759f0       ??1?$vector@UOutSliceInfo@?A0xf57f9ec6@Imf@@V?$allocator@UOutSliceInfo@?A0xf57f9ec6@Imf@@@std@@@std@@QAE@XZ 100e59f0 f i ImfOutputFile.obj
 0002:00075a90       ??4?$vector@UOutSliceInfo@?A0xf57f9ec6@Imf@@V?$allocator@UOutSliceInfo@?A0xf57f9ec6@Imf@@@std@@@std@@QAEAAV01@ABV01@@Z 100e5a90 f i ImfOutputFile.obj
 0002:00075cd0       ?size@?$vector@UOutSliceInfo@?A0xf57f9ec6@Imf@@V?$allocator@UOutSliceInfo@?A0xf57f9ec6@Imf@@@std@@@std@@QBEIXZ 100e5cd0 f i ImfOutputFile.obj
 0002:00075d20       ??A?$vector@UOutSliceInfo@?A0xf57f9ec6@Imf@@V?$allocator@UOutSliceInfo@?A0xf57f9ec6@Imf@@@std@@@std@@QAEAAUOutSliceInfo@?A0xf57f9ec6@Imf@@I@Z 100e5d20 f i ImfOutputFile.obj
 0002:00075e30       ??0?$vector@PAULineBuffer@?A0xf57f9ec6@Imf@@V?$allocator@PAULineBuffer@?A0xf57f9ec6@Imf@@@std@@@std@@QAE@XZ 100e5e30 f i ImfOutputFile.obj
 0002:00075ea0       ??1?$vector@PAULineBuffer@?A0xf57f9ec6@Imf@@V?$allocator@PAULineBuffer@?A0xf57f9ec6@Imf@@@std@@@std@@QAE@XZ 100e5ea0 f i ImfOutputFile.obj
 0002:00075f40       ?resize@?$vector@PAULineBuffer@?A0xf57f9ec6@Imf@@V?$allocator@PAULineBuffer@?A0xf57f9ec6@Imf@@@std@@@std@@QAEXI@Z 100e5f40 f i ImfOutputFile.obj
 0002:000761b0       ?size@?$vector@PAULineBuffer@?A0xf57f9ec6@Imf@@V?$allocator@PAULineBuffer@?A0xf57f9ec6@Imf@@@std@@@std@@QBEIXZ 100e61b0 f i ImfOutputFile.obj
 0002:00076200       ??A?$vector@PAULineBuffer@?A0xf57f9ec6@Imf@@V?$allocator@PAULineBuffer@?A0xf57f9ec6@Imf@@@std@@@std@@QAEAAPAULineBuffer@?A0xf57f9ec6@Imf@@I@Z 100e6200 f i ImfOutputFile.obj
 0002:00076310       ??1?$_Vector_iterator@V?$_Vector_val@_KV?$allocator@_K@std@@@std@@@std@@QAE@XZ 100e6310 f i ImfOutputFile.obj
 0002:00076360       ??0?$_Vector_const_iterator@V?$_Vector_val@_KV?$allocator@_K@std@@@std@@@std@@QAE@ABV01@@Z 100e6360 f i ImfOutputFile.obj
 0002:000763d0       ??1?$_Vector_const_iterator@V?$_Vector_val@_KV?$allocator@_K@std@@@std@@@std@@QAE@XZ 100e63d0 f i ImfOutputFile.obj
 0002:00076420       ??1?$_Vector_iterator@V?$_Vector_val@PAULineBuffer@?A0xf57f9ec6@Imf@@V?$allocator@PAULineBuffer@?A0xf57f9ec6@Imf@@@std@@@std@@@std@@QAE@XZ 100e6420 f i ImfOutputFile.obj
 0002:00076470       ??0?$_Vector_const_iterator@V?$_Vector_val@PAULineBuffer@?A0xf57f9ec6@Imf@@V?$allocator@PAULineBuffer@?A0xf57f9ec6@Imf@@@std@@@std@@@std@@QAE@ABV01@@Z 100e6470 f i ImfOutputFile.obj
 0002:000764e0       ??1?$_Vector_const_iterator@V?$_Vector_val@PAULineBuffer@?A0xf57f9ec6@Imf@@V?$allocator@PAULineBuffer@?A0xf57f9ec6@Imf@@@std@@@std@@@std@@QAE@XZ 100e64e0 f i ImfOutputFile.obj
 0002:00076530       ??0?$_Iterator012@Urandom_access_iterator_tag@std@@_KHPB_KAB_KU_Iterator_base12@2@@std@@QAE@ABU01@@Z 100e6530 f i ImfOutputFile.obj
 0002:00076590       ??1?$_Iterator012@Urandom_access_iterator_tag@std@@_KHPB_KAB_KU_Iterator_base12@2@@std@@QAE@XZ 100e6590 f i ImfOutputFile.obj
 0002:000765e0       ??0?$_Iterator012@Urandom_access_iterator_tag@std@@PAULineBuffer@?A0xf57f9ec6@Imf@@HPBQAU345@ABQAU345@U_Iterator_base12@2@@std@@QAE@ABU01@@Z 100e65e0 f i ImfOutputFile.obj
 0002:00076640       ??1?$_Iterator012@Urandom_access_iterator_tag@std@@PAULineBuffer@?A0xf57f9ec6@Imf@@HPBQAU345@ABQAU345@U_Iterator_base12@2@@std@@QAE@XZ 100e6640 f i ImfOutputFile.obj
 0002:00076690       ?begin@?$vector@_KV?$allocator@_K@std@@@std@@QAE?AV?$_Vector_iterator@V?$_Vector_val@_KV?$allocator@_K@std@@@std@@@2@XZ 100e6690 f i ImfOutputFile.obj
 0002:00076720       ?end@?$vector@_KV?$allocator@_K@std@@@std@@QAE?AV?$_Vector_iterator@V?$_Vector_val@_KV?$allocator@_K@std@@@std@@@2@XZ 100e6720 f i ImfOutputFile.obj
 0002:000767b0       ?erase@?$vector@_KV?$allocator@_K@std@@@std@@QAE?AV?$_Vector_iterator@V?$_Vector_val@_KV?$allocator@_K@std@@@std@@@2@V?$_Vector_const_iterator@V?$_Vector_val@_KV?$allocator@_K@std@@@std@@@2@0@Z 100e67b0 f i ImfOutputFile.obj
 0002:00076a80       ?_Reserve@?$vector@_KV?$allocator@_K@std@@@std@@IAEXI@Z 100e6a80 f i ImfOutputFile.obj
 0002:00076b30       ?_Tidy@?$vector@_KV?$allocator@_K@std@@@std@@IAEXXZ 100e6b30 f i ImfOutputFile.obj
 0002:00076c10       ??0?$_Vector_val@_KV?$allocator@_K@std@@@std@@QAE@V?$allocator@_K@1@@Z 100e6c10 f i ImfOutputFile.obj
 0002:00076d90       ??1?$_Vector_val@_KV?$allocator@_K@std@@@std@@QAE@XZ 100e6d90 f i ImfOutputFile.obj
 0002:00076ed0       ??0?$allocator@_K@std@@QAE@XZ 100e6ed0 f i ImfOutputFile.obj
 0002:00076f10       ?_Tidy@?$vector@IV?$allocator@I@std@@@std@@IAEXXZ 100e6f10 f i ImfOutputFile.obj
 0002:00076ff0       ??0?$_Vector_val@IV?$allocator@I@std@@@std@@QAE@V?$allocator@I@1@@Z 100e6ff0 f i ImfOutputFile.obj
 0002:00077170       ??1?$_Vector_val@IV?$allocator@I@std@@@std@@QAE@XZ 100e7170 f i ImfOutputFile.obj
 0002:000772b0       ??0?$allocator@I@std@@QAE@XZ 100e72b0 f i ImfOutputFile.obj
 0002:000772f0       ?capacity@?$vector@UOutSliceInfo@?A0xf57f9ec6@Imf@@V?$allocator@UOutSliceInfo@?A0xf57f9ec6@Imf@@@std@@@std@@QBEIXZ 100e72f0 f i ImfOutputFile.obj
 0002:00077340       ?clear@?$vector@UOutSliceInfo@?A0xf57f9ec6@Imf@@V?$allocator@UOutSliceInfo@?A0xf57f9ec6@Imf@@@std@@@std@@QAEXXZ 100e7340 f i ImfOutputFile.obj
 0002:000774d0       ?_Buy@?$vector@UOutSliceInfo@?A0xf57f9ec6@Imf@@V?$allocator@UOutSliceInfo@?A0xf57f9ec6@Imf@@@std@@@std@@IAE_NI@Z 100e74d0 f i ImfOutputFile.obj
 0002:000775b0       ?_Destroy@?$vector@UOutSliceInfo@?A0xf57f9ec6@Imf@@V?$allocator@UOutSliceInfo@?A0xf57f9ec6@Imf@@@std@@@std@@IAEXPAUOutSliceInfo@?A0xf57f9ec6@Imf@@0@Z 100e75b0 f i ImfOutputFile.obj
 0002:00077620       ?_Inside@?$vector@UOutSliceInfo@?A0xf57f9ec6@Imf@@V?$allocator@UOutSliceInfo@?A0xf57f9ec6@Imf@@@std@@@std@@IBE_NPBUOutSliceInfo@?A0xf57f9ec6@Imf@@@Z 100e7620 f i ImfOutputFile.obj
 0002:000776a0       ?_Reserve@?$vector@UOutSliceInfo@?A0xf57f9ec6@Imf@@V?$allocator@UOutSliceInfo@?A0xf57f9ec6@Imf@@@std@@@std@@IAEXI@Z 100e76a0 f i ImfOutputFile.obj
 0002:00077750       ?_Tidy@?$vector@UOutSliceInfo@?A0xf57f9ec6@Imf@@V?$allocator@UOutSliceInfo@?A0xf57f9ec6@Imf@@@std@@@std@@IAEXXZ 100e7750 f i ImfOutputFile.obj
 0002:00077830       ?_Orphan_range@?$vector@UOutSliceInfo@?A0xf57f9ec6@Imf@@V?$allocator@UOutSliceInfo@?A0xf57f9ec6@Imf@@@std@@@std@@IBEXPAUOutSliceInfo@?A0xf57f9ec6@Imf@@0@Z 100e7830 f i ImfOutputFile.obj
 0002:000779b0       ??0?$_Vector_val@UOutSliceInfo@?A0xf57f9ec6@Imf@@V?$allocator@UOutSliceInfo@?A0xf57f9ec6@Imf@@@std@@@std@@QAE@V?$allocator@UOutSliceInfo@?A0xf57f9ec6@Imf@@@1@@Z 100e79b0 f i ImfOutputFile.obj
 0002:00077b30       ??1?$_Vector_val@UOutSliceInfo@?A0xf57f9ec6@Imf@@V?$allocator@UOutSliceInfo@?A0xf57f9ec6@Imf@@@std@@@std@@QAE@XZ 100e7b30 f i ImfOutputFile.obj
 0002:00077c70       ??0?$allocator@UOutSliceInfo@?A0xf57f9ec6@Imf@@@std@@QAE@XZ 100e7c70 f i ImfOutputFile.obj
 0002:00077cb0       ?deallocate@?$allocator@UOutSliceInfo@?A0xf57f9ec6@Imf@@@std@@QAEXPAUOutSliceInfo@?A0xf57f9ec6@Imf@@I@Z 100e7cb0 f i ImfOutputFile.obj
 0002:00077d10       ?begin@?$vector@PAULineBuffer@?A0xf57f9ec6@Imf@@V?$allocator@PAULineBuffer@?A0xf57f9ec6@Imf@@@std@@@std@@QAE?AV?$_Vector_iterator@V?$_Vector_val@PAULineBuffer@?A0xf57f9ec6@Imf@@V?$allocator@PAULineBuffer@?A0xf57f9ec6@Imf@@@std@@@std@@@2@XZ 100e7d10 f i ImfOutputFile.obj
 0002:00077da0       ?end@?$vector@PAULineBuffer@?A0xf57f9ec6@Imf@@V?$allocator@PAULineBuffer@?A0xf57f9ec6@Imf@@@std@@@std@@QAE?AV?$_Vector_iterator@V?$_Vector_val@PAULineBuffer@?A0xf57f9ec6@Imf@@V?$allocator@PAULineBuffer@?A0xf57f9ec6@Imf@@@std@@@std@@@2@XZ 100e7da0 f i ImfOutputFile.obj
 0002:00077e30       ?erase@?$vector@PAULineBuffer@?A0xf57f9ec6@Imf@@V?$allocator@PAULineBuffer@?A0xf57f9ec6@Imf@@@std@@@std@@QAE?AV?$_Vector_iterator@V?$_Vector_val@PAULineBuffer@?A0xf57f9ec6@Imf@@V?$allocator@PAULineBuffer@?A0xf57f9ec6@Imf@@@std@@@std@@@2@V?$_Vector_const_iterator@V?$_Vector_val@PAULineBuffer@?A0xf57f9ec6@Imf@@V?$allocator@PAULineBuffer@?A0xf57f9ec6@Imf@@@std@@@std@@@2@0@Z 100e7e30 f i ImfOutputFile.obj
 0002:00078100       ?_Reserve@?$vector@PAULineBuffer@?A0xf57f9ec6@Imf@@V?$allocator@PAULineBuffer@?A0xf57f9ec6@Imf@@@std@@@std@@IAEXI@Z 100e8100 f i ImfOutputFile.obj
 0002:000781b0       ?_Tidy@?$vector@PAULineBuffer@?A0xf57f9ec6@Imf@@V?$allocator@PAULineBuffer@?A0xf57f9ec6@Imf@@@std@@@std@@IAEXXZ 100e81b0 f i ImfOutputFile.obj
 0002:00078290       ??0?$_Vector_val@PAULineBuffer@?A0xf57f9ec6@Imf@@V?$allocator@PAULineBuffer@?A0xf57f9ec6@Imf@@@std@@@std@@QAE@V?$allocator@PAULineBuffer@?A0xf57f9ec6@Imf@@@1@@Z 100e8290 f i ImfOutputFile.obj
 0002:00078410       ??1?$_Vector_val@PAULineBuffer@?A0xf57f9ec6@Imf@@V?$allocator@PAULineBuffer@?A0xf57f9ec6@Imf@@@std@@@std@@QAE@XZ 100e8410 f i ImfOutputFile.obj
 0002:00078550       ??0?$allocator@PAULineBuffer@?A0xf57f9ec6@Imf@@@std@@QAE@XZ 100e8550 f i ImfOutputFile.obj
 0002:00078590       ??H?$_Vector_iterator@V?$_Vector_val@_KV?$allocator@_K@std@@@std@@@std@@QBE?AV01@H@Z 100e8590 f i ImfOutputFile.obj
 0002:000786b0       ??H?$_Vector_iterator@V?$_Vector_val@PAULineBuffer@?A0xf57f9ec6@Imf@@V?$allocator@PAULineBuffer@?A0xf57f9ec6@Imf@@@std@@@std@@@std@@QBE?AV01@H@Z 100e86b0 f i ImfOutputFile.obj
 0002:000787d0       ??1?$_Vector_iterator@V?$_Vector_val@UOutSliceInfo@?A0xf57f9ec6@Imf@@V?$allocator@UOutSliceInfo@?A0xf57f9ec6@Imf@@@std@@@std@@@std@@QAE@XZ 100e87d0 f i ImfOutputFile.obj
 0002:00078820       ??0?$_Vector_const_iterator@V?$_Vector_val@UOutSliceInfo@?A0xf57f9ec6@Imf@@V?$allocator@UOutSliceInfo@?A0xf57f9ec6@Imf@@@std@@@std@@@std@@QAE@ABV01@@Z 100e8820 f i ImfOutputFile.obj
 0002:00078890       ??1?$_Vector_const_iterator@V?$_Vector_val@UOutSliceInfo@?A0xf57f9ec6@Imf@@V?$allocator@UOutSliceInfo@?A0xf57f9ec6@Imf@@@std@@@std@@@std@@QAE@XZ 100e8890 f i ImfOutputFile.obj
 0002:000788e0       ??0?$_Vector_iterator@V?$_Vector_val@_KV?$allocator@_K@std@@@std@@@std@@QAE@ABV01@@Z 100e88e0 f i ImfOutputFile.obj
 0002:00078940       ??0?$_Vector_iterator@V?$_Vector_val@PAULineBuffer@?A0xf57f9ec6@Imf@@V?$allocator@PAULineBuffer@?A0xf57f9ec6@Imf@@@std@@@std@@@std@@QAE@ABV01@@Z 100e8940 f i ImfOutputFile.obj
 0002:000789a0       ??0?$_Iterator012@Urandom_access_iterator_tag@std@@UOutSliceInfo@?A0xf57f9ec6@Imf@@HPBU345@ABU345@U_Iterator_base12@2@@std@@QAE@ABU01@@Z 100e89a0 f i ImfOutputFile.obj
 0002:00078a00       ??1?$_Iterator012@Urandom_access_iterator_tag@std@@UOutSliceInfo@?A0xf57f9ec6@Imf@@HPBU345@ABU345@U_Iterator_base12@2@@std@@QAE@XZ 100e8a00 f i ImfOutputFile.obj
 0002:00078a50       ?reserve@?$vector@_KV?$allocator@_K@std@@@std@@QAEXI@Z 100e8a50 f i ImfOutputFile.obj
 0002:00078c30       ?capacity@?$vector@_KV?$allocator@_K@std@@@std@@QBEIXZ 100e8c30 f i ImfOutputFile.obj
 0002:00078c80       ?_Make_iter@?$vector@_KV?$allocator@_K@std@@@std@@QBE?AV?$_Vector_iterator@V?$_Vector_val@_KV?$allocator@_K@std@@@std@@@2@V?$_Vector_const_iterator@V?$_Vector_val@_KV?$allocator@_K@std@@@std@@@2@@Z 100e8c80 f i ImfOutputFile.obj
 0002:00078d50       ?max_size@?$vector@_KV?$allocator@_K@std@@@std@@QBEIXZ 100e8d50 f i ImfOutputFile.obj
 0002:00078db0       ?_Destroy@?$vector@_KV?$allocator@_K@std@@@std@@IAEXPA_K0@Z 100e8db0 f i ImfOutputFile.obj
 0002:00078e20       ?_Grow_to@?$vector@_KV?$allocator@_K@std@@@std@@IBEII@Z 100e8e20 f i ImfOutputFile.obj
 0002:00078ed0       ?_Xlen@?$vector@_KV?$allocator@_K@std@@@std@@IBEXXZ 100e8ed0 f i ImfOutputFile.obj
 0002:00078f30       ?_Orphan_range@?$vector@_KV?$allocator@_K@std@@@std@@IBEXPA_K0@Z 100e8f30 f i ImfOutputFile.obj
 0002:000790b0       ??0?$allocator@_K@std@@QAE@ABV01@@Z 100e90b0 f i ImfOutputFile.obj
 0002:000790f0       ?deallocate@?$allocator@_K@std@@QAEXPA_KI@Z 100e90f0 f i ImfOutputFile.obj
 0002:00079150       ??0?$allocator@I@std@@QAE@ABV01@@Z 100e9150 f i ImfOutputFile.obj
 0002:00079190       ?reserve@?$vector@UOutSliceInfo@?A0xf57f9ec6@Imf@@V?$allocator@UOutSliceInfo@?A0xf57f9ec6@Imf@@@std@@@std@@QAEXI@Z 100e9190 f i ImfOutputFile.obj
 0002:00079380       ?begin@?$vector@UOutSliceInfo@?A0xf57f9ec6@Imf@@V?$allocator@UOutSliceInfo@?A0xf57f9ec6@Imf@@@std@@@std@@QAE?AV?$_Vector_iterator@V?$_Vector_val@UOutSliceInfo@?A0xf57f9ec6@Imf@@V?$allocator@UOutSliceInfo@?A0xf57f9ec6@Imf@@@std@@@std@@@2@XZ 100e9380 f i ImfOutputFile.obj
 0002:00079410       ?end@?$vector@UOutSliceInfo@?A0xf57f9ec6@Imf@@V?$allocator@UOutSliceInfo@?A0xf57f9ec6@Imf@@@std@@@std@@QAE?AV?$_Vector_iterator@V?$_Vector_val@UOutSliceInfo@?A0xf57f9ec6@Imf@@V?$allocator@UOutSliceInfo@?A0xf57f9ec6@Imf@@@std@@@std@@@2@XZ 100e9410 f i ImfOutputFile.obj
 0002:000794a0       ?max_size@?$vector@UOutSliceInfo@?A0xf57f9ec6@Imf@@V?$allocator@UOutSliceInfo@?A0xf57f9ec6@Imf@@@std@@@std@@QBEIXZ 100e94a0 f i ImfOutputFile.obj
 0002:00079500       ?erase@?$vector@UOutSliceInfo@?A0xf57f9ec6@Imf@@V?$allocator@UOutSliceInfo@?A0xf57f9ec6@Imf@@@std@@@std@@QAE?AV?$_Vector_iterator@V?$_Vector_val@UOutSliceInfo@?A0xf57f9ec6@Imf@@V?$allocator@UOutSliceInfo@?A0xf57f9ec6@Imf@@@std@@@std@@@2@V?$_Vector_const_iterator@V?$_Vector_val@UOutSliceInfo@?A0xf57f9ec6@Imf@@V?$allocator@UOutSliceInfo@?A0xf57f9ec6@Imf@@@std@@@std@@@2@0@Z 100e9500 f i ImfOutputFile.obj
 0002:000797d0       ?_Grow_to@?$vector@UOutSliceInfo@?A0xf57f9ec6@Imf@@V?$allocator@UOutSliceInfo@?A0xf57f9ec6@Imf@@@std@@@std@@IBEII@Z 100e97d0 f i ImfOutputFile.obj
 0002:00079880       ?_Xlen@?$vector@UOutSliceInfo@?A0xf57f9ec6@Imf@@V?$allocator@UOutSliceInfo@?A0xf57f9ec6@Imf@@@std@@@std@@IBEXXZ 100e9880 f i ImfOutputFile.obj
 0002:000798e0       ??0?$allocator@UOutSliceInfo@?A0xf57f9ec6@Imf@@@std@@QAE@ABV01@@Z 100e98e0 f i ImfOutputFile.obj
 0002:00079920       ?allocate@?$allocator@UOutSliceInfo@?A0xf57f9ec6@Imf@@@std@@QAEPAUOutSliceInfo@?A0xf57f9ec6@Imf@@I@Z 100e9920 f i ImfOutputFile.obj
 0002:00079980       ?reserve@?$vector@PAULineBuffer@?A0xf57f9ec6@Imf@@V?$allocator@PAULineBuffer@?A0xf57f9ec6@Imf@@@std@@@std@@QAEXI@Z 100e9980 f i ImfOutputFile.obj
 0002:00079b60       ?capacity@?$vector@PAULineBuffer@?A0xf57f9ec6@Imf@@V?$allocator@PAULineBuffer@?A0xf57f9ec6@Imf@@@std@@@std@@QBEIXZ 100e9b60 f i ImfOutputFile.obj
 0002:00079bb0       ?_Make_iter@?$vector@PAULineBuffer@?A0xf57f9ec6@Imf@@V?$allocator@PAULineBuffer@?A0xf57f9ec6@Imf@@@std@@@std@@QBE?AV?$_Vector_iterator@V?$_Vector_val@PAULineBuffer@?A0xf57f9ec6@Imf@@V?$allocator@PAULineBuffer@?A0xf57f9ec6@Imf@@@std@@@std@@@2@V?$_Vector_const_iterator@V?$_Vector_val@PAULineBuffer@?A0xf57f9ec6@Imf@@V?$allocator@PAULineBuffer@?A0xf57f9ec6@Imf@@@std@@@std@@@2@@Z 100e9bb0 f i ImfOutputFile.obj
 0002:00079c80       ?max_size@?$vector@PAULineBuffer@?A0xf57f9ec6@Imf@@V?$allocator@PAULineBuffer@?A0xf57f9ec6@Imf@@@std@@@std@@QBEIXZ 100e9c80 f i ImfOutputFile.obj
 0002:00079ce0       ?_Destroy@?$vector@PAULineBuffer@?A0xf57f9ec6@Imf@@V?$allocator@PAULineBuffer@?A0xf57f9ec6@Imf@@@std@@@std@@IAEXPAPAULineBuffer@?A0xf57f9ec6@Imf@@0@Z 100e9ce0 f i ImfOutputFile.obj
 0002:00079d50       ?_Grow_to@?$vector@PAULineBuffer@?A0xf57f9ec6@Imf@@V?$allocator@PAULineBuffer@?A0xf57f9ec6@Imf@@@std@@@std@@IBEII@Z 100e9d50 f i ImfOutputFile.obj
 0002:00079e00       ?_Xlen@?$vector@PAULineBuffer@?A0xf57f9ec6@Imf@@V?$allocator@PAULineBuffer@?A0xf57f9ec6@Imf@@@std@@@std@@IBEXXZ 100e9e00 f i ImfOutputFile.obj
 0002:00079e60       ?_Orphan_range@?$vector@PAULineBuffer@?A0xf57f9ec6@Imf@@V?$allocator@PAULineBuffer@?A0xf57f9ec6@Imf@@@std@@@std@@IBEXPAPAULineBuffer@?A0xf57f9ec6@Imf@@0@Z 100e9e60 f i ImfOutputFile.obj
 0002:00079fe0       ??0?$allocator@PAULineBuffer@?A0xf57f9ec6@Imf@@@std@@QAE@ABV01@@Z 100e9fe0 f i ImfOutputFile.obj
 0002:0007a020       ?deallocate@?$allocator@PAULineBuffer@?A0xf57f9ec6@Imf@@@std@@QAEXPAPAULineBuffer@?A0xf57f9ec6@Imf@@I@Z 100ea020 f i ImfOutputFile.obj
 0002:0007a080       ??0?$_Vector_iterator@V?$_Vector_val@_KV?$allocator@_K@std@@@std@@@std@@QAE@PA_KPBU_Container_base12@1@@Z 100ea080 f i ImfOutputFile.obj
 0002:0007a0e0       ??Y?$_Vector_iterator@V?$_Vector_val@_KV?$allocator@_K@std@@@std@@@std@@QAEAAV01@H@Z 100ea0e0 f i ImfOutputFile.obj
 0002:0007a140       ??9?$_Vector_const_iterator@V?$_Vector_val@_KV?$allocator@_K@std@@@std@@@std@@QBE_NABV01@@Z 100ea140 f i ImfOutputFile.obj
 0002:0007a1b0       ??M?$_Vector_const_iterator@V?$_Vector_val@_KV?$allocator@_K@std@@@std@@@std@@QBE_NABV01@@Z 100ea1b0 f i ImfOutputFile.obj
 0002:0007a220       ??0?$_Vector_iterator@V?$_Vector_val@PAULineBuffer@?A0xf57f9ec6@Imf@@V?$allocator@PAULineBuffer@?A0xf57f9ec6@Imf@@@std@@@std@@@std@@QAE@PAPAULineBuffer@?A0xf57f9ec6@Imf@@PBU_Container_base12@1@@Z 100ea220 f i ImfOutputFile.obj
 0002:0007a280       ??Y?$_Vector_iterator@V?$_Vector_val@PAULineBuffer@?A0xf57f9ec6@Imf@@V?$allocator@PAULineBuffer@?A0xf57f9ec6@Imf@@@std@@@std@@@std@@QAEAAV01@H@Z 100ea280 f i ImfOutputFile.obj
 0002:0007a2e0       ??9?$_Vector_const_iterator@V?$_Vector_val@PAULineBuffer@?A0xf57f9ec6@Imf@@V?$allocator@PAULineBuffer@?A0xf57f9ec6@Imf@@@std@@@std@@@std@@QBE_NABV01@@Z 100ea2e0 f i ImfOutputFile.obj
 0002:0007a350       ??M?$_Vector_const_iterator@V?$_Vector_val@PAULineBuffer@?A0xf57f9ec6@Imf@@V?$allocator@PAULineBuffer@?A0xf57f9ec6@Imf@@@std@@@std@@@std@@QBE_NABV01@@Z 100ea350 f i ImfOutputFile.obj
 0002:0007a3c0       ?allocate@?$allocator@_K@std@@QAEPA_KI@Z 100ea3c0 f i ImfOutputFile.obj
 0002:0007a420       ?max_size@?$allocator@_K@std@@QBEIXZ 100ea420 f i ImfOutputFile.obj
 0002:0007a490       ?_Make_iter@?$vector@UOutSliceInfo@?A0xf57f9ec6@Imf@@V?$allocator@UOutSliceInfo@?A0xf57f9ec6@Imf@@@std@@@std@@QBE?AV?$_Vector_iterator@V?$_Vector_val@UOutSliceInfo@?A0xf57f9ec6@Imf@@V?$allocator@UOutSliceInfo@?A0xf57f9ec6@Imf@@@std@@@std@@@2@V?$_Vector_const_iterator@V?$_Vector_val@UOutSliceInfo@?A0xf57f9ec6@Imf@@V?$allocator@UOutSliceInfo@?A0xf57f9ec6@Imf@@@std@@@std@@@2@@Z 100ea490 f i ImfOutputFile.obj
 0002:0007a560       ?max_size@?$allocator@UOutSliceInfo@?A0xf57f9ec6@Imf@@@std@@QBEIXZ 100ea560 f i ImfOutputFile.obj
 0002:0007a5d0       ?allocate@?$allocator@PAULineBuffer@?A0xf57f9ec6@Imf@@@std@@QAEPAPAULineBuffer@?A0xf57f9ec6@Imf@@I@Z 100ea5d0 f i ImfOutputFile.obj
 0002:0007a630       ?max_size@?$allocator@PAULineBuffer@?A0xf57f9ec6@Imf@@@std@@QBEIXZ 100ea630 f i ImfOutputFile.obj
 0002:0007a6a0       ??0?$_Vector_const_iterator@V?$_Vector_val@_KV?$allocator@_K@std@@@std@@@std@@QAE@PA_KPBU_Container_base12@1@@Z 100ea6a0 f i ImfOutputFile.obj
 0002:0007a760       ??Y?$_Vector_const_iterator@V?$_Vector_val@_KV?$allocator@_K@std@@@std@@@std@@QAEAAV01@H@Z 100ea760 f i ImfOutputFile.obj
 0002:0007a8c0       ??8?$_Vector_const_iterator@V?$_Vector_val@_KV?$allocator@_K@std@@@std@@@std@@QBE_NABV01@@Z 100ea8c0 f i ImfOutputFile.obj
 0002:0007a930       ?_Compat@?$_Vector_const_iterator@V?$_Vector_val@_KV?$allocator@_K@std@@@std@@@std@@QBEXABV12@@Z 100ea930 f i ImfOutputFile.obj
 0002:0007aa50       ??0?$_Vector_const_iterator@V?$_Vector_val@PAULineBuffer@?A0xf57f9ec6@Imf@@V?$allocator@PAULineBuffer@?A0xf57f9ec6@Imf@@@std@@@std@@@std@@QAE@PAPAULineBuffer@?A0xf57f9ec6@Imf@@PBU_Container_base12@1@@Z 100eaa50 f i ImfOutputFile.obj
 0002:0007ab10       ??Y?$_Vector_const_iterator@V?$_Vector_val@PAULineBuffer@?A0xf57f9ec6@Imf@@V?$allocator@PAULineBuffer@?A0xf57f9ec6@Imf@@@std@@@std@@@std@@QAEAAV01@H@Z 100eab10 f i ImfOutputFile.obj
 0002:0007ac70       ??8?$_Vector_const_iterator@V?$_Vector_val@PAULineBuffer@?A0xf57f9ec6@Imf@@V?$allocator@PAULineBuffer@?A0xf57f9ec6@Imf@@@std@@@std@@@std@@QBE_NABV01@@Z 100eac70 f i ImfOutputFile.obj
 0002:0007ace0       ?_Compat@?$_Vector_const_iterator@V?$_Vector_val@PAULineBuffer@?A0xf57f9ec6@Imf@@V?$allocator@PAULineBuffer@?A0xf57f9ec6@Imf@@@std@@@std@@@std@@QBEXABV12@@Z 100eace0 f i ImfOutputFile.obj
 0002:0007ae00       ??0?$_Vector_iterator@V?$_Vector_val@UOutSliceInfo@?A0xf57f9ec6@Imf@@V?$allocator@UOutSliceInfo@?A0xf57f9ec6@Imf@@@std@@@std@@@std@@QAE@PAUOutSliceInfo@?A0xf57f9ec6@Imf@@PBU_Container_base12@1@@Z 100eae00 f i ImfOutputFile.obj
 0002:0007ae60       ??9?$_Vector_const_iterator@V?$_Vector_val@UOutSliceInfo@?A0xf57f9ec6@Imf@@V?$allocator@UOutSliceInfo@?A0xf57f9ec6@Imf@@@std@@@std@@@std@@QBE_NABV01@@Z 100eae60 f i ImfOutputFile.obj
 0002:0007aed0       ??M?$_Vector_const_iterator@V?$_Vector_val@UOutSliceInfo@?A0xf57f9ec6@Imf@@V?$allocator@UOutSliceInfo@?A0xf57f9ec6@Imf@@@std@@@std@@@std@@QBE_NABV01@@Z 100eaed0 f i ImfOutputFile.obj
 0002:0007af40       ??0?$_Iterator012@Urandom_access_iterator_tag@std@@_KHPB_KAB_KU_Iterator_base12@2@@std@@QAE@XZ 100eaf40 f i ImfOutputFile.obj
 0002:0007afa0       ??0?$_Iterator012@Urandom_access_iterator_tag@std@@PAULineBuffer@?A0xf57f9ec6@Imf@@HPBQAU345@ABQAU345@U_Iterator_base12@2@@std@@QAE@XZ 100eafa0 f i ImfOutputFile.obj
 0002:0007b000       ??0?$_Vector_const_iterator@V?$_Vector_val@UOutSliceInfo@?A0xf57f9ec6@Imf@@V?$allocator@UOutSliceInfo@?A0xf57f9ec6@Imf@@@std@@@std@@@std@@QAE@PAUOutSliceInfo@?A0xf57f9ec6@Imf@@PBU_Container_base12@1@@Z 100eb000 f i ImfOutputFile.obj
 0002:0007b0c0       ??8?$_Vector_const_iterator@V?$_Vector_val@UOutSliceInfo@?A0xf57f9ec6@Imf@@V?$allocator@UOutSliceInfo@?A0xf57f9ec6@Imf@@@std@@@std@@@std@@QBE_NABV01@@Z 100eb0c0 f i ImfOutputFile.obj
 0002:0007b130       ?_Compat@?$_Vector_const_iterator@V?$_Vector_val@UOutSliceInfo@?A0xf57f9ec6@Imf@@V?$allocator@UOutSliceInfo@?A0xf57f9ec6@Imf@@@std@@@std@@@std@@QBEXABV12@@Z 100eb130 f i ImfOutputFile.obj
 0002:0007b250       ??0?$_Iterator012@Urandom_access_iterator_tag@std@@UOutSliceInfo@?A0xf57f9ec6@Imf@@HPBU345@ABU345@U_Iterator_base12@2@@std@@QAE@XZ 100eb250 f i ImfOutputFile.obj
 0002:0007b2b0       ??$write@UStreamIO@Imf@@VOStream@2@@Xdr@Imf@@YAXAAVOStream@1@_K@Z 100eb2b0 f i ImfOutputFile.obj
 0002:0007b3f0       ??8?$Box@V?$Vec2@H@Imath@@@Imath@@QBE_NABV01@@Z 100eb3f0 f i ImfOutputFile.obj
 0002:0007b4a0       ??$_Uninitialized_default_fill_n@PA_KI_KV?$allocator@_K@std@@@std@@YAXPA_KIPB_KAAV?$allocator@_K@0@@Z 100eb4a0 f i ImfOutputFile.obj
 0002:0007b540       ??$addressof@UOutSliceInfo@?A0xf57f9ec6@Imf@@@std@@YAPAUOutSliceInfo@?A0xf57f9ec6@Imf@@AAU123@@Z 100eb540 f i ImfOutputFile.obj
 0002:0007b580       ??$forward@UOutSliceInfo@?A0xf57f9ec6@Imf@@@std@@YA$$QAUOutSliceInfo@?A0xf57f9ec6@Imf@@AAU123@@Z 100eb580 f i ImfOutputFile.obj
 0002:0007b5c0       ??$_Cons_val@V?$allocator@UOutSliceInfo@?A0xf57f9ec6@Imf@@@std@@UOutSliceInfo@?A0xf57f9ec6@Imf@@U345@@std@@YAXAAV?$allocator@UOutSliceInfo@?A0xf57f9ec6@Imf@@@0@PAUOutSliceInfo@?A0xf57f9ec6@Imf@@$$QAU234@@Z 100eb5c0 f i ImfOutputFile.obj
 0002:0007b620       ??$_Copy_impl@PAUOutSliceInfo@?A0xf57f9ec6@Imf@@PAU123@@std@@YAPAUOutSliceInfo@?A0xf57f9ec6@Imf@@PAU123@00@Z 100eb620 f i ImfOutputFile.obj
 0002:0007b6a0       ??$_Ucopy@PAUOutSliceInfo@?A0xf57f9ec6@Imf@@@?$vector@UOutSliceInfo@?A0xf57f9ec6@Imf@@V?$allocator@UOutSliceInfo@?A0xf57f9ec6@Imf@@@std@@@std@@IAEPAUOutSliceInfo@?A0xf57f9ec6@Imf@@PAU234@00@Z 100eb6a0 f i ImfOutputFile.obj
 0002:0007b710       ??$_Uninitialized_default_fill_n@PAPAULineBuffer@?A0xf57f9ec6@Imf@@IPAU123@V?$allocator@PAULineBuffer@?A0xf57f9ec6@Imf@@@std@@@std@@YAXPAPAULineBuffer@?A0xf57f9ec6@Imf@@IPBQAU123@AAV?$allocator@PAULineBuffer@?A0xf57f9ec6@Imf@@@0@@Z 100eb710 f i ImfOutputFile.obj
 0002:0007b7b0       ??$_Move@PA_KPA_K@std@@YAPA_KPA_K00@Z 100eb7b0 f i ImfOutputFile.obj
 0002:0007b830       ??$?0_K@?$allocator@U_Container_proxy@std@@@std@@QAE@ABV?$allocator@_K@1@@Z 100eb830 f i ImfOutputFile.obj
 0002:0007b870       ??$?0I@?$allocator@U_Container_proxy@std@@@std@@QAE@ABV?$allocator@I@1@@Z 100eb870 f i ImfOutputFile.obj
 0002:0007b8b0       ??$_Destroy_range@V?$allocator@UOutSliceInfo@?A0xf57f9ec6@Imf@@@std@@@std@@YAXPAUOutSliceInfo@?A0xf57f9ec6@Imf@@0AAV?$allocator@UOutSliceInfo@?A0xf57f9ec6@Imf@@@0@@Z 100eb8b0 f i ImfOutputFile.obj
 0002:0007b930       ??$?0UOutSliceInfo@?A0xf57f9ec6@Imf@@@?$allocator@U_Container_proxy@std@@@std@@QAE@ABV?$allocator@UOutSliceInfo@?A0xf57f9ec6@Imf@@@1@@Z 100eb930 f i ImfOutputFile.obj
 0002:0007b970       ??$_Move@PAPAULineBuffer@?A0xf57f9ec6@Imf@@PAPAU123@@std@@YAPAPAULineBuffer@?A0xf57f9ec6@Imf@@PAPAU123@00@Z 100eb970 f i ImfOutputFile.obj
 0002:0007b9f0       ??$?0PAULineBuffer@?A0xf57f9ec6@Imf@@@?$allocator@U_Container_proxy@std@@@std@@QAE@ABV?$allocator@PAULineBuffer@?A0xf57f9ec6@Imf@@@1@@Z 100eb9f0 f i ImfOutputFile.obj
 0002:0007ba30       ??$_Umove@PA_K@?$vector@_KV?$allocator@_K@std@@@std@@IAEPA_KPA_K00@Z 100eba30 f i ImfOutputFile.obj
 0002:0007baa0       ??$_Destroy_range@V?$allocator@_K@std@@@std@@YAXPA_K0AAV?$allocator@_K@0@@Z 100ebaa0 f i ImfOutputFile.obj
 0002:0007bb20       ??$_Umove@PAUOutSliceInfo@?A0xf57f9ec6@Imf@@@?$vector@UOutSliceInfo@?A0xf57f9ec6@Imf@@V?$allocator@UOutSliceInfo@?A0xf57f9ec6@Imf@@@std@@@std@@IAEPAUOutSliceInfo@?A0xf57f9ec6@Imf@@PAU234@00@Z 100ebb20 f i ImfOutputFile.obj
 0002:0007bb90       ??$_Move@PAUOutSliceInfo@?A0xf57f9ec6@Imf@@PAU123@@std@@YAPAUOutSliceInfo@?A0xf57f9ec6@Imf@@PAU123@00@Z 100ebb90 f i ImfOutputFile.obj
 0002:0007bc10       ??$_Allocate@UOutSliceInfo@?A0xf57f9ec6@Imf@@@std@@YAPAUOutSliceInfo@?A0xf57f9ec6@Imf@@IPAU123@@Z 100ebc10 f i ImfOutputFile.obj
 0002:0007bcc0       ??$_Umove@PAPAULineBuffer@?A0xf57f9ec6@Imf@@@?$vector@PAULineBuffer@?A0xf57f9ec6@Imf@@V?$allocator@PAULineBuffer@?A0xf57f9ec6@Imf@@@std@@@std@@IAEPAPAULineBuffer@?A0xf57f9ec6@Imf@@PAPAU234@00@Z 100ebcc0 f i ImfOutputFile.obj
 0002:0007bd30       ??$_Destroy_range@V?$allocator@PAULineBuffer@?A0xf57f9ec6@Imf@@@std@@@std@@YAXPAPAULineBuffer@?A0xf57f9ec6@Imf@@0AAV?$allocator@PAULineBuffer@?A0xf57f9ec6@Imf@@@0@@Z 100ebd30 f i ImfOutputFile.obj
 0002:0007bdb0       ??$_Allocate@_K@std@@YAPA_KIPA_K@Z 100ebdb0 f i ImfOutputFile.obj
 0002:0007be60       ??$_Allocate@PAULineBuffer@?A0xf57f9ec6@Imf@@@std@@YAPAPAULineBuffer@?A0xf57f9ec6@Imf@@IPAPAU123@@Z 100ebe60 f i ImfOutputFile.obj
 0002:0007bf10       ?construct@?$allocator@UOutSliceInfo@?A0xf57f9ec6@Imf@@@std@@QAEXPAUOutSliceInfo@?A0xf57f9ec6@Imf@@$$QAU345@@Z 100ebf10 f i ImfOutputFile.obj
 0002:0007c010       ??$?8H@?$Vec2@H@Imath@@QBE_NABV01@@Z 100ec010 f i ImfOutputFile.obj
 0002:0007c090       ??$_Val_type@PA_K@std@@YAPA_KPA_K@Z 100ec090 f i ImfOutputFile.obj
 0002:0007c0c0       ??$_Ptr_cat@_K_K@std@@YA?AU_Scalar_ptr_iterator_tag@0@PA_K0@Z 100ec0c0 f i ImfOutputFile.obj
 0002:0007c130       ??$_Uninit_def_fill_n@_KI_K_K@std@@YAXPA_KIPB_KAAV?$allocator@_K@0@0U_Scalar_ptr_iterator_tag@0@@Z 100ec130 f i ImfOutputFile.obj
 0002:0007c1a0       ??$_Ptr_cat@UOutSliceInfo@?A0xf57f9ec6@Imf@@U123@@std@@YA?AU_Nonscalar_ptr_iterator_tag@0@PAUOutSliceInfo@?A0xf57f9ec6@Imf@@0@Z 100ec1a0 f i ImfOutputFile.obj
 0002:0007c210       ??$_Copy_impl@PAUOutSliceInfo@?A0xf57f9ec6@Imf@@PAU123@@std@@YAPAUOutSliceInfo@?A0xf57f9ec6@Imf@@PAU123@00U_Nonscalar_ptr_iterator_tag@0@@Z 100ec210 f i ImfOutputFile.obj
 0002:0007c280       ??$_Uninitialized_copy@PAUOutSliceInfo@?A0xf57f9ec6@Imf@@PAU123@V?$allocator@UOutSliceInfo@?A0xf57f9ec6@Imf@@@std@@@std@@YAPAUOutSliceInfo@?A0xf57f9ec6@Imf@@PAU123@00AAV?$allocator@UOutSliceInfo@?A0xf57f9ec6@Imf@@@0@@Z 100ec280 f i ImfOutputFile.obj
 0002:0007c310       ??$_Val_type@PAPAULineBuffer@?A0xf57f9ec6@Imf@@@std@@YAPAPAULineBuffer@?A0xf57f9ec6@Imf@@PAPAU123@@Z 100ec310 f i ImfOutputFile.obj
 0002:0007c340       ??$_Ptr_cat@PAULineBuffer@?A0xf57f9ec6@Imf@@PAU123@@std@@YA?AU_Scalar_ptr_iterator_tag@0@PAPAULineBuffer@?A0xf57f9ec6@Imf@@0@Z 100ec340 f i ImfOutputFile.obj
 0002:0007c3b0       ??$_Uninit_def_fill_n@PAULineBuffer@?A0xf57f9ec6@Imf@@IPAU123@PAU123@@std@@YAXPAPAULineBuffer@?A0xf57f9ec6@Imf@@IPBQAU123@AAV?$allocator@PAULineBuffer@?A0xf57f9ec6@Imf@@@0@0U_Scalar_ptr_iterator_tag@0@@Z 100ec3b0 f i ImfOutputFile.obj
 0002:0007c420       ??$_Move@PA_KPA_K@std@@YAPA_KPA_K00U_Scalar_ptr_iterator_tag@0@@Z 100ec420 f i ImfOutputFile.obj
 0002:0007c4b0       ??$_Destroy_range@V?$allocator@UOutSliceInfo@?A0xf57f9ec6@Imf@@@std@@@std@@YAXPAUOutSliceInfo@?A0xf57f9ec6@Imf@@0AAV?$allocator@UOutSliceInfo@?A0xf57f9ec6@Imf@@@0@U_Nonscalar_ptr_iterator_tag@0@@Z 100ec4b0 f i ImfOutputFile.obj
 0002:0007c520       ??$_Move@PAPAULineBuffer@?A0xf57f9ec6@Imf@@PAPAU123@@std@@YAPAPAULineBuffer@?A0xf57f9ec6@Imf@@PAPAU123@00U_Scalar_ptr_iterator_tag@0@@Z 100ec520 f i ImfOutputFile.obj
 0002:0007c5b0       ??$_Uninitialized_move@PA_KPA_KV?$allocator@_K@std@@@std@@YAPA_KPA_K00AAV?$allocator@_K@0@@Z 100ec5b0 f i ImfOutputFile.obj
 0002:0007c650       ??$_Destroy_range@V?$allocator@_K@std@@@std@@YAXPA_K0AAV?$allocator@_K@0@U_Scalar_ptr_iterator_tag@0@@Z 100ec650 f i ImfOutputFile.obj
 0002:0007c680       ??$_Uninitialized_move@PAUOutSliceInfo@?A0xf57f9ec6@Imf@@PAU123@V?$allocator@UOutSliceInfo@?A0xf57f9ec6@Imf@@@std@@@std@@YAPAUOutSliceInfo@?A0xf57f9ec6@Imf@@PAU123@00AAV?$allocator@UOutSliceInfo@?A0xf57f9ec6@Imf@@@0@@Z 100ec680 f i ImfOutputFile.obj
 0002:0007c720       ??$_Move@PAUOutSliceInfo@?A0xf57f9ec6@Imf@@PAU123@@std@@YAPAUOutSliceInfo@?A0xf57f9ec6@Imf@@PAU123@00U_Nonscalar_ptr_iterator_tag@0@@Z 100ec720 f i ImfOutputFile.obj
 0002:0007c7b0       ??$_Uninitialized_move@PAPAULineBuffer@?A0xf57f9ec6@Imf@@PAPAU123@V?$allocator@PAULineBuffer@?A0xf57f9ec6@Imf@@@std@@@std@@YAPAPAULineBuffer@?A0xf57f9ec6@Imf@@PAPAU123@00AAV?$allocator@PAULineBuffer@?A0xf57f9ec6@Imf@@@0@@Z 100ec7b0 f i ImfOutputFile.obj
 0002:0007c850       ??$_Destroy_range@V?$allocator@PAULineBuffer@?A0xf57f9ec6@Imf@@@std@@@std@@YAXPAPAULineBuffer@?A0xf57f9ec6@Imf@@0AAV?$allocator@PAULineBuffer@?A0xf57f9ec6@Imf@@@0@U_Scalar_ptr_iterator_tag@0@@Z 100ec850 f i ImfOutputFile.obj
 0002:0007c880       ??$_Fill_n@PA_KI_K@std@@YAXPA_KIAB_K@Z 100ec880 f i ImfOutputFile.obj
 0002:0007c8f0       ??$_Uninit_copy@PAUOutSliceInfo@?A0xf57f9ec6@Imf@@PAU123@V?$allocator@UOutSliceInfo@?A0xf57f9ec6@Imf@@@std@@@std@@YAPAUOutSliceInfo@?A0xf57f9ec6@Imf@@PAU123@00AAV?$allocator@UOutSliceInfo@?A0xf57f9ec6@Imf@@@0@U_Nonscalar_ptr_iterator_tag@0@@Z 100ec8f0 f i ImfOutputFile.obj
 0002:0007ca50       ??$_Fill_n@PAPAULineBuffer@?A0xf57f9ec6@Imf@@IPAU123@@std@@YAXPAPAULineBuffer@?A0xf57f9ec6@Imf@@IABQAU123@@Z 100eca50 f i ImfOutputFile.obj
 0002:0007cab0       ??$_Dest_val@V?$allocator@UOutSliceInfo@?A0xf57f9ec6@Imf@@@std@@UOutSliceInfo@?A0xf57f9ec6@Imf@@@std@@YAXAAV?$allocator@UOutSliceInfo@?A0xf57f9ec6@Imf@@@0@PAUOutSliceInfo@?A0xf57f9ec6@Imf@@@Z 100ecab0 f i ImfOutputFile.obj
 0002:0007cb00       ??$_Uninit_move@_K_K_K@std@@YAPA_KPA_K00AAV?$allocator@_K@0@0U_Scalar_ptr_iterator_tag@0@@Z 100ecb00 f i ImfOutputFile.obj
 0002:0007cbc0       ??$_Val_type@PAUOutSliceInfo@?A0xf57f9ec6@Imf@@@std@@YAPAUOutSliceInfo@?A0xf57f9ec6@Imf@@PAU123@@Z 100ecbc0 f i ImfOutputFile.obj
 0002:0007cbf0       ??$_Uninit_move@PAUOutSliceInfo@?A0xf57f9ec6@Imf@@PAU123@V?$allocator@UOutSliceInfo@?A0xf57f9ec6@Imf@@@std@@U123@@std@@YAPAUOutSliceInfo@?A0xf57f9ec6@Imf@@PAU123@00AAV?$allocator@UOutSliceInfo@?A0xf57f9ec6@Imf@@@0@0U_Nonscalar_ptr_iterator_tag@0@@Z 100ecbf0 f i ImfOutputFile.obj
 0002:0007cd50       ??$move@AAUOutSliceInfo@?A0xf57f9ec6@Imf@@@std@@YA$$QAUOutSliceInfo@?A0xf57f9ec6@Imf@@AAU123@@Z 100ecd50 f i ImfOutputFile.obj
 0002:0007cd90       ??$_Uninit_move@PAULineBuffer@?A0xf57f9ec6@Imf@@PAU123@PAU123@@std@@YAPAPAULineBuffer@?A0xf57f9ec6@Imf@@PAPAU123@00AAV?$allocator@PAULineBuffer@?A0xf57f9ec6@Imf@@@0@0U_Scalar_ptr_iterator_tag@0@@Z 100ecd90 f i ImfOutputFile.obj
 0002:0007ce50       ?destroy@?$allocator@UOutSliceInfo@?A0xf57f9ec6@Imf@@@std@@QAEXPAUOutSliceInfo@?A0xf57f9ec6@Imf@@@Z 100ece50 f i ImfOutputFile.obj
 0002:0007ceb0       ??$_Debug_range@PAUOutSliceInfo@?A0xf57f9ec6@Imf@@@std@@YAXPAUOutSliceInfo@?A0xf57f9ec6@Imf@@0PB_WI@Z 100eceb0 f i ImfOutputFile.obj
 0002:0007cf30       ??$_Debug_pointer@UOutSliceInfo@?A0xf57f9ec6@Imf@@@std@@YAXPAUOutSliceInfo@?A0xf57f9ec6@Imf@@PB_WI@Z 100ecf30 f i ImfOutputFile.obj
 0002:0007cfa0       ??$_Cons_val@V?$allocator@UOutSliceInfo@?A0xf57f9ec6@Imf@@@std@@UOutSliceInfo@?A0xf57f9ec6@Imf@@AAU345@@std@@YAXAAV?$allocator@UOutSliceInfo@?A0xf57f9ec6@Imf@@@0@PAUOutSliceInfo@?A0xf57f9ec6@Imf@@AAU234@@Z 100ecfa0 f i ImfOutputFile.obj
 0002:0007d000       ??$_Debug_range@PA_K@std@@YAXPA_K0PB_WI@Z 100ed000 f i ImfOutputFile.obj
 0002:0007d080       ??$_Debug_pointer@_K@std@@YAXPA_KPB_WI@Z 100ed080 f i ImfOutputFile.obj
 0002:0007d0f0       ??$_Debug_range@PAPAULineBuffer@?A0xf57f9ec6@Imf@@@std@@YAXPAPAULineBuffer@?A0xf57f9ec6@Imf@@0PB_WI@Z 100ed0f0 f i ImfOutputFile.obj
 0002:0007d170       ??$_Debug_pointer@PAULineBuffer@?A0xf57f9ec6@Imf@@@std@@YAXPAPAULineBuffer@?A0xf57f9ec6@Imf@@PB_WI@Z 100ed170 f i ImfOutputFile.obj
 0002:0007d1e0       ??$_Destroy@UOutSliceInfo@?A0xf57f9ec6@Imf@@@std@@YAXPAUOutSliceInfo@?A0xf57f9ec6@Imf@@@Z 100ed1e0 f i ImfOutputFile.obj
 0002:0007d210       ??$_Iter_cat@PAUOutSliceInfo@?A0xf57f9ec6@Imf@@@std@@YA?AUrandom_access_iterator_tag@0@ABQAUOutSliceInfo@?A0xf57f9ec6@Imf@@@Z 100ed210 f i ImfOutputFile.obj
 0002:0007d290       ??$_Debug_range2@PAUOutSliceInfo@?A0xf57f9ec6@Imf@@@std@@YAXPAUOutSliceInfo@?A0xf57f9ec6@Imf@@0PB_WIUrandom_access_iterator_tag@0@@Z 100ed290 f i ImfOutputFile.obj
 0002:0007d340       ??$forward@AAUOutSliceInfo@?A0xf57f9ec6@Imf@@@std@@YAAAUOutSliceInfo@?A0xf57f9ec6@Imf@@AAU123@@Z 100ed340 f i ImfOutputFile.obj
 0002:0007d380       ??$construct@AAUOutSliceInfo@?A0xf57f9ec6@Imf@@@?$allocator@UOutSliceInfo@?A0xf57f9ec6@Imf@@@std@@QAEXPAUOutSliceInfo@?A0xf57f9ec6@Imf@@AAU234@@Z 100ed380 f i ImfOutputFile.obj
 0002:0007d480       ??$_Iter_cat@PA_K@std@@YA?AUrandom_access_iterator_tag@0@ABQA_K@Z 100ed480 f i ImfOutputFile.obj
 0002:0007d500       ??$_Debug_range2@PA_K@std@@YAXPA_K0PB_WIUrandom_access_iterator_tag@0@@Z 100ed500 f i ImfOutputFile.obj
 0002:0007d5b0       ??$_Iter_cat@PAPAULineBuffer@?A0xf57f9ec6@Imf@@@std@@YA?AUrandom_access_iterator_tag@0@ABQAPAULineBuffer@?A0xf57f9ec6@Imf@@@Z 100ed5b0 f i ImfOutputFile.obj
 0002:0007d630       ??$_Debug_range2@PAPAULineBuffer@?A0xf57f9ec6@Imf@@@std@@YAXPAPAULineBuffer@?A0xf57f9ec6@Imf@@0PB_WIUrandom_access_iterator_tag@0@@Z 100ed630 f i ImfOutputFile.obj
 0002:0007d6e0       ?bitmapFromData@?A0xce4d6f11@Imf@@YAXQBGHQAEAAG2@Z 100ed6e0 f   ImfPizCompressor.obj
 0002:0007d840       ?forwardLutFromBitmap@?A0xce4d6f11@Imf@@YAGQBEQAG@Z 100ed840 f   ImfPizCompressor.obj
 0002:0007d900       ?reverseLutFromBitmap@?A0xce4d6f11@Imf@@YAGQBEQAG@Z 100ed900 f   ImfPizCompressor.obj
 0002:0007d9e0       ?applyLut@?A0xce4d6f11@Imf@@YAXQBGQAGH@Z 100ed9e0 f   ImfPizCompressor.obj
 0002:0007da60       ??0PizCompressor@Imf@@QAE@ABVHeader@1@II@Z 100eda60 f   ImfPizCompressor.obj
 0002:0007de40       ??_GPizCompressor@Imf@@UAEPAXI@Z 100ede40 f i ImfPizCompressor.obj
 0002:0007de40       ??_EPizCompressor@Imf@@UAEPAXI@Z 100ede40 f i ImfPizCompressor.obj
 0002:0007deb0       ??1PizCompressor@Imf@@UAE@XZ 100edeb0 f   ImfPizCompressor.obj
 0002:0007df70       ?numScanLines@PizCompressor@Imf@@UBEHXZ 100edf70 f   ImfPizCompressor.obj
 0002:0007dfb0       ?format@PizCompressor@Imf@@UBE?AW4Format@Compressor@2@XZ 100edfb0 f   ImfPizCompressor.obj
 0002:0007dff0       ?compress@PizCompressor@Imf@@UAEHPBDHHAAPBD@Z 100edff0 f   ImfPizCompressor.obj
 0002:0007e0c0       ?compressTile@PizCompressor@Imf@@UAEHPBDHV?$Box@V?$Vec2@H@Imath@@@Imath@@AAPBD@Z 100ee0c0 f   ImfPizCompressor.obj
 0002:0007e140       ?uncompress@PizCompressor@Imf@@UAEHPBDHHAAPBD@Z 100ee140 f   ImfPizCompressor.obj
 0002:0007e210       ?uncompressTile@PizCompressor@Imf@@UAEHPBDHV?$Box@V?$Vec2@H@Imath@@@Imath@@AAPBD@Z 100ee210 f   ImfPizCompressor.obj
 0002:0007e290       ?compress@PizCompressor@Imf@@AAEHPBDHV?$Box@V?$Vec2@H@Imath@@@Imath@@AAPBD@Z 100ee290 f   ImfPizCompressor.obj
 0002:0007ebc0       ?uncompress@PizCompressor@Imf@@AAEHPBDHV?$Box@V?$Vec2@H@Imath@@@Imath@@AAPBD@Z 100eebc0 f   ImfPizCompressor.obj
 0002:0007f4f0       ??0?$AutoArray@E$0CAAA@@Imf@@QAE@XZ 100ef4f0 f i ImfPizCompressor.obj
 0002:0007f580       ??1?$AutoArray@E$0CAAA@@Imf@@QAE@XZ 100ef580 f i ImfPizCompressor.obj
 0002:0007f5f0       ??B?$AutoArray@E$0CAAA@@Imf@@QAEPAEXZ 100ef5f0 f i ImfPizCompressor.obj
 0002:0007f630       ??0?$AutoArray@G$0BAAAA@@Imf@@QAE@XZ 100ef630 f i ImfPizCompressor.obj
 0002:0007f6c0       ??1?$AutoArray@G$0BAAAA@@Imf@@QAE@XZ 100ef6c0 f i ImfPizCompressor.obj
 0002:0007f730       ??B?$AutoArray@G$0BAAAA@@Imf@@QAEPAGXZ 100ef730 f i ImfPizCompressor.obj
 0002:0007f770       ??$write@UCharPtrIO@Imf@@PAD@Xdr@Imf@@YAXAAPADQBDH@Z 100ef770 f i ImfPizCompressor.obj
 0002:0007f7d0       ??$write@UCharPtrIO@Imf@@PAD@Xdr@Imf@@YAXAAPADH@Z 100ef7d0 f i ImfPizCompressor.obj
 0002:0007f890       ??$read@UCharPtrIO@Imf@@PBD@Xdr@Imf@@YAXAAPBDQADH@Z 100ef890 f i ImfPizCompressor.obj
 0002:0007f8f0       ??$read@UCharPtrIO@Imf@@PBD@Xdr@Imf@@YAXAAPBDAAH@Z 100ef8f0 f i ImfPizCompressor.obj
 0002:0007f9c0       ??$writeSignedChars@UCharPtrIO@Imf@@PAD@Xdr@Imf@@YAXAAPADQBCH@Z 100ef9c0 f i ImfPizCompressor.obj
 0002:0007fa20       ??$readSignedChars@UCharPtrIO@Imf@@PBD@Xdr@Imf@@YAXAAPBDQACH@Z 100efa20 f i ImfPizCompressor.obj
 0002:0007fa80       ??0PreviewImage@Imf@@QAE@IIQBUPreviewRgba@1@@Z 100efa80 f   ImfPreviewImage.obj
 0002:0007fca0       ??0PreviewRgba@Imf@@QAE@EEEE@Z 100efca0 f i ImfPreviewImage.obj
 0002:0007fd10       ??_FPreviewRgba@Imf@@QAEXXZ 100efd10 f i ImfPreviewImage.obj
 0002:0007fd70       ??0PreviewImage@Imf@@QAE@ABV01@@Z 100efd70 f   ImfPreviewImage.obj
 0002:0007ff20       ??1PreviewImage@Imf@@QAE@XZ 100eff20 f   ImfPreviewImage.obj
 0002:0007ff90       ??4PreviewImage@Imf@@QAEAAV01@ABV01@@Z 100eff90 f   ImfPreviewImage.obj
 0002:00080160       ?staticTypeName@?$TypedAttribute@VPreviewImage@Imf@@@Imf@@SAPBDXZ 100f0160 f   ImfPreviewImageAttribute.obj
 0002:000801a0       ?writeValueTo@?$TypedAttribute@VPreviewImage@Imf@@@Imf@@UBEXAAVOStream@2@H@Z 100f01a0 f   ImfPreviewImageAttribute.obj
 0002:00080300       ?pixels@PreviewImage@Imf@@QBEPBUPreviewRgba@2@XZ 100f0300 f i ImfPreviewImageAttribute.obj
 0002:00080340       ?readValueFrom@?$TypedAttribute@VPreviewImage@Imf@@@Imf@@UAEXAAVIStream@2@HH@Z 100f0340 f   ImfPreviewImageAttribute.obj
 0002:00080550       ??$write@UStreamIO@Imf@@VOStream@2@@Xdr@Imf@@YAXAAVOStream@1@I@Z 100f0550 f i ImfPreviewImageAttribute.obj
 0002:00080610       ?notEnoughData@?A0x2158812f@Imf@@YAXXZ 100f0610 f   ImfPxr24Compressor.obj
 0002:00080690       ?tooMuchData@?A0x2158812f@Imf@@YAXXZ 100f0690 f   ImfPxr24Compressor.obj
 0002:00080710       ??0Pxr24Compressor@Imf@@QAE@ABVHeader@1@II@Z 100f0710 f   ImfPxr24Compressor.obj
 0002:00080940       ??_EPxr24Compressor@Imf@@UAEPAXI@Z 100f0940 f i ImfPxr24Compressor.obj
 0002:00080940       ??_GPxr24Compressor@Imf@@UAEPAXI@Z 100f0940 f i ImfPxr24Compressor.obj
 0002:000809b0       ??1Pxr24Compressor@Imf@@UAE@XZ 100f09b0 f   ImfPxr24Compressor.obj
 0002:00080a50       ?numScanLines@Pxr24Compressor@Imf@@UBEHXZ 100f0a50 f   ImfPxr24Compressor.obj
 0002:00080a90       ?format@Pxr24Compressor@Imf@@UBE?AW4Format@Compressor@2@XZ 100f0a90 f   ImfPxr24Compressor.obj
 0002:00080ad0       ?compress@Pxr24Compressor@Imf@@UAEHPBDHHAAPBD@Z 100f0ad0 f   ImfPxr24Compressor.obj
 0002:00080b90       ?compressTile@Pxr24Compressor@Imf@@UAEHPBDHV?$Box@V?$Vec2@H@Imath@@@Imath@@AAPBD@Z 100f0b90 f   ImfPxr24Compressor.obj
 0002:00080c10       ?uncompress@Pxr24Compressor@Imf@@UAEHPBDHHAAPBD@Z 100f0c10 f   ImfPxr24Compressor.obj
 0002:00080cd0       ?uncompressTile@Pxr24Compressor@Imf@@UAEHPBDHV?$Box@V?$Vec2@H@Imath@@@Imath@@AAPBD@Z 100f0cd0 f   ImfPxr24Compressor.obj
 0002:00080d50       ?compress@Pxr24Compressor@Imf@@AAEHPBDHV?$Box@V?$Vec2@H@Imath@@@Imath@@AAPBD@Z 100f0d50 f   ImfPxr24Compressor.obj
 0002:00081690       ?floatToFloat24@?A0x2158812f@Imf@@YAIM@Z 100f1690 f i ImfPxr24Compressor.obj
 0002:000817c0       ?uncompress@Pxr24Compressor@Imf@@AAEHPBDHV?$Box@V?$Vec2@H@Imath@@@Imath@@AAPBD@Z 100f17c0 f   ImfPxr24Compressor.obj
 0002:00082080       ?frac@?A0x06844fa0@Imf@@YANNN@Z 100f2080 f   ImfRational.obj
 0002:000820f0       ?square@?A0x06844fa0@Imf@@YANN@Z 100f20f0 f   ImfRational.obj
 0002:00082130       ?denom@?A0x06844fa0@Imf@@YANNN@Z 100f2130 f   ImfRational.obj
 0002:00082370       ??0Rational@Imf@@QAE@N@Z   100f2370 f   ImfRational.obj
 0002:00082580       ?staticTypeName@?$TypedAttribute@VRational@Imf@@@Imf@@SAPBDXZ 100f2580 f   ImfRationalAttribute.obj
 0002:000825c0       ?writeValueTo@?$TypedAttribute@VRational@Imf@@@Imf@@UBEXAAVOStream@2@H@Z 100f25c0 f   ImfRationalAttribute.obj
 0002:00082640       ?readValueFrom@?$TypedAttribute@VRational@Imf@@@Imf@@UAEXAAVIStream@2@HH@Z 100f2640 f   ImfRationalAttribute.obj
 0002:000826c0       ??$read@UStreamIO@Imf@@VIStream@2@@Xdr@Imf@@YAXAAVIStream@1@AAI@Z 100f26c0 f i ImfRationalAttribute.obj
 0002:00082790       ?insertChannels@?A0x5c932b76@Imf@@YAXAAVHeader@2@W4RgbaChannels@2@@Z 100f2790 f   ImfRgbaFile.obj
 0002:000829e0       ?rgbaChannels@?A0x5c932b76@Imf@@YA?AW4RgbaChannels@2@ABVChannelList@2@ABV?$basic_string@DU?$char_traits@D@std@@V?$allocator@D@2@@std@@@Z 100f29e0 f   ImfRgbaFile.obj
 0002:00082e80       ?prefixFromLayerName@?A0x5c932b76@Imf@@YA?AV?$basic_string@DU?$char_traits@D@std@@V?$allocator@D@2@@std@@ABV34@ABVHeader@2@@Z 100f2e80 f   ImfRgbaFile.obj
 0002:00082fb0       ?ywFromHeader@?A0x5c932b76@Imf@@YA?AV?$Vec3@M@Imath@@ABVHeader@2@@Z 100f2fb0 f   ImfRgbaFile.obj
 0002:00083140       ?cachePadding@?A0x5c932b76@Imf@@YAHH@Z 100f3140 f   ImfRgbaFile.obj
 0002:00083240       ??0ToYca@RgbaOutputFile@Imf@@QAE@AAVOutputFile@2@W4RgbaChannels@2@@Z 100f3240 f   ImfRgbaFile.obj
 0002:00083670       ??0Rgba@Imf@@QAE@XZ        100f3670 f i ImfRgbaFile.obj
 0002:00083720       ??_GToYca@RgbaOutputFile@Imf@@UAEPAXI@Z 100f3720 f i ImfRgbaFile.obj
 0002:00083720       ??_EToYca@RgbaOutputFile@Imf@@UAEPAXI@Z 100f3720 f i ImfRgbaFile.obj
 0002:00083790       ??1ToYca@RgbaOutputFile@Imf@@UAE@XZ 100f3790 f   ImfRgbaFile.obj
 0002:00083840       ?setYCRounding@ToYca@RgbaOutputFile@Imf@@QAEXII@Z 100f3840 f   ImfRgbaFile.obj
 0002:000838a0       ?setFrameBuffer@ToYca@RgbaOutputFile@Imf@@QAEXPBURgba@3@II@Z 100f38a0 f   ImfRgbaFile.obj
 0002:00083b80       ?writePixels@ToYca@RgbaOutputFile@Imf@@QAEXH@Z 100f3b80 f   ImfRgbaFile.obj
 0002:000841b0       ??4Rgba@Imf@@QAEAAU01@ABU01@@Z 100f41b0 f i ImfRgbaFile.obj
 0002:00084290       ?currentScanLine@ToYca@RgbaOutputFile@Imf@@QBEHXZ 100f4290 f   ImfRgbaFile.obj
 0002:000842d0       ?padTmpBuf@ToYca@RgbaOutputFile@Imf@@AAEXXZ 100f42d0 f   ImfRgbaFile.obj
 0002:000843a0       ?rotateBuffers@ToYca@RgbaOutputFile@Imf@@AAEXXZ 100f43a0 f   ImfRgbaFile.obj
 0002:00084430       ?duplicateLastBuffer@ToYca@RgbaOutputFile@Imf@@AAEXXZ 100f4430 f   ImfRgbaFile.obj
 0002:000844b0       ?duplicateSecondToLastBuffer@ToYca@RgbaOutputFile@Imf@@AAEXXZ 100f44b0 f   ImfRgbaFile.obj
 0002:00084530       ?decimateChromaVertAndWriteScanLine@ToYca@RgbaOutputFile@Imf@@AAEXXZ 100f4530 f   ImfRgbaFile.obj
 0002:00084650       ??0RgbaOutputFile@Imf@@QAE@QBDABVHeader@1@W4RgbaChannels@1@H@Z 100f4650 f   ImfRgbaFile.obj
 0002:00084870       ??_GRgbaOutputFile@Imf@@UAEPAXI@Z 100f4870 f i ImfRgbaFile.obj
 0002:00084870       ??_ERgbaOutputFile@Imf@@UAEPAXI@Z 100f4870 f i ImfRgbaFile.obj
 0002:000848e0       ??0RgbaOutputFile@Imf@@QAE@AAVOStream@1@ABVHeader@1@W4RgbaChannels@1@H@Z 100f48e0 f   ImfRgbaFile.obj
 0002:00084b00       ??0RgbaOutputFile@Imf@@QAE@QBDABV?$Box@V?$Vec2@H@Imath@@@Imath@@1W4RgbaChannels@1@MV?$Vec2@M@3@MW4LineOrder@1@W4Compression@1@H@Z 100f4b00 f   ImfRgbaFile.obj
 0002:00084d90       ??0RgbaOutputFile@Imf@@QAE@QBDHHW4RgbaChannels@1@MV?$Vec2@M@Imath@@MW4LineOrder@1@W4Compression@1@H@Z 100f4d90 f   ImfRgbaFile.obj
 0002:00084fe0       ??1RgbaOutputFile@Imf@@UAE@XZ 100f4fe0 f   ImfRgbaFile.obj
 0002:00085100       ?setFrameBuffer@RgbaOutputFile@Imf@@QAEXPBURgba@2@II@Z 100f5100 f   ImfRgbaFile.obj
 0002:000853c0       ?writePixels@RgbaOutputFile@Imf@@QAEXH@Z 100f53c0 f   ImfRgbaFile.obj
 0002:000854e0       ?currentScanLine@RgbaOutputFile@Imf@@QBEHXZ 100f54e0 f   ImfRgbaFile.obj
 0002:00085600       ?header@RgbaOutputFile@Imf@@QBEABVHeader@2@XZ 100f5600 f   ImfRgbaFile.obj
 0002:00085660       ?frameBuffer@RgbaOutputFile@Imf@@QBEABVFrameBuffer@2@XZ 100f5660 f   ImfRgbaFile.obj
 0002:000856c0       ?displayWindow@RgbaOutputFile@Imf@@QBEABV?$Box@V?$Vec2@H@Imath@@@Imath@@XZ 100f56c0 f   ImfRgbaFile.obj
 0002:00085720       ?dataWindow@RgbaOutputFile@Imf@@QBEABV?$Box@V?$Vec2@H@Imath@@@Imath@@XZ 100f5720 f   ImfRgbaFile.obj
 0002:00085780       ?pixelAspectRatio@RgbaOutputFile@Imf@@QBEMXZ 100f5780 f   ImfRgbaFile.obj
 0002:000857e0       ?screenWindowCenter@RgbaOutputFile@Imf@@QBE?BV?$Vec2@M@Imath@@XZ 100f57e0 f   ImfRgbaFile.obj
 0002:00085850       ?screenWindowWidth@RgbaOutputFile@Imf@@QBEMXZ 100f5850 f   ImfRgbaFile.obj
 0002:000858b0       ?lineOrder@RgbaOutputFile@Imf@@QBE?AW4LineOrder@2@XZ 100f58b0 f   ImfRgbaFile.obj
 0002:00085910       ?compression@RgbaOutputFile@Imf@@QBE?AW4Compression@2@XZ 100f5910 f   ImfRgbaFile.obj
 0002:00085970       ?channels@RgbaOutputFile@Imf@@QBE?AW4RgbaChannels@2@XZ 100f5970 f   ImfRgbaFile.obj
 0002:00085aa0       ?updatePreviewImage@RgbaOutputFile@Imf@@QAEXQBUPreviewRgba@2@@Z 100f5aa0 f   ImfRgbaFile.obj
 0002:00085b00       ?setYCRounding@RgbaOutputFile@Imf@@QAEXII@Z 100f5b00 f   ImfRgbaFile.obj
 0002:00085c10       ?breakScanLine@RgbaOutputFile@Imf@@QAEXHHHD@Z 100f5c10 f   ImfRgbaFile.obj
 0002:00085c80       ??0FromYca@RgbaInputFile@Imf@@QAE@AAVInputFile@2@W4RgbaChannels@2@@Z 100f5c80 f   ImfRgbaFile.obj
 0002:000860b0       ??_EFromYca@RgbaInputFile@Imf@@UAEPAXI@Z 100f60b0 f i ImfRgbaFile.obj
 0002:000860b0       ??_GFromYca@RgbaInputFile@Imf@@UAEPAXI@Z 100f60b0 f i ImfRgbaFile.obj
 0002:00086120       ??1FromYca@RgbaInputFile@Imf@@UAE@XZ 100f6120 f   ImfRgbaFile.obj
 0002:000861d0       ?setFrameBuffer@FromYca@RgbaInputFile@Imf@@QAEXPAURgba@3@IIABV?$basic_string@DU?$char_traits@D@std@@V?$allocator@D@2@@std@@@Z 100f61d0 f   ImfRgbaFile.obj
 0002:000865f0       ?readPixels@FromYca@RgbaInputFile@Imf@@QAEXHH@Z 100f65f0 f   ImfRgbaFile.obj
 0002:000866e0       ?readPixels@FromYca@RgbaInputFile@Imf@@AAEXH@Z 100f66e0 f   ImfRgbaFile.obj
 0002:00086e00       ?rotateBuf1@FromYca@RgbaInputFile@Imf@@AAEXH@Z 100f6e00 f   ImfRgbaFile.obj
 0002:00086f40       ?rotateBuf2@FromYca@RgbaInputFile@Imf@@AAEXH@Z 100f6f40 f   ImfRgbaFile.obj
 0002:00087060       ?readYCAScanLine@FromYca@RgbaInputFile@Imf@@AAEXHQAURgba@3@@Z 100f7060 f   ImfRgbaFile.obj
 0002:00087200       ?padTmpBuf@FromYca@RgbaInputFile@Imf@@AAEXXZ 100f7200 f   ImfRgbaFile.obj
 0002:000872d0       ??0RgbaInputFile@Imf@@QAE@QBDH@Z 100f72d0 f   ImfRgbaFile.obj
 0002:000874a0       ??_GRgbaInputFile@Imf@@UAEPAXI@Z 100f74a0 f i ImfRgbaFile.obj
 0002:000874a0       ??_ERgbaInputFile@Imf@@UAEPAXI@Z 100f74a0 f i ImfRgbaFile.obj
 0002:00087510       ??0RgbaInputFile@Imf@@QAE@AAVIStream@1@H@Z 100f7510 f   ImfRgbaFile.obj
 0002:000876e0       ??0RgbaInputFile@Imf@@QAE@QBDABV?$basic_string@DU?$char_traits@D@std@@V?$allocator@D@2@@std@@H@Z 100f76e0 f   ImfRgbaFile.obj
 0002:000878d0       ??0RgbaInputFile@Imf@@QAE@AAVIStream@1@ABV?$basic_string@DU?$char_traits@D@std@@V?$allocator@D@2@@std@@H@Z 100f78d0 f   ImfRgbaFile.obj
 0002:00087ac0       ??1RgbaInputFile@Imf@@UAE@XZ 100f7ac0 f   ImfRgbaFile.obj
 0002:00087c30       ?setFrameBuffer@RgbaInputFile@Imf@@QAEXPAURgba@2@II@Z 100f7c30 f   ImfRgbaFile.obj
 0002:00088050       ?setLayerName@RgbaInputFile@Imf@@QAEXABV?$basic_string@DU?$char_traits@D@std@@V?$allocator@D@2@@std@@@Z 100f8050 f   ImfRgbaFile.obj
 0002:000882d0       ?readPixels@RgbaInputFile@Imf@@QAEXHH@Z 100f82d0 f   ImfRgbaFile.obj
 0002:000883f0       ?readPixels@RgbaInputFile@Imf@@QAEXH@Z 100f83f0 f   ImfRgbaFile.obj
 0002:00088450       ?isComplete@RgbaInputFile@Imf@@QBE_NXZ 100f8450 f   ImfRgbaFile.obj
 0002:000884b0       ?header@RgbaInputFile@Imf@@QBEABVHeader@2@XZ 100f84b0 f   ImfRgbaFile.obj
 0002:00088510       ?fileName@RgbaInputFile@Imf@@QBEPBDXZ 100f8510 f   ImfRgbaFile.obj
 0002:00088570       ?frameBuffer@RgbaInputFile@Imf@@QBEABVFrameBuffer@2@XZ 100f8570 f   ImfRgbaFile.obj
 0002:000885d0       ?displayWindow@RgbaInputFile@Imf@@QBEABV?$Box@V?$Vec2@H@Imath@@@Imath@@XZ 100f85d0 f   ImfRgbaFile.obj
 0002:00088630       ?dataWindow@RgbaInputFile@Imf@@QBEABV?$Box@V?$Vec2@H@Imath@@@Imath@@XZ 100f8630 f   ImfRgbaFile.obj
 0002:00088690       ?pixelAspectRatio@RgbaInputFile@Imf@@QBEMXZ 100f8690 f   ImfRgbaFile.obj
 0002:000886f0       ?screenWindowCenter@RgbaInputFile@Imf@@QBE?BV?$Vec2@M@Imath@@XZ 100f86f0 f   ImfRgbaFile.obj
 0002:00088760       ?screenWindowWidth@RgbaInputFile@Imf@@QBEMXZ 100f8760 f   ImfRgbaFile.obj
 0002:000887c0       ?lineOrder@RgbaInputFile@Imf@@QBE?AW4LineOrder@2@XZ 100f87c0 f   ImfRgbaFile.obj
 0002:00088820       ?compression@RgbaInputFile@Imf@@QBE?AW4Compression@2@XZ 100f8820 f   ImfRgbaFile.obj
 0002:00088880       ?channels@RgbaInputFile@Imf@@QBE?AW4RgbaChannels@2@XZ 100f8880 f   ImfRgbaFile.obj
 0002:000888f0       ?version@RgbaInputFile@Imf@@QBEHXZ 100f88f0 f   ImfRgbaFile.obj
 0002:00088950       ?empty@?$basic_string@DU?$char_traits@D@std@@V?$allocator@D@2@@std@@QBE_NXZ 100f8950 f i ImfRgbaFile.obj
 0002:000889a0       ?isEmpty@?$Box@V?$Vec2@H@Imath@@@Imath@@QBE_NXZ 100f89a0 f i ImfRgbaFile.obj
 0002:00088a40       ??A?$Vec2@H@Imath@@QBEABHH@Z 100f8a40 f i ImfRgbaFile.obj
 0002:00088a90       ?computeYw@RgbaYca@Imf@@YA?AV?$Vec3@M@Imath@@ABUChromaticities@2@@Z 100f8a90 f   ImfRgbaYca.obj
 0002:00088c30       ?RGBAtoYCA@RgbaYca@Imf@@YAXABV?$Vec3@M@Imath@@H_NQBURgba@2@QAU52@@Z 100f8c30 f   ImfRgbaYca.obj
 0002:000891e0       ?decimateChromaHoriz@RgbaYca@Imf@@YAXHQBURgba@2@QAU32@@Z 100f91e0 f   ImfRgbaYca.obj
 0002:00089970       ?decimateChromaVert@RgbaYca@Imf@@YAXHQBQBURgba@2@QAU32@@Z 100f9970 f   ImfRgbaYca.obj
 0002:0008a140       ?roundYCA@RgbaYca@Imf@@YAXHIIQBURgba@2@QAU32@@Z 100fa140 f   ImfRgbaYca.obj
 0002:0008a2e0       ?reconstructChromaHoriz@RgbaYca@Imf@@YAXHQBURgba@2@QAU32@@Z 100fa2e0 f   ImfRgbaYca.obj
 0002:0008aa70       ?reconstructChromaVert@RgbaYca@Imf@@YAXHQBQBURgba@2@QAU32@@Z 100faa70 f   ImfRgbaYca.obj
 0002:0008b1c0       ?YCAtoRGBA@RgbaYca@Imf@@YAXABV?$Vec3@M@Imath@@HQBURgba@2@QAU52@@Z 100fb1c0 f   ImfRgbaYca.obj
 0002:0008b4b0       ?desaturate@?A0x950c9801@RgbaYca@Imf@@YAXABURgba@3@MABV?$Vec3@M@Imath@@AAU43@@Z 100fb4b0 f   ImfRgbaYca.obj
 0002:0008b8c0       ?fixSaturation@RgbaYca@Imf@@YAXABV?$Vec3@M@Imath@@HQBQBURgba@2@QAU52@@Z 100fb8c0 f   ImfRgbaYca.obj
 0002:0008bbd0       ?saturation@?A0x950c9801@RgbaYca@Imf@@YAMABURgba@3@@Z 100fbbd0 f i ImfRgbaYca.obj
 0002:0008bce0       ??K?$Vec3@M@Imath@@QBE?AV01@M@Z 100fbce0 f i ImfRgbaYca.obj
 0002:0008bdb0       ??$max@Vhalf@@@std@@YAABVhalf@@ABV1@0@Z 100fbdb0 f i ImfRgbaYca.obj
 0002:0008be50       ??$min@Vhalf@@@std@@YAABVhalf@@ABV1@0@Z 100fbe50 f i ImfRgbaYca.obj
 0002:0008bef0       ??$max@M@std@@YAABMABM0@Z  100fbef0 f i ImfRgbaYca.obj
 0002:0008bf90       ??$min@M@std@@YAABMABM0@Z  100fbf90 f i ImfRgbaYca.obj
 0002:0008c030       ??$_Debug_lt@Vhalf@@V1@@std@@YA_NABVhalf@@0PB_WI@Z 100fc030 f i ImfRgbaYca.obj
 0002:0008c130       ??$_Debug_lt@MM@std@@YA_NABM0PB_WI@Z 100fc130 f i ImfRgbaYca.obj
 0002:0008c1e0       ?rleCompress@?A0x57fab1ba@Imf@@YAHHQBDQAC@Z 100fc1e0 f   ImfRleCompressor.obj
 0002:0008c3a0       ?rleUncompress@?A0x57fab1ba@Imf@@YAHHHQBCQAD@Z 100fc3a0 f   ImfRleCompressor.obj
 0002:0008c540       ??0RleCompressor@Imf@@QAE@ABVHeader@1@I@Z 100fc540 f   ImfRleCompressor.obj
 0002:0008c670       ??_ERleCompressor@Imf@@UAEPAXI@Z 100fc670 f i ImfRleCompressor.obj
 0002:0008c670       ??_GRleCompressor@Imf@@UAEPAXI@Z 100fc670 f i ImfRleCompressor.obj
 0002:0008c6e0       ??1RleCompressor@Imf@@UAE@XZ 100fc6e0 f   ImfRleCompressor.obj
 0002:0008c780       ?numScanLines@RleCompressor@Imf@@UBEHXZ 100fc780 f   ImfRleCompressor.obj
 0002:0008c7c0       ?compress@RleCompressor@Imf@@UAEHPBDHHAAPBD@Z 100fc7c0 f   ImfRleCompressor.obj
 0002:0008c970       ?uncompress@RleCompressor@Imf@@UAEHPBDHHAAPBD@Z 100fc970 f   ImfRleCompressor.obj
 0002:0008cb60       ??0InSliceInfo@?A0xcbf8ace6@Imf@@QAE@W4PixelType@2@0PADIIHH_N2N@Z 100fcb60 f   ImfScanLineInputFile.obj
 0002:0008cc10       ??0LineBuffer@?A0xcbf8ace6@Imf@@QAE@QAVCompressor@2@@Z 100fcc10 f   ImfScanLineInputFile.obj
 0002:0008cd20       ??1LineBuffer@?A0xcbf8ace6@Imf@@QAE@XZ 100fcd20 f   ImfScanLineInputFile.obj
 0002:0008ce30       ??0Data@ScanLineInputFile@Imf@@QAE@PAVIStream@2@H@Z 100fce30 f   ImfScanLineInputFile.obj
 0002:0008d020       ??_GData@ScanLineInputFile@Imf@@UAEPAXI@Z 100fd020 f i ImfScanLineInputFile.obj
 0002:0008d020       ??_EData@ScanLineInputFile@Imf@@UAEPAXI@Z 100fd020 f i ImfScanLineInputFile.obj
 0002:0008d090       ??1Data@ScanLineInputFile@Imf@@UAE@XZ 100fd090 f   ImfScanLineInputFile.obj
 0002:0008d250       ??_GLineBuffer@?A0xcbf8ace6@Imf@@QAEPAXI@Z 100fd250 f i ImfScanLineInputFile.obj
 0002:0008d2c0       ?reconstructLineOffsets@?A0xcbf8ace6@Imf@@YAXAAVIStream@2@W4LineOrder@2@AAV?$vector@_KV?$allocator@_K@std@@@std@@@Z 100fd2c0 f   ImfScanLineInputFile.obj
 0002:0008d550       ?readLineOffsets@?A0xcbf8ace6@Imf@@YAXAAVIStream@2@W4LineOrder@2@AAV?$vector@_KV?$allocator@_K@std@@@std@@AA_N@Z 100fd550 f   ImfScanLineInputFile.obj
 0002:0008d660       ?readPixelData@?A0xcbf8ace6@Imf@@YAXPAUData@ScanLineInputFile@2@HAAPADAAH@Z 100fd660 f   ImfScanLineInputFile.obj
 0002:0008da30       ??0LineBufferTask@?A0xcbf8ace6@Imf@@QAE@PAVTaskGroup@IlmThread@@PAUData@ScanLineInputFile@2@PAULineBuffer@12@HH@Z 100fda30 f   ImfScanLineInputFile.obj
 0002:0008dad0       ??_GLineBufferTask@?A0xcbf8ace6@Imf@@UAEPAXI@Z 100fdad0 f i ImfScanLineInputFile.obj
 0002:0008dad0       ??_ELineBufferTask@?A0xcbf8ace6@Imf@@UAEPAXI@Z 100fdad0 f i ImfScanLineInputFile.obj
 0002:0008db40       ??1LineBufferTask@?A0xcbf8ace6@Imf@@UAE@XZ 100fdb40 f   ImfScanLineInputFile.obj
 0002:0008dbf0       ?post@LineBuffer@?A0xcbf8ace6@Imf@@QAEXXZ 100fdbf0 f i ImfScanLineInputFile.obj
 0002:0008dc50       ?execute@LineBufferTask@?A0xcbf8ace6@Imf@@UAEXXZ 100fdc50 f   ImfScanLineInputFile.obj
 0002:0008e300       ?newLineBufferTask@?A0xcbf8ace6@Imf@@YAPAVLineBufferTask@12@PAVTaskGroup@IlmThread@@PAUData@ScanLineInputFile@2@HHH@Z 100fe300 f   ImfScanLineInputFile.obj
 0002:0008e5f0       ?wait@LineBuffer@?A0xcbf8ace6@Imf@@QAEXXZ 100fe5f0 f i ImfScanLineInputFile.obj
 0002:0008e650       ?getLineBuffer@Data@ScanLineInputFile@Imf@@QAEPAULineBuffer@?A0xcbf8ace6@3@H@Z 100fe650 f i ImfScanLineInputFile.obj
 0002:0008e6d0       ??0ScanLineInputFile@Imf@@QAE@ABVHeader@1@PAVIStream@1@H@Z 100fe6d0 f   ImfScanLineInputFile.obj
 0002:0008ed00       ??_GScanLineInputFile@Imf@@UAEPAXI@Z 100fed00 f i ImfScanLineInputFile.obj
 0002:0008ed00       ??_EScanLineInputFile@Imf@@UAEPAXI@Z 100fed00 f i ImfScanLineInputFile.obj
 0002:0008ed70       ??1ScanLineInputFile@Imf@@UAE@XZ 100fed70 f   ImfScanLineInputFile.obj
 0002:0008eed0       ?fileName@ScanLineInputFile@Imf@@QBEPBDXZ 100feed0 f   ImfScanLineInputFile.obj
 0002:0008ef30       ?header@ScanLineInputFile@Imf@@QBEABVHeader@2@XZ 100fef30 f   ImfScanLineInputFile.obj
 0002:0008ef70       ?version@ScanLineInputFile@Imf@@QBEHXZ 100fef70 f   ImfScanLineInputFile.obj
 0002:0008efb0       ?setFrameBuffer@ScanLineInputFile@Imf@@QAEXABVFrameBuffer@2@@Z 100fefb0 f   ImfScanLineInputFile.obj
 0002:0008f990       ?frameBuffer@ScanLineInputFile@Imf@@QBEABVFrameBuffer@2@XZ 100ff990 f   ImfScanLineInputFile.obj
 0002:0008fa50       ?isComplete@ScanLineInputFile@Imf@@QBE_NXZ 100ffa50 f   ImfScanLineInputFile.obj
 0002:0008fa90       ?readPixels@ScanLineInputFile@Imf@@QAEXHH@Z 100ffa90 f   ImfScanLineInputFile.obj
 0002:00090040       ?readPixels@ScanLineInputFile@Imf@@QAEXH@Z 10100040 f   ImfScanLineInputFile.obj
 0002:000900a0       ?rawPixelData@ScanLineInputFile@Imf@@QAEXHAAPBDAAH@Z 101000a0 f   ImfScanLineInputFile.obj
 0002:000903f0       ??0?$vector@UInSliceInfo@?A0xcbf8ace6@Imf@@V?$allocator@UInSliceInfo@?A0xcbf8ace6@Imf@@@std@@@std@@QAE@XZ 101003f0 f i ImfScanLineInputFile.obj
 0002:00090460       ?push_back@?$vector@UInSliceInfo@?A0xcbf8ace6@Imf@@V?$allocator@UInSliceInfo@?A0xcbf8ace6@Imf@@@std@@@std@@QAEX$$QAUInSliceInfo@?A0xcbf8ace6@Imf@@@Z 10100460 f i ImfScanLineInputFile.obj
 0002:00090600       ??1?$vector@UInSliceInfo@?A0xcbf8ace6@Imf@@V?$allocator@UInSliceInfo@?A0xcbf8ace6@Imf@@@std@@@std@@QAE@XZ 10100600 f i ImfScanLineInputFile.obj
 0002:000906a0       ??4?$vector@UInSliceInfo@?A0xcbf8ace6@Imf@@V?$allocator@UInSliceInfo@?A0xcbf8ace6@Imf@@@std@@@std@@QAEAAV01@ABV01@@Z 101006a0 f i ImfScanLineInputFile.obj
 0002:000908e0       ?size@?$vector@UInSliceInfo@?A0xcbf8ace6@Imf@@V?$allocator@UInSliceInfo@?A0xcbf8ace6@Imf@@@std@@@std@@QBEIXZ 101008e0 f i ImfScanLineInputFile.obj
 0002:00090930       ??A?$vector@UInSliceInfo@?A0xcbf8ace6@Imf@@V?$allocator@UInSliceInfo@?A0xcbf8ace6@Imf@@@std@@@std@@QAEAAUInSliceInfo@?A0xcbf8ace6@Imf@@I@Z 10100930 f i ImfScanLineInputFile.obj
 0002:00090a40       ??0?$vector@PAULineBuffer@?A0xcbf8ace6@Imf@@V?$allocator@PAULineBuffer@?A0xcbf8ace6@Imf@@@std@@@std@@QAE@XZ 10100a40 f i ImfScanLineInputFile.obj
 0002:00090ab0       ??1?$vector@PAULineBuffer@?A0xcbf8ace6@Imf@@V?$allocator@PAULineBuffer@?A0xcbf8ace6@Imf@@@std@@@std@@QAE@XZ 10100ab0 f i ImfScanLineInputFile.obj
 0002:00090b50       ?resize@?$vector@PAULineBuffer@?A0xcbf8ace6@Imf@@V?$allocator@PAULineBuffer@?A0xcbf8ace6@Imf@@@std@@@std@@QAEXI@Z 10100b50 f i ImfScanLineInputFile.obj
 0002:00090dc0       ?size@?$vector@PAULineBuffer@?A0xcbf8ace6@Imf@@V?$allocator@PAULineBuffer@?A0xcbf8ace6@Imf@@@std@@@std@@QBEIXZ 10100dc0 f i ImfScanLineInputFile.obj
 0002:00090e10       ??A?$vector@PAULineBuffer@?A0xcbf8ace6@Imf@@V?$allocator@PAULineBuffer@?A0xcbf8ace6@Imf@@@std@@@std@@QAEAAPAULineBuffer@?A0xcbf8ace6@Imf@@I@Z 10100e10 f i ImfScanLineInputFile.obj
 0002:00090f20       ??1?$_Vector_iterator@V?$_Vector_val@PAULineBuffer@?A0xcbf8ace6@Imf@@V?$allocator@PAULineBuffer@?A0xcbf8ace6@Imf@@@std@@@std@@@std@@QAE@XZ 10100f20 f i ImfScanLineInputFile.obj
 0002:00090f70       ??0?$_Vector_const_iterator@V?$_Vector_val@PAULineBuffer@?A0xcbf8ace6@Imf@@V?$allocator@PAULineBuffer@?A0xcbf8ace6@Imf@@@std@@@std@@@std@@QAE@ABV01@@Z 10100f70 f i ImfScanLineInputFile.obj
 0002:00090fe0       ??1?$_Vector_const_iterator@V?$_Vector_val@PAULineBuffer@?A0xcbf8ace6@Imf@@V?$allocator@PAULineBuffer@?A0xcbf8ace6@Imf@@@std@@@std@@@std@@QAE@XZ 10100fe0 f i ImfScanLineInputFile.obj
 0002:00091030       ??0?$_Iterator012@Urandom_access_iterator_tag@std@@PAULineBuffer@?A0xcbf8ace6@Imf@@HPBQAU345@ABQAU345@U_Iterator_base12@2@@std@@QAE@ABU01@@Z 10101030 f i ImfScanLineInputFile.obj
 0002:00091090       ??1?$_Iterator012@Urandom_access_iterator_tag@std@@PAULineBuffer@?A0xcbf8ace6@Imf@@HPBQAU345@ABQAU345@U_Iterator_base12@2@@std@@QAE@XZ 10101090 f i ImfScanLineInputFile.obj
 0002:000910e0       ?capacity@?$vector@UInSliceInfo@?A0xcbf8ace6@Imf@@V?$allocator@UInSliceInfo@?A0xcbf8ace6@Imf@@@std@@@std@@QBEIXZ 101010e0 f i ImfScanLineInputFile.obj
 0002:00091130       ?clear@?$vector@UInSliceInfo@?A0xcbf8ace6@Imf@@V?$allocator@UInSliceInfo@?A0xcbf8ace6@Imf@@@std@@@std@@QAEXXZ 10101130 f i ImfScanLineInputFile.obj
 0002:000912c0       ?_Buy@?$vector@UInSliceInfo@?A0xcbf8ace6@Imf@@V?$allocator@UInSliceInfo@?A0xcbf8ace6@Imf@@@std@@@std@@IAE_NI@Z 101012c0 f i ImfScanLineInputFile.obj
 0002:000913a0       ?_Destroy@?$vector@UInSliceInfo@?A0xcbf8ace6@Imf@@V?$allocator@UInSliceInfo@?A0xcbf8ace6@Imf@@@std@@@std@@IAEXPAUInSliceInfo@?A0xcbf8ace6@Imf@@0@Z 101013a0 f i ImfScanLineInputFile.obj
 0002:00091410       ?_Inside@?$vector@UInSliceInfo@?A0xcbf8ace6@Imf@@V?$allocator@UInSliceInfo@?A0xcbf8ace6@Imf@@@std@@@std@@IBE_NPBUInSliceInfo@?A0xcbf8ace6@Imf@@@Z 10101410 f i ImfScanLineInputFile.obj
 0002:00091490       ?_Reserve@?$vector@UInSliceInfo@?A0xcbf8ace6@Imf@@V?$allocator@UInSliceInfo@?A0xcbf8ace6@Imf@@@std@@@std@@IAEXI@Z 10101490 f i ImfScanLineInputFile.obj
 0002:00091540       ?_Tidy@?$vector@UInSliceInfo@?A0xcbf8ace6@Imf@@V?$allocator@UInSliceInfo@?A0xcbf8ace6@Imf@@@std@@@std@@IAEXXZ 10101540 f i ImfScanLineInputFile.obj
 0002:00091620       ?_Orphan_range@?$vector@UInSliceInfo@?A0xcbf8ace6@Imf@@V?$allocator@UInSliceInfo@?A0xcbf8ace6@Imf@@@std@@@std@@IBEXPAUInSliceInfo@?A0xcbf8ace6@Imf@@0@Z 10101620 f i ImfScanLineInputFile.obj
 0002:000917a0       ??0?$_Vector_val@UInSliceInfo@?A0xcbf8ace6@Imf@@V?$allocator@UInSliceInfo@?A0xcbf8ace6@Imf@@@std@@@std@@QAE@V?$allocator@UInSliceInfo@?A0xcbf8ace6@Imf@@@1@@Z 101017a0 f i ImfScanLineInputFile.obj
 0002:00091920       ??1?$_Vector_val@UInSliceInfo@?A0xcbf8ace6@Imf@@V?$allocator@UInSliceInfo@?A0xcbf8ace6@Imf@@@std@@@std@@QAE@XZ 10101920 f i ImfScanLineInputFile.obj
 0002:00091a60       ??0?$allocator@UInSliceInfo@?A0xcbf8ace6@Imf@@@std@@QAE@XZ 10101a60 f i ImfScanLineInputFile.obj
 0002:00091aa0       ?deallocate@?$allocator@UInSliceInfo@?A0xcbf8ace6@Imf@@@std@@QAEXPAUInSliceInfo@?A0xcbf8ace6@Imf@@I@Z 10101aa0 f i ImfScanLineInputFile.obj
 0002:00091b00       ?begin@?$vector@PAULineBuffer@?A0xcbf8ace6@Imf@@V?$allocator@PAULineBuffer@?A0xcbf8ace6@Imf@@@std@@@std@@QAE?AV?$_Vector_iterator@V?$_Vector_val@PAULineBuffer@?A0xcbf8ace6@Imf@@V?$allocator@PAULineBuffer@?A0xcbf8ace6@Imf@@@std@@@std@@@2@XZ 10101b00 f i ImfScanLineInputFile.obj
 0002:00091b90       ?end@?$vector@PAULineBuffer@?A0xcbf8ace6@Imf@@V?$allocator@PAULineBuffer@?A0xcbf8ace6@Imf@@@std@@@std@@QAE?AV?$_Vector_iterator@V?$_Vector_val@PAULineBuffer@?A0xcbf8ace6@Imf@@V?$allocator@PAULineBuffer@?A0xcbf8ace6@Imf@@@std@@@std@@@2@XZ 10101b90 f i ImfScanLineInputFile.obj
 0002:00091c20       ?erase@?$vector@PAULineBuffer@?A0xcbf8ace6@Imf@@V?$allocator@PAULineBuffer@?A0xcbf8ace6@Imf@@@std@@@std@@QAE?AV?$_Vector_iterator@V?$_Vector_val@PAULineBuffer@?A0xcbf8ace6@Imf@@V?$allocator@PAULineBuffer@?A0xcbf8ace6@Imf@@@std@@@std@@@2@V?$_Vector_const_iterator@V?$_Vector_val@PAULineBuffer@?A0xcbf8ace6@Imf@@V?$allocator@PAULineBuffer@?A0xcbf8ace6@Imf@@@std@@@std@@@2@0@Z 10101c20 f i ImfScanLineInputFile.obj
 0002:00091ef0       ?_Reserve@?$vector@PAULineBuffer@?A0xcbf8ace6@Imf@@V?$allocator@PAULineBuffer@?A0xcbf8ace6@Imf@@@std@@@std@@IAEXI@Z 10101ef0 f i ImfScanLineInputFile.obj
 0002:00091fa0       ?_Tidy@?$vector@PAULineBuffer@?A0xcbf8ace6@Imf@@V?$allocator@PAULineBuffer@?A0xcbf8ace6@Imf@@@std@@@std@@IAEXXZ 10101fa0 f i ImfScanLineInputFile.obj
 0002:00092080       ??0?$_Vector_val@PAULineBuffer@?A0xcbf8ace6@Imf@@V?$allocator@PAULineBuffer@?A0xcbf8ace6@Imf@@@std@@@std@@QAE@V?$allocator@PAULineBuffer@?A0xcbf8ace6@Imf@@@1@@Z 10102080 f i ImfScanLineInputFile.obj
 0002:00092200       ??1?$_Vector_val@PAULineBuffer@?A0xcbf8ace6@Imf@@V?$allocator@PAULineBuffer@?A0xcbf8ace6@Imf@@@std@@@std@@QAE@XZ 10102200 f i ImfScanLineInputFile.obj
 0002:00092340       ??0?$allocator@PAULineBuffer@?A0xcbf8ace6@Imf@@@std@@QAE@XZ 10102340 f i ImfScanLineInputFile.obj
 0002:00092380       ??H?$_Vector_iterator@V?$_Vector_val@PAULineBuffer@?A0xcbf8ace6@Imf@@V?$allocator@PAULineBuffer@?A0xcbf8ace6@Imf@@@std@@@std@@@std@@QBE?AV01@H@Z 10102380 f i ImfScanLineInputFile.obj
 0002:000924a0       ??1?$_Vector_iterator@V?$_Vector_val@UInSliceInfo@?A0xcbf8ace6@Imf@@V?$allocator@UInSliceInfo@?A0xcbf8ace6@Imf@@@std@@@std@@@std@@QAE@XZ 101024a0 f i ImfScanLineInputFile.obj
 0002:000924f0       ??0?$_Vector_const_iterator@V?$_Vector_val@UInSliceInfo@?A0xcbf8ace6@Imf@@V?$allocator@UInSliceInfo@?A0xcbf8ace6@Imf@@@std@@@std@@@std@@QAE@ABV01@@Z 101024f0 f i ImfScanLineInputFile.obj
 0002:00092560       ??1?$_Vector_const_iterator@V?$_Vector_val@UInSliceInfo@?A0xcbf8ace6@Imf@@V?$allocator@UInSliceInfo@?A0xcbf8ace6@Imf@@@std@@@std@@@std@@QAE@XZ 10102560 f i ImfScanLineInputFile.obj
 0002:000925b0       ??0?$_Vector_iterator@V?$_Vector_val@PAULineBuffer@?A0xcbf8ace6@Imf@@V?$allocator@PAULineBuffer@?A0xcbf8ace6@Imf@@@std@@@std@@@std@@QAE@ABV01@@Z 101025b0 f i ImfScanLineInputFile.obj
 0002:00092610       ??0?$_Iterator012@Urandom_access_iterator_tag@std@@UInSliceInfo@?A0xcbf8ace6@Imf@@HPBU345@ABU345@U_Iterator_base12@2@@std@@QAE@ABU01@@Z 10102610 f i ImfScanLineInputFile.obj
 0002:00092670       ??1?$_Iterator012@Urandom_access_iterator_tag@std@@UInSliceInfo@?A0xcbf8ace6@Imf@@HPBU345@ABU345@U_Iterator_base12@2@@std@@QAE@XZ 10102670 f i ImfScanLineInputFile.obj
 0002:000926c0       ?reserve@?$vector@UInSliceInfo@?A0xcbf8ace6@Imf@@V?$allocator@UInSliceInfo@?A0xcbf8ace6@Imf@@@std@@@std@@QAEXI@Z 101026c0 f i ImfScanLineInputFile.obj
 0002:000928b0       ?begin@?$vector@UInSliceInfo@?A0xcbf8ace6@Imf@@V?$allocator@UInSliceInfo@?A0xcbf8ace6@Imf@@@std@@@std@@QAE?AV?$_Vector_iterator@V?$_Vector_val@UInSliceInfo@?A0xcbf8ace6@Imf@@V?$allocator@UInSliceInfo@?A0xcbf8ace6@Imf@@@std@@@std@@@2@XZ 101028b0 f i ImfScanLineInputFile.obj
 0002:00092940       ?end@?$vector@UInSliceInfo@?A0xcbf8ace6@Imf@@V?$allocator@UInSliceInfo@?A0xcbf8ace6@Imf@@@std@@@std@@QAE?AV?$_Vector_iterator@V?$_Vector_val@UInSliceInfo@?A0xcbf8ace6@Imf@@V?$allocator@UInSliceInfo@?A0xcbf8ace6@Imf@@@std@@@std@@@2@XZ 10102940 f i ImfScanLineInputFile.obj
 0002:000929d0       ?max_size@?$vector@UInSliceInfo@?A0xcbf8ace6@Imf@@V?$allocator@UInSliceInfo@?A0xcbf8ace6@Imf@@@std@@@std@@QBEIXZ 101029d0 f i ImfScanLineInputFile.obj
 0002:00092a30       ?erase@?$vector@UInSliceInfo@?A0xcbf8ace6@Imf@@V?$allocator@UInSliceInfo@?A0xcbf8ace6@Imf@@@std@@@std@@QAE?AV?$_Vector_iterator@V?$_Vector_val@UInSliceInfo@?A0xcbf8ace6@Imf@@V?$allocator@UInSliceInfo@?A0xcbf8ace6@Imf@@@std@@@std@@@2@V?$_Vector_const_iterator@V?$_Vector_val@UInSliceInfo@?A0xcbf8ace6@Imf@@V?$allocator@UInSliceInfo@?A0xcbf8ace6@Imf@@@std@@@std@@@2@0@Z 10102a30 f i ImfScanLineInputFile.obj
 0002:00092d00       ?_Grow_to@?$vector@UInSliceInfo@?A0xcbf8ace6@Imf@@V?$allocator@UInSliceInfo@?A0xcbf8ace6@Imf@@@std@@@std@@IBEII@Z 10102d00 f i ImfScanLineInputFile.obj
 0002:00092db0       ?_Xlen@?$vector@UInSliceInfo@?A0xcbf8ace6@Imf@@V?$allocator@UInSliceInfo@?A0xcbf8ace6@Imf@@@std@@@std@@IBEXXZ 10102db0 f i ImfScanLineInputFile.obj
 0002:00092e10       ??0?$allocator@UInSliceInfo@?A0xcbf8ace6@Imf@@@std@@QAE@ABV01@@Z 10102e10 f i ImfScanLineInputFile.obj
 0002:00092e50       ?allocate@?$allocator@UInSliceInfo@?A0xcbf8ace6@Imf@@@std@@QAEPAUInSliceInfo@?A0xcbf8ace6@Imf@@I@Z 10102e50 f i ImfScanLineInputFile.obj
 0002:00092eb0       ?reserve@?$vector@PAULineBuffer@?A0xcbf8ace6@Imf@@V?$allocator@PAULineBuffer@?A0xcbf8ace6@Imf@@@std@@@std@@QAEXI@Z 10102eb0 f i ImfScanLineInputFile.obj
 0002:00093090       ?capacity@?$vector@PAULineBuffer@?A0xcbf8ace6@Imf@@V?$allocator@PAULineBuffer@?A0xcbf8ace6@Imf@@@std@@@std@@QBEIXZ 10103090 f i ImfScanLineInputFile.obj
 0002:000930e0       ?_Make_iter@?$vector@PAULineBuffer@?A0xcbf8ace6@Imf@@V?$allocator@PAULineBuffer@?A0xcbf8ace6@Imf@@@std@@@std@@QBE?AV?$_Vector_iterator@V?$_Vector_val@PAULineBuffer@?A0xcbf8ace6@Imf@@V?$allocator@PAULineBuffer@?A0xcbf8ace6@Imf@@@std@@@std@@@2@V?$_Vector_const_iterator@V?$_Vector_val@PAULineBuffer@?A0xcbf8ace6@Imf@@V?$allocator@PAULineBuffer@?A0xcbf8ace6@Imf@@@std@@@std@@@2@@Z 101030e0 f i ImfScanLineInputFile.obj
 0002:000931b0       ?max_size@?$vector@PAULineBuffer@?A0xcbf8ace6@Imf@@V?$allocator@PAULineBuffer@?A0xcbf8ace6@Imf@@@std@@@std@@QBEIXZ 101031b0 f i ImfScanLineInputFile.obj
 0002:00093210       ?_Destroy@?$vector@PAULineBuffer@?A0xcbf8ace6@Imf@@V?$allocator@PAULineBuffer@?A0xcbf8ace6@Imf@@@std@@@std@@IAEXPAPAULineBuffer@?A0xcbf8ace6@Imf@@0@Z 10103210 f i ImfScanLineInputFile.obj
 0002:00093280       ?_Grow_to@?$vector@PAULineBuffer@?A0xcbf8ace6@Imf@@V?$allocator@PAULineBuffer@?A0xcbf8ace6@Imf@@@std@@@std@@IBEII@Z 10103280 f i ImfScanLineInputFile.obj
 0002:00093330       ?_Xlen@?$vector@PAULineBuffer@?A0xcbf8ace6@Imf@@V?$allocator@PAULineBuffer@?A0xcbf8ace6@Imf@@@std@@@std@@IBEXXZ 10103330 f i ImfScanLineInputFile.obj
 0002:00093390       ?_Orphan_range@?$vector@PAULineBuffer@?A0xcbf8ace6@Imf@@V?$allocator@PAULineBuffer@?A0xcbf8ace6@Imf@@@std@@@std@@IBEXPAPAULineBuffer@?A0xcbf8ace6@Imf@@0@Z 10103390 f i ImfScanLineInputFile.obj
 0002:00093510       ??0?$allocator@PAULineBuffer@?A0xcbf8ace6@Imf@@@std@@QAE@ABV01@@Z 10103510 f i ImfScanLineInputFile.obj
 0002:00093550       ?deallocate@?$allocator@PAULineBuffer@?A0xcbf8ace6@Imf@@@std@@QAEXPAPAULineBuffer@?A0xcbf8ace6@Imf@@I@Z 10103550 f i ImfScanLineInputFile.obj
 0002:000935b0       ??0?$_Vector_iterator@V?$_Vector_val@PAULineBuffer@?A0xcbf8ace6@Imf@@V?$allocator@PAULineBuffer@?A0xcbf8ace6@Imf@@@std@@@std@@@std@@QAE@PAPAULineBuffer@?A0xcbf8ace6@Imf@@PBU_Container_base12@1@@Z 101035b0 f i ImfScanLineInputFile.obj
 0002:00093610       ??Y?$_Vector_iterator@V?$_Vector_val@PAULineBuffer@?A0xcbf8ace6@Imf@@V?$allocator@PAULineBuffer@?A0xcbf8ace6@Imf@@@std@@@std@@@std@@QAEAAV01@H@Z 10103610 f i ImfScanLineInputFile.obj
 0002:00093670       ??9?$_Vector_const_iterator@V?$_Vector_val@PAULineBuffer@?A0xcbf8ace6@Imf@@V?$allocator@PAULineBuffer@?A0xcbf8ace6@Imf@@@std@@@std@@@std@@QBE_NABV01@@Z 10103670 f i ImfScanLineInputFile.obj
 0002:000936e0       ??M?$_Vector_const_iterator@V?$_Vector_val@PAULineBuffer@?A0xcbf8ace6@Imf@@V?$allocator@PAULineBuffer@?A0xcbf8ace6@Imf@@@std@@@std@@@std@@QBE_NABV01@@Z 101036e0 f i ImfScanLineInputFile.obj
 0002:00093750       ?_Make_iter@?$vector@UInSliceInfo@?A0xcbf8ace6@Imf@@V?$allocator@UInSliceInfo@?A0xcbf8ace6@Imf@@@std@@@std@@QBE?AV?$_Vector_iterator@V?$_Vector_val@UInSliceInfo@?A0xcbf8ace6@Imf@@V?$allocator@UInSliceInfo@?A0xcbf8ace6@Imf@@@std@@@std@@@2@V?$_Vector_const_iterator@V?$_Vector_val@UInSliceInfo@?A0xcbf8ace6@Imf@@V?$allocator@UInSliceInfo@?A0xcbf8ace6@Imf@@@std@@@std@@@2@@Z 10103750 f i ImfScanLineInputFile.obj
 0002:00093820       ?max_size@?$allocator@UInSliceInfo@?A0xcbf8ace6@Imf@@@std@@QBEIXZ 10103820 f i ImfScanLineInputFile.obj
 0002:00093890       ?allocate@?$allocator@PAULineBuffer@?A0xcbf8ace6@Imf@@@std@@QAEPAPAULineBuffer@?A0xcbf8ace6@Imf@@I@Z 10103890 f i ImfScanLineInputFile.obj
 0002:000938f0       ?max_size@?$allocator@PAULineBuffer@?A0xcbf8ace6@Imf@@@std@@QBEIXZ 101038f0 f i ImfScanLineInputFile.obj
 0002:00093960       ??0?$_Vector_const_iterator@V?$_Vector_val@PAULineBuffer@?A0xcbf8ace6@Imf@@V?$allocator@PAULineBuffer@?A0xcbf8ace6@Imf@@@std@@@std@@@std@@QAE@PAPAULineBuffer@?A0xcbf8ace6@Imf@@PBU_Container_base12@1@@Z 10103960 f i ImfScanLineInputFile.obj
 0002:00093a20       ??Y?$_Vector_const_iterator@V?$_Vector_val@PAULineBuffer@?A0xcbf8ace6@Imf@@V?$allocator@PAULineBuffer@?A0xcbf8ace6@Imf@@@std@@@std@@@std@@QAEAAV01@H@Z 10103a20 f i ImfScanLineInputFile.obj
 0002:00093b80       ??8?$_Vector_const_iterator@V?$_Vector_val@PAULineBuffer@?A0xcbf8ace6@Imf@@V?$allocator@PAULineBuffer@?A0xcbf8ace6@Imf@@@std@@@std@@@std@@QBE_NABV01@@Z 10103b80 f i ImfScanLineInputFile.obj
 0002:00093bf0       ?_Compat@?$_Vector_const_iterator@V?$_Vector_val@PAULineBuffer@?A0xcbf8ace6@Imf@@V?$allocator@PAULineBuffer@?A0xcbf8ace6@Imf@@@std@@@std@@@std@@QBEXABV12@@Z 10103bf0 f i ImfScanLineInputFile.obj
 0002:00093d10       ??0?$_Vector_iterator@V?$_Vector_val@UInSliceInfo@?A0xcbf8ace6@Imf@@V?$allocator@UInSliceInfo@?A0xcbf8ace6@Imf@@@std@@@std@@@std@@QAE@PAUInSliceInfo@?A0xcbf8ace6@Imf@@PBU_Container_base12@1@@Z 10103d10 f i ImfScanLineInputFile.obj
 0002:00093d70       ??9?$_Vector_const_iterator@V?$_Vector_val@UInSliceInfo@?A0xcbf8ace6@Imf@@V?$allocator@UInSliceInfo@?A0xcbf8ace6@Imf@@@std@@@std@@@std@@QBE_NABV01@@Z 10103d70 f i ImfScanLineInputFile.obj
 0002:00093de0       ??M?$_Vector_const_iterator@V?$_Vector_val@UInSliceInfo@?A0xcbf8ace6@Imf@@V?$allocator@UInSliceInfo@?A0xcbf8ace6@Imf@@@std@@@std@@@std@@QBE_NABV01@@Z 10103de0 f i ImfScanLineInputFile.obj
 0002:00093e50       ??0?$_Iterator012@Urandom_access_iterator_tag@std@@PAULineBuffer@?A0xcbf8ace6@Imf@@HPBQAU345@ABQAU345@U_Iterator_base12@2@@std@@QAE@XZ 10103e50 f i ImfScanLineInputFile.obj
 0002:00093eb0       ??0?$_Vector_const_iterator@V?$_Vector_val@UInSliceInfo@?A0xcbf8ace6@Imf@@V?$allocator@UInSliceInfo@?A0xcbf8ace6@Imf@@@std@@@std@@@std@@QAE@PAUInSliceInfo@?A0xcbf8ace6@Imf@@PBU_Container_base12@1@@Z 10103eb0 f i ImfScanLineInputFile.obj
 0002:00093f70       ??8?$_Vector_const_iterator@V?$_Vector_val@UInSliceInfo@?A0xcbf8ace6@Imf@@V?$allocator@UInSliceInfo@?A0xcbf8ace6@Imf@@@std@@@std@@@std@@QBE_NABV01@@Z 10103f70 f i ImfScanLineInputFile.obj
 0002:00093fe0       ?_Compat@?$_Vector_const_iterator@V?$_Vector_val@UInSliceInfo@?A0xcbf8ace6@Imf@@V?$allocator@UInSliceInfo@?A0xcbf8ace6@Imf@@@std@@@std@@@std@@QBEXABV12@@Z 10103fe0 f i ImfScanLineInputFile.obj
 0002:00094100       ??0?$_Iterator012@Urandom_access_iterator_tag@std@@UInSliceInfo@?A0xcbf8ace6@Imf@@HPBU345@ABU345@U_Iterator_base12@2@@std@@QAE@XZ 10104100 f i ImfScanLineInputFile.obj
 0002:00094160       ??$read@UStreamIO@Imf@@VIStream@2@@Xdr@Imf@@YAXAAVIStream@1@AA_K@Z 10104160 f i ImfScanLineInputFile.obj
 0002:000942f0       ??$addressof@UInSliceInfo@?A0xcbf8ace6@Imf@@@std@@YAPAUInSliceInfo@?A0xcbf8ace6@Imf@@AAU123@@Z 101042f0 f i ImfScanLineInputFile.obj
 0002:00094330       ??$forward@UInSliceInfo@?A0xcbf8ace6@Imf@@@std@@YA$$QAUInSliceInfo@?A0xcbf8ace6@Imf@@AAU123@@Z 10104330 f i ImfScanLineInputFile.obj
 0002:00094370       ??$_Cons_val@V?$allocator@UInSliceInfo@?A0xcbf8ace6@Imf@@@std@@UInSliceInfo@?A0xcbf8ace6@Imf@@U345@@std@@YAXAAV?$allocator@UInSliceInfo@?A0xcbf8ace6@Imf@@@0@PAUInSliceInfo@?A0xcbf8ace6@Imf@@$$QAU234@@Z 10104370 f i ImfScanLineInputFile.obj
 0002:000943d0       ??$_Copy_impl@PAUInSliceInfo@?A0xcbf8ace6@Imf@@PAU123@@std@@YAPAUInSliceInfo@?A0xcbf8ace6@Imf@@PAU123@00@Z 101043d0 f i ImfScanLineInputFile.obj
 0002:00094450       ??$_Ucopy@PAUInSliceInfo@?A0xcbf8ace6@Imf@@@?$vector@UInSliceInfo@?A0xcbf8ace6@Imf@@V?$allocator@UInSliceInfo@?A0xcbf8ace6@Imf@@@std@@@std@@IAEPAUInSliceInfo@?A0xcbf8ace6@Imf@@PAU234@00@Z 10104450 f i ImfScanLineInputFile.obj
 0002:000944c0       ??$_Uninitialized_default_fill_n@PAPAULineBuffer@?A0xcbf8ace6@Imf@@IPAU123@V?$allocator@PAULineBuffer@?A0xcbf8ace6@Imf@@@std@@@std@@YAXPAPAULineBuffer@?A0xcbf8ace6@Imf@@IPBQAU123@AAV?$allocator@PAULineBuffer@?A0xcbf8ace6@Imf@@@0@@Z 101044c0 f i ImfScanLineInputFile.obj
 0002:00094560       ??$_Destroy_range@V?$allocator@UInSliceInfo@?A0xcbf8ace6@Imf@@@std@@@std@@YAXPAUInSliceInfo@?A0xcbf8ace6@Imf@@0AAV?$allocator@UInSliceInfo@?A0xcbf8ace6@Imf@@@0@@Z 10104560 f i ImfScanLineInputFile.obj
 0002:000945e0       ??$?0UInSliceInfo@?A0xcbf8ace6@Imf@@@?$allocator@U_Container_proxy@std@@@std@@QAE@ABV?$allocator@UInSliceInfo@?A0xcbf8ace6@Imf@@@1@@Z 101045e0 f i ImfScanLineInputFile.obj
 0002:00094620       ??$_Move@PAPAULineBuffer@?A0xcbf8ace6@Imf@@PAPAU123@@std@@YAPAPAULineBuffer@?A0xcbf8ace6@Imf@@PAPAU123@00@Z 10104620 f i ImfScanLineInputFile.obj
 0002:000946a0       ??$?0PAULineBuffer@?A0xcbf8ace6@Imf@@@?$allocator@U_Container_proxy@std@@@std@@QAE@ABV?$allocator@PAULineBuffer@?A0xcbf8ace6@Imf@@@1@@Z 101046a0 f i ImfScanLineInputFile.obj
 0002:000946e0       ??$_Umove@PAUInSliceInfo@?A0xcbf8ace6@Imf@@@?$vector@UInSliceInfo@?A0xcbf8ace6@Imf@@V?$allocator@UInSliceInfo@?A0xcbf8ace6@Imf@@@std@@@std@@IAEPAUInSliceInfo@?A0xcbf8ace6@Imf@@PAU234@00@Z 101046e0 f i ImfScanLineInputFile.obj
 0002:00094750       ??$_Move@PAUInSliceInfo@?A0xcbf8ace6@Imf@@PAU123@@std@@YAPAUInSliceInfo@?A0xcbf8ace6@Imf@@PAU123@00@Z 10104750 f i ImfScanLineInputFile.obj
 0002:000947d0       ??$_Allocate@UInSliceInfo@?A0xcbf8ace6@Imf@@@std@@YAPAUInSliceInfo@?A0xcbf8ace6@Imf@@IPAU123@@Z 101047d0 f i ImfScanLineInputFile.obj
 0002:00094880       ??$_Umove@PAPAULineBuffer@?A0xcbf8ace6@Imf@@@?$vector@PAULineBuffer@?A0xcbf8ace6@Imf@@V?$allocator@PAULineBuffer@?A0xcbf8ace6@Imf@@@std@@@std@@IAEPAPAULineBuffer@?A0xcbf8ace6@Imf@@PAPAU234@00@Z 10104880 f i ImfScanLineInputFile.obj
 0002:000948f0       ??$_Destroy_range@V?$allocator@PAULineBuffer@?A0xcbf8ace6@Imf@@@std@@@std@@YAXPAPAULineBuffer@?A0xcbf8ace6@Imf@@0AAV?$allocator@PAULineBuffer@?A0xcbf8ace6@Imf@@@0@@Z 101048f0 f i ImfScanLineInputFile.obj
 0002:00094970       ??$_Allocate@PAULineBuffer@?A0xcbf8ace6@Imf@@@std@@YAPAPAULineBuffer@?A0xcbf8ace6@Imf@@IPAPAU123@@Z 10104970 f i ImfScanLineInputFile.obj
 0002:00094a20       ?construct@?$allocator@UInSliceInfo@?A0xcbf8ace6@Imf@@@std@@QAEXPAUInSliceInfo@?A0xcbf8ace6@Imf@@$$QAU345@@Z 10104a20 f i ImfScanLineInputFile.obj
 0002:00094b20       ??$_Ptr_cat@UInSliceInfo@?A0xcbf8ace6@Imf@@U123@@std@@YA?AU_Nonscalar_ptr_iterator_tag@0@PAUInSliceInfo@?A0xcbf8ace6@Imf@@0@Z 10104b20 f i ImfScanLineInputFile.obj
 0002:00094b90       ??$_Copy_impl@PAUInSliceInfo@?A0xcbf8ace6@Imf@@PAU123@@std@@YAPAUInSliceInfo@?A0xcbf8ace6@Imf@@PAU123@00U_Nonscalar_ptr_iterator_tag@0@@Z 10104b90 f i ImfScanLineInputFile.obj
 0002:00094c00       ??$_Uninitialized_copy@PAUInSliceInfo@?A0xcbf8ace6@Imf@@PAU123@V?$allocator@UInSliceInfo@?A0xcbf8ace6@Imf@@@std@@@std@@YAPAUInSliceInfo@?A0xcbf8ace6@Imf@@PAU123@00AAV?$allocator@UInSliceInfo@?A0xcbf8ace6@Imf@@@0@@Z 10104c00 f i ImfScanLineInputFile.obj
 0002:00094c90       ??$_Val_type@PAPAULineBuffer@?A0xcbf8ace6@Imf@@@std@@YAPAPAULineBuffer@?A0xcbf8ace6@Imf@@PAPAU123@@Z 10104c90 f i ImfScanLineInputFile.obj
 0002:00094cc0       ??$_Ptr_cat@PAULineBuffer@?A0xcbf8ace6@Imf@@PAU123@@std@@YA?AU_Scalar_ptr_iterator_tag@0@PAPAULineBuffer@?A0xcbf8ace6@Imf@@0@Z 10104cc0 f i ImfScanLineInputFile.obj
 0002:00094d30       ??$_Uninit_def_fill_n@PAULineBuffer@?A0xcbf8ace6@Imf@@IPAU123@PAU123@@std@@YAXPAPAULineBuffer@?A0xcbf8ace6@Imf@@IPBQAU123@AAV?$allocator@PAULineBuffer@?A0xcbf8ace6@Imf@@@0@0U_Scalar_ptr_iterator_tag@0@@Z 10104d30 f i ImfScanLineInputFile.obj
 0002:00094da0       ??$_Destroy_range@V?$allocator@UInSliceInfo@?A0xcbf8ace6@Imf@@@std@@@std@@YAXPAUInSliceInfo@?A0xcbf8ace6@Imf@@0AAV?$allocator@UInSliceInfo@?A0xcbf8ace6@Imf@@@0@U_Nonscalar_ptr_iterator_tag@0@@Z 10104da0 f i ImfScanLineInputFile.obj
 0002:00094e10       ??$_Move@PAPAULineBuffer@?A0xcbf8ace6@Imf@@PAPAU123@@std@@YAPAPAULineBuffer@?A0xcbf8ace6@Imf@@PAPAU123@00U_Scalar_ptr_iterator_tag@0@@Z 10104e10 f i ImfScanLineInputFile.obj
 0002:00094ea0       ??$_Uninitialized_move@PAUInSliceInfo@?A0xcbf8ace6@Imf@@PAU123@V?$allocator@UInSliceInfo@?A0xcbf8ace6@Imf@@@std@@@std@@YAPAUInSliceInfo@?A0xcbf8ace6@Imf@@PAU123@00AAV?$allocator@UInSliceInfo@?A0xcbf8ace6@Imf@@@0@@Z 10104ea0 f i ImfScanLineInputFile.obj
 0002:00094f40       ??$_Move@PAUInSliceInfo@?A0xcbf8ace6@Imf@@PAU123@@std@@YAPAUInSliceInfo@?A0xcbf8ace6@Imf@@PAU123@00U_Nonscalar_ptr_iterator_tag@0@@Z 10104f40 f i ImfScanLineInputFile.obj
 0002:00094fd0       ??$_Uninitialized_move@PAPAULineBuffer@?A0xcbf8ace6@Imf@@PAPAU123@V?$allocator@PAULineBuffer@?A0xcbf8ace6@Imf@@@std@@@std@@YAPAPAULineBuffer@?A0xcbf8ace6@Imf@@PAPAU123@00AAV?$allocator@PAULineBuffer@?A0xcbf8ace6@Imf@@@0@@Z 10104fd0 f i ImfScanLineInputFile.obj
 0002:00095070       ??$_Destroy_range@V?$allocator@PAULineBuffer@?A0xcbf8ace6@Imf@@@std@@@std@@YAXPAPAULineBuffer@?A0xcbf8ace6@Imf@@0AAV?$allocator@PAULineBuffer@?A0xcbf8ace6@Imf@@@0@U_Scalar_ptr_iterator_tag@0@@Z 10105070 f i ImfScanLineInputFile.obj
 0002:000950a0       ??$_Uninit_copy@PAUInSliceInfo@?A0xcbf8ace6@Imf@@PAU123@V?$allocator@UInSliceInfo@?A0xcbf8ace6@Imf@@@std@@@std@@YAPAUInSliceInfo@?A0xcbf8ace6@Imf@@PAU123@00AAV?$allocator@UInSliceInfo@?A0xcbf8ace6@Imf@@@0@U_Nonscalar_ptr_iterator_tag@0@@Z 101050a0 f i ImfScanLineInputFile.obj
 0002:00095200       ??$_Fill_n@PAPAULineBuffer@?A0xcbf8ace6@Imf@@IPAU123@@std@@YAXPAPAULineBuffer@?A0xcbf8ace6@Imf@@IABQAU123@@Z 10105200 f i ImfScanLineInputFile.obj
 0002:00095260       ??$_Dest_val@V?$allocator@UInSliceInfo@?A0xcbf8ace6@Imf@@@std@@UInSliceInfo@?A0xcbf8ace6@Imf@@@std@@YAXAAV?$allocator@UInSliceInfo@?A0xcbf8ace6@Imf@@@0@PAUInSliceInfo@?A0xcbf8ace6@Imf@@@Z 10105260 f i ImfScanLineInputFile.obj
 0002:000952b0       ??$_Val_type@PAUInSliceInfo@?A0xcbf8ace6@Imf@@@std@@YAPAUInSliceInfo@?A0xcbf8ace6@Imf@@PAU123@@Z 101052b0 f i ImfScanLineInputFile.obj
 0002:000952e0       ??$_Uninit_move@PAUInSliceInfo@?A0xcbf8ace6@Imf@@PAU123@V?$allocator@UInSliceInfo@?A0xcbf8ace6@Imf@@@std@@U123@@std@@YAPAUInSliceInfo@?A0xcbf8ace6@Imf@@PAU123@00AAV?$allocator@UInSliceInfo@?A0xcbf8ace6@Imf@@@0@0U_Nonscalar_ptr_iterator_tag@0@@Z 101052e0 f i ImfScanLineInputFile.obj
 0002:00095440       ??$move@AAUInSliceInfo@?A0xcbf8ace6@Imf@@@std@@YA$$QAUInSliceInfo@?A0xcbf8ace6@Imf@@AAU123@@Z 10105440 f i ImfScanLineInputFile.obj
 0002:00095480       ??$_Uninit_move@PAULineBuffer@?A0xcbf8ace6@Imf@@PAU123@PAU123@@std@@YAPAPAULineBuffer@?A0xcbf8ace6@Imf@@PAPAU123@00AAV?$allocator@PAULineBuffer@?A0xcbf8ace6@Imf@@@0@0U_Scalar_ptr_iterator_tag@0@@Z 10105480 f i ImfScanLineInputFile.obj
 0002:00095540       ?destroy@?$allocator@UInSliceInfo@?A0xcbf8ace6@Imf@@@std@@QAEXPAUInSliceInfo@?A0xcbf8ace6@Imf@@@Z 10105540 f i ImfScanLineInputFile.obj
 0002:000955a0       ??$_Debug_range@PAUInSliceInfo@?A0xcbf8ace6@Imf@@@std@@YAXPAUInSliceInfo@?A0xcbf8ace6@Imf@@0PB_WI@Z 101055a0 f i ImfScanLineInputFile.obj
 0002:00095620       ??$_Debug_pointer@UInSliceInfo@?A0xcbf8ace6@Imf@@@std@@YAXPAUInSliceInfo@?A0xcbf8ace6@Imf@@PB_WI@Z 10105620 f i ImfScanLineInputFile.obj
 0002:00095690       ??$_Cons_val@V?$allocator@UInSliceInfo@?A0xcbf8ace6@Imf@@@std@@UInSliceInfo@?A0xcbf8ace6@Imf@@AAU345@@std@@YAXAAV?$allocator@UInSliceInfo@?A0xcbf8ace6@Imf@@@0@PAUInSliceInfo@?A0xcbf8ace6@Imf@@AAU234@@Z 10105690 f i ImfScanLineInputFile.obj
 0002:000956f0       ??$_Debug_range@PAPAULineBuffer@?A0xcbf8ace6@Imf@@@std@@YAXPAPAULineBuffer@?A0xcbf8ace6@Imf@@0PB_WI@Z 101056f0 f i ImfScanLineInputFile.obj
 0002:00095770       ??$_Debug_pointer@PAULineBuffer@?A0xcbf8ace6@Imf@@@std@@YAXPAPAULineBuffer@?A0xcbf8ace6@Imf@@PB_WI@Z 10105770 f i ImfScanLineInputFile.obj
 0002:000957e0       ??$_Destroy@UInSliceInfo@?A0xcbf8ace6@Imf@@@std@@YAXPAUInSliceInfo@?A0xcbf8ace6@Imf@@@Z 101057e0 f i ImfScanLineInputFile.obj
 0002:00095810       ??$_Iter_cat@PAUInSliceInfo@?A0xcbf8ace6@Imf@@@std@@YA?AUrandom_access_iterator_tag@0@ABQAUInSliceInfo@?A0xcbf8ace6@Imf@@@Z 10105810 f i ImfScanLineInputFile.obj
 0002:00095890       ??$_Debug_range2@PAUInSliceInfo@?A0xcbf8ace6@Imf@@@std@@YAXPAUInSliceInfo@?A0xcbf8ace6@Imf@@0PB_WIUrandom_access_iterator_tag@0@@Z 10105890 f i ImfScanLineInputFile.obj
 0002:00095940       ??$forward@AAUInSliceInfo@?A0xcbf8ace6@Imf@@@std@@YAAAUInSliceInfo@?A0xcbf8ace6@Imf@@AAU123@@Z 10105940 f i ImfScanLineInputFile.obj
 0002:00095980       ??$construct@AAUInSliceInfo@?A0xcbf8ace6@Imf@@@?$allocator@UInSliceInfo@?A0xcbf8ace6@Imf@@@std@@QAEXPAUInSliceInfo@?A0xcbf8ace6@Imf@@AAU234@@Z 10105980 f i ImfScanLineInputFile.obj
 0002:00095a80       ??$_Iter_cat@PAPAULineBuffer@?A0xcbf8ace6@Imf@@@std@@YA?AUrandom_access_iterator_tag@0@ABQAPAULineBuffer@?A0xcbf8ace6@Imf@@@Z 10105a80 f i ImfScanLineInputFile.obj
 0002:00095b00       ??$_Debug_range2@PAPAULineBuffer@?A0xcbf8ace6@Imf@@@std@@YAXPAPAULineBuffer@?A0xcbf8ace6@Imf@@0PB_WIUrandom_access_iterator_tag@0@@Z 10105b00 f i ImfScanLineInputFile.obj
 0002:00095bb0       ?addChromaticities@Imf@@YAXAAVHeader@1@ABUChromaticities@1@@Z 10105bb0 f   ImfStandardAttributes.obj
 0002:00095c90       ?hasChromaticities@Imf@@YA_NABVHeader@1@@Z 10105c90 f   ImfStandardAttributes.obj
 0002:00095cf0       ?chromaticitiesAttribute@Imf@@YAABV?$TypedAttribute@UChromaticities@Imf@@@1@ABVHeader@1@@Z 10105cf0 f   ImfStandardAttributes.obj
 0002:00095d40       ?chromaticitiesAttribute@Imf@@YAAAV?$TypedAttribute@UChromaticities@Imf@@@1@AAVHeader@1@@Z 10105d40 f   ImfStandardAttributes.obj
 0002:00095d90       ?chromaticities@Imf@@YAABUChromaticities@1@ABVHeader@1@@Z 10105d90 f   ImfStandardAttributes.obj
 0002:00095df0       ?chromaticities@Imf@@YAAAUChromaticities@1@AAVHeader@1@@Z 10105df0 f   ImfStandardAttributes.obj
 0002:00095e50       ?addWhiteLuminance@Imf@@YAXAAVHeader@1@ABM@Z 10105e50 f   ImfStandardAttributes.obj
 0002:00095f30       ?hasWhiteLuminance@Imf@@YA_NABVHeader@1@@Z 10105f30 f   ImfStandardAttributes.obj
 0002:00095f90       ?whiteLuminanceAttribute@Imf@@YAABV?$TypedAttribute@M@1@ABVHeader@1@@Z 10105f90 f   ImfStandardAttributes.obj
 0002:00095fe0       ?whiteLuminanceAttribute@Imf@@YAAAV?$TypedAttribute@M@1@AAVHeader@1@@Z 10105fe0 f   ImfStandardAttributes.obj
 0002:00096030       ?whiteLuminance@Imf@@YAABMABVHeader@1@@Z 10106030 f   ImfStandardAttributes.obj
 0002:00096090       ?whiteLuminance@Imf@@YAAAMAAVHeader@1@@Z 10106090 f   ImfStandardAttributes.obj
 0002:000960f0       ?addAdoptedNeutral@Imf@@YAXAAVHeader@1@ABV?$Vec2@M@Imath@@@Z 101060f0 f   ImfStandardAttributes.obj
 0002:000961d0       ?hasAdoptedNeutral@Imf@@YA_NABVHeader@1@@Z 101061d0 f   ImfStandardAttributes.obj
 0002:00096230       ?adoptedNeutralAttribute@Imf@@YAABV?$TypedAttribute@V?$Vec2@M@Imath@@@1@ABVHeader@1@@Z 10106230 f   ImfStandardAttributes.obj
 0002:00096280       ?adoptedNeutralAttribute@Imf@@YAAAV?$TypedAttribute@V?$Vec2@M@Imath@@@1@AAVHeader@1@@Z 10106280 f   ImfStandardAttributes.obj
 0002:000962d0       ?adoptedNeutral@Imf@@YAABV?$Vec2@M@Imath@@ABVHeader@1@@Z 101062d0 f   ImfStandardAttributes.obj
 0002:00096330       ?adoptedNeutral@Imf@@YAAAV?$Vec2@M@Imath@@AAVHeader@1@@Z 10106330 f   ImfStandardAttributes.obj
 0002:00096390       ?addRenderingTransform@Imf@@YAXAAVHeader@1@ABV?$basic_string@DU?$char_traits@D@std@@V?$allocator@D@2@@std@@@Z 10106390 f   ImfStandardAttributes.obj
 0002:00096480       ?hasRenderingTransform@Imf@@YA_NABVHeader@1@@Z 10106480 f   ImfStandardAttributes.obj
 0002:000964e0       ?renderingTransformAttribute@Imf@@YAABV?$TypedAttribute@V?$basic_string@DU?$char_traits@D@std@@V?$allocator@D@2@@std@@@1@ABVHeader@1@@Z 101064e0 f   ImfStandardAttributes.obj
 0002:00096530       ?renderingTransformAttribute@Imf@@YAAAV?$TypedAttribute@V?$basic_string@DU?$char_traits@D@std@@V?$allocator@D@2@@std@@@1@AAVHeader@1@@Z 10106530 f   ImfStandardAttributes.obj
 0002:00096580       ?renderingTransform@Imf@@YAABV?$basic_string@DU?$char_traits@D@std@@V?$allocator@D@2@@std@@ABVHeader@1@@Z 10106580 f   ImfStandardAttributes.obj
 0002:000965e0       ?renderingTransform@Imf@@YAAAV?$basic_string@DU?$char_traits@D@std@@V?$allocator@D@2@@std@@AAVHeader@1@@Z 101065e0 f   ImfStandardAttributes.obj
 0002:00096640       ?addLookModTransform@Imf@@YAXAAVHeader@1@ABV?$basic_string@DU?$char_traits@D@std@@V?$allocator@D@2@@std@@@Z 10106640 f   ImfStandardAttributes.obj
 0002:00096730       ?hasLookModTransform@Imf@@YA_NABVHeader@1@@Z 10106730 f   ImfStandardAttributes.obj
 0002:00096790       ?lookModTransformAttribute@Imf@@YAABV?$TypedAttribute@V?$basic_string@DU?$char_traits@D@std@@V?$allocator@D@2@@std@@@1@ABVHeader@1@@Z 10106790 f   ImfStandardAttributes.obj
 0002:000967e0       ?lookModTransformAttribute@Imf@@YAAAV?$TypedAttribute@V?$basic_string@DU?$char_traits@D@std@@V?$allocator@D@2@@std@@@1@AAVHeader@1@@Z 101067e0 f   ImfStandardAttributes.obj
 0002:00096830       ?lookModTransform@Imf@@YAABV?$basic_string@DU?$char_traits@D@std@@V?$allocator@D@2@@std@@ABVHeader@1@@Z 10106830 f   ImfStandardAttributes.obj
 0002:00096890       ?lookModTransform@Imf@@YAAAV?$basic_string@DU?$char_traits@D@std@@V?$allocator@D@2@@std@@AAVHeader@1@@Z 10106890 f   ImfStandardAttributes.obj
 0002:000968f0       ?addXDensity@Imf@@YAXAAVHeader@1@ABM@Z 101068f0 f   ImfStandardAttributes.obj
 0002:000969d0       ?hasXDensity@Imf@@YA_NABVHeader@1@@Z 101069d0 f   ImfStandardAttributes.obj
 0002:00096a30       ?xDensityAttribute@Imf@@YAABV?$TypedAttribute@M@1@ABVHeader@1@@Z 10106a30 f   ImfStandardAttributes.obj
 0002:00096a80       ?xDensityAttribute@Imf@@YAAAV?$TypedAttribute@M@1@AAVHeader@1@@Z 10106a80 f   ImfStandardAttributes.obj
 0002:00096ad0       ?xDensity@Imf@@YAABMABVHeader@1@@Z 10106ad0 f   ImfStandardAttributes.obj
 0002:00096b30       ?xDensity@Imf@@YAAAMAAVHeader@1@@Z 10106b30 f   ImfStandardAttributes.obj
 0002:00096b90       ?addOwner@Imf@@YAXAAVHeader@1@ABV?$basic_string@DU?$char_traits@D@std@@V?$allocator@D@2@@std@@@Z 10106b90 f   ImfStandardAttributes.obj
 0002:00096c80       ?hasOwner@Imf@@YA_NABVHeader@1@@Z 10106c80 f   ImfStandardAttributes.obj
 0002:00096ce0       ?ownerAttribute@Imf@@YAABV?$TypedAttribute@V?$basic_string@DU?$char_traits@D@std@@V?$allocator@D@2@@std@@@1@ABVHeader@1@@Z 10106ce0 f   ImfStandardAttributes.obj
 0002:00096d30       ?ownerAttribute@Imf@@YAAAV?$TypedAttribute@V?$basic_string@DU?$char_traits@D@std@@V?$allocator@D@2@@std@@@1@AAVHeader@1@@Z 10106d30 f   ImfStandardAttributes.obj
 0002:00096d80       ?owner@Imf@@YAABV?$basic_string@DU?$char_traits@D@std@@V?$allocator@D@2@@std@@ABVHeader@1@@Z 10106d80 f   ImfStandardAttributes.obj
 0002:00096de0       ?owner@Imf@@YAAAV?$basic_string@DU?$char_traits@D@std@@V?$allocator@D@2@@std@@AAVHeader@1@@Z 10106de0 f   ImfStandardAttributes.obj
 0002:00096e40       ?addComments@Imf@@YAXAAVHeader@1@ABV?$basic_string@DU?$char_traits@D@std@@V?$allocator@D@2@@std@@@Z 10106e40 f   ImfStandardAttributes.obj
 0002:00096f30       ?hasComments@Imf@@YA_NABVHeader@1@@Z 10106f30 f   ImfStandardAttributes.obj
 0002:00096f90       ?commentsAttribute@Imf@@YAABV?$TypedAttribute@V?$basic_string@DU?$char_traits@D@std@@V?$allocator@D@2@@std@@@1@ABVHeader@1@@Z 10106f90 f   ImfStandardAttributes.obj
 0002:00096fe0       ?commentsAttribute@Imf@@YAAAV?$TypedAttribute@V?$basic_string@DU?$char_traits@D@std@@V?$allocator@D@2@@std@@@1@AAVHeader@1@@Z 10106fe0 f   ImfStandardAttributes.obj
 0002:00097030       ?comments@Imf@@YAABV?$basic_string@DU?$char_traits@D@std@@V?$allocator@D@2@@std@@ABVHeader@1@@Z 10107030 f   ImfStandardAttributes.obj
 0002:00097090       ?comments@Imf@@YAAAV?$basic_string@DU?$char_traits@D@std@@V?$allocator@D@2@@std@@AAVHeader@1@@Z 10107090 f   ImfStandardAttributes.obj
 0002:000970f0       ?addCapDate@Imf@@YAXAAVHeader@1@ABV?$basic_string@DU?$char_traits@D@std@@V?$allocator@D@2@@std@@@Z 101070f0 f   ImfStandardAttributes.obj
 0002:000971e0       ?hasCapDate@Imf@@YA_NABVHeader@1@@Z 101071e0 f   ImfStandardAttributes.obj
 0002:00097240       ?capDateAttribute@Imf@@YAABV?$TypedAttribute@V?$basic_string@DU?$char_traits@D@std@@V?$allocator@D@2@@std@@@1@ABVHeader@1@@Z 10107240 f   ImfStandardAttributes.obj
 0002:00097290       ?capDateAttribute@Imf@@YAAAV?$TypedAttribute@V?$basic_string@DU?$char_traits@D@std@@V?$allocator@D@2@@std@@@1@AAVHeader@1@@Z 10107290 f   ImfStandardAttributes.obj
 0002:000972e0       ?capDate@Imf@@YAABV?$basic_string@DU?$char_traits@D@std@@V?$allocator@D@2@@std@@ABVHeader@1@@Z 101072e0 f   ImfStandardAttributes.obj
 0002:00097340       ?capDate@Imf@@YAAAV?$basic_string@DU?$char_traits@D@std@@V?$allocator@D@2@@std@@AAVHeader@1@@Z 10107340 f   ImfStandardAttributes.obj
 0002:000973a0       ?addUtcOffset@Imf@@YAXAAVHeader@1@ABM@Z 101073a0 f   ImfStandardAttributes.obj
 0002:00097480       ?hasUtcOffset@Imf@@YA_NABVHeader@1@@Z 10107480 f   ImfStandardAttributes.obj
 0002:000974e0       ?utcOffsetAttribute@Imf@@YAABV?$TypedAttribute@M@1@ABVHeader@1@@Z 101074e0 f   ImfStandardAttributes.obj
 0002:00097530       ?utcOffsetAttribute@Imf@@YAAAV?$TypedAttribute@M@1@AAVHeader@1@@Z 10107530 f   ImfStandardAttributes.obj
 0002:00097580       ?utcOffset@Imf@@YAABMABVHeader@1@@Z 10107580 f   ImfStandardAttributes.obj
 0002:000975e0       ?utcOffset@Imf@@YAAAMAAVHeader@1@@Z 101075e0 f   ImfStandardAttributes.obj
 0002:00097640       ?addLongitude@Imf@@YAXAAVHeader@1@ABM@Z 10107640 f   ImfStandardAttributes.obj
 0002:00097720       ?hasLongitude@Imf@@YA_NABVHeader@1@@Z 10107720 f   ImfStandardAttributes.obj
 0002:00097780       ?longitudeAttribute@Imf@@YAABV?$TypedAttribute@M@1@ABVHeader@1@@Z 10107780 f   ImfStandardAttributes.obj
 0002:000977d0       ?longitudeAttribute@Imf@@YAAAV?$TypedAttribute@M@1@AAVHeader@1@@Z 101077d0 f   ImfStandardAttributes.obj
 0002:00097820       ?longitude@Imf@@YAABMABVHeader@1@@Z 10107820 f   ImfStandardAttributes.obj
 0002:00097880       ?longitude@Imf@@YAAAMAAVHeader@1@@Z 10107880 f   ImfStandardAttributes.obj
 0002:000978e0       ?addLatitude@Imf@@YAXAAVHeader@1@ABM@Z 101078e0 f   ImfStandardAttributes.obj
 0002:000979c0       ?hasLatitude@Imf@@YA_NABVHeader@1@@Z 101079c0 f   ImfStandardAttributes.obj
 0002:00097a20       ?latitudeAttribute@Imf@@YAABV?$TypedAttribute@M@1@ABVHeader@1@@Z 10107a20 f   ImfStandardAttributes.obj
 0002:00097a70       ?latitudeAttribute@Imf@@YAAAV?$TypedAttribute@M@1@AAVHeader@1@@Z 10107a70 f   ImfStandardAttributes.obj
 0002:00097ac0       ?latitude@Imf@@YAABMABVHeader@1@@Z 10107ac0 f   ImfStandardAttributes.obj
 0002:00097b20       ?latitude@Imf@@YAAAMAAVHeader@1@@Z 10107b20 f   ImfStandardAttributes.obj
 0002:00097b80       ?addAltitude@Imf@@YAXAAVHeader@1@ABM@Z 10107b80 f   ImfStandardAttributes.obj
 0002:00097c60       ?hasAltitude@Imf@@YA_NABVHeader@1@@Z 10107c60 f   ImfStandardAttributes.obj
 0002:00097cc0       ?altitudeAttribute@Imf@@YAABV?$TypedAttribute@M@1@ABVHeader@1@@Z 10107cc0 f   ImfStandardAttributes.obj
 0002:00097d10       ?altitudeAttribute@Imf@@YAAAV?$TypedAttribute@M@1@AAVHeader@1@@Z 10107d10 f   ImfStandardAttributes.obj
 0002:00097d60       ?altitude@Imf@@YAABMABVHeader@1@@Z 10107d60 f   ImfStandardAttributes.obj
 0002:00097dc0       ?altitude@Imf@@YAAAMAAVHeader@1@@Z 10107dc0 f   ImfStandardAttributes.obj
 0002:00097e20       ?addFocus@Imf@@YAXAAVHeader@1@ABM@Z 10107e20 f   ImfStandardAttributes.obj
 0002:00097f00       ?hasFocus@Imf@@YA_NABVHeader@1@@Z 10107f00 f   ImfStandardAttributes.obj
 0002:00097f60       ?focusAttribute@Imf@@YAABV?$TypedAttribute@M@1@ABVHeader@1@@Z 10107f60 f   ImfStandardAttributes.obj
 0002:00097fb0       ?focusAttribute@Imf@@YAAAV?$TypedAttribute@M@1@AAVHeader@1@@Z 10107fb0 f   ImfStandardAttributes.obj
 0002:00098000       ?focus@Imf@@YAABMABVHeader@1@@Z 10108000 f   ImfStandardAttributes.obj
 0002:00098060       ?focus@Imf@@YAAAMAAVHeader@1@@Z 10108060 f   ImfStandardAttributes.obj
 0002:000980c0       ?addExpTime@Imf@@YAXAAVHeader@1@ABM@Z 101080c0 f   ImfStandardAttributes.obj
 0002:000981a0       ?hasExpTime@Imf@@YA_NABVHeader@1@@Z 101081a0 f   ImfStandardAttributes.obj
 0002:00098200       ?expTimeAttribute@Imf@@YAABV?$TypedAttribute@M@1@ABVHeader@1@@Z 10108200 f   ImfStandardAttributes.obj
 0002:00098250       ?expTimeAttribute@Imf@@YAAAV?$TypedAttribute@M@1@AAVHeader@1@@Z 10108250 f   ImfStandardAttributes.obj
 0002:000982a0       ?expTime@Imf@@YAABMABVHeader@1@@Z 101082a0 f   ImfStandardAttributes.obj
 0002:00098300       ?expTime@Imf@@YAAAMAAVHeader@1@@Z 10108300 f   ImfStandardAttributes.obj
 0002:00098360       ?addAperture@Imf@@YAXAAVHeader@1@ABM@Z 10108360 f   ImfStandardAttributes.obj
 0002:00098440       ?hasAperture@Imf@@YA_NABVHeader@1@@Z 10108440 f   ImfStandardAttributes.obj
 0002:000984a0       ?apertureAttribute@Imf@@YAABV?$TypedAttribute@M@1@ABVHeader@1@@Z 101084a0 f   ImfStandardAttributes.obj
 0002:000984f0       ?apertureAttribute@Imf@@YAAAV?$TypedAttribute@M@1@AAVHeader@1@@Z 101084f0 f   ImfStandardAttributes.obj
 0002:00098540       ?aperture@Imf@@YAABMABVHeader@1@@Z 10108540 f   ImfStandardAttributes.obj
 0002:000985a0       ?aperture@Imf@@YAAAMAAVHeader@1@@Z 101085a0 f   ImfStandardAttributes.obj
 0002:00098600       ?addIsoSpeed@Imf@@YAXAAVHeader@1@ABM@Z 10108600 f   ImfStandardAttributes.obj
 0002:000986e0       ?hasIsoSpeed@Imf@@YA_NABVHeader@1@@Z 101086e0 f   ImfStandardAttributes.obj
 0002:00098740       ?isoSpeedAttribute@Imf@@YAABV?$TypedAttribute@M@1@ABVHeader@1@@Z 10108740 f   ImfStandardAttributes.obj
 0002:00098790       ?isoSpeedAttribute@Imf@@YAAAV?$TypedAttribute@M@1@AAVHeader@1@@Z 10108790 f   ImfStandardAttributes.obj
 0002:000987e0       ?isoSpeed@Imf@@YAABMABVHeader@1@@Z 101087e0 f   ImfStandardAttributes.obj
 0002:00098840       ?isoSpeed@Imf@@YAAAMAAVHeader@1@@Z 10108840 f   ImfStandardAttributes.obj
 0002:000988a0       ?addEnvmap@Imf@@YAXAAVHeader@1@ABW4Envmap@1@@Z 101088a0 f   ImfStandardAttributes.obj
 0002:00098980       ?hasEnvmap@Imf@@YA_NABVHeader@1@@Z 10108980 f   ImfStandardAttributes.obj
 0002:000989e0       ?envmapAttribute@Imf@@YAABV?$TypedAttribute@W4Envmap@Imf@@@1@ABVHeader@1@@Z 101089e0 f   ImfStandardAttributes.obj
 0002:00098a30       ?envmapAttribute@Imf@@YAAAV?$TypedAttribute@W4Envmap@Imf@@@1@AAVHeader@1@@Z 10108a30 f   ImfStandardAttributes.obj
 0002:00098a80       ?envmap@Imf@@YAABW4Envmap@1@ABVHeader@1@@Z 10108a80 f   ImfStandardAttributes.obj
 0002:00098ae0       ?envmap@Imf@@YAAAW4Envmap@1@AAVHeader@1@@Z 10108ae0 f   ImfStandardAttributes.obj
 0002:00098b40       ?addKeyCode@Imf@@YAXAAVHeader@1@ABVKeyCode@1@@Z 10108b40 f   ImfStandardAttributes.obj
 0002:00098c20       ?hasKeyCode@Imf@@YA_NABVHeader@1@@Z 10108c20 f   ImfStandardAttributes.obj
 0002:00098c80       ?keyCodeAttribute@Imf@@YAABV?$TypedAttribute@VKeyCode@Imf@@@1@ABVHeader@1@@Z 10108c80 f   ImfStandardAttributes.obj
 0002:00098cd0       ?keyCodeAttribute@Imf@@YAAAV?$TypedAttribute@VKeyCode@Imf@@@1@AAVHeader@1@@Z 10108cd0 f   ImfStandardAttributes.obj
 0002:00098d20       ?keyCode@Imf@@YAABVKeyCode@1@ABVHeader@1@@Z 10108d20 f   ImfStandardAttributes.obj
 0002:00098d80       ?keyCode@Imf@@YAAAVKeyCode@1@AAVHeader@1@@Z 10108d80 f   ImfStandardAttributes.obj
 0002:00098de0       ?addTimeCode@Imf@@YAXAAVHeader@1@ABVTimeCode@1@@Z 10108de0 f   ImfStandardAttributes.obj
 0002:00098ec0       ?hasTimeCode@Imf@@YA_NABVHeader@1@@Z 10108ec0 f   ImfStandardAttributes.obj
 0002:00098f20       ?timeCodeAttribute@Imf@@YAABV?$TypedAttribute@VTimeCode@Imf@@@1@ABVHeader@1@@Z 10108f20 f   ImfStandardAttributes.obj
 0002:00098f70       ?timeCodeAttribute@Imf@@YAAAV?$TypedAttribute@VTimeCode@Imf@@@1@AAVHeader@1@@Z 10108f70 f   ImfStandardAttributes.obj
 0002:00098fc0       ?timeCode@Imf@@YAABVTimeCode@1@ABVHeader@1@@Z 10108fc0 f   ImfStandardAttributes.obj
 0002:00099020       ?timeCode@Imf@@YAAAVTimeCode@1@AAVHeader@1@@Z 10109020 f   ImfStandardAttributes.obj
 0002:00099080       ?addWrapmodes@Imf@@YAXAAVHeader@1@ABV?$basic_string@DU?$char_traits@D@std@@V?$allocator@D@2@@std@@@Z 10109080 f   ImfStandardAttributes.obj
 0002:00099170       ?hasWrapmodes@Imf@@YA_NABVHeader@1@@Z 10109170 f   ImfStandardAttributes.obj
 0002:000991d0       ?wrapmodesAttribute@Imf@@YAABV?$TypedAttribute@V?$basic_string@DU?$char_traits@D@std@@V?$allocator@D@2@@std@@@1@ABVHeader@1@@Z 101091d0 f   ImfStandardAttributes.obj
 0002:00099220       ?wrapmodesAttribute@Imf@@YAAAV?$TypedAttribute@V?$basic_string@DU?$char_traits@D@std@@V?$allocator@D@2@@std@@@1@AAVHeader@1@@Z 10109220 f   ImfStandardAttributes.obj
 0002:00099270       ?wrapmodes@Imf@@YAABV?$basic_string@DU?$char_traits@D@std@@V?$allocator@D@2@@std@@ABVHeader@1@@Z 10109270 f   ImfStandardAttributes.obj
 0002:000992d0       ?wrapmodes@Imf@@YAAAV?$basic_string@DU?$char_traits@D@std@@V?$allocator@D@2@@std@@AAVHeader@1@@Z 101092d0 f   ImfStandardAttributes.obj
 0002:00099330       ?addFramesPerSecond@Imf@@YAXAAVHeader@1@ABVRational@1@@Z 10109330 f   ImfStandardAttributes.obj
 0002:00099410       ?hasFramesPerSecond@Imf@@YA_NABVHeader@1@@Z 10109410 f   ImfStandardAttributes.obj
 0002:00099470       ?framesPerSecondAttribute@Imf@@YAABV?$TypedAttribute@VRational@Imf@@@1@ABVHeader@1@@Z 10109470 f   ImfStandardAttributes.obj
 0002:000994c0       ?framesPerSecondAttribute@Imf@@YAAAV?$TypedAttribute@VRational@Imf@@@1@AAVHeader@1@@Z 101094c0 f   ImfStandardAttributes.obj
 0002:00099510       ?framesPerSecond@Imf@@YAABVRational@1@ABVHeader@1@@Z 10109510 f   ImfStandardAttributes.obj
 0002:00099570       ?framesPerSecond@Imf@@YAAAVRational@1@AAVHeader@1@@Z 10109570 f   ImfStandardAttributes.obj
 0002:000995d0       ?addMultiView@Imf@@YAXAAVHeader@1@ABV?$vector@V?$basic_string@DU?$char_traits@D@std@@V?$allocator@D@2@@std@@V?$allocator@V?$basic_string@DU?$char_traits@D@std@@V?$allocator@D@2@@std@@@2@@std@@@Z 101095d0 f   ImfStandardAttributes.obj
 0002:000996b0       ?hasMultiView@Imf@@YA_NABVHeader@1@@Z 101096b0 f   ImfStandardAttributes.obj
 0002:00099710       ?multiViewAttribute@Imf@@YAABV?$TypedAttribute@V?$vector@V?$basic_string@DU?$char_traits@D@std@@V?$allocator@D@2@@std@@V?$allocator@V?$basic_string@DU?$char_traits@D@std@@V?$allocator@D@2@@std@@@2@@std@@@1@ABVHeader@1@@Z 10109710 f   ImfStandardAttributes.obj
 0002:00099760       ?multiViewAttribute@Imf@@YAAAV?$TypedAttribute@V?$vector@V?$basic_string@DU?$char_traits@D@std@@V?$allocator@D@2@@std@@V?$allocator@V?$basic_string@DU?$char_traits@D@std@@V?$allocator@D@2@@std@@@2@@std@@@1@AAVHeader@1@@Z 10109760 f   ImfStandardAttributes.obj
 0002:000997b0       ?multiView@Imf@@YAABV?$vector@V?$basic_string@DU?$char_traits@D@std@@V?$allocator@D@2@@std@@V?$allocator@V?$basic_string@DU?$char_traits@D@std@@V?$allocator@D@2@@std@@@2@@std@@ABVHeader@1@@Z 101097b0 f   ImfStandardAttributes.obj
 0002:00099810       ?multiView@Imf@@YAAAV?$vector@V?$basic_string@DU?$char_traits@D@std@@V?$allocator@D@2@@std@@V?$allocator@V?$basic_string@DU?$char_traits@D@std@@V?$allocator@D@2@@std@@@2@@std@@AAVHeader@1@@Z 10109810 f   ImfStandardAttributes.obj
 0002:00099870       ?addWorldToCamera@Imf@@YAXAAVHeader@1@ABV?$Matrix44@M@Imath@@@Z 10109870 f   ImfStandardAttributes.obj
 0002:00099960       ?hasWorldToCamera@Imf@@YA_NABVHeader@1@@Z 10109960 f   ImfStandardAttributes.obj
 0002:000999c0       ?worldToCameraAttribute@Imf@@YAABV?$TypedAttribute@V?$Matrix44@M@Imath@@@1@ABVHeader@1@@Z 101099c0 f   ImfStandardAttributes.obj
 0002:00099a10       ?worldToCameraAttribute@Imf@@YAAAV?$TypedAttribute@V?$Matrix44@M@Imath@@@1@AAVHeader@1@@Z 10109a10 f   ImfStandardAttributes.obj
 0002:00099a60       ?worldToCamera@Imf@@YAABV?$Matrix44@M@Imath@@ABVHeader@1@@Z 10109a60 f   ImfStandardAttributes.obj
 0002:00099ac0       ?worldToCamera@Imf@@YAAAV?$Matrix44@M@Imath@@AAVHeader@1@@Z 10109ac0 f   ImfStandardAttributes.obj
 0002:00099b20       ?addWorldToNDC@Imf@@YAXAAVHeader@1@ABV?$Matrix44@M@Imath@@@Z 10109b20 f   ImfStandardAttributes.obj
 0002:00099c10       ?hasWorldToNDC@Imf@@YA_NABVHeader@1@@Z 10109c10 f   ImfStandardAttributes.obj
 0002:00099c70       ?worldToNDCAttribute@Imf@@YAABV?$TypedAttribute@V?$Matrix44@M@Imath@@@1@ABVHeader@1@@Z 10109c70 f   ImfStandardAttributes.obj
 0002:00099cc0       ?worldToNDCAttribute@Imf@@YAAAV?$TypedAttribute@V?$Matrix44@M@Imath@@@1@AAVHeader@1@@Z 10109cc0 f   ImfStandardAttributes.obj
 0002:00099d10       ?worldToNDC@Imf@@YAABV?$Matrix44@M@Imath@@ABVHeader@1@@Z 10109d10 f   ImfStandardAttributes.obj
 0002:00099d70       ?worldToNDC@Imf@@YAAAV?$Matrix44@M@Imath@@AAVHeader@1@@Z 10109d70 f   ImfStandardAttributes.obj
 0002:00099dd0       ??0?$TypedAttribute@UChromaticities@Imf@@@Imf@@QAE@ABUChromaticities@1@@Z 10109dd0 f i ImfStandardAttributes.obj
 0002:00099e90       ?value@?$TypedAttribute@UChromaticities@Imf@@@Imf@@QBEABUChromaticities@2@XZ 10109e90 f i ImfStandardAttributes.obj
 0002:00099ed0       ?value@?$TypedAttribute@UChromaticities@Imf@@@Imf@@QAEAAUChromaticities@2@XZ 10109ed0 f i ImfStandardAttributes.obj
 0002:00099f10       ??0?$TypedAttribute@W4Envmap@Imf@@@Imf@@QAE@ABW4Envmap@1@@Z 10109f10 f i ImfStandardAttributes.obj
 0002:00099f80       ?value@?$TypedAttribute@W4Envmap@Imf@@@Imf@@QBEABW4Envmap@2@XZ 10109f80 f i ImfStandardAttributes.obj
 0002:00099fc0       ?value@?$TypedAttribute@W4Envmap@Imf@@@Imf@@QAEAAW4Envmap@2@XZ 10109fc0 f i ImfStandardAttributes.obj
 0002:0009a000       ??0?$TypedAttribute@VKeyCode@Imf@@@Imf@@QAE@ABVKeyCode@1@@Z 1010a000 f i ImfStandardAttributes.obj
 0002:0009a0c0       ?value@?$TypedAttribute@VKeyCode@Imf@@@Imf@@QBEABVKeyCode@2@XZ 1010a0c0 f i ImfStandardAttributes.obj
 0002:0009a100       ?value@?$TypedAttribute@VKeyCode@Imf@@@Imf@@QAEAAVKeyCode@2@XZ 1010a100 f i ImfStandardAttributes.obj
 0002:0009a140       ??0?$TypedAttribute@VRational@Imf@@@Imf@@QAE@ABVRational@1@@Z 1010a140 f i ImfStandardAttributes.obj
 0002:0009a1c0       ?value@?$TypedAttribute@VRational@Imf@@@Imf@@QBEABVRational@2@XZ 1010a1c0 f i ImfStandardAttributes.obj
 0002:0009a200       ?value@?$TypedAttribute@VRational@Imf@@@Imf@@QAEAAVRational@2@XZ 1010a200 f i ImfStandardAttributes.obj
 0002:0009a240       ??0?$TypedAttribute@V?$vector@V?$basic_string@DU?$char_traits@D@std@@V?$allocator@D@2@@std@@V?$allocator@V?$basic_string@DU?$char_traits@D@std@@V?$allocator@D@2@@std@@@2@@std@@@Imf@@QAE@ABV?$vector@V?$basic_string@DU?$char_traits@D@std@@V?$allocator@D@2@@std@@V?$allocator@V?$basic_string@DU?$char_traits@D@std@@V?$allocator@D@2@@std@@@2@@std@@@Z 1010a240 f i ImfStandardAttributes.obj
 0002:0009a300       ?value@?$TypedAttribute@V?$vector@V?$basic_string@DU?$char_traits@D@std@@V?$allocator@D@2@@std@@V?$allocator@V?$basic_string@DU?$char_traits@D@std@@V?$allocator@D@2@@std@@@2@@std@@@Imf@@QBEABV?$vector@V?$basic_string@DU?$char_traits@D@std@@V?$allocator@D@2@@std@@V?$allocator@V?$basic_string@DU?$char_traits@D@std@@V?$allocator@D@2@@std@@@2@@std@@XZ 1010a300 f i ImfStandardAttributes.obj
 0002:0009a340       ?value@?$TypedAttribute@V?$vector@V?$basic_string@DU?$char_traits@D@std@@V?$allocator@D@2@@std@@V?$allocator@V?$basic_string@DU?$char_traits@D@std@@V?$allocator@D@2@@std@@@2@@std@@@Imf@@QAEAAV?$vector@V?$basic_string@DU?$char_traits@D@std@@V?$allocator@D@2@@std@@V?$allocator@V?$basic_string@DU?$char_traits@D@std@@V?$allocator@D@2@@std@@@2@@std@@XZ 1010a340 f i ImfStandardAttributes.obj
 0002:0009a380       ??0?$TypedAttribute@VTimeCode@Imf@@@Imf@@QAE@ABVTimeCode@1@@Z 1010a380 f i ImfStandardAttributes.obj
 0002:0009a440       ?value@?$TypedAttribute@VTimeCode@Imf@@@Imf@@QBEABVTimeCode@2@XZ 1010a440 f i ImfStandardAttributes.obj
 0002:0009a480       ?value@?$TypedAttribute@VTimeCode@Imf@@@Imf@@QAEAAVTimeCode@2@XZ 1010a480 f i ImfStandardAttributes.obj
 0002:0009a4c0       ??$findTypedAttribute@V?$TypedAttribute@UChromaticities@Imf@@@Imf@@@Header@Imf@@QBEPBV?$TypedAttribute@UChromaticities@Imf@@@1@QBD@Z 1010a4c0 f i ImfStandardAttributes.obj
 0002:0009a680       ??$typedAttribute@V?$TypedAttribute@UChromaticities@Imf@@@Imf@@@Header@Imf@@QBEABV?$TypedAttribute@UChromaticities@Imf@@@1@QBD@Z 1010a680 f i ImfStandardAttributes.obj
 0002:0009a750       ??$typedAttribute@V?$TypedAttribute@UChromaticities@Imf@@@Imf@@@Header@Imf@@QAEAAV?$TypedAttribute@UChromaticities@Imf@@@1@QBD@Z 1010a750 f i ImfStandardAttributes.obj
 0002:0009a820       ??$findTypedAttribute@V?$TypedAttribute@M@Imf@@@Header@Imf@@QBEPBV?$TypedAttribute@M@1@QBD@Z 1010a820 f i ImfStandardAttributes.obj
 0002:0009a9e0       ??$findTypedAttribute@V?$TypedAttribute@V?$Vec2@M@Imath@@@Imf@@@Header@Imf@@QBEPBV?$TypedAttribute@V?$Vec2@M@Imath@@@1@QBD@Z 1010a9e0 f i ImfStandardAttributes.obj
 0002:0009aba0       ??$findTypedAttribute@V?$TypedAttribute@V?$basic_string@DU?$char_traits@D@std@@V?$allocator@D@2@@std@@@Imf@@@Header@Imf@@QBEPBV?$TypedAttribute@V?$basic_string@DU?$char_traits@D@std@@V?$allocator@D@2@@std@@@1@QBD@Z 1010aba0 f i ImfStandardAttributes.obj
 0002:0009ad60       ??$findTypedAttribute@V?$TypedAttribute@W4Envmap@Imf@@@Imf@@@Header@Imf@@QBEPBV?$TypedAttribute@W4Envmap@Imf@@@1@QBD@Z 1010ad60 f i ImfStandardAttributes.obj
 0002:0009af20       ??$typedAttribute@V?$TypedAttribute@W4Envmap@Imf@@@Imf@@@Header@Imf@@QBEABV?$TypedAttribute@W4Envmap@Imf@@@1@QBD@Z 1010af20 f i ImfStandardAttributes.obj
 0002:0009aff0       ??$typedAttribute@V?$TypedAttribute@W4Envmap@Imf@@@Imf@@@Header@Imf@@QAEAAV?$TypedAttribute@W4Envmap@Imf@@@1@QBD@Z 1010aff0 f i ImfStandardAttributes.obj
 0002:0009b0c0       ??$findTypedAttribute@V?$TypedAttribute@VKeyCode@Imf@@@Imf@@@Header@Imf@@QBEPBV?$TypedAttribute@VKeyCode@Imf@@@1@QBD@Z 1010b0c0 f i ImfStandardAttributes.obj
 0002:0009b280       ??$typedAttribute@V?$TypedAttribute@VKeyCode@Imf@@@Imf@@@Header@Imf@@QBEABV?$TypedAttribute@VKeyCode@Imf@@@1@QBD@Z 1010b280 f i ImfStandardAttributes.obj
 0002:0009b350       ??$typedAttribute@V?$TypedAttribute@VKeyCode@Imf@@@Imf@@@Header@Imf@@QAEAAV?$TypedAttribute@VKeyCode@Imf@@@1@QBD@Z 1010b350 f i ImfStandardAttributes.obj
 0002:0009b420       ??$findTypedAttribute@V?$TypedAttribute@VTimeCode@Imf@@@Imf@@@Header@Imf@@QBEPBV?$TypedAttribute@VTimeCode@Imf@@@1@QBD@Z 1010b420 f i ImfStandardAttributes.obj
 0002:0009b5e0       ??$typedAttribute@V?$TypedAttribute@VTimeCode@Imf@@@Imf@@@Header@Imf@@QBEABV?$TypedAttribute@VTimeCode@Imf@@@1@QBD@Z 1010b5e0 f i ImfStandardAttributes.obj
 0002:0009b6b0       ??$typedAttribute@V?$TypedAttribute@VTimeCode@Imf@@@Imf@@@Header@Imf@@QAEAAV?$TypedAttribute@VTimeCode@Imf@@@1@QBD@Z 1010b6b0 f i ImfStandardAttributes.obj
 0002:0009b780       ??$findTypedAttribute@V?$TypedAttribute@VRational@Imf@@@Imf@@@Header@Imf@@QBEPBV?$TypedAttribute@VRational@Imf@@@1@QBD@Z 1010b780 f i ImfStandardAttributes.obj
 0002:0009b940       ??$typedAttribute@V?$TypedAttribute@VRational@Imf@@@Imf@@@Header@Imf@@QBEABV?$TypedAttribute@VRational@Imf@@@1@QBD@Z 1010b940 f i ImfStandardAttributes.obj
 0002:0009ba10       ??$typedAttribute@V?$TypedAttribute@VRational@Imf@@@Imf@@@Header@Imf@@QAEAAV?$TypedAttribute@VRational@Imf@@@1@QBD@Z 1010ba10 f i ImfStandardAttributes.obj
 0002:0009bae0       ??$findTypedAttribute@V?$TypedAttribute@V?$vector@V?$basic_string@DU?$char_traits@D@std@@V?$allocator@D@2@@std@@V?$allocator@V?$basic_string@DU?$char_traits@D@std@@V?$allocator@D@2@@std@@@2@@std@@@Imf@@@Header@Imf@@QBEPBV?$TypedAttribute@V?$vector@V?$basic_string@DU?$char_traits@D@std@@V?$allocator@D@2@@std@@V?$allocator@V?$basic_string@DU?$char_traits@D@std@@V?$allocator@D@2@@std@@@2@@std@@@1@QBD@Z 1010bae0 f i ImfStandardAttributes.obj
 0002:0009bca0       ??$typedAttribute@V?$TypedAttribute@V?$vector@V?$basic_string@DU?$char_traits@D@std@@V?$allocator@D@2@@std@@V?$allocator@V?$basic_string@DU?$char_traits@D@std@@V?$allocator@D@2@@std@@@2@@std@@@Imf@@@Header@Imf@@QBEABV?$TypedAttribute@V?$vector@V?$basic_string@DU?$char_traits@D@std@@V?$allocator@D@2@@std@@V?$allocator@V?$basic_string@DU?$char_traits@D@std@@V?$allocator@D@2@@std@@@2@@std@@@1@QBD@Z 1010bca0 f i ImfStandardAttributes.obj
 0002:0009bd70       ??$typedAttribute@V?$TypedAttribute@V?$vector@V?$basic_string@DU?$char_traits@D@std@@V?$allocator@D@2@@std@@V?$allocator@V?$basic_string@DU?$char_traits@D@std@@V?$allocator@D@2@@std@@@2@@std@@@Imf@@@Header@Imf@@QAEAAV?$TypedAttribute@V?$vector@V?$basic_string@DU?$char_traits@D@std@@V?$allocator@D@2@@std@@V?$allocator@V?$basic_string@DU?$char_traits@D@std@@V?$allocator@D@2@@std@@@2@@std@@@1@QBD@Z 1010bd70 f i ImfStandardAttributes.obj
 0002:0009be40       ??$findTypedAttribute@V?$TypedAttribute@V?$Matrix44@M@Imath@@@Imf@@@Header@Imf@@QBEPBV?$TypedAttribute@V?$Matrix44@M@Imath@@@1@QBD@Z 1010be40 f i ImfStandardAttributes.obj
 0002:0009c000       ??0?$vector@V?$basic_string@DU?$char_traits@D@std@@V?$allocator@D@2@@std@@V?$allocator@V?$basic_string@DU?$char_traits@D@std@@V?$allocator@D@2@@std@@@2@@std@@QAE@ABV01@@Z 1010c000 f i ImfStandardAttributes.obj
 0002:0009c1a0       ?begin@?$vector@V?$basic_string@DU?$char_traits@D@std@@V?$allocator@D@2@@std@@V?$allocator@V?$basic_string@DU?$char_traits@D@std@@V?$allocator@D@2@@std@@@2@@std@@QBE?AV?$_Vector_const_iterator@V?$_Vector_val@V?$basic_string@DU?$char_traits@D@std@@V?$allocator@D@2@@std@@V?$allocator@V?$basic_string@DU?$char_traits@D@std@@V?$allocator@D@2@@std@@@2@@std@@@2@XZ 1010c1a0 f i ImfStandardAttributes.obj
 0002:0009c230       ?end@?$vector@V?$basic_string@DU?$char_traits@D@std@@V?$allocator@D@2@@std@@V?$allocator@V?$basic_string@DU?$char_traits@D@std@@V?$allocator@D@2@@std@@@2@@std@@QBE?AV?$_Vector_const_iterator@V?$_Vector_val@V?$basic_string@DU?$char_traits@D@std@@V?$allocator@D@2@@std@@V?$allocator@V?$basic_string@DU?$char_traits@D@std@@V?$allocator@D@2@@std@@@2@@std@@@2@XZ 1010c230 f i ImfStandardAttributes.obj
 0002:0009c2c0       ??$_Ucopy@V?$_Vector_const_iterator@V?$_Vector_val@V?$basic_string@DU?$char_traits@D@std@@V?$allocator@D@2@@std@@V?$allocator@V?$basic_string@DU?$char_traits@D@std@@V?$allocator@D@2@@std@@@2@@std@@@std@@@?$vector@V?$basic_string@DU?$char_traits@D@std@@V?$allocator@D@2@@std@@V?$allocator@V?$basic_string@DU?$char_traits@D@std@@V?$allocator@D@2@@std@@@2@@std@@IAEPAV?$basic_string@DU?$char_traits@D@std@@V?$allocator@D@2@@1@V?$_Vector_const_iterator@V?$_Vector_val@V?$basic_string@DU?$char_traits@D@std@@V?$allocator@D@2@@std@@V?$allocator@V?$basic_string@DU?$char_traits@D@std@@V?$allocator@D@2@@std@@@2@@std@@@1@0PAV21@@Z 1010c2c0 f i ImfStandardAttributes.obj
 0002:0009c400       ??$_Uninitialized_copy@V?$_Vector_const_iterator@V?$_Vector_val@V?$basic_string@DU?$char_traits@D@std@@V?$allocator@D@2@@std@@V?$allocator@V?$basic_string@DU?$char_traits@D@std@@V?$allocator@D@2@@std@@@2@@std@@@std@@PAV?$basic_string@DU?$char_traits@D@std@@V?$allocator@D@2@@2@V?$allocator@V?$basic_string@DU?$char_traits@D@std@@V?$allocator@D@2@@std@@@2@@std@@YAPAV?$basic_string@DU?$char_traits@D@std@@V?$allocator@D@2@@0@V?$_Vector_const_iterator@V?$_Vector_val@V?$basic_string@DU?$char_traits@D@std@@V?$allocator@D@2@@std@@V?$allocator@V?$basic_string@DU?$char_traits@D@std@@V?$allocator@D@2@@std@@@2@@std@@@0@0PAV10@AAV?$allocator@V?$basic_string@DU?$char_traits@D@std@@V?$allocator@D@2@@std@@@0@@Z 1010c400 f i ImfStandardAttributes.obj
 0002:0009c550       ??$_Ptr_cat@V?$_Vector_const_iterator@V?$_Vector_val@V?$basic_string@DU?$char_traits@D@std@@V?$allocator@D@2@@std@@V?$allocator@V?$basic_string@DU?$char_traits@D@std@@V?$allocator@D@2@@std@@@2@@std@@@std@@PAV?$basic_string@DU?$char_traits@D@std@@V?$allocator@D@2@@2@@std@@YA?AU_Nonscalar_ptr_iterator_tag@0@AAV?$_Vector_const_iterator@V?$_Vector_val@V?$basic_string@DU?$char_traits@D@std@@V?$allocator@D@2@@std@@V?$allocator@V?$basic_string@DU?$char_traits@D@std@@V?$allocator@D@2@@std@@@2@@std@@@0@AAPAV?$basic_string@DU?$char_traits@D@std@@V?$allocator@D@2@@0@@Z 1010c550 f i ImfStandardAttributes.obj
 0002:0009c5c0       ??$_Uninit_copy@V?$_Vector_const_iterator@V?$_Vector_val@V?$basic_string@DU?$char_traits@D@std@@V?$allocator@D@2@@std@@V?$allocator@V?$basic_string@DU?$char_traits@D@std@@V?$allocator@D@2@@std@@@2@@std@@@std@@PAV?$basic_string@DU?$char_traits@D@std@@V?$allocator@D@2@@2@V?$allocator@V?$basic_string@DU?$char_traits@D@std@@V?$allocator@D@2@@std@@@2@@std@@YAPAV?$basic_string@DU?$char_traits@D@std@@V?$allocator@D@2@@0@V?$_Vector_const_iterator@V?$_Vector_val@V?$basic_string@DU?$char_traits@D@std@@V?$allocator@D@2@@std@@V?$allocator@V?$basic_string@DU?$char_traits@D@std@@V?$allocator@D@2@@std@@@2@@std@@@0@0PAV10@AAV?$allocator@V?$basic_string@DU?$char_traits@D@std@@V?$allocator@D@2@@std@@@0@U_Nonscalar_ptr_iterator_tag@0@@Z 1010c5c0 f i ImfStandardAttributes.obj
 0002:0009c7d0       ??$_Debug_range@V?$_Vector_const_iterator@V?$_Vector_val@V?$basic_string@DU?$char_traits@D@std@@V?$allocator@D@2@@std@@V?$allocator@V?$basic_string@DU?$char_traits@D@std@@V?$allocator@D@2@@std@@@2@@std@@@std@@@std@@YAXV?$_Vector_const_iterator@V?$_Vector_val@V?$basic_string@DU?$char_traits@D@std@@V?$allocator@D@2@@std@@V?$allocator@V?$basic_string@DU?$char_traits@D@std@@V?$allocator@D@2@@std@@@2@@std@@@0@0PB_WI@Z 1010c7d0 f i ImfStandardAttributes.obj
 0002:0009c900       ??$_Iter_cat@V?$_Vector_const_iterator@V?$_Vector_val@V?$basic_string@DU?$char_traits@D@std@@V?$allocator@D@2@@std@@V?$allocator@V?$basic_string@DU?$char_traits@D@std@@V?$allocator@D@2@@std@@@2@@std@@@std@@@std@@YA?AUrandom_access_iterator_tag@0@ABV?$_Vector_const_iterator@V?$_Vector_val@V?$basic_string@DU?$char_traits@D@std@@V?$allocator@D@2@@std@@V?$allocator@V?$basic_string@DU?$char_traits@D@std@@V?$allocator@D@2@@std@@@2@@std@@@0@@Z 1010c900 f i ImfStandardAttributes.obj
 0002:0009c980       ??$_Debug_range2@V?$_Vector_const_iterator@V?$_Vector_val@V?$basic_string@DU?$char_traits@D@std@@V?$allocator@D@2@@std@@V?$allocator@V?$basic_string@DU?$char_traits@D@std@@V?$allocator@D@2@@std@@@2@@std@@@std@@@std@@YAXV?$_Vector_const_iterator@V?$_Vector_val@V?$basic_string@DU?$char_traits@D@std@@V?$allocator@D@2@@std@@V?$allocator@V?$basic_string@DU?$char_traits@D@std@@V?$allocator@D@2@@std@@@2@@std@@@0@0PB_WIUrandom_access_iterator_tag@0@@Z 1010c980 f i ImfStandardAttributes.obj
 0002:0009cab0       ??$_Debug_pointer@V?$_Vector_const_iterator@V?$_Vector_val@V?$basic_string@DU?$char_traits@D@std@@V?$allocator@D@2@@std@@V?$allocator@V?$basic_string@DU?$char_traits@D@std@@V?$allocator@D@2@@std@@@2@@std@@@std@@@std@@YAXAAV?$_Vector_const_iterator@V?$_Vector_val@V?$basic_string@DU?$char_traits@D@std@@V?$allocator@D@2@@std@@V?$allocator@V?$basic_string@DU?$char_traits@D@std@@V?$allocator@D@2@@std@@@2@@std@@@0@PB_WI@Z 1010cab0 f i ImfStandardAttributes.obj
 0002:0009cae0       ?clearError@?A0xb3db3203@Imf@@YAXXZ 1010cae0 f   ImfStdIO.obj
 0002:0009cb40       ?checkError@?A0xb3db3203@Imf@@YA_NAAV?$basic_istream@DU?$char_traits@D@std@@@std@@_J@Z 1010cb40 f   ImfStdIO.obj
 0002:0009ce00       ?checkError@?A0xb3db3203@Imf@@YAXAAV?$basic_ostream@DU?$char_traits@D@std@@@std@@@Z 1010ce00 f   ImfStdIO.obj
 0002:0009cf40       ??0ErrnoExc@Iex@@QAE@PBD@Z 1010cf40 f i ImfStdIO.obj
 0002:0009cfb0       ??_EErrnoExc@Iex@@UAEPAXI@Z 1010cfb0 f i ImfStdIO.obj
 0002:0009cfb0       ??_GErrnoExc@Iex@@UAEPAXI@Z 1010cfb0 f i ImfStdIO.obj
 0002:0009d020       ??1ErrnoExc@Iex@@UAE@XZ    1010d020 f i ImfStdIO.obj
 0002:0009d070       ??0ErrnoExc@Iex@@QAE@ABV01@@Z 1010d070 f i ImfStdIO.obj
 0002:0009d0e0       ??0StdIFStream@Imf@@QAE@QBD@Z 1010d0e0 f   ImfStdIO.obj
 0002:0009d360       ??_GStdIFStream@Imf@@UAEPAXI@Z 1010d360 f i ImfStdIO.obj
 0002:0009d360       ??_EStdIFStream@Imf@@UAEPAXI@Z 1010d360 f i ImfStdIO.obj
 0002:0009d3d0       ??0StdIFStream@Imf@@QAE@AAV?$basic_ifstream@DU?$char_traits@D@std@@@std@@QBD@Z 1010d3d0 f   ImfStdIO.obj
 0002:0009d450       ??1StdIFStream@Imf@@UAE@XZ 1010d450 f   ImfStdIO.obj
 0002:0009d590       ?read@StdIFStream@Imf@@UAE_NQADH@Z 1010d590 f   ImfStdIO.obj
 0002:0009d6a0       ?tellg@StdIFStream@Imf@@UAE_KXZ 1010d6a0 f   ImfStdIO.obj
 0002:0009d710       ?seekg@StdIFStream@Imf@@UAEX_K@Z 1010d710 f   ImfStdIO.obj
 0002:0009d7a0       ?clear@StdIFStream@Imf@@UAEXXZ 1010d7a0 f   ImfStdIO.obj
 0002:0009d820       ??0StdOFStream@Imf@@QAE@QBD@Z 1010d820 f   ImfStdIO.obj
 0002:0009daa0       ??_GStdOFStream@Imf@@UAEPAXI@Z 1010daa0 f i ImfStdIO.obj
 0002:0009daa0       ??_EStdOFStream@Imf@@UAEPAXI@Z 1010daa0 f i ImfStdIO.obj
 0002:0009db10       ??0StdOFStream@Imf@@QAE@AAV?$basic_ofstream@DU?$char_traits@D@std@@@std@@QBD@Z 1010db10 f   ImfStdIO.obj
 0002:0009db90       ??1StdOFStream@Imf@@UAE@XZ 1010db90 f   ImfStdIO.obj
 0002:0009dcd0       ?write@StdOFStream@Imf@@UAEXQBDH@Z 1010dcd0 f   ImfStdIO.obj
 0002:0009dd60       ?tellp@StdOFStream@Imf@@UAE_KXZ 1010dd60 f   ImfStdIO.obj
 0002:0009ddd0       ?seekp@StdOFStream@Imf@@UAEX_K@Z 1010ddd0 f   ImfStdIO.obj
 0002:0009de50       ??0StdOSStream@Imf@@QAE@XZ 1010de50 f   ImfStdIO.obj
 0002:0009df10       ??_GStdOSStream@Imf@@UAEPAXI@Z 1010df10 f i ImfStdIO.obj
 0002:0009df10       ??_EStdOSStream@Imf@@UAEPAXI@Z 1010df10 f i ImfStdIO.obj
 0002:0009df80       ?write@StdOSStream@Imf@@UAEXQBDH@Z 1010df80 f   ImfStdIO.obj
 0002:0009e010       ?tellp@StdOSStream@Imf@@UAE_KXZ 1010e010 f   ImfStdIO.obj
 0002:0009e080       ?seekp@StdOSStream@Imf@@UAEX_K@Z 1010e080 f   ImfStdIO.obj
 0002:0009e100       ??0?$basic_ostringstream@DU?$char_traits@D@std@@V?$allocator@D@2@@std@@QAE@H@Z 1010e100 f i ImfStdIO.obj
 0002:0009e240       ??0?$basic_ifstream@DU?$char_traits@D@std@@@std@@QAE@PBDHH@Z 1010e240 f i ImfStdIO.obj
 0002:0009e3d0       ??1?$basic_filebuf@DU?$char_traits@D@std@@@std@@UAE@XZ 1010e3d0 f i ImfStdIO.obj
 0002:0009e4b0       ?_Lock@?$basic_filebuf@DU?$char_traits@D@std@@@std@@UAEXXZ 1010e4b0 f i ImfStdIO.obj
 0002:0009e520       ?_Unlock@?$basic_filebuf@DU?$char_traits@D@std@@@std@@UAEXXZ 1010e520 f i ImfStdIO.obj
 0002:0009e590       ?overflow@?$basic_filebuf@DU?$char_traits@D@std@@@std@@MAEHH@Z 1010e590 f i ImfStdIO.obj
 0002:0009ec20       ??$_Fputc@D@std@@YA_NDPAU_iobuf@@@Z 1010ec20 f i ImfStdIO.obj
 0002:0009ec90       ?pbackfail@?$basic_filebuf@DU?$char_traits@D@std@@@std@@MAEHH@Z 1010ec90 f i ImfStdIO.obj
 0002:0009eed0       ??$_Ungetc@D@std@@YA_NABDPAU_iobuf@@@Z 1010eed0 f i ImfStdIO.obj
 0002:0009ef40       ?underflow@?$basic_filebuf@DU?$char_traits@D@std@@@std@@MAEHXZ 1010ef40 f i ImfStdIO.obj
 0002:0009f0b0       ?uflow@?$basic_filebuf@DU?$char_traits@D@std@@@std@@MAEHXZ 1010f0b0 f i ImfStdIO.obj
 0002:0009f6e0       ??$_Fgetc@D@std@@YA_NAADPAU_iobuf@@@Z 1010f6e0 f i ImfStdIO.obj
 0002:0009f760       ?seekoff@?$basic_filebuf@DU?$char_traits@D@std@@@std@@MAE?AV?$fpos@H@2@_JHH@Z 1010f760 f i ImfStdIO.obj
 0002:0009f910       ?seekpos@?$basic_filebuf@DU?$char_traits@D@std@@@std@@MAE?AV?$fpos@H@2@V32@H@Z 1010f910 f i ImfStdIO.obj
 0002:0009fae0       ?setbuf@?$basic_filebuf@DU?$char_traits@D@std@@@std@@MAEPAV?$basic_streambuf@DU?$char_traits@D@std@@@2@PAD_J@Z 1010fae0 f i ImfStdIO.obj
 0002:0009fbc0       ?sync@?$basic_filebuf@DU?$char_traits@D@std@@@std@@MAEHXZ 1010fbc0 f i ImfStdIO.obj
 0002:0009fcc0       ?imbue@?$basic_filebuf@DU?$char_traits@D@std@@@std@@MAEXABVlocale@2@@Z 1010fcc0 f i ImfStdIO.obj
 0002:0009fd30       ??0?$basic_ofstream@DU?$char_traits@D@std@@@std@@QAE@PBDHH@Z 1010fd30 f i ImfStdIO.obj
 0002:0009fec0       ??1?$_String_iterator@DU?$char_traits@D@std@@V?$allocator@D@2@@std@@QAE@XZ 1010fec0 f i ImfStdIO.obj
 0002:0009ff10       ??1?$_String_const_iterator@DU?$char_traits@D@std@@V?$allocator@D@2@@std@@QAE@XZ 1010ff10 f i ImfStdIO.obj
 0002:0009ff60       ??_E?$basic_ifstream@DU?$char_traits@D@std@@@std@@UAEPAXI@Z 1010ff60 f i ImfStdIO.obj
 0002:0009ff60       ??_G?$basic_ifstream@DU?$char_traits@D@std@@@std@@UAEPAXI@Z 1010ff60 f i ImfStdIO.obj
 0002:0009ffe0       ??_E?$basic_filebuf@DU?$char_traits@D@std@@@std@@UAEPAXI@Z 1010ffe0 f i ImfStdIO.obj
 0002:0009ffe0       ??_G?$basic_filebuf@DU?$char_traits@D@std@@@std@@UAEPAXI@Z 1010ffe0 f i ImfStdIO.obj
 0002:000a0050       ??_E?$basic_ofstream@DU?$char_traits@D@std@@@std@@UAEPAXI@Z 10110050 f i ImfStdIO.obj
 0002:000a0050       ??_G?$basic_ofstream@DU?$char_traits@D@std@@@std@@UAEPAXI@Z 10110050 f i ImfStdIO.obj
 0002:000a00d0       ??1?$_Iterator012@Urandom_access_iterator_tag@std@@DHPBDABDU_Iterator_base12@2@@std@@QAE@XZ 101100d0 f i ImfStdIO.obj
 0002:000a0120       ??_D?$basic_ifstream@DU?$char_traits@D@std@@@std@@QAEXXZ 10110120 f i ImfStdIO.obj
 0002:000a0190       ??1?$basic_ifstream@DU?$char_traits@D@std@@@std@@UAE@XZ 10110190 f i ImfStdIO.obj
 0002:000a0260       ??_D?$basic_ofstream@DU?$char_traits@D@std@@@std@@QAEXXZ 10110260 f i ImfStdIO.obj
 0002:000a02d0       ??1?$basic_ofstream@DU?$char_traits@D@std@@@std@@UAE@XZ 101102d0 f i ImfStdIO.obj
 0002:000a03a0       ??0?$basic_string@DU?$char_traits@D@std@@V?$allocator@D@2@@std@@QAE@ID@Z 101103a0 f i ImfStdIO.obj
 0002:000a0470       ?begin@?$basic_string@DU?$char_traits@D@std@@V?$allocator@D@2@@std@@QAE?AV?$_String_iterator@DU?$char_traits@D@std@@V?$allocator@D@2@@2@XZ 10110470 f i ImfStdIO.obj
 0002:000a0500       ??0?$basic_filebuf@DU?$char_traits@D@std@@@std@@QAE@PAU_iobuf@@@Z 10110500 f i ImfStdIO.obj
 0002:000a05d0       ?open@?$basic_filebuf@DU?$char_traits@D@std@@@std@@QAEPAV12@PBDHH@Z 101105d0 f i ImfStdIO.obj
 0002:000a0720       ??1locale@std@@QAE@XZ      10110720 f i ImfStdIO.obj
 0002:000a07a0       ?close@?$basic_filebuf@DU?$char_traits@D@std@@@std@@QAEPAV12@XZ 101107a0 f i ImfStdIO.obj
 0002:000a0860       ?_Init@?$basic_filebuf@DU?$char_traits@D@std@@@std@@IAEXPAU_iobuf@@W4_Initfl@12@@Z 10110860 f i ImfStdIO.obj
 0002:000a0970       ?_Endwrite@?$basic_filebuf@DU?$char_traits@D@std@@@std@@IAE_NXZ 10110970 f i ImfStdIO.obj
 0002:000a0e50       ?_Initcvt@?$basic_filebuf@DU?$char_traits@D@std@@@std@@IAEXPBV?$codecvt@DDH@2@@Z 10110e50 f i ImfStdIO.obj
 0002:000a0ef0       ?_Reset_back@?$basic_filebuf@DU?$char_traits@D@std@@@std@@AAEXXZ 10110ef0 f i ImfStdIO.obj
 0002:000a0f90       ?_Set_back@?$basic_filebuf@DU?$char_traits@D@std@@@std@@AAEXXZ 10110f90 f i ImfStdIO.obj
 0002:000a1070       ??0?$fpos@H@std@@QAE@H_J@Z 10111070 f i ImfStdIO.obj
 0002:000a10e0       ?state@?$fpos@H@std@@QBEHXZ 101110e0 f i ImfStdIO.obj
 0002:000a1120       ?seekpos@?$fpos@H@std@@QBE_JXZ 10111120 f i ImfStdIO.obj
 0002:000a1160       ??D?$_String_iterator@DU?$char_traits@D@std@@V?$allocator@D@2@@std@@QBEAADXZ 10111160 f i ImfStdIO.obj
 0002:000a11b0       ?assign@?$basic_string@DU?$char_traits@D@std@@V?$allocator@D@2@@std@@QAEAAV12@ID@Z 101111b0 f i ImfStdIO.obj
 0002:000a1260       ??D?$_String_const_iterator@DU?$char_traits@D@std@@V?$allocator@D@2@@std@@QBEABDXZ 10111260 f i ImfStdIO.obj
 0002:000a13b0       ??0?$_String_iterator@DU?$char_traits@D@std@@V?$allocator@D@2@@std@@QAE@PADPBU_Container_base12@1@@Z 101113b0 f i ImfStdIO.obj
 0002:000a1410       ??0?$_String_const_iterator@DU?$char_traits@D@std@@V?$allocator@D@2@@std@@QAE@PBDPBU_Container_base12@1@@Z 10111410 f i ImfStdIO.obj
 0002:000a14d0       ??0?$_Iterator012@Urandom_access_iterator_tag@std@@DHPBDABDU_Iterator_base12@2@@std@@QAE@XZ 101114d0 f i ImfStdIO.obj
 0002:000a1530       ??$_DebugHeapDelete@Vfacet@locale@std@@@std@@YAXPAVfacet@locale@0@@Z 10111530 f i ImfStdIO.obj
 0002:000a15b0       ??$use_facet@V?$codecvt@DDH@std@@@std@@YAABV?$codecvt@DDH@0@ABVlocale@0@@Z 101115b0 f i ImfStdIO.obj
 0002:000a17c0       ?_Register@facet@locale@std@@QAEXXZ 101117c0 f i ImfStdIO.obj
 0002:000a1820       ?_Getfacet@locale@std@@QBEPBVfacet@12@I@Z 10111820 f i ImfStdIO.obj
 0002:000a1920       ?staticTypeName@?$TypedAttribute@V?$basic_string@DU?$char_traits@D@std@@V?$allocator@D@2@@std@@@Imf@@SAPBDXZ 10111920 f   ImfStringAttribute.obj
 0002:000a1960       ?writeValueTo@?$TypedAttribute@V?$basic_string@DU?$char_traits@D@std@@V?$allocator@D@2@@std@@@Imf@@UBEXAAVOStream@2@H@Z 10111960 f   ImfStringAttribute.obj
 0002:000a1a10       ?readValueFrom@?$TypedAttribute@V?$basic_string@DU?$char_traits@D@std@@V?$allocator@D@2@@std@@@Imf@@UAEXAAVIStream@2@HH@Z 10111a10 f   ImfStringAttribute.obj
 0002:000a1ab0       ??A?$basic_string@DU?$char_traits@D@std@@V?$allocator@D@2@@std@@QBEABDI@Z 10111ab0 f i ImfStringAttribute.obj
 0002:000a1b40       ?resize@?$basic_string@DU?$char_traits@D@std@@V?$allocator@D@2@@std@@QAEXI@Z 10111b40 f i ImfStringAttribute.obj
 0002:000a1ba0       ?resize@?$basic_string@DU?$char_traits@D@std@@V?$allocator@D@2@@std@@QAEXID@Z 10111ba0 f i ImfStringAttribute.obj
 0002:000a1c30       ??$write@UStreamIO@Imf@@VOStream@2@@Xdr@Imf@@YAXAAVOStream@1@D@Z 10111c30 f i ImfStringAttribute.obj
 0002:000a1c90       ??$read@UStreamIO@Imf@@VIStream@2@@Xdr@Imf@@YAXAAVIStream@1@AAD@Z 10111c90 f i ImfStringAttribute.obj
 0002:000a1cf0       ?staticTypeName@?$TypedAttribute@V?$vector@V?$basic_string@DU?$char_traits@D@std@@V?$allocator@D@2@@std@@V?$allocator@V?$basic_string@DU?$char_traits@D@std@@V?$allocator@D@2@@std@@@2@@std@@@Imf@@SAPBDXZ 10111cf0 f   ImfStringVectorAttribute.obj
 0002:000a1d30       ?writeValueTo@?$TypedAttribute@V?$vector@V?$basic_string@DU?$char_traits@D@std@@V?$allocator@D@2@@std@@V?$allocator@V?$basic_string@DU?$char_traits@D@std@@V?$allocator@D@2@@std@@@2@@std@@@Imf@@UBEXAAVOStream@2@H@Z 10111d30 f   ImfStringVectorAttribute.obj
 0002:000a1e20       ?readValueFrom@?$TypedAttribute@V?$vector@V?$basic_string@DU?$char_traits@D@std@@V?$allocator@D@2@@std@@V?$allocator@V?$basic_string@DU?$char_traits@D@std@@V?$allocator@D@2@@std@@@2@@std@@@Imf@@UAEXAAVIStream@2@HH@Z 10111e20 f   ImfStringVectorAttribute.obj
 0002:000a1fb0       ?isOpenExrFile@Imf@@YA_NQBDAA_N@Z 10111fb0 f   ImfTestFile.obj
 0002:000a2180       ?isOpenExrFile@Imf@@YA_NQBD@Z 10112180 f   ImfTestFile.obj
 0002:000a2210       ?isTiledOpenExrFile@Imf@@YA_NQBD@Z 10112210 f   ImfTestFile.obj
 0002:000a22e0       ?isOpenExrFile@Imf@@YA_NAAVIStream@1@AA_N@Z 101122e0 f   ImfTestFile.obj
 0002:000a2500       ?isOpenExrFile@Imf@@YA_NAAVIStream@1@@Z 10112500 f   ImfTestFile.obj
 0002:000a2590       ?isTiledOpenExrFile@Imf@@YA_NAAVIStream@1@@Z 10112590 f   ImfTestFile.obj
 0002:000a2660       ??$read@UStreamIO@Imf@@VStdIFStream@2@@Xdr@Imf@@YAXAAVStdIFStream@1@AAH@Z 10112660 f i ImfTestFile.obj
 0002:000a2730       ??$readSignedChars@UStreamIO@Imf@@VStdIFStream@2@@Xdr@Imf@@YAXAAVStdIFStream@1@QACH@Z 10112730 f i ImfTestFile.obj
 0002:000a2790       ?globalThreadCount@Imf@@YAHXZ 10112790 f   ImfThreading.obj
 0002:000a27e0       ?setGlobalThreadCount@Imf@@YAXH@Z 101127e0 f   ImfThreading.obj
 0002:000a2840       ?staticTypeName@?$TypedAttribute@VTileDescription@Imf@@@Imf@@SAPBDXZ 10112840 f   ImfTileDescriptionAttribute.obj
 0002:000a2880       ?writeValueTo@?$TypedAttribute@VTileDescription@Imf@@@Imf@@UBEXAAVOStream@2@H@Z 10112880 f   ImfTileDescriptionAttribute.obj
 0002:000a2930       ?readValueFrom@?$TypedAttribute@VTileDescription@Imf@@@Imf@@UAEXAAVIStream@2@HH@Z 10112930 f   ImfTileDescriptionAttribute.obj
 0002:000a2a20       ??0TInSliceInfo@?A0xf6fcebb6@Imf@@QAE@W4PixelType@2@0PADII_N2NHH@Z 10112a20 f   ImfTiledInputFile.obj
 0002:000a2ad0       ??0TileBuffer@?A0xf6fcebb6@Imf@@QAE@QAVCompressor@2@@Z 10112ad0 f   ImfTiledInputFile.obj
 0002:000a2c00       ??1TileBuffer@?A0xf6fcebb6@Imf@@QAE@XZ 10112c00 f   ImfTiledInputFile.obj
 0002:000a2d10       ??0Data@TiledInputFile@Imf@@QAE@_NH@Z 10112d10 f   ImfTiledInputFile.obj
 0002:000a2f30       ??_GData@TiledInputFile@Imf@@UAEPAXI@Z 10112f30 f i ImfTiledInputFile.obj
 0002:000a2f30       ??_EData@TiledInputFile@Imf@@UAEPAXI@Z 10112f30 f i ImfTiledInputFile.obj
 0002:000a2fa0       ??1TileOffsets@Imf@@QAE@XZ 10112fa0 f i ImfTiledInputFile.obj
 0002:000a3000       ??1Data@TiledInputFile@Imf@@UAE@XZ 10113000 f   ImfTiledInputFile.obj
 0002:000a3260       ??_GTileBuffer@?A0xf6fcebb6@Imf@@QAEPAXI@Z 10113260 f i ImfTiledInputFile.obj
 0002:000a32d0       ?readTileData@?A0xf6fcebb6@Imf@@YAXPAUData@TiledInputFile@2@HHHHAAPADAAH@Z 101132d0 f   ImfTiledInputFile.obj
 0002:000a38a0       ?readNextTileData@?A0xf6fcebb6@Imf@@YAXPAUData@TiledInputFile@2@AAH111AAPAD1@Z 101138a0 f   ImfTiledInputFile.obj
 0002:000a3a30       ??0TileBufferTask@?A0xf6fcebb6@Imf@@QAE@PAVTaskGroup@IlmThread@@PAUData@TiledInputFile@2@PAUTileBuffer@12@@Z 10113a30 f   ImfTiledInputFile.obj
 0002:000a3ab0       ??_GTileBufferTask@?A0xf6fcebb6@Imf@@UAEPAXI@Z 10113ab0 f i ImfTiledInputFile.obj
 0002:000a3ab0       ??_ETileBufferTask@?A0xf6fcebb6@Imf@@UAEPAXI@Z 10113ab0 f i ImfTiledInputFile.obj
 0002:000a3b20       ??1TileBufferTask@?A0xf6fcebb6@Imf@@UAE@XZ 10113b20 f   ImfTiledInputFile.obj
 0002:000a3bd0       ?post@TileBuffer@?A0xf6fcebb6@Imf@@QAEXXZ 10113bd0 f i ImfTiledInputFile.obj
 0002:000a3c30       ?execute@TileBufferTask@?A0xf6fcebb6@Imf@@UAEXXZ 10113c30 f   ImfTiledInputFile.obj
 0002:000a41b0       ?newTileBufferTask@?A0xf6fcebb6@Imf@@YAPAVTileBufferTask@12@PAVTaskGroup@IlmThread@@PAUData@TiledInputFile@2@HHHHH@Z 101141b0 f   ImfTiledInputFile.obj
 0002:000a4370       ?wait@TileBuffer@?A0xf6fcebb6@Imf@@QAEXXZ 10114370 f i ImfTiledInputFile.obj
 0002:000a43d0       ?getTileBuffer@Data@TiledInputFile@Imf@@QAEPAUTileBuffer@?A0xf6fcebb6@3@H@Z 101143d0 f i ImfTiledInputFile.obj
 0002:000a4450       ??0TiledInputFile@Imf@@QAE@QBDH@Z 10114450 f   ImfTiledInputFile.obj
 0002:000a4870       ??_ETiledInputFile@Imf@@UAEPAXI@Z 10114870 f i ImfTiledInputFile.obj
 0002:000a4870       ??_GTiledInputFile@Imf@@UAEPAXI@Z 10114870 f i ImfTiledInputFile.obj
 0002:000a48e0       ??0TiledInputFile@Imf@@QAE@AAVIStream@1@H@Z 101148e0 f   ImfTiledInputFile.obj
 0002:000a4c90       ??0TiledInputFile@Imf@@AAE@ABVHeader@1@PAVIStream@1@HH@Z 10114c90 f   ImfTiledInputFile.obj
 0002:000a4de0       ?initialize@TiledInputFile@Imf@@AAEXXZ 10114de0 f   ImfTiledInputFile.obj
 0002:000a5320       ??4TileOffsets@Imf@@QAEAAV01@ABV01@@Z 10115320 f i ImfTiledInputFile.obj
 0002:000a53b0       ??1TiledInputFile@Imf@@UAE@XZ 101153b0 f   ImfTiledInputFile.obj
 0002:000a5510       ?fileName@TiledInputFile@Imf@@QBEPBDXZ 10115510 f   ImfTiledInputFile.obj
 0002:000a5570       ?header@TiledInputFile@Imf@@QBEABVHeader@2@XZ 10115570 f   ImfTiledInputFile.obj
 0002:000a55b0       ?version@TiledInputFile@Imf@@QBEHXZ 101155b0 f   ImfTiledInputFile.obj
 0002:000a55f0       ?setFrameBuffer@TiledInputFile@Imf@@QAEXABVFrameBuffer@2@@Z 101155f0 f   ImfTiledInputFile.obj
 0002:000a60b0       ?frameBuffer@TiledInputFile@Imf@@QBEABVFrameBuffer@2@XZ 101160b0 f   ImfTiledInputFile.obj
 0002:000a6170       ?isComplete@TiledInputFile@Imf@@QBE_NXZ 10116170 f   ImfTiledInputFile.obj
 0002:000a61c0       ?readTiles@TiledInputFile@Imf@@QAEXHHHHHH@Z 101161c0 f   ImfTiledInputFile.obj
 0002:000a6910       ?readTiles@TiledInputFile@Imf@@QAEXHHHHH@Z 10116910 f   ImfTiledInputFile.obj
 0002:000a6980       ?readTile@TiledInputFile@Imf@@QAEXHHHH@Z 10116980 f   ImfTiledInputFile.obj
 0002:000a69f0       ?readTile@TiledInputFile@Imf@@QAEXHHH@Z 101169f0 f   ImfTiledInputFile.obj
 0002:000a6a60       ?rawTileData@TiledInputFile@Imf@@QAEXAAH000AAPBD0@Z 10116a60 f   ImfTiledInputFile.obj
 0002:000a6d70       ?tileXSize@TiledInputFile@Imf@@QBEIXZ 10116d70 f   ImfTiledInputFile.obj
 0002:000a6db0       ?tileYSize@TiledInputFile@Imf@@QBEIXZ 10116db0 f   ImfTiledInputFile.obj
 0002:000a6df0       ?levelMode@TiledInputFile@Imf@@QBE?AW4LevelMode@2@XZ 10116df0 f   ImfTiledInputFile.obj
 0002:000a6e30       ?levelRoundingMode@TiledInputFile@Imf@@QBE?AW4LevelRoundingMode@2@XZ 10116e30 f   ImfTiledInputFile.obj
 0002:000a6e70       ?numLevels@TiledInputFile@Imf@@QBEHXZ 10116e70 f   ImfTiledInputFile.obj
 0002:000a7030       ?numXLevels@TiledInputFile@Imf@@QBEHXZ 10117030 f   ImfTiledInputFile.obj
 0002:000a7070       ?numYLevels@TiledInputFile@Imf@@QBEHXZ 10117070 f   ImfTiledInputFile.obj
 0002:000a70b0       ?isValidLevel@TiledInputFile@Imf@@QBE_NHH@Z 101170b0 f   ImfTiledInputFile.obj
 0002:000a7160       ?levelWidth@TiledInputFile@Imf@@QBEHH@Z 10117160 f   ImfTiledInputFile.obj
 0002:000a7390       ?levelHeight@TiledInputFile@Imf@@QBEHH@Z 10117390 f   ImfTiledInputFile.obj
 0002:000a75c0       ?numXTiles@TiledInputFile@Imf@@QBEHH@Z 101175c0 f   ImfTiledInputFile.obj
 0002:000a77a0       ?numYTiles@TiledInputFile@Imf@@QBEHH@Z 101177a0 f   ImfTiledInputFile.obj
 0002:000a7980       ?dataWindowForLevel@TiledInputFile@Imf@@QBE?AV?$Box@V?$Vec2@H@Imath@@@Imath@@H@Z 10117980 f   ImfTiledInputFile.obj
 0002:000a79f0       ?dataWindowForLevel@TiledInputFile@Imf@@QBE?AV?$Box@V?$Vec2@H@Imath@@@Imath@@HH@Z 101179f0 f   ImfTiledInputFile.obj
 0002:000a7c40       ?dataWindowForTile@TiledInputFile@Imf@@QBE?AV?$Box@V?$Vec2@H@Imath@@@Imath@@HHH@Z 10117c40 f   ImfTiledInputFile.obj
 0002:000a7cb0       ?dataWindowForTile@TiledInputFile@Imf@@QBE?AV?$Box@V?$Vec2@H@Imath@@@Imath@@HHHH@Z 10117cb0 f   ImfTiledInputFile.obj
 0002:000a7f70       ?isValidTile@TiledInputFile@Imf@@ABE_NHHHH@Z 10117f70 f   ImfTiledInputFile.obj
 0002:000a8040       ??1?$vector@V?$vector@V?$vector@_KV?$allocator@_K@std@@@std@@V?$allocator@V?$vector@_KV?$allocator@_K@std@@@std@@@2@@std@@V?$allocator@V?$vector@V?$vector@_KV?$allocator@_K@std@@@std@@V?$allocator@V?$vector@_KV?$allocator@_K@std@@@std@@@2@@std@@@2@@std@@QAE@XZ 10118040 f i ImfTiledInputFile.obj
 0002:000a80e0       ??4?$vector@V?$vector@V?$vector@_KV?$allocator@_K@std@@@std@@V?$allocator@V?$vector@_KV?$allocator@_K@std@@@std@@@2@@std@@V?$allocator@V?$vector@V?$vector@_KV?$allocator@_K@std@@@std@@V?$allocator@V?$vector@_KV?$allocator@_K@std@@@std@@@2@@std@@@2@@std@@QAEAAV01@ABV01@@Z 101180e0 f i ImfTiledInputFile.obj
 0002:000a8320       ??0?$vector@UTInSliceInfo@?A0xf6fcebb6@Imf@@V?$allocator@UTInSliceInfo@?A0xf6fcebb6@Imf@@@std@@@std@@QAE@XZ 10118320 f i ImfTiledInputFile.obj
 0002:000a8390       ?push_back@?$vector@UTInSliceInfo@?A0xf6fcebb6@Imf@@V?$allocator@UTInSliceInfo@?A0xf6fcebb6@Imf@@@std@@@std@@QAEX$$QAUTInSliceInfo@?A0xf6fcebb6@Imf@@@Z 10118390 f i ImfTiledInputFile.obj
 0002:000a8530       ??1?$vector@UTInSliceInfo@?A0xf6fcebb6@Imf@@V?$allocator@UTInSliceInfo@?A0xf6fcebb6@Imf@@@std@@@std@@QAE@XZ 10118530 f i ImfTiledInputFile.obj
 0002:000a85d0       ??4?$vector@UTInSliceInfo@?A0xf6fcebb6@Imf@@V?$allocator@UTInSliceInfo@?A0xf6fcebb6@Imf@@@std@@@std@@QAEAAV01@ABV01@@Z 101185d0 f i ImfTiledInputFile.obj
 0002:000a8810       ?size@?$vector@UTInSliceInfo@?A0xf6fcebb6@Imf@@V?$allocator@UTInSliceInfo@?A0xf6fcebb6@Imf@@@std@@@std@@QBEIXZ 10118810 f i ImfTiledInputFile.obj
 0002:000a8860       ??A?$vector@UTInSliceInfo@?A0xf6fcebb6@Imf@@V?$allocator@UTInSliceInfo@?A0xf6fcebb6@Imf@@@std@@@std@@QAEAAUTInSliceInfo@?A0xf6fcebb6@Imf@@I@Z 10118860 f i ImfTiledInputFile.obj
 0002:000a8970       ??0?$vector@PAUTileBuffer@?A0xf6fcebb6@Imf@@V?$allocator@PAUTileBuffer@?A0xf6fcebb6@Imf@@@std@@@std@@QAE@XZ 10118970 f i ImfTiledInputFile.obj
 0002:000a89e0       ??1?$vector@PAUTileBuffer@?A0xf6fcebb6@Imf@@V?$allocator@PAUTileBuffer@?A0xf6fcebb6@Imf@@@std@@@std@@QAE@XZ 101189e0 f i ImfTiledInputFile.obj
 0002:000a8a80       ?resize@?$vector@PAUTileBuffer@?A0xf6fcebb6@Imf@@V?$allocator@PAUTileBuffer@?A0xf6fcebb6@Imf@@@std@@@std@@QAEXI@Z 10118a80 f i ImfTiledInputFile.obj
 0002:000a8cf0       ?size@?$vector@PAUTileBuffer@?A0xf6fcebb6@Imf@@V?$allocator@PAUTileBuffer@?A0xf6fcebb6@Imf@@@std@@@std@@QBEIXZ 10118cf0 f i ImfTiledInputFile.obj
 0002:000a8d40       ??A?$vector@PAUTileBuffer@?A0xf6fcebb6@Imf@@V?$allocator@PAUTileBuffer@?A0xf6fcebb6@Imf@@@std@@@std@@QAEAAPAUTileBuffer@?A0xf6fcebb6@Imf@@I@Z 10118d40 f i ImfTiledInputFile.obj
 0002:000a8e50       ??1?$_Vector_iterator@V?$_Vector_val@PAUTileBuffer@?A0xf6fcebb6@Imf@@V?$allocator@PAUTileBuffer@?A0xf6fcebb6@Imf@@@std@@@std@@@std@@QAE@XZ 10118e50 f i ImfTiledInputFile.obj
 0002:000a8ea0       ??0?$_Vector_const_iterator@V?$_Vector_val@PAUTileBuffer@?A0xf6fcebb6@Imf@@V?$allocator@PAUTileBuffer@?A0xf6fcebb6@Imf@@@std@@@std@@@std@@QAE@ABV01@@Z 10118ea0 f i ImfTiledInputFile.obj
 0002:000a8f10       ??1?$_Vector_const_iterator@V?$_Vector_val@PAUTileBuffer@?A0xf6fcebb6@Imf@@V?$allocator@PAUTileBuffer@?A0xf6fcebb6@Imf@@@std@@@std@@@std@@QAE@XZ 10118f10 f i ImfTiledInputFile.obj
 0002:000a8f60       ??0?$_Iterator012@Urandom_access_iterator_tag@std@@PAUTileBuffer@?A0xf6fcebb6@Imf@@HPBQAU345@ABQAU345@U_Iterator_base12@2@@std@@QAE@ABU01@@Z 10118f60 f i ImfTiledInputFile.obj
 0002:000a8fc0       ??1?$_Iterator012@Urandom_access_iterator_tag@std@@PAUTileBuffer@?A0xf6fcebb6@Imf@@HPBQAU345@ABQAU345@U_Iterator_base12@2@@std@@QAE@XZ 10118fc0 f i ImfTiledInputFile.obj
 0002:000a9010       ?capacity@?$vector@V?$vector@V?$vector@_KV?$allocator@_K@std@@@std@@V?$allocator@V?$vector@_KV?$allocator@_K@std@@@std@@@2@@std@@V?$allocator@V?$vector@V?$vector@_KV?$allocator@_K@std@@@std@@V?$allocator@V?$vector@_KV?$allocator@_K@std@@@std@@@2@@std@@@2@@std@@QBEIXZ 10119010 f i ImfTiledInputFile.obj
 0002:000a9060       ?size@?$vector@V?$vector@V?$vector@_KV?$allocator@_K@std@@@std@@V?$allocator@V?$vector@_KV?$allocator@_K@std@@@std@@@2@@std@@V?$allocator@V?$vector@V?$vector@_KV?$allocator@_K@std@@@std@@V?$allocator@V?$vector@_KV?$allocator@_K@std@@@std@@@2@@std@@@2@@std@@QBEIXZ 10119060 f i ImfTiledInputFile.obj
 0002:000a90b0       ?clear@?$vector@V?$vector@V?$vector@_KV?$allocator@_K@std@@@std@@V?$allocator@V?$vector@_KV?$allocator@_K@std@@@std@@@2@@std@@V?$allocator@V?$vector@V?$vector@_KV?$allocator@_K@std@@@std@@V?$allocator@V?$vector@_KV?$allocator@_K@std@@@std@@@2@@std@@@2@@std@@QAEXXZ 101190b0 f i ImfTiledInputFile.obj
 0002:000a9240       ?_Buy@?$vector@V?$vector@V?$vector@_KV?$allocator@_K@std@@@std@@V?$allocator@V?$vector@_KV?$allocator@_K@std@@@std@@@2@@std@@V?$allocator@V?$vector@V?$vector@_KV?$allocator@_K@std@@@std@@V?$allocator@V?$vector@_KV?$allocator@_K@std@@@std@@@2@@std@@@2@@std@@IAE_NI@Z 10119240 f i ImfTiledInputFile.obj
 0002:000a9320       ?_Destroy@?$vector@V?$vector@V?$vector@_KV?$allocator@_K@std@@@std@@V?$allocator@V?$vector@_KV?$allocator@_K@std@@@std@@@2@@std@@V?$allocator@V?$vector@V?$vector@_KV?$allocator@_K@std@@@std@@V?$allocator@V?$vector@_KV?$allocator@_K@std@@@std@@@2@@std@@@2@@std@@IAEXPAV?$vector@V?$vector@_KV?$allocator@_K@std@@@std@@V?$allocator@V?$vector@_KV?$allocator@_K@std@@@std@@@2@@2@0@Z 10119320 f i ImfTiledInputFile.obj
 0002:000a9390       ?_Tidy@?$vector@V?$vector@V?$vector@_KV?$allocator@_K@std@@@std@@V?$allocator@V?$vector@_KV?$allocator@_K@std@@@std@@@2@@std@@V?$allocator@V?$vector@V?$vector@_KV?$allocator@_K@std@@@std@@V?$allocator@V?$vector@_KV?$allocator@_K@std@@@std@@@2@@std@@@2@@std@@IAEXXZ 10119390 f i ImfTiledInputFile.obj
 0002:000a9470       ??1?$_Vector_val@V?$vector@V?$vector@_KV?$allocator@_K@std@@@std@@V?$allocator@V?$vector@_KV?$allocator@_K@std@@@std@@@2@@std@@V?$allocator@V?$vector@V?$vector@_KV?$allocator@_K@std@@@std@@V?$allocator@V?$vector@_KV?$allocator@_K@std@@@std@@@2@@std@@@2@@std@@QAE@XZ 10119470 f i ImfTiledInputFile.obj
 0002:000a95b0       ?deallocate@?$allocator@V?$vector@V?$vector@_KV?$allocator@_K@std@@@std@@V?$allocator@V?$vector@_KV?$allocator@_K@std@@@std@@@2@@std@@@std@@QAEXPAV?$vector@V?$vector@_KV?$allocator@_K@std@@@std@@V?$allocator@V?$vector@_KV?$allocator@_K@std@@@std@@@2@@2@I@Z 101195b0 f i ImfTiledInputFile.obj
 0002:000a9610       ?capacity@?$vector@UTInSliceInfo@?A0xf6fcebb6@Imf@@V?$allocator@UTInSliceInfo@?A0xf6fcebb6@Imf@@@std@@@std@@QBEIXZ 10119610 f i ImfTiledInputFile.obj
 0002:000a9660       ?clear@?$vector@UTInSliceInfo@?A0xf6fcebb6@Imf@@V?$allocator@UTInSliceInfo@?A0xf6fcebb6@Imf@@@std@@@std@@QAEXXZ 10119660 f i ImfTiledInputFile.obj
 0002:000a97f0       ?_Buy@?$vector@UTInSliceInfo@?A0xf6fcebb6@Imf@@V?$allocator@UTInSliceInfo@?A0xf6fcebb6@Imf@@@std@@@std@@IAE_NI@Z 101197f0 f i ImfTiledInputFile.obj
 0002:000a98d0       ?_Destroy@?$vector@UTInSliceInfo@?A0xf6fcebb6@Imf@@V?$allocator@UTInSliceInfo@?A0xf6fcebb6@Imf@@@std@@@std@@IAEXPAUTInSliceInfo@?A0xf6fcebb6@Imf@@0@Z 101198d0 f i ImfTiledInputFile.obj
 0002:000a9940       ?_Inside@?$vector@UTInSliceInfo@?A0xf6fcebb6@Imf@@V?$allocator@UTInSliceInfo@?A0xf6fcebb6@Imf@@@std@@@std@@IBE_NPBUTInSliceInfo@?A0xf6fcebb6@Imf@@@Z 10119940 f i ImfTiledInputFile.obj
 0002:000a99c0       ?_Reserve@?$vector@UTInSliceInfo@?A0xf6fcebb6@Imf@@V?$allocator@UTInSliceInfo@?A0xf6fcebb6@Imf@@@std@@@std@@IAEXI@Z 101199c0 f i ImfTiledInputFile.obj
 0002:000a9a70       ?_Tidy@?$vector@UTInSliceInfo@?A0xf6fcebb6@Imf@@V?$allocator@UTInSliceInfo@?A0xf6fcebb6@Imf@@@std@@@std@@IAEXXZ 10119a70 f i ImfTiledInputFile.obj
 0002:000a9b50       ?_Orphan_range@?$vector@UTInSliceInfo@?A0xf6fcebb6@Imf@@V?$allocator@UTInSliceInfo@?A0xf6fcebb6@Imf@@@std@@@std@@IBEXPAUTInSliceInfo@?A0xf6fcebb6@Imf@@0@Z 10119b50 f i ImfTiledInputFile.obj
 0002:000a9cd0       ??0?$_Vector_val@UTInSliceInfo@?A0xf6fcebb6@Imf@@V?$allocator@UTInSliceInfo@?A0xf6fcebb6@Imf@@@std@@@std@@QAE@V?$allocator@UTInSliceInfo@?A0xf6fcebb6@Imf@@@1@@Z 10119cd0 f i ImfTiledInputFile.obj
 0002:000a9e50       ??1?$_Vector_val@UTInSliceInfo@?A0xf6fcebb6@Imf@@V?$allocator@UTInSliceInfo@?A0xf6fcebb6@Imf@@@std@@@std@@QAE@XZ 10119e50 f i ImfTiledInputFile.obj
 0002:000a9f90       ??0?$allocator@UTInSliceInfo@?A0xf6fcebb6@Imf@@@std@@QAE@XZ 10119f90 f i ImfTiledInputFile.obj
 0002:000a9fd0       ?deallocate@?$allocator@UTInSliceInfo@?A0xf6fcebb6@Imf@@@std@@QAEXPAUTInSliceInfo@?A0xf6fcebb6@Imf@@I@Z 10119fd0 f i ImfTiledInputFile.obj
 0002:000aa030       ?begin@?$vector@PAUTileBuffer@?A0xf6fcebb6@Imf@@V?$allocator@PAUTileBuffer@?A0xf6fcebb6@Imf@@@std@@@std@@QAE?AV?$_Vector_iterator@V?$_Vector_val@PAUTileBuffer@?A0xf6fcebb6@Imf@@V?$allocator@PAUTileBuffer@?A0xf6fcebb6@Imf@@@std@@@std@@@2@XZ 1011a030 f i ImfTiledInputFile.obj
 0002:000aa0c0       ?end@?$vector@PAUTileBuffer@?A0xf6fcebb6@Imf@@V?$allocator@PAUTileBuffer@?A0xf6fcebb6@Imf@@@std@@@std@@QAE?AV?$_Vector_iterator@V?$_Vector_val@PAUTileBuffer@?A0xf6fcebb6@Imf@@V?$allocator@PAUTileBuffer@?A0xf6fcebb6@Imf@@@std@@@std@@@2@XZ 1011a0c0 f i ImfTiledInputFile.obj
 0002:000aa150       ?erase@?$vector@PAUTileBuffer@?A0xf6fcebb6@Imf@@V?$allocator@PAUTileBuffer@?A0xf6fcebb6@Imf@@@std@@@std@@QAE?AV?$_Vector_iterator@V?$_Vector_val@PAUTileBuffer@?A0xf6fcebb6@Imf@@V?$allocator@PAUTileBuffer@?A0xf6fcebb6@Imf@@@std@@@std@@@2@V?$_Vector_const_iterator@V?$_Vector_val@PAUTileBuffer@?A0xf6fcebb6@Imf@@V?$allocator@PAUTileBuffer@?A0xf6fcebb6@Imf@@@std@@@std@@@2@0@Z 1011a150 f i ImfTiledInputFile.obj
 0002:000aa420       ?_Reserve@?$vector@PAUTileBuffer@?A0xf6fcebb6@Imf@@V?$allocator@PAUTileBuffer@?A0xf6fcebb6@Imf@@@std@@@std@@IAEXI@Z 1011a420 f i ImfTiledInputFile.obj
 0002:000aa4d0       ?_Tidy@?$vector@PAUTileBuffer@?A0xf6fcebb6@Imf@@V?$allocator@PAUTileBuffer@?A0xf6fcebb6@Imf@@@std@@@std@@IAEXXZ 1011a4d0 f i ImfTiledInputFile.obj
 0002:000aa5b0       ??0?$_Vector_val@PAUTileBuffer@?A0xf6fcebb6@Imf@@V?$allocator@PAUTileBuffer@?A0xf6fcebb6@Imf@@@std@@@std@@QAE@V?$allocator@PAUTileBuffer@?A0xf6fcebb6@Imf@@@1@@Z 1011a5b0 f i ImfTiledInputFile.obj
 0002:000aa730       ??1?$_Vector_val@PAUTileBuffer@?A0xf6fcebb6@Imf@@V?$allocator@PAUTileBuffer@?A0xf6fcebb6@Imf@@@std@@@std@@QAE@XZ 1011a730 f i ImfTiledInputFile.obj
 0002:000aa870       ??0?$allocator@PAUTileBuffer@?A0xf6fcebb6@Imf@@@std@@QAE@XZ 1011a870 f i ImfTiledInputFile.obj
 0002:000aa8b0       ??H?$_Vector_iterator@V?$_Vector_val@PAUTileBuffer@?A0xf6fcebb6@Imf@@V?$allocator@PAUTileBuffer@?A0xf6fcebb6@Imf@@@std@@@std@@@std@@QBE?AV01@H@Z 1011a8b0 f i ImfTiledInputFile.obj
 0002:000aa9d0       ??1?$_Vector_iterator@V?$_Vector_val@V?$vector@V?$vector@_KV?$allocator@_K@std@@@std@@V?$allocator@V?$vector@_KV?$allocator@_K@std@@@std@@@2@@std@@V?$allocator@V?$vector@V?$vector@_KV?$allocator@_K@std@@@std@@V?$allocator@V?$vector@_KV?$allocator@_K@std@@@std@@@2@@std@@@2@@std@@@std@@QAE@XZ 1011a9d0 f i ImfTiledInputFile.obj
 0002:000aaa20       ??0?$_Vector_const_iterator@V?$_Vector_val@V?$vector@V?$vector@_KV?$allocator@_K@std@@@std@@V?$allocator@V?$vector@_KV?$allocator@_K@std@@@std@@@2@@std@@V?$allocator@V?$vector@V?$vector@_KV?$allocator@_K@std@@@std@@V?$allocator@V?$vector@_KV?$allocator@_K@std@@@std@@@2@@std@@@2@@std@@@std@@QAE@ABV01@@Z 1011aa20 f i ImfTiledInputFile.obj
 0002:000aaa90       ??1?$_Vector_const_iterator@V?$_Vector_val@V?$vector@V?$vector@_KV?$allocator@_K@std@@@std@@V?$allocator@V?$vector@_KV?$allocator@_K@std@@@std@@@2@@std@@V?$allocator@V?$vector@V?$vector@_KV?$allocator@_K@std@@@std@@V?$allocator@V?$vector@_KV?$allocator@_K@std@@@std@@@2@@std@@@2@@std@@@std@@QAE@XZ 1011aa90 f i ImfTiledInputFile.obj
 0002:000aaae0       ??1?$_Vector_iterator@V?$_Vector_val@UTInSliceInfo@?A0xf6fcebb6@Imf@@V?$allocator@UTInSliceInfo@?A0xf6fcebb6@Imf@@@std@@@std@@@std@@QAE@XZ 1011aae0 f i ImfTiledInputFile.obj
 0002:000aab30       ??0?$_Vector_const_iterator@V?$_Vector_val@UTInSliceInfo@?A0xf6fcebb6@Imf@@V?$allocator@UTInSliceInfo@?A0xf6fcebb6@Imf@@@std@@@std@@@std@@QAE@ABV01@@Z 1011ab30 f i ImfTiledInputFile.obj
 0002:000aaba0       ??1?$_Vector_const_iterator@V?$_Vector_val@UTInSliceInfo@?A0xf6fcebb6@Imf@@V?$allocator@UTInSliceInfo@?A0xf6fcebb6@Imf@@@std@@@std@@@std@@QAE@XZ 1011aba0 f i ImfTiledInputFile.obj
 0002:000aabf0       ??0?$_Vector_iterator@V?$_Vector_val@PAUTileBuffer@?A0xf6fcebb6@Imf@@V?$allocator@PAUTileBuffer@?A0xf6fcebb6@Imf@@@std@@@std@@@std@@QAE@ABV01@@Z 1011abf0 f i ImfTiledInputFile.obj
 0002:000aac50       ??0?$_Iterator012@Urandom_access_iterator_tag@std@@V?$vector@V?$vector@_KV?$allocator@_K@std@@@std@@V?$allocator@V?$vector@_KV?$allocator@_K@std@@@std@@@2@@2@HPBV32@ABV32@U_Iterator_base12@2@@std@@QAE@ABU01@@Z 1011ac50 f i ImfTiledInputFile.obj
 0002:000aacb0       ??1?$_Iterator012@Urandom_access_iterator_tag@std@@V?$vector@V?$vector@_KV?$allocator@_K@std@@@std@@V?$allocator@V?$vector@_KV?$allocator@_K@std@@@std@@@2@@2@HPBV32@ABV32@U_Iterator_base12@2@@std@@QAE@XZ 1011acb0 f i ImfTiledInputFile.obj
 0002:000aad00       ??0?$_Iterator012@Urandom_access_iterator_tag@std@@UTInSliceInfo@?A0xf6fcebb6@Imf@@HPBU345@ABU345@U_Iterator_base12@2@@std@@QAE@ABU01@@Z 1011ad00 f i ImfTiledInputFile.obj
 0002:000aad60       ??1?$_Iterator012@Urandom_access_iterator_tag@std@@UTInSliceInfo@?A0xf6fcebb6@Imf@@HPBU345@ABU345@U_Iterator_base12@2@@std@@QAE@XZ 1011ad60 f i ImfTiledInputFile.obj
