LIBRARY	IlmImf
EXPORTS
	?compare@?$basic_string@DU?$char_traits@D@std@@V?$allocator@D@2@@std@@QBEHIIPBDI@Z
	?tileXSize@TiledRgbaOutputFile@Imf@@QBEIXZ
	??$_Move@PAIPAI@std@@YAPAIPAI00U_Scalar_ptr_iterator_tag@0@@Z
	??3@YAXPAX0@Z
	?cast@?$TypedAttribute@V?$Matrix44@M@Imath@@@Imf@@SAPBV12@PBVAttribute@2@@Z
	?worldToCamera@Imf@@YAAAV?$Matrix44@M@Imath@@AAVHeader@1@@Z
	?keyCode@Imf@@YAABVKeyCode@1@ABVHeader@1@@Z
	?multiViewAttribute@Imf@@YAAAV?$TypedAttribute@V?$vector@V?$basic_string@DU?$char_traits@D@std@@V?$allocator@D@2@@std@@V?$allocator@V?$basic_string@DU?$char_traits@D@std@@V?$allocator@D@2@@std@@@2@@std@@@1@AAVHeader@1@@Z
	??$_Destroy_range@V?$allocator@V?$vector@_KV?$allocator@_K@std@@@std@@@std@@@std@@YAXPAV?$vector@_KV?$allocator@_K@std@@@0@0AAV?$allocator@V?$vector@_KV?$allocator@_K@std@@@std@@@0@@Z
	??$_Ucopy@PAV?$vector@V?$vector@_KV?$allocator@_K@std@@@std@@V?$allocator@V?$vector@_KV?$allocator@_K@std@@@std@@@2@@std@@@?$vector@V?$vector@V?$vector@_KV?$allocator@_K@std@@@std@@V?$allocator@V?$vector@_KV?$allocator@_K@std@@@std@@@2@@std@@V?$allocator@V?$vector@V?$vector@_KV?$allocator@_K@std@@@std@@V?$allocator@V?$vector@_KV?$allocator@_K@std@@@std@@@2@@std@@@2@@std@@IAEPAV?$vector@V?$vector@_KV?$allocator@_K@std@@@std@@V?$allocator@V?$vector@_KV?$allocator@_K@std@@@std@@@2@@1@PAV21@00@Z
	?rfind@?$basic_string@DU?$char_traits@D@std@@V?$allocator@D@2@@std@@QBEIDI@Z
	?cast@?$TypedAttribute@N@Imf@@SAAAV12@AAVAttribute@2@@Z
	?copy@?$TypedAttribute@VKeyCode@Imf@@@Imf@@UBEPAVAttribute@2@XZ
	?find@?$_Tree@V?$_Tmap_traits@VName@Imf@@USlice@2@U?$less@VName@Imf@@@std@@V?$allocator@U?$pair@$$CBVName@Imf@@USlice@2@@std@@@5@$0A@@std@@@std@@QAE?AV?$_Tree_iterator@V?$_Tree_val@V?$_Tmap_traits@VName@Imf@@USlice@2@U?$less@VName@Imf@@@std@@V?$allocator@U?$pair@$$CBVName@Imf@@USlice@2@@std@@@5@$0A@@std@@@std@@@2@ABVName@Imf@@@Z
	??$_Destroy@U?$pair@QBDP6APAVAttribute@Imf@@XZ@std@@@std@@YAXPAU?$pair@QBDP6APAVAttribute@Imf@@XZ@0@@Z
	??E?$_Tree_iterator@V?$_Tree_val@V?$_Tmap_traits@PBDP6APAVAttribute@Imf@@XZUNameCompare@?A0x0779e1ad@2@V?$allocator@U?$pair@QBDP6APAVAttribute@Imf@@XZ@std@@@std@@$0A@@std@@@std@@@std@@QAEAAV01@XZ
	?screenWindowCenter@RgbaInputFile@Imf@@QBE?BV?$Vec2@M@Imath@@XZ
	?screenWindowCenter@TiledRgbaInputFile@Imf@@QBE?BV?$Vec2@M@Imath@@XZ
	??$_Dest_val@V?$allocator@U?$pair@$$CBVName@Imf@@PAVAttribute@2@@std@@@std@@U?$pair@$$CBVName@Imf@@PAVAttribute@2@@2@@std@@YAXAAV?$allocator@U?$pair@$$CBVName@Imf@@PAVAttribute@2@@std@@@0@PAU?$pair@$$CBVName@Imf@@PAVAttribute@2@@0@@Z
	?compression@Header@Imf@@QBEABW4Compression@2@XZ
	?max_size@?$allocator@D@std@@QBEIXZ
	?typeName@?$TypedAttribute@W4Compression@Imf@@@Imf@@UBEPBDXZ
	??$_Debug_pointer@V?$basic_string@DU?$char_traits@D@std@@V?$allocator@D@2@@std@@@std@@YAXPAV?$basic_string@DU?$char_traits@D@std@@V?$allocator@D@2@@0@PB_WI@Z
	??4?$Matrix44@N@Imath@@QAEABV01@ABV01@@Z
	?copyValueFrom@?$TypedAttribute@V?$Vec3@M@Imath@@@Imf@@UAEXABVAttribute@2@@Z
	?dataWindowForFace@CubeMap@Imf@@YA?AV?$Box@V?$Vec2@H@Imath@@@Imath@@W4CubeMapFace@2@ABV34@@Z
	??0?$TypedAttribute@W4LineOrder@Imf@@@Imf@@QAE@ABW4LineOrder@1@@Z
	??0?$AutoArray@PA_K$0BAAAB@@Imf@@QAE@XZ
	??$_Debug_range2@V?$_Vector_const_iterator@V?$_Vector_val@_KV?$allocator@_K@std@@@std@@@std@@@std@@YAXV?$_Vector_const_iterator@V?$_Vector_val@_KV?$allocator@_K@std@@@std@@@0@0PB_WIUrandom_access_iterator_tag@0@@Z
	?makeNewAttribute@?$TypedAttribute@VKeyCode@Imf@@@Imf@@SAPAVAttribute@2@XZ
	??M?$_Vector_const_iterator@V?$_Vector_val@V?$basic_string@DU?$char_traits@D@std@@V?$allocator@D@2@@std@@V?$allocator@V?$basic_string@DU?$char_traits@D@std@@V?$allocator@D@2@@std@@@2@@std@@@std@@QBE_NABV01@@Z
	ImfTiledOutputWriteTiles
	??E?$_Vector_const_iterator@V?$_Vector_val@V?$vector@_KV?$allocator@_K@std@@@std@@V?$allocator@V?$vector@_KV?$allocator@_K@std@@@std@@@2@@std@@@std@@QAEAAV01@XZ
	??0?$_Tree@V?$_Tmap_traits@VName@Imf@@UChannel@2@U?$less@VName@Imf@@@std@@V?$allocator@U?$pair@$$CBVName@Imf@@UChannel@2@@std@@@5@$0A@@std@@@std@@QAE@ABU?$less@VName@Imf@@@1@ABV?$allocator@U?$pair@$$CBVName@Imf@@UChannel@2@@std@@@1@@Z
	?usesLongNames@?A0x1f5ff9f2@Imf@@YA_NABVHeader@2@@Z
	?readPixels@FromYca@RgbaInputFile@Imf@@AAEXH@Z
	?size@?$_Tree@V?$_Tmap_traits@UTileCoord@?A0x39e5c904@Imf@@PAUBufferedTile@23@U?$less@UTileCoord@?A0x39e5c904@Imf@@@std@@V?$allocator@U?$pair@$$CBUTileCoord@?A0x39e5c904@Imf@@PAUBufferedTile@23@@std@@@6@$0A@@std@@@std@@QBEIXZ
	??$size@I@Xdr@Imf@@YAHXZ
	?_Xlen@?$vector@UOutSliceInfo@?A0xf57f9ec6@Imf@@V?$allocator@UOutSliceInfo@?A0xf57f9ec6@Imf@@@std@@@std@@IBEXXZ
	??0?$_Vector_val@IV?$allocator@I@std@@@std@@QAE@V?$allocator@I@1@@Z
	??1?$_Tmap_traits@VName@Imf@@USlice@2@U?$less@VName@Imf@@@std@@V?$allocator@U?$pair@$$CBVName@Imf@@USlice@2@@std@@@5@$0A@@std@@QAE@XZ
	?typeName@?$TypedAttribute@V?$Matrix44@N@Imath@@@Imf@@UBEPBDXZ
	ImfHalfToFloat
	??A?$Matrix44@M@Imath@@QAEPAMH@Z
	??0FrameBuffer@Imf@@QAE@XZ
	?isOpenExrFile@Imf@@YA_NAAVIStream@1@@Z
	?registerAttributeType@?$TypedAttribute@VTileDescription@Imf@@@Imf@@SAXXZ
	?hufCode@?A0xc87c6bb7@Imf@@YA_K_K@Z
	?copy@?$TypedAttribute@V?$Matrix33@N@Imath@@@Imf@@UBEPAVAttribute@2@XZ
	??$_Iter_cat@PAPAULineBuffer@?A0xcbf8ace6@Imf@@@std@@YA?AUrandom_access_iterator_tag@0@ABQAPAULineBuffer@?A0xcbf8ace6@Imf@@@Z
	?forwardLutFromBitmap@?A0xce4d6f11@Imf@@YAGQBEQAG@Z
	??$_Debug_range@PAUOutSliceInfo@?A0xf57f9ec6@Imf@@@std@@YAXPAUOutSliceInfo@?A0xf57f9ec6@Imf@@0PB_WI@Z
	??EConstIterator@Header@Imf@@QAEAAV012@XZ
	?_Rmost@?$_Tree@V?$_Tmap_traits@PBDP6APAVAttribute@Imf@@XZUNameCompare@?A0x0779e1ad@2@V?$allocator@U?$pair@QBDP6APAVAttribute@Imf@@XZ@std@@@std@@$0A@@std@@@std@@IBEAAPAU_Node@?$_Tree_nod@V?$_Tmap_traits@PBDP6APAVAttribute@Imf@@XZUNameCompare@?A0x0779e1ad@2@V?$allocator@U?$pair@QBDP6APAVAttribute@Imf@@XZ@std@@@std@@$0A@@std@@@2@XZ
	?capacity@?$vector@IV?$allocator@I@std@@@std@@QBEIXZ
	??$_Allocate@UOutSliceInfo@?A0xf57f9ec6@Imf@@@std@@YAPAUOutSliceInfo@?A0xf57f9ec6@Imf@@IPAU123@@Z
	?setFrame@TimeCode@Imf@@QAEXH@Z
	?ownerAttribute@Imf@@YAAAV?$TypedAttribute@V?$basic_string@DU?$char_traits@D@std@@V?$allocator@D@2@@std@@@1@AAVHeader@1@@Z
	??$_Debug_lt_pred@U?$less@V?$basic_string@DU?$char_traits@D@std@@V?$allocator@D@2@@std@@@std@@V?$basic_string@DU?$char_traits@D@std@@V?$allocator@D@2@@2@V32@@std@@YA_NU?$less@V?$basic_string@DU?$char_traits@D@std@@V?$allocator@D@2@@std@@@0@AAV?$basic_string@DU?$char_traits@D@std@@V?$allocator@D@2@@0@ABV20@PB_WI@Z
	??0?$Box@V?$Vec2@H@Imath@@@Imath@@QAE@XZ
	?max_size@?$allocator@UTOutSliceInfo@?A0x39e5c904@Imf@@@std@@QBEIXZ
	??$_Debug_pointer@V?$_Vector_const_iterator@V?$_Vector_val@V?$basic_string@DU?$char_traits@D@std@@V?$allocator@D@2@@std@@V?$allocator@V?$basic_string@DU?$char_traits@D@std@@V?$allocator@D@2@@std@@@2@@std@@@std@@@std@@YAXAAV?$_Vector_const_iterator@V?$_Vector_val@V?$basic_string@DU?$char_traits@D@std@@V?$allocator@D@2@@std@@V?$allocator@V?$basic_string@DU?$char_traits@D@std@@V?$allocator@D@2@@std@@@2@@std@@@0@PB_WI@Z
	?post@LineBuffer@?A0xf57f9ec6@Imf@@QAEXXZ
	?append@?$basic_string@DU?$char_traits@D@std@@V?$allocator@D@2@@std@@QAEAAV12@ABV12@@Z
	??0LineBuffer@?A0xcbf8ace6@Imf@@QAE@QAVCompressor@2@@Z
	?calculateNumYLevels@?A0x893782d4@Imf@@YAHABVTileDescription@2@HHHH@Z
	?wav2Encode@Imf@@YAXPAGHHHHG@Z
	?reconstructLineOffsets@?A0xcbf8ace6@Imf@@YAXAAVIStream@2@W4LineOrder@2@AAV?$vector@_KV?$allocator@_K@std@@@std@@@Z
	?size@?$_Tree@V?$_Tmap_traits@VName@Imf@@USlice@2@U?$less@VName@Imf@@@std@@V?$allocator@U?$pair@$$CBVName@Imf@@USlice@2@@std@@@5@$0A@@std@@@std@@QBEIXZ
	??$?0$$CBUTileCoord@?A0x39e5c904@Imf@@PAUBufferedTile@12@@?$pair@$$CBUTileCoord@?A0x39e5c904@Imf@@PAUBufferedTile@23@@std@@QAE@$$QAU01@@Z
	??1?$TypedAttribute@V?$basic_string@DU?$char_traits@D@std@@V?$allocator@D@2@@std@@@Imf@@UAE@XZ
	??1?$_Pair_base@V?$_Tree_iterator@V?$_Tree_val@V?$_Tmap_traits@UTileCoord@?A0x39e5c904@Imf@@PAUBufferedTile@23@U?$less@UTileCoord@?A0x39e5c904@Imf@@@std@@V?$allocator@U?$pair@$$CBUTileCoord@?A0x39e5c904@Imf@@PAUBufferedTile@23@@std@@@6@$0A@@std@@@std@@@std@@_N@std@@QAE@XZ
	?numXTiles@TiledRgbaInputFile@Imf@@QBEHH@Z
	?channelInOtherView@Imf@@YA?AV?$basic_string@DU?$char_traits@D@std@@V?$allocator@D@2@@std@@ABV23@ABVChannelList@1@ABV?$vector@V?$basic_string@DU?$char_traits@D@std@@V?$allocator@D@2@@std@@V?$allocator@V?$basic_string@DU?$char_traits@D@std@@V?$allocator@D@2@@std@@@2@@3@0@Z
	??H?$_Vector_iterator@V?$_Vector_val@V?$vector@_KV?$allocator@_K@std@@@std@@V?$allocator@V?$vector@_KV?$allocator@_K@std@@@std@@@2@@std@@@std@@QBE?AV01@H@Z
	?faceAndPixelPosition@CubeMap@Imf@@YAXABV?$Vec3@M@Imath@@ABV?$Box@V?$Vec2@H@Imath@@@4@AAW4CubeMapFace@2@AAV?$Vec2@M@4@@Z
	?latitudeAttribute@Imf@@YAAAV?$TypedAttribute@M@1@AAVHeader@1@@Z
	??$_Debug_range@PAPAUTileBuffer@?A0xf6fcebb6@Imf@@@std@@YAXPAPAUTileBuffer@?A0xf6fcebb6@Imf@@0PB_WI@Z
	?begin@?$_Tree@V?$_Tmap_traits@UTileCoord@?A0x39e5c904@Imf@@PAUBufferedTile@23@U?$less@UTileCoord@?A0x39e5c904@Imf@@@std@@V?$allocator@U?$pair@$$CBUTileCoord@?A0x39e5c904@Imf@@PAUBufferedTile@23@@std@@@6@$0A@@std@@@std@@QAE?AV?$_Tree_iterator@V?$_Tree_val@V?$_Tmap_traits@UTileCoord@?A0x39e5c904@Imf@@PAUBufferedTile@23@U?$less@UTileCoord@?A0x39e5c904@Imf@@@std@@V?$allocator@U?$pair@$$CBUTileCoord@?A0x39e5c904@Imf@@PAUBufferedTile@23@@std@@@6@$0A@@std@@@std@@@2@XZ
	?copyValueFrom@?$TypedAttribute@V?$Vec2@M@Imath@@@Imf@@UAEXABVAttribute@2@@Z
	?max_size@?$vector@PAULineBuffer@?A0xcbf8ace6@Imf@@V?$allocator@PAULineBuffer@?A0xcbf8ace6@Imf@@@std@@@std@@QBEIXZ
	?padTmpBuf@FromYca@RgbaInputFile@Imf@@AAEXXZ
	?pixelAspectRatio@TiledRgbaOutputFile@Imf@@QBEMXZ
	?latitude@Imf@@YAABMABVHeader@1@@Z
	??$typedAttribute@V?$TypedAttribute@VPreviewImage@Imf@@@Imf@@@Header@Imf@@QBEABV?$TypedAttribute@VPreviewImage@Imf@@@1@QBD@Z
	??$?0U?$pair@$$CBUTileCoord@?A0x39e5c904@Imf@@PAUBufferedTile@23@@std@@@?$allocator@U_Node@?$_Tree_nod@V?$_Tmap_traits@UTileCoord@?A0x39e5c904@Imf@@PAUBufferedTile@23@U?$less@UTileCoord@?A0x39e5c904@Imf@@@std@@V?$allocator@U?$pair@$$CBUTileCoord@?A0x39e5c904@Imf@@PAUBufferedTile@23@@std@@@6@$0A@@std@@@std@@@std@@QAE@ABV?$allocator@U?$pair@$$CBUTileCoord@?A0x39e5c904@Imf@@PAUBufferedTile@23@@std@@@1@@Z
	?clear@?$vector@UTOutSliceInfo@?A0x39e5c904@Imf@@V?$allocator@UTOutSliceInfo@?A0x39e5c904@Imf@@@std@@@std@@QAEXXZ
	??$construct@AAV?$vector@V?$vector@_KV?$allocator@_K@std@@@std@@V?$allocator@V?$vector@_KV?$allocator@_K@std@@@std@@@2@@std@@@?$allocator@V?$vector@V?$vector@_KV?$allocator@_K@std@@@std@@V?$allocator@V?$vector@_KV?$allocator@_K@std@@@std@@@2@@std@@@std@@QAEXPAV?$vector@V?$vector@_KV?$allocator@_K@std@@@std@@V?$allocator@V?$vector@_KV?$allocator@_K@std@@@std@@@2@@1@AAV21@@Z
	??0?$vector@UTOutSliceInfo@?A0x39e5c904@Imf@@V?$allocator@UTOutSliceInfo@?A0x39e5c904@Imf@@@std@@@std@@QAE@XZ
	??K?$Vec3@M@Imath@@QBE?AV01@M@Z
	?_Xlen@?$vector@PAUTileBuffer@?A0x39e5c904@Imf@@V?$allocator@PAUTileBuffer@?A0x39e5c904@Imf@@@std@@@std@@IBEXXZ
	??8?$_Vector_const_iterator@V?$_Vector_val@PAULineBuffer@?A0xf57f9ec6@Imf@@V?$allocator@PAULineBuffer@?A0xf57f9ec6@Imf@@@std@@@std@@@std@@QBE_NABV01@@Z
	?reserve@?$vector@PAULineBuffer@?A0xf57f9ec6@Imf@@V?$allocator@PAULineBuffer@?A0xf57f9ec6@Imf@@@std@@@std@@QAEXI@Z
	??$_Dest_val@V?$allocator@U?$pair@$$CBVName@Imf@@USlice@2@@std@@@std@@U?$pair@$$CBVName@Imf@@USlice@2@@2@@std@@YAXAAV?$allocator@U?$pair@$$CBVName@Imf@@USlice@2@@std@@@0@PAU?$pair@$$CBVName@Imf@@USlice@2@@0@@Z
	??$_Destroy_range@V?$allocator@_K@std@@@std@@YAXPA_K0AAV?$allocator@_K@0@U_Scalar_ptr_iterator_tag@0@@Z
	??$_Ptr_cat@_K_K@std@@YA?AU_Scalar_ptr_iterator_tag@0@PA_K0@Z
	?value@?$TypedAttribute@V?$Matrix44@M@Imath@@@Imf@@QBEABV?$Matrix44@M@Imath@@XZ
	??$_Umove@PAPAULineBuffer@?A0xcbf8ace6@Imf@@@?$vector@PAULineBuffer@?A0xcbf8ace6@Imf@@V?$allocator@PAULineBuffer@?A0xcbf8ace6@Imf@@@std@@@std@@IAEPAPAULineBuffer@?A0xcbf8ace6@Imf@@PAPAU234@00@Z
	?allocate@?$allocator@PAUTileBuffer@?A0xf6fcebb6@Imf@@@std@@QAEPAPAUTileBuffer@?A0xf6fcebb6@Imf@@I@Z
	?compress@PizCompressor@Imf@@AAEHPBDHV?$Box@V?$Vec2@H@Imath@@@Imath@@AAPBD@Z
	?_Reserve@?$vector@V?$basic_string@DU?$char_traits@D@std@@V?$allocator@D@2@@std@@V?$allocator@V?$basic_string@DU?$char_traits@D@std@@V?$allocator@D@2@@std@@@2@@std@@IAEXI@Z
	??0?$_Tree@V?$_Tmap_traits@VName@Imf@@UChannel@2@U?$less@VName@Imf@@@std@@V?$allocator@U?$pair@$$CBVName@Imf@@UChannel@2@@std@@@5@$0A@@std@@@std@@QAE@ABV01@@Z
	?envmap@Imf@@YAABW4Envmap@1@ABVHeader@1@@Z
	ImfHeaderSetLineOrder
	??1?$_Vector_iterator@V?$_Vector_val@UOutSliceInfo@?A0xf57f9ec6@Imf@@V?$allocator@UOutSliceInfo@?A0xf57f9ec6@Imf@@@std@@@std@@@std@@QAE@XZ
	??0MathExc@Iex@@QAE@ABV01@@Z
	?tileXSize@TiledInputFile@Imf@@QBEIXZ
	??M?$_Vector_const_iterator@V?$_Vector_val@UTInSliceInfo@?A0xf6fcebb6@Imf@@V?$allocator@UTInSliceInfo@?A0xf6fcebb6@Imf@@@std@@@std@@@std@@QBE_NABV01@@Z
	??0BufferedTile@?A0x39e5c904@Imf@@QAE@PBDH@Z
	??$?0ABVName@Imf@@AAUSlice@1@@?$_Pair_base@$$CBVName@Imf@@USlice@2@@std@@QAE@ABVName@Imf@@AAUSlice@3@@Z
	?boolalpha@?$_Iosb@H@std@@2W4_Fmtflags@12@B
	??EConstIterator@ChannelList@Imf@@QAEAAV012@XZ
	?screenWindowWidth@RgbaOutputFile@Imf@@QBEMXZ
	??$_Iter_cat@PAPAUTileBuffer@?A0x39e5c904@Imf@@@std@@YA?AUrandom_access_iterator_tag@0@ABQAPAUTileBuffer@?A0x39e5c904@Imf@@@Z
	?isTiled@Imf@@YA_NH@Z
	?displayWindow@RgbaOutputFile@Imf@@QBEABV?$Box@V?$Vec2@H@Imath@@@Imath@@XZ
	??$forward@_N@std@@YA$$QA_NAA_N@Z
	??$move@ABQBD@std@@YA$$QBQBDABQBD@Z
	?staticTypeName@?$TypedAttribute@V?$Vec2@M@Imath@@@Imf@@SAPBDXZ
	?trunc@?$_Iosb@H@std@@2W4_Openmode@12@B
	??$forward@V?$vector@V?$basic_string@DU?$char_traits@D@std@@V?$allocator@D@2@@std@@V?$allocator@V?$basic_string@DU?$char_traits@D@std@@V?$allocator@D@2@@std@@@2@@std@@@std@@YA$$QAV?$vector@V?$basic_string@DU?$char_traits@D@std@@V?$allocator@D@2@@std@@V?$allocator@V?$basic_string@DU?$char_traits@D@std@@V?$allocator@D@2@@std@@@2@@0@AAV10@@Z
	?rotateBuffers@ToYca@RgbaOutputFile@Imf@@AAEXXZ
	?writeValueTo@?$TypedAttribute@V?$Vec3@M@Imath@@@Imf@@UBEXAAVOStream@2@H@Z
	??$_Allocate@UTOutSliceInfo@?A0x39e5c904@Imf@@@std@@YAPAUTOutSliceInfo@?A0x39e5c904@Imf@@IPAU123@@Z
	??H?$_Vector_iterator@V?$_Vector_val@PAUTileBuffer@?A0xf6fcebb6@Imf@@V?$allocator@PAUTileBuffer@?A0xf6fcebb6@Imf@@@std@@@std@@@std@@QBE?AV01@H@Z
	?makeNewAttribute@?$TypedAttribute@VTimeCode@Imf@@@Imf@@SAPAVAttribute@2@XZ
	?latLong@LatLongMap@Imf@@YA?AV?$Vec2@M@Imath@@ABV?$Vec3@M@4@@Z
	?typeName@?$TypedAttribute@V?$Vec2@H@Imath@@@Imf@@UBEPBDXZ
	?numYTiles@TiledRgbaInputFile@Imf@@QBEHH@Z
	?perfOffset@KeyCode@Imf@@QBEHXZ
	?whiteLuminance@Imf@@YAAAMAAVHeader@1@@Z
	?imbue@?$basic_filebuf@DU?$char_traits@D@std@@@std@@MAEXABVlocale@2@@Z
	?allocate@?$allocator@UTInSliceInfo@?A0xf6fcebb6@Imf@@@std@@QAEPAUTInSliceInfo@?A0xf6fcebb6@Imf@@I@Z
	?typeName@?$TypedAttribute@V?$Box@V?$Vec2@H@Imath@@@Imath@@@Imf@@UBEPBDXZ
	??1?$_Vector_const_iterator@V?$_Vector_val@PAUTileBuffer@?A0x39e5c904@Imf@@V?$allocator@PAUTileBuffer@?A0x39e5c904@Imf@@@std@@@std@@@std@@QAE@XZ
	??$_Uninitialized_default_fill_n@PAV?$vector@_KV?$allocator@_K@std@@@std@@IV12@V?$allocator@V?$vector@_KV?$allocator@_K@std@@@std@@@2@@std@@YAXPAV?$vector@_KV?$allocator@_K@std@@@0@IPBV10@AAV?$allocator@V?$vector@_KV?$allocator@_K@std@@@std@@@0@@Z
	?makeNewAttribute@?$TypedAttribute@V?$Matrix33@M@Imath@@@Imf@@SAPAVAttribute@2@XZ
	??$_Adjust_heap@PAPA_KHPA_KUFHeapCompare@?A0xc87c6bb7@Imf@@@std@@YAXPAPA_KHH$$QAPA_KUFHeapCompare@?A0xc87c6bb7@Imf@@@Z
	??0?$TypedAttribute@H@Imf@@QAE@XZ
	?_Insert@?$_Tree@V?$_Tmap_traits@VName@Imf@@PAVAttribute@2@U?$less@VName@Imf@@@std@@V?$allocator@U?$pair@$$CBVName@Imf@@PAVAttribute@2@@std@@@5@$0A@@std@@@std@@IAE?AV?$_Tree_iterator@V?$_Tree_val@V?$_Tmap_traits@VName@Imf@@PAVAttribute@2@U?$less@VName@Imf@@@std@@V?$allocator@U?$pair@$$CBVName@Imf@@PAVAttribute@2@@std@@@5@$0A@@std@@@std@@@2@_NPAU_Node@?$_Tree_nod@V?$_Tmap_traits@VName@Imf@@PAVAttribute@2@U?$less@VName@Imf@@@std@@V?$allocator@U?$pair@$$CBVName@Imf@@PAVAttribute@2@@std@@@5@$0A@@std@@@2@1@Z
	?_Lmost@?$_Tree@V?$_Tmap_traits@UTileCoord@?A0x39e5c904@Imf@@PAUBufferedTile@23@U?$less@UTileCoord@?A0x39e5c904@Imf@@@std@@V?$allocator@U?$pair@$$CBUTileCoord@?A0x39e5c904@Imf@@PAUBufferedTile@23@@std@@@6@$0A@@std@@@std@@IBEAAPAU_Node@?$_Tree_nod@V?$_Tmap_traits@UTileCoord@?A0x39e5c904@Imf@@PAUBufferedTile@23@U?$less@UTileCoord@?A0x39e5c904@Imf@@@std@@V?$allocator@U?$pair@$$CBUTileCoord@?A0x39e5c904@Imf@@PAUBufferedTile@23@@std@@@6@$0A@@std@@@2@XZ
	?copyValueFrom@?$TypedAttribute@N@Imf@@UAEXABVAttribute@2@@Z
	?staticTypeName@?$TypedAttribute@VKeyCode@Imf@@@Imf@@SAPBDXZ
	?deallocate@?$allocator@UInSliceInfo@?A0xcbf8ace6@Imf@@@std@@QAEXPAUInSliceInfo@?A0xcbf8ace6@Imf@@I@Z
	?erase@?$_Tree@V?$_Tmap_traits@PBDP6APAVAttribute@Imf@@XZUNameCompare@?A0x0779e1ad@2@V?$allocator@U?$pair@QBDP6APAVAttribute@Imf@@XZ@std@@@std@@$0A@@std@@@std@@QAEIABQBD@Z
	?_Min@?$_Tree_val@V?$_Tmap_traits@PBDP6APAVAttribute@Imf@@XZUNameCompare@?A0x0779e1ad@2@V?$allocator@U?$pair@QBDP6APAVAttribute@Imf@@XZ@std@@@std@@$0A@@std@@@std@@SAPAU_Node@?$_Tree_nod@V?$_Tmap_traits@PBDP6APAVAttribute@Imf@@XZUNameCompare@?A0x0779e1ad@2@V?$allocator@U?$pair@QBDP6APAVAttribute@Imf@@XZ@std@@@std@@$0A@@std@@@2@PAU342@@Z
	??0Header@Imf@@QAE@HHMABV?$Vec2@M@Imath@@MW4LineOrder@1@W4Compression@1@@Z
	?_Lbound@?$_Tree@V?$_Tmap_traits@UTileCoord@?A0x39e5c904@Imf@@PAUBufferedTile@23@U?$less@UTileCoord@?A0x39e5c904@Imf@@@std@@V?$allocator@U?$pair@$$CBUTileCoord@?A0x39e5c904@Imf@@PAUBufferedTile@23@@std@@@6@$0A@@std@@@std@@IAEPAU_Node@?$_Tree_nod@V?$_Tmap_traits@UTileCoord@?A0x39e5c904@Imf@@PAUBufferedTile@23@U?$less@UTileCoord@?A0x39e5c904@Imf@@@std@@V?$allocator@U?$pair@$$CBUTileCoord@?A0x39e5c904@Imf@@PAUBufferedTile@23@@std@@@6@$0A@@std@@@2@ABUTileCoord@?A0x39e5c904@Imf@@@Z
	??E?$_Tree_const_iterator@V?$_Tree_val@V?$_Tmap_traits@PBDP6APAVAttribute@Imf@@XZUNameCompare@?A0x0779e1ad@2@V?$allocator@U?$pair@QBDP6APAVAttribute@Imf@@XZ@std@@@std@@$0A@@std@@@std@@@std@@QAE?AV01@H@Z
	?baseTypeMax@?$Vec2@H@Imath@@SAHXZ
	?levelWidth@TiledRgbaOutputFile@Imf@@QBEHH@Z
	??$_Uninit_move@PAUOutSliceInfo@?A0xf57f9ec6@Imf@@PAU123@V?$allocator@UOutSliceInfo@?A0xf57f9ec6@Imf@@@std@@U123@@std@@YAPAUOutSliceInfo@?A0xf57f9ec6@Imf@@PAU123@00AAV?$allocator@UOutSliceInfo@?A0xf57f9ec6@Imf@@@0@0U_Nonscalar_ptr_iterator_tag@0@@Z
	??C?$_Tree_iterator@V?$_Tree_val@V?$_Tmap_traits@VName@Imf@@UChannel@2@U?$less@VName@Imf@@@std@@V?$allocator@U?$pair@$$CBVName@Imf@@UChannel@2@@std@@@5@$0A@@std@@@std@@@std@@QBEPAU?$pair@$$CBVName@Imf@@UChannel@2@@1@XZ
	?erase@?$_Tree@V?$_Tmap_traits@VName@Imf@@PAVAttribute@2@U?$less@VName@Imf@@@std@@V?$allocator@U?$pair@$$CBVName@Imf@@PAVAttribute@2@@std@@@5@$0A@@std@@@std@@QAE?AV?$_Tree_iterator@V?$_Tree_val@V?$_Tmap_traits@VName@Imf@@PAVAttribute@2@U?$less@VName@Imf@@@std@@V?$allocator@U?$pair@$$CBVName@Imf@@PAVAttribute@2@@std@@@5@$0A@@std@@@std@@@2@V?$_Tree_const_iterator@V?$_Tree_val@V?$_Tmap_traits@VName@Imf@@PAVAttribute@2@U?$less@VName@Imf@@@std@@V?$allocator@U?$pair@$$CBVName@Imf@@PAVAttribute@2@@std@@@5@$0A@@std@@@std@@@2@@Z
	ImfTiledInputLevelMode
	??$_Debug_pointer@UOutSliceInfo@?A0xf57f9ec6@Imf@@@std@@YAXPAUOutSliceInfo@?A0xf57f9ec6@Imf@@PB_WI@Z
	??0RgbaInputFile@Imf@@QAE@AAVIStream@1@ABV?$basic_string@DU?$char_traits@D@std@@V?$allocator@D@2@@std@@H@Z
	??1?$_String_val@DV?$allocator@D@std@@@std@@QAE@XZ
	??1?$TypedAttribute@V?$Matrix33@M@Imath@@@Imf@@UAE@XZ
	?breakScanLine@RgbaOutputFile@Imf@@QAEXHHHD@Z
	?construct@?$allocator@U?$pair@QBDP6APAVAttribute@Imf@@XZ@std@@@std@@QAEXPAU?$pair@QBDP6APAVAttribute@Imf@@XZ@2@$$QAU32@@Z
	?begin@?$basic_string@DU?$char_traits@D@std@@V?$allocator@D@2@@std@@QAE?AV?$_String_iterator@DU?$char_traits@D@std@@V?$allocator@D@2@@2@XZ
	??1?$_Vector_val@V?$basic_string@DU?$char_traits@D@std@@V?$allocator@D@2@@std@@V?$allocator@V?$basic_string@DU?$char_traits@D@std@@V?$allocator@D@2@@std@@@2@@std@@QAE@XZ
	??A?$map@VName@Imf@@PAVAttribute@2@U?$less@VName@Imf@@@std@@V?$allocator@U?$pair@$$CBVName@Imf@@PAVAttribute@2@@std@@@5@@std@@QAEAAPAVAttribute@Imf@@ABVName@3@@Z
	?compression@TiledRgbaOutputFile@Imf@@QBE?AW4Compression@2@XZ
	?end@?$vector@_KV?$allocator@_K@std@@@std@@QAE?AV?$_Vector_iterator@V?$_Vector_val@_KV?$allocator@_K@std@@@std@@@2@XZ
	??9Imf@@YA_NABVConstIterator@Header@0@0@Z
	?_Orphan_range@?$vector@UOutSliceInfo@?A0xf57f9ec6@Imf@@V?$allocator@UOutSliceInfo@?A0xf57f9ec6@Imf@@@std@@@std@@IBEXPAUOutSliceInfo@?A0xf57f9ec6@Imf@@0@Z
	??0?$_Tree_const_iterator@V?$_Tree_val@V?$_Tmap_traits@VName@Imf@@PAVAttribute@2@U?$less@VName@Imf@@@std@@V?$allocator@U?$pair@$$CBVName@Imf@@PAVAttribute@2@@std@@@5@$0A@@std@@@std@@@std@@QAE@ABV01@@Z
	?writePixelData@?A0xf57f9ec6@Imf@@YAXPAUData@OutputFile@2@HQBDH@Z
	??$max@H@std@@YAABHABH0@Z
	??D?$_Vector_const_iterator@V?$_Vector_val@V?$basic_string@DU?$char_traits@D@std@@V?$allocator@D@2@@std@@V?$allocator@V?$basic_string@DU?$char_traits@D@std@@V?$allocator@D@2@@std@@@2@@std@@@std@@QBEABV?$basic_string@DU?$char_traits@D@std@@V?$allocator@D@2@@1@XZ
	??F?$_Tree_iterator@V?$_Tree_val@V?$_Tmap_traits@VName@Imf@@USlice@2@U?$less@VName@Imf@@@std@@V?$allocator@U?$pair@$$CBVName@Imf@@USlice@2@@std@@@5@$0A@@std@@@std@@@std@@QAEAAV01@XZ
	?whiteLuminanceAttribute@Imf@@YAAAV?$TypedAttribute@M@1@AAVHeader@1@@Z
	?registerAttributeType@?$TypedAttribute@VTimeCode@Imf@@@Imf@@SAXXZ
	?cast@?$TypedAttribute@V?$Matrix33@M@Imath@@@Imf@@SAABV12@ABVAttribute@2@@Z
	??$skip@UCharPtrIO@Imf@@PBD@Xdr@Imf@@YAXAAPBDH@Z
	??1?$_Tree@V?$_Tmap_traits@UTileCoord@?A0x39e5c904@Imf@@PAUBufferedTile@23@U?$less@UTileCoord@?A0x39e5c904@Imf@@@std@@V?$allocator@U?$pair@$$CBUTileCoord@?A0x39e5c904@Imf@@PAUBufferedTile@23@@std@@@6@$0A@@std@@@std@@QAE@XZ
	?_Insert@?$_Tree@V?$_Tmap_traits@VName@Imf@@UChannel@2@U?$less@VName@Imf@@@std@@V?$allocator@U?$pair@$$CBVName@Imf@@UChannel@2@@std@@@5@$0A@@std@@@std@@QAE?AV?$_Tree_iterator@V?$_Tree_val@V?$_Tmap_traits@VName@Imf@@UChannel@2@U?$less@VName@Imf@@@std@@V?$allocator@U?$pair@$$CBVName@Imf@@UChannel@2@@std@@@5@$0A@@std@@@std@@@2@V?$_Tree_const_iterator@V?$_Tree_val@V?$_Tmap_traits@VName@Imf@@UChannel@2@U?$less@VName@Imf@@@std@@V?$allocator@U?$pair@$$CBVName@Imf@@UChannel@2@@std@@@5@$0A@@std@@@std@@@2@PAU_Node@?$_Tree_nod@V?$_Tmap_traits@VName@Imf@@UChannel@2@U?$less@VName@Imf@@@std@@V?$allocator@U?$pair@$$CBVName@Imf@@UChannel@2@@std@@@5@$0A@@std@@@2@@Z
	??0?$Vec3@N@Imath@@QAE@XZ
	??0?$_Tree_unchecked_const_iterator@V?$_Tree_val@V?$_Tmap_traits@VName@Imf@@USlice@2@U?$less@VName@Imf@@@std@@V?$allocator@U?$pair@$$CBVName@Imf@@USlice@2@@std@@@5@$0A@@std@@@std@@U_Iterator_base12@2@@std@@QAE@ABV01@@Z
	?clear@IStream@Imf@@UAEXXZ
	??$insert@U?$pair@$$CBUTileCoord@?A0x39e5c904@Imf@@PAUBufferedTile@23@@std@@@?$_Tree@V?$_Tmap_traits@UTileCoord@?A0x39e5c904@Imf@@PAUBufferedTile@23@U?$less@UTileCoord@?A0x39e5c904@Imf@@@std@@V?$allocator@U?$pair@$$CBUTileCoord@?A0x39e5c904@Imf@@PAUBufferedTile@23@@std@@@6@$0A@@std@@@std@@QAE?AV?$_Tree_iterator@V?$_Tree_val@V?$_Tmap_traits@UTileCoord@?A0x39e5c904@Imf@@PAUBufferedTile@23@U?$less@UTileCoord@?A0x39e5c904@Imf@@@std@@V?$allocator@U?$pair@$$CBUTileCoord@?A0x39e5c904@Imf@@PAUBufferedTile@23@@std@@@6@$0A@@std@@@std@@@1@V?$_Tree_const_iterator@V?$_Tree_val@V?$_Tmap_traits@UTileCoord@?A0x39e5c904@Imf@@PAUBufferedTile@23@U?$less@UTileCoord@?A0x39e5c904@Imf@@@std@@V?$allocator@U?$pair@$$CBUTileCoord@?A0x39e5c904@Imf@@PAUBufferedTile@23@@std@@@6@$0A@@std@@@std@@@1@$$QAU?$pair@$$CBUTileCoord@?A0x39e5c904@Imf@@PAUBufferedTile@23@@1@@Z
	?_Orphan_ptr@?$_Tree@V?$_Tmap_traits@VName@Imf@@PAVAttribute@2@U?$less@VName@Imf@@@std@@V?$allocator@U?$pair@$$CBVName@Imf@@PAVAttribute@2@@std@@@5@$0A@@std@@@std@@IBEXAAV12@PAU_Node@?$_Tree_nod@V?$_Tmap_traits@VName@Imf@@PAVAttribute@2@U?$less@VName@Imf@@@std@@V?$allocator@U?$pair@$$CBVName@Imf@@PAVAttribute@2@@std@@@5@$0A@@std@@@2@@Z
	??$_Cons_val@V?$allocator@U?$pair@$$CBVName@Imf@@USlice@2@@std@@@std@@U?$pair@$$CBVName@Imf@@USlice@2@@2@AAU32@@std@@YAXAAV?$allocator@U?$pair@$$CBVName@Imf@@USlice@2@@std@@@0@PAU?$pair@$$CBVName@Imf@@USlice@2@@0@AAU20@@Z
	?_Noreplace@?$_Iosb@H@std@@2W4_Openmode@12@B
	?latitudeAttribute@Imf@@YAABV?$TypedAttribute@M@1@ABVHeader@1@@Z
	?end@ChannelList@Imf@@QBE?AVConstIterator@12@XZ
	?addChromaticities@Imf@@YAXAAVHeader@1@ABUChromaticities@1@@Z
	?typeName@?$TypedAttribute@H@Imf@@UBEPBDXZ
	?maxTileHeight@?A0x1f5ff9f2@Imf@@3HA
	?begin@?$vector@_KV?$allocator@_K@std@@@std@@QBE?AV?$_Vector_const_iterator@V?$_Vector_val@_KV?$allocator@_K@std@@@std@@@2@XZ
	?renderingTransformAttribute@Imf@@YAAAV?$TypedAttribute@V?$basic_string@DU?$char_traits@D@std@@V?$allocator@D@2@@std@@@1@AAVHeader@1@@Z
	?frameBuffer@RgbaInputFile@Imf@@QBEABVFrameBuffer@2@XZ
	??0?$Array2D@URgba@Imf@@@Imf@@QAE@XZ
	??0Header@Imf@@QAE@ABV?$Box@V?$Vec2@H@Imath@@@Imath@@0MABV?$Vec2@M@3@MW4LineOrder@1@W4Compression@1@@Z
	?_Inside@?$basic_string@DU?$char_traits@D@std@@V?$allocator@D@2@@std@@QAE_NPBD@Z
	?initialize@TiledOutputFile@Imf@@AAEXABVHeader@2@@Z
	?erase@?$_Tree@V?$_Tmap_traits@VName@Imf@@PAVAttribute@2@U?$less@VName@Imf@@@std@@V?$allocator@U?$pair@$$CBVName@Imf@@PAVAttribute@2@@std@@@5@$0A@@std@@@std@@QAE?AV?$_Tree_iterator@V?$_Tree_val@V?$_Tmap_traits@VName@Imf@@PAVAttribute@2@U?$less@VName@Imf@@@std@@V?$allocator@U?$pair@$$CBVName@Imf@@PAVAttribute@2@@std@@@5@$0A@@std@@@std@@@2@V?$_Tree_const_iterator@V?$_Tree_val@V?$_Tmap_traits@VName@Imf@@PAVAttribute@2@U?$less@VName@Imf@@@std@@V?$allocator@U?$pair@$$CBVName@Imf@@PAVAttribute@2@@std@@@5@$0A@@std@@@std@@@2@0@Z
	?adoptedNeutralAttribute@Imf@@YAAAV?$TypedAttribute@V?$Vec2@M@Imath@@@1@AAVHeader@1@@Z
	??4?$map@VName@Imf@@USlice@2@U?$less@VName@Imf@@@std@@V?$allocator@U?$pair@$$CBVName@Imf@@USlice@2@@std@@@5@@std@@QAEAAV01@ABV01@@Z
	??$_DebugHeapDelete@Vfacet@locale@std@@@std@@YAXPAVfacet@locale@0@@Z
	??0StdIFStream@Imf@@QAE@AAV?$basic_ifstream@DU?$char_traits@D@std@@@std@@QBD@Z
	?end@?$_Tree@V?$_Tmap_traits@VName@Imf@@PAVAttribute@2@U?$less@VName@Imf@@@std@@V?$allocator@U?$pair@$$CBVName@Imf@@PAVAttribute@2@@std@@@5@$0A@@std@@@std@@QBE?AV?$_Tree_const_iterator@V?$_Tree_val@V?$_Tmap_traits@VName@Imf@@PAVAttribute@2@U?$less@VName@Imf@@@std@@V?$allocator@U?$pair@$$CBVName@Imf@@PAVAttribute@2@@std@@@5@$0A@@std@@@std@@@2@XZ
	?lookModTransformAttribute@Imf@@YAABV?$TypedAttribute@V?$basic_string@DU?$char_traits@D@std@@V?$allocator@D@2@@std@@@1@ABVHeader@1@@Z
	??$_Buynode@AAU?$pair@$$CBVName@Imf@@USlice@2@@std@@@?$_Tree_val@V?$_Tmap_traits@VName@Imf@@USlice@2@U?$less@VName@Imf@@@std@@V?$allocator@U?$pair@$$CBVName@Imf@@USlice@2@@std@@@5@$0A@@std@@@std@@QAEPAU_Node@?$_Tree_nod@V?$_Tmap_traits@VName@Imf@@USlice@2@U?$less@VName@Imf@@@std@@V?$allocator@U?$pair@$$CBVName@Imf@@USlice@2@@std@@@5@$0A@@std@@@1@AAU?$pair@$$CBVName@Imf@@USlice@2@@1@@Z
	??Y?$basic_string@DU?$char_traits@D@std@@V?$allocator@D@2@@std@@QAEAAV01@ABV01@@Z
	?cast@?$TypedAttribute@H@Imf@@SAABV12@ABVAttribute@2@@Z
	?utcOffset@Imf@@YAAAMAAVHeader@1@@Z
	??$_Push_heap@PAPA_KHPA_KUFHeapCompare@?A0xc87c6bb7@Imf@@@std@@YAXPAPA_KHH$$QAPA_KUFHeapCompare@?A0xc87c6bb7@Imf@@@Z
	??1?$_Vector_val@UTInSliceInfo@?A0xf6fcebb6@Imf@@V?$allocator@UTInSliceInfo@?A0xf6fcebb6@Imf@@@std@@@std@@QAE@XZ
	??0?$_Tree_const_iterator@V?$_Tree_val@V?$_Tmap_traits@VName@Imf@@USlice@2@U?$less@VName@Imf@@@std@@V?$allocator@U?$pair@$$CBVName@Imf@@USlice@2@@std@@@5@$0A@@std@@@std@@@std@@QAE@XZ
	??9?$_Tree_const_iterator@V?$_Tree_val@V?$_Tmap_traits@VName@Imf@@PAVAttribute@2@U?$less@VName@Imf@@@std@@V?$allocator@U?$pair@$$CBVName@Imf@@PAVAttribute@2@@std@@@5@$0A@@std@@@std@@@std@@QBE_NABV01@@Z
	?levelRoundingMode@TiledRgbaOutputFile@Imf@@QBE?AW4LevelRoundingMode@2@XZ
	??0?$_Tree@V?$_Tmap_traits@VName@Imf@@PAVAttribute@2@U?$less@VName@Imf@@@std@@V?$allocator@U?$pair@$$CBVName@Imf@@PAVAttribute@2@@std@@@5@$0A@@std@@@std@@QAE@ABU?$less@VName@Imf@@@1@ABV?$allocator@U?$pair@$$CBVName@Imf@@PAVAttribute@2@@std@@@1@@Z
	?find@?$basic_string@DU?$char_traits@D@std@@V?$allocator@D@2@@std@@QBEIPBDII@Z
	?offsetInLineBufferTable@Imf@@YAXABV?$vector@IV?$allocator@I@std@@@std@@HAAV23@@Z
	??$_Debug_pointer@UFHeapCompare@?A0xc87c6bb7@Imf@@@std@@YAXAAUFHeapCompare@?A0xc87c6bb7@Imf@@PB_WI@Z
	??0?$vector@IV?$allocator@I@std@@@std@@QAE@XZ
	?worldToNDCAttribute@Imf@@YAABV?$TypedAttribute@V?$Matrix44@M@Imath@@@1@ABVHeader@1@@Z
	??$typedAttribute@V?$TypedAttribute@V?$Box@V?$Vec2@M@Imath@@@Imath@@@Imf@@@Header@Imf@@QBEABV?$TypedAttribute@V?$Box@V?$Vec2@M@Imath@@@Imath@@@1@QBD@Z
	?deallocate@?$allocator@V?$vector@V?$vector@_KV?$allocator@_K@std@@@std@@V?$allocator@V?$vector@_KV?$allocator@_K@std@@@std@@@2@@std@@@std@@QAEXPAV?$vector@V?$vector@_KV?$allocator@_K@std@@@std@@V?$allocator@V?$vector@_KV?$allocator@_K@std@@@std@@@2@@2@I@Z
	?write@StdOFStream@Imf@@UAEXQBDH@Z
	??0PreviewImage@Imf@@QAE@IIQBUPreviewRgba@1@@Z
	?header@TiledOutputFile@Imf@@QBEABVHeader@2@XZ
	??0LogicExc@Iex@@QAE@AAV?$basic_stringstream@DU?$char_traits@D@std@@V?$allocator@D@2@@std@@@Z
	?_Buynode@?$_Tree_val@V?$_Tmap_traits@VName@Imf@@PAVAttribute@2@U?$less@VName@Imf@@@std@@V?$allocator@U?$pair@$$CBVName@Imf@@PAVAttribute@2@@std@@@5@$0A@@std@@@std@@QAEPAU_Node@?$_Tree_nod@V?$_Tmap_traits@VName@Imf@@PAVAttribute@2@U?$less@VName@Imf@@@std@@V?$allocator@U?$pair@$$CBVName@Imf@@PAVAttribute@2@@std@@@5@$0A@@std@@@2@XZ
	??D?$_Tree_iterator@V?$_Tree_val@V?$_Tmap_traits@UTileCoord@?A0x39e5c904@Imf@@PAUBufferedTile@23@U?$less@UTileCoord@?A0x39e5c904@Imf@@@std@@V?$allocator@U?$pair@$$CBUTileCoord@?A0x39e5c904@Imf@@PAUBufferedTile@23@@std@@@6@$0A@@std@@@std@@@std@@QBEAAU?$pair@$$CBUTileCoord@?A0x39e5c904@Imf@@PAUBufferedTile@23@@1@XZ
	?allocate@?$allocator@V?$basic_string@DU?$char_traits@D@std@@V?$allocator@D@2@@std@@@std@@QAEPAV?$basic_string@DU?$char_traits@D@std@@V?$allocator@D@2@@2@I@Z
	??$?0U_Node@?$_Tree_nod@V?$_Tmap_traits@VName@Imf@@PAVAttribute@2@U?$less@VName@Imf@@@std@@V?$allocator@U?$pair@$$CBVName@Imf@@PAVAttribute@2@@std@@@5@$0A@@std@@@std@@@?$allocator@U_Container_proxy@std@@@std@@QAE@ABV?$allocator@U_Node@?$_Tree_nod@V?$_Tmap_traits@VName@Imf@@PAVAttribute@2@U?$less@VName@Imf@@@std@@V?$allocator@U?$pair@$$CBVName@Imf@@PAVAttribute@2@@std@@@5@$0A@@std@@@std@@@1@@Z
	??0ArgExc@Iex@@QAE@PBD@Z
	??$typedAttribute@V?$TypedAttribute@V?$Vec2@M@Imath@@@Imf@@@Header@Imf@@QBEABV?$TypedAttribute@V?$Vec2@M@Imath@@@1@QBD@Z
	?staticTypeName@?$TypedAttribute@V?$Matrix33@N@Imath@@@Imf@@SAPBDXZ
	?clear@?$vector@UTInSliceInfo@?A0xf6fcebb6@Imf@@V?$allocator@UTInSliceInfo@?A0xf6fcebb6@Imf@@@std@@@std@@QAEXXZ
	?setFrameBuffer@TiledOutputFile@Imf@@QAEXABVFrameBuffer@2@@Z
	??1?$_Iterator012@Ubidirectional_iterator_tag@std@@U?$pair@$$CBVName@Imf@@PAVAttribute@2@@2@HPBU32@ABU32@U_Iterator_base12@2@@std@@QAE@XZ
	?construct@?$allocator@U?$pair@$$CBVName@Imf@@UChannel@2@@std@@@std@@QAEXPAU?$pair@$$CBVName@Imf@@UChannel@2@@2@$$QAU32@@Z
	?_Insert@?$_Tree@V?$_Tmap_traits@VName@Imf@@PAVAttribute@2@U?$less@VName@Imf@@@std@@V?$allocator@U?$pair@$$CBVName@Imf@@PAVAttribute@2@@std@@@5@$0A@@std@@@std@@QAE?AV?$_Tree_iterator@V?$_Tree_val@V?$_Tmap_traits@VName@Imf@@PAVAttribute@2@U?$less@VName@Imf@@@std@@V?$allocator@U?$pair@$$CBVName@Imf@@PAVAttribute@2@@std@@@5@$0A@@std@@@std@@@2@V?$_Tree_const_iterator@V?$_Tree_val@V?$_Tmap_traits@VName@Imf@@PAVAttribute@2@U?$less@VName@Imf@@@std@@V?$allocator@U?$pair@$$CBVName@Imf@@PAVAttribute@2@@std@@@5@$0A@@std@@@std@@@2@PAU_Node@?$_Tree_nod@V?$_Tmap_traits@VName@Imf@@PAVAttribute@2@U?$less@VName@Imf@@@std@@V?$allocator@U?$pair@$$CBVName@Imf@@PAVAttribute@2@@std@@@5@$0A@@std@@@2@@Z
	??0?$TypedAttribute@V?$Box@V?$Vec2@M@Imath@@@Imath@@@Imf@@QAE@ABV?$Box@V?$Vec2@M@Imath@@@Imath@@@Z
	?writeChars@CharPtrIO@Imf@@SAXAAPADQBDH@Z
	?utcOffset@Imf@@YAABMABVHeader@1@@Z
	??E?$_Tree_unchecked_const_iterator@V?$_Tree_val@V?$_Tmap_traits@UTileCoord@?A0x39e5c904@Imf@@PAUBufferedTile@23@U?$less@UTileCoord@?A0x39e5c904@Imf@@@std@@V?$allocator@U?$pair@$$CBUTileCoord@?A0x39e5c904@Imf@@PAUBufferedTile@23@@std@@@6@$0A@@std@@@std@@U_Iterator_base12@2@@std@@QAEAAV01@XZ
	?_Grow_to@?$vector@V?$vector@_KV?$allocator@_K@std@@@std@@V?$allocator@V?$vector@_KV?$allocator@_K@std@@@std@@@2@@std@@IBEII@Z
	?levelMode@TiledRgbaInputFile@Imf@@QBE?AW4LevelMode@2@XZ
	?_Grow@?$basic_string@DU?$char_traits@D@std@@V?$allocator@D@2@@std@@QAE_NI_N@Z
	?infile@?A0xa29ce62f@@YAPBVTiledRgbaInputFile@Imf@@PBUImfTiledInputFile@@@Z
	??$?0AAQBDAAP6APAVAttribute@Imf@@XZ@?$_Pair_base@QBDP6APAVAttribute@Imf@@XZ@std@@QAE@AAQBDAAP6APAVAttribute@Imf@@XZ@Z
	??0?$vector@UOutSliceInfo@?A0xf57f9ec6@Imf@@V?$allocator@UOutSliceInfo@?A0xf57f9ec6@Imf@@@std@@@std@@QAE@XZ
	?construct@?$allocator@UOutSliceInfo@?A0xf57f9ec6@Imf@@@std@@QAEXPAUOutSliceInfo@?A0xf57f9ec6@Imf@@$$QAU345@@Z
	?hours@TimeCode@Imf@@QBEHXZ
	??0?$_Iterator012@Urandom_access_iterator_tag@std@@PAULineBuffer@?A0xcbf8ace6@Imf@@HPBQAU345@ABQAU345@U_Iterator_base12@2@@std@@QAE@XZ
	?chromaticitiesAttribute@Imf@@YAAAV?$TypedAttribute@UChromaticities@Imf@@@1@AAVHeader@1@@Z
	ImfHeaderBox2iAttribute
	??$?0U_Node@?$_Tree_nod@V?$_Tmap_traits@UTileCoord@?A0x39e5c904@Imf@@PAUBufferedTile@23@U?$less@UTileCoord@?A0x39e5c904@Imf@@@std@@V?$allocator@U?$pair@$$CBUTileCoord@?A0x39e5c904@Imf@@PAUBufferedTile@23@@std@@@6@$0A@@std@@@std@@@?$allocator@U_Container_proxy@std@@@std@@QAE@ABV?$allocator@U_Node@?$_Tree_nod@V?$_Tmap_traits@UTileCoord@?A0x39e5c904@Imf@@PAUBufferedTile@23@U?$less@UTileCoord@?A0x39e5c904@Imf@@@std@@V?$allocator@U?$pair@$$CBUTileCoord@?A0x39e5c904@Imf@@PAUBufferedTile@23@@std@@@6@$0A@@std@@@std@@@1@@Z
	??1?$_Vector_const_iterator@V?$_Vector_val@_KV?$allocator@_K@std@@@std@@@std@@QAE@XZ
	?allocate@?$allocator@U_Node@?$_Tree_nod@V?$_Tmap_traits@UTileCoord@?A0x39e5c904@Imf@@PAUBufferedTile@23@U?$less@UTileCoord@?A0x39e5c904@Imf@@@std@@V?$allocator@U?$pair@$$CBUTileCoord@?A0x39e5c904@Imf@@PAUBufferedTile@23@@std@@@6@$0A@@std@@@std@@@std@@QAEPAU_Node@?$_Tree_nod@V?$_Tmap_traits@UTileCoord@?A0x39e5c904@Imf@@PAUBufferedTile@23@U?$less@UTileCoord@?A0x39e5c904@Imf@@@std@@V?$allocator@U?$pair@$$CBUTileCoord@?A0x39e5c904@Imf@@PAUBufferedTile@23@@std@@@6@$0A@@std@@@2@I@Z
	??4?$Vec3@M@Imath@@QAEABV01@ABV01@@Z
	??4?$vector@UInSliceInfo@?A0xcbf8ace6@Imf@@V?$allocator@UInSliceInfo@?A0xcbf8ace6@Imf@@@std@@@std@@QAEAAV01@ABV01@@Z
	?allocate@?$allocator@UOutSliceInfo@?A0xf57f9ec6@Imf@@@std@@QAEPAUOutSliceInfo@?A0xf57f9ec6@Imf@@I@Z
	??$_Uninit_def_fill_n@PAV?$vector@_KV?$allocator@_K@std@@@std@@IV12@V?$allocator@V?$vector@_KV?$allocator@_K@std@@@std@@@2@V12@@std@@YAXPAV?$vector@_KV?$allocator@_K@std@@@0@IPBV10@AAV?$allocator@V?$vector@_KV?$allocator@_K@std@@@std@@@0@0U_Nonscalar_ptr_iterator_tag@0@@Z
	??0?$Vec2@N@Imath@@QAE@XZ
	??$_Debug_range2@PAPAULineBuffer@?A0xcbf8ace6@Imf@@@std@@YAXPAPAULineBuffer@?A0xcbf8ace6@Imf@@0PB_WIUrandom_access_iterator_tag@0@@Z
	??H?$_Vector_iterator@V?$_Vector_val@PAULineBuffer@?A0xcbf8ace6@Imf@@V?$allocator@PAULineBuffer@?A0xcbf8ace6@Imf@@@std@@@std@@@std@@QBE?AV01@H@Z
	?end@Header@Imf@@QAE?AVIterator@12@XZ
	?writeValueTo@?$TypedAttribute@W4LineOrder@Imf@@@Imf@@UBEXAAVOStream@2@H@Z
	??$_Dest_val@V?$allocator@UOutSliceInfo@?A0xf57f9ec6@Imf@@@std@@UOutSliceInfo@?A0xf57f9ec6@Imf@@@std@@YAXAAV?$allocator@UOutSliceInfo@?A0xf57f9ec6@Imf@@@0@PAUOutSliceInfo@?A0xf57f9ec6@Imf@@@Z
	??0?$vector@PAULineBuffer@?A0xf57f9ec6@Imf@@V?$allocator@PAULineBuffer@?A0xf57f9ec6@Imf@@@std@@@std@@QAE@XZ
	?screenWindowCenter@Header@Imf@@QBEABV?$Vec2@M@Imath@@XZ
	??0?$vector@V?$vector@_KV?$allocator@_K@std@@@std@@V?$allocator@V?$vector@_KV?$allocator@_K@std@@@std@@@2@@std@@QAE@ABV01@@Z
	??1?$TypedAttribute@V?$vector@V?$basic_string@DU?$char_traits@D@std@@V?$allocator@D@2@@std@@V?$allocator@V?$basic_string@DU?$char_traits@D@std@@V?$allocator@D@2@@std@@@2@@std@@@Imf@@UAE@XZ
	??0?$basic_string@DU?$char_traits@D@std@@V?$allocator@D@2@@std@@QAE@$$QAV01@@Z
	??A?$Matrix33@N@Imath@@QBEPBNH@Z
	?_Reserve@?$vector@PAUTileBuffer@?A0x39e5c904@Imf@@V?$allocator@PAUTileBuffer@?A0x39e5c904@Imf@@@std@@@std@@IAEXI@Z
	??4?$basic_string@DU?$char_traits@D@std@@V?$allocator@D@2@@std@@QAEAAV01@$$QAV01@@Z
	?construct@?$allocator@V?$vector@_KV?$allocator@_K@std@@@std@@@std@@QAEXPAV?$vector@_KV?$allocator@_K@std@@@2@ABV32@@Z
	?apply@RgbaLut@Imf@@QBEXPAURgba@2@HH@Z
	??1B44Compressor@Imf@@UAE@XZ
	??0?$_Tree@V?$_Tmap_traits@UTileCoord@?A0x39e5c904@Imf@@PAUBufferedTile@23@U?$less@UTileCoord@?A0x39e5c904@Imf@@@std@@V?$allocator@U?$pair@$$CBUTileCoord@?A0x39e5c904@Imf@@PAUBufferedTile@23@@std@@@6@$0A@@std@@@std@@QAE@ABU?$less@UTileCoord@?A0x39e5c904@Imf@@@1@ABV?$allocator@U?$pair@$$CBUTileCoord@?A0x39e5c904@Imf@@PAUBufferedTile@23@@std@@@1@@Z
	?getBits@?A0xc87c6bb7@Imf@@YA_KHAA_KAAHAAPBD@Z
	?cast@?$TypedAttribute@V?$Matrix44@N@Imath@@@Imf@@SAPBV12@PBVAttribute@2@@Z
	?commentsAttribute@Imf@@YAABV?$TypedAttribute@V?$basic_string@DU?$char_traits@D@std@@V?$allocator@D@2@@std@@@1@ABVHeader@1@@Z
	??4Iterator@ChannelList@Imf@@QAEAAV012@ABV012@@Z
	??0?$_Iterator012@Ubidirectional_iterator_tag@std@@U?$pair@QBDP6APAVAttribute@Imf@@XZ@2@HPBU32@ABU32@U_Iterator_base12@2@@std@@QAE@XZ
	?staticTypeName@?$TypedAttribute@V?$Vec3@N@Imath@@@Imf@@SAPBDXZ
	?registerAttributeType@?$TypedAttribute@W4LineOrder@Imf@@@Imf@@SAXXZ
	?writeTile@TiledOutputFile@Imf@@QAEXHHHH@Z
	??1?$_Iterator012@Urandom_access_iterator_tag@std@@PAUTileBuffer@?A0x39e5c904@Imf@@HPBQAU345@ABQAU345@U_Iterator_base12@2@@std@@QAE@XZ
	??1?$vector@PAULineBuffer@?A0xcbf8ace6@Imf@@V?$allocator@PAULineBuffer@?A0xcbf8ace6@Imf@@@std@@@std@@QAE@XZ
	?_Inside@?$vector@UInSliceInfo@?A0xcbf8ace6@Imf@@V?$allocator@UInSliceInfo@?A0xcbf8ace6@Imf@@@std@@@std@@IBE_NPBUInSliceInfo@?A0xcbf8ace6@Imf@@@Z
	?setFieldPhase@TimeCode@Imf@@QAEX_N@Z
	??1_Sentry_base@?$basic_ostream@DU?$char_traits@D@std@@@std@@QAE@XZ
	?_Xlen@?$vector@PAUTileBuffer@?A0xf6fcebb6@Imf@@V?$allocator@PAUTileBuffer@?A0xf6fcebb6@Imf@@@std@@@std@@IBEXXZ
	??1IStream@Imf@@UAE@XZ
	?destroy@?$allocator@UTInSliceInfo@?A0xf6fcebb6@Imf@@@std@@QAEXPAUTInSliceInfo@?A0xf6fcebb6@Imf@@@Z
	?isTiledOpenExrFile@Imf@@YA_NQBD@Z
	??$_Dest_val@V?$allocator@U?$pair@$$CBUTileCoord@?A0x39e5c904@Imf@@PAUBufferedTile@23@@std@@@std@@U?$pair@$$CBUTileCoord@?A0x39e5c904@Imf@@PAUBufferedTile@23@@2@@std@@YAXAAV?$allocator@U?$pair@$$CBUTileCoord@?A0x39e5c904@Imf@@PAUBufferedTile@23@@std@@@0@PAU?$pair@$$CBUTileCoord@?A0x39e5c904@Imf@@PAUBufferedTile@23@@0@@Z
	?tFile@InputFile@Imf@@AAEPAVTiledInputFile@2@XZ
	?uncompressTile@PizCompressor@Imf@@UAEHPBDHV?$Box@V?$Vec2@H@Imath@@@Imath@@AAPBD@Z
	?find@Header@Imf@@QAE?AVIterator@12@ABV?$basic_string@DU?$char_traits@D@std@@V?$allocator@D@2@@std@@@Z
	??0?$_Tree_iterator@V?$_Tree_val@V?$_Tmap_traits@VName@Imf@@PAVAttribute@2@U?$less@VName@Imf@@@std@@V?$allocator@U?$pair@$$CBVName@Imf@@PAVAttribute@2@@std@@@5@$0A@@std@@@std@@@std@@QAE@ABV01@@Z
	??$forward@$$CBUTileCoord@?A0x39e5c904@Imf@@@std@@YA$$QBUTileCoord@?A0x39e5c904@Imf@@ABU123@@Z
	??0?$_Vector_val@PAUTileBuffer@?A0x39e5c904@Imf@@V?$allocator@PAUTileBuffer@?A0x39e5c904@Imf@@@std@@@std@@QAE@V?$allocator@PAUTileBuffer@?A0x39e5c904@Imf@@@1@@Z
	??C?$_Tree_unchecked_const_iterator@V?$_Tree_val@V?$_Tmap_traits@VName@Imf@@PAVAttribute@2@U?$less@VName@Imf@@@std@@V?$allocator@U?$pair@$$CBVName@Imf@@PAVAttribute@2@@std@@@5@$0A@@std@@@std@@U_Iterator_base12@2@@std@@QBEPBU?$pair@$$CBVName@Imf@@PAVAttribute@2@@1@XZ
	?find@ChannelList@Imf@@QBE?AVConstIterator@12@ABV?$basic_string@DU?$char_traits@D@std@@V?$allocator@D@2@@std@@@Z
	??0?$vector@PAUTileBuffer@?A0x39e5c904@Imf@@V?$allocator@PAUTileBuffer@?A0x39e5c904@Imf@@@std@@@std@@QAE@XZ
	?find@FrameBuffer@Imf@@QBE?AVConstIterator@12@ABV?$basic_string@DU?$char_traits@D@std@@V?$allocator@D@2@@std@@@Z
	??$_Move@PA_KPA_K@std@@YAPA_KPA_K00@Z
	?_Myval@?$_Tree_val@V?$_Tmap_traits@PBDP6APAVAttribute@Imf@@XZUNameCompare@?A0x0779e1ad@2@V?$allocator@U?$pair@QBDP6APAVAttribute@Imf@@XZ@std@@@std@@$0A@@std@@@std@@SAAAU?$pair@QBDP6APAVAttribute@Imf@@XZ@2@PAU_Node@?$_Tree_nod@V?$_Tmap_traits@PBDP6APAVAttribute@Imf@@XZUNameCompare@?A0x0779e1ad@2@V?$allocator@U?$pair@QBDP6APAVAttribute@Imf@@XZ@std@@@std@@$0A@@std@@@2@@Z
	?begin@?$_Tree@V?$_Tmap_traits@VName@Imf@@UChannel@2@U?$less@VName@Imf@@@std@@V?$allocator@U?$pair@$$CBVName@Imf@@UChannel@2@@std@@@5@$0A@@std@@@std@@QAE?AV?$_Tree_iterator@V?$_Tree_val@V?$_Tmap_traits@VName@Imf@@UChannel@2@U?$less@VName@Imf@@@std@@V?$allocator@U?$pair@$$CBVName@Imf@@UChannel@2@@std@@@5@$0A@@std@@@std@@@2@XZ
	?levelWidth@TiledInputFile@Imf@@QBEHH@Z
	?channels@TiledRgbaOutputFile@Imf@@QBE?AW4RgbaChannels@2@XZ
	??Y?$_Vector_iterator@V?$_Vector_val@IV?$allocator@I@std@@@std@@@std@@QAEAAV01@H@Z
	?_Left@?$_Tree_val@V?$_Tmap_traits@VName@Imf@@USlice@2@U?$less@VName@Imf@@@std@@V?$allocator@U?$pair@$$CBVName@Imf@@USlice@2@@std@@@5@$0A@@std@@@std@@SAAAPAU_Node@?$_Tree_nod@V?$_Tmap_traits@VName@Imf@@USlice@2@U?$less@VName@Imf@@@std@@V?$allocator@U?$pair@$$CBVName@Imf@@USlice@2@@std@@@5@$0A@@std@@@2@PAU342@@Z
	??0SingMatrixExc@Imath@@QAE@PBD@Z
	??1?$_Vector_iterator@V?$_Vector_val@_KV?$allocator@_K@std@@@std@@@std@@QAE@XZ
	?_Make_iter@?$vector@PAULineBuffer@?A0xcbf8ace6@Imf@@V?$allocator@PAULineBuffer@?A0xcbf8ace6@Imf@@@std@@@std@@QBE?AV?$_Vector_iterator@V?$_Vector_val@PAULineBuffer@?A0xcbf8ace6@Imf@@V?$allocator@PAULineBuffer@?A0xcbf8ace6@Imf@@@std@@@std@@@2@V?$_Vector_const_iterator@V?$_Vector_val@PAULineBuffer@?A0xcbf8ace6@Imf@@V?$allocator@PAULineBuffer@?A0xcbf8ace6@Imf@@@std@@@std@@@2@@Z
	??$_Ptr_cat@V?$_Vector_const_iterator@V?$_Vector_val@V?$basic_string@DU?$char_traits@D@std@@V?$allocator@D@2@@std@@V?$allocator@V?$basic_string@DU?$char_traits@D@std@@V?$allocator@D@2@@std@@@2@@std@@@std@@PAV?$basic_string@DU?$char_traits@D@std@@V?$allocator@D@2@@2@@std@@YA?AU_Nonscalar_ptr_iterator_tag@0@AAV?$_Vector_const_iterator@V?$_Vector_val@V?$basic_string@DU?$char_traits@D@std@@V?$allocator@D@2@@std@@V?$allocator@V?$basic_string@DU?$char_traits@D@std@@V?$allocator@D@2@@std@@@2@@std@@@0@AAPAV?$basic_string@DU?$char_traits@D@std@@V?$allocator@D@2@@0@@Z
	??$_Ucopy@PAUTInSliceInfo@?A0xf6fcebb6@Imf@@@?$vector@UTInSliceInfo@?A0xf6fcebb6@Imf@@V?$allocator@UTInSliceInfo@?A0xf6fcebb6@Imf@@@std@@@std@@IAEPAUTInSliceInfo@?A0xf6fcebb6@Imf@@PAU234@00@Z
	?screenWindowCenter@RgbaOutputFile@Imf@@QBE?BV?$Vec2@M@Imath@@XZ
	??1?$_Iterator012@Ubidirectional_iterator_tag@std@@U?$pair@QBDP6APAVAttribute@Imf@@XZ@2@HPBU32@ABU32@U_Iterator_base12@2@@std@@QAE@XZ
	??$min@Vhalf@@@std@@YAABVhalf@@ABV1@0@Z
	??9?$_Tree_const_iterator@V?$_Tree_val@V?$_Tmap_traits@VName@Imf@@UChannel@2@U?$less@VName@Imf@@@std@@V?$allocator@U?$pair@$$CBVName@Imf@@UChannel@2@@std@@@5@$0A@@std@@@std@@@std@@QBE_NABV01@@Z
	?begin@?$vector@UTOutSliceInfo@?A0x39e5c904@Imf@@V?$allocator@UTOutSliceInfo@?A0x39e5c904@Imf@@@std@@@std@@QAE?AV?$_Vector_iterator@V?$_Vector_val@UTOutSliceInfo@?A0x39e5c904@Imf@@V?$allocator@UTOutSliceInfo@?A0x39e5c904@Imf@@@std@@@std@@@2@XZ
	?isComplete@TiledRgbaInputFile@Imf@@QBE_NXZ
	?cast@?$TypedAttribute@VTimeCode@Imf@@@Imf@@SAPBV12@PBVAttribute@2@@Z
	??0?$_Pair_base@$$CBVName@Imf@@PAVAttribute@2@@std@@QAE@ABVName@Imf@@$$QAPAVAttribute@3@@Z
	?typeName@OpaqueAttribute@Imf@@UBEPBDXZ
	ImfHeaderSetM44fAttribute
	??B?$AutoArray@UHufDec@?A0xc87c6bb7@Imf@@$0EAAA@@Imf@@QAEPAUHufDec@?A0xc87c6bb7@1@XZ
	?_Max@?$_Tree_val@V?$_Tmap_traits@PBDP6APAVAttribute@Imf@@XZUNameCompare@?A0x0779e1ad@2@V?$allocator@U?$pair@QBDP6APAVAttribute@Imf@@XZ@std@@@std@@$0A@@std@@@std@@SAPAU_Node@?$_Tree_nod@V?$_Tmap_traits@PBDP6APAVAttribute@Imf@@XZUNameCompare@?A0x0779e1ad@2@V?$allocator@U?$pair@QBDP6APAVAttribute@Imf@@XZ@std@@@std@@$0A@@std@@@2@PAU342@@Z
	?hufDecode@?A0xc87c6bb7@Imf@@YAXPB_KPBUHufDec@12@PBDHHHPAG@Z
	??E?$_Tree_iterator@V?$_Tree_val@V?$_Tmap_traits@VName@Imf@@PAVAttribute@2@U?$less@VName@Imf@@@std@@V?$allocator@U?$pair@$$CBVName@Imf@@PAVAttribute@2@@std@@@5@$0A@@std@@@std@@@std@@QAEAAV01@XZ
	??$write@UStreamIO@Imf@@VOStream@2@@Xdr@Imf@@YAXAAVOStream@1@I@Z
	?isValidCompression@Imf@@YA_NW4Compression@1@@Z
	?seekoff@?$basic_filebuf@DU?$char_traits@D@std@@@std@@MAE?AV?$fpos@H@2@_JHH@Z
	??1?$_Vector_val@UInSliceInfo@?A0xcbf8ace6@Imf@@V?$allocator@UInSliceInfo@?A0xcbf8ace6@Imf@@@std@@@std@@QAE@XZ
	??$forward@AAUInSliceInfo@?A0xcbf8ace6@Imf@@@std@@YAAAUInSliceInfo@?A0xcbf8ace6@Imf@@AAU123@@Z
	??0PreviewRgba@Imf@@QAE@EEEE@Z
	??1?$_Vector_const_iterator@V?$_Vector_val@UInSliceInfo@?A0xcbf8ace6@Imf@@V?$allocator@UInSliceInfo@?A0xcbf8ace6@Imf@@@std@@@std@@@std@@QAE@XZ
	?convertToXdr@?A0x39e5c904@Imf@@YAXPAUData@TiledOutputFile@2@AAV?$Array@D@2@HH@Z
	?value@?$TypedAttribute@VTimeCode@Imf@@@Imf@@QBEABVTimeCode@2@XZ
	??8TileDescription@Imf@@QBE_NABV01@@Z
	??$_Fill_n@PAPAUTileBuffer@?A0xf6fcebb6@Imf@@IPAU123@@std@@YAXPAPAUTileBuffer@?A0xf6fcebb6@Imf@@IABQAU123@@Z
	??1?$_Pair_base@V?$_Tree_iterator@V?$_Tree_val@V?$_Tmap_traits@VName@Imf@@PAVAttribute@2@U?$less@VName@Imf@@@std@@V?$allocator@U?$pair@$$CBVName@Imf@@PAVAttribute@2@@std@@@5@$0A@@std@@@std@@@std@@_N@std@@QAE@XZ
	?begin@Header@Imf@@QBE?AVConstIterator@12@XZ
	?notEnoughData@?A0xc87c6bb7@Imf@@YAXXZ
	?utcOffsetAttribute@Imf@@YAAAV?$TypedAttribute@M@1@AAVHeader@1@@Z
	??0TimeCode@Imf@@QAE@HHHH_N00000HHHHHHHH@Z
	??$_Uninitialized_copy@PAV?$vector@_KV?$allocator@_K@std@@@std@@PAV12@V?$allocator@V?$vector@_KV?$allocator@_K@std@@@std@@@2@@std@@YAPAV?$vector@_KV?$allocator@_K@std@@@0@PAV10@00AAV?$allocator@V?$vector@_KV?$allocator@_K@std@@@std@@@0@@Z
	??1?$basic_ifstream@DU?$char_traits@D@std@@@std@@UAE@XZ
	??E?$_Tree_const_iterator@V?$_Tree_val@V?$_Tmap_traits@UTileCoord@?A0x39e5c904@Imf@@PAUBufferedTile@23@U?$less@UTileCoord@?A0x39e5c904@Imf@@@std@@V?$allocator@U?$pair@$$CBUTileCoord@?A0x39e5c904@Imf@@PAUBufferedTile@23@@std@@@6@$0A@@std@@@std@@@std@@QAEAAV01@XZ
	??$addressof@U?$pair@$$CBVName@Imf@@UChannel@2@@std@@@std@@YAPAU?$pair@$$CBVName@Imf@@UChannel@2@@0@AAU10@@Z
	??1Iterator@ChannelList@Imf@@QAE@XZ
	?channelsInNoView@Imf@@YA?AVChannelList@1@ABV21@ABV?$vector@V?$basic_string@DU?$char_traits@D@std@@V?$allocator@D@2@@std@@V?$allocator@V?$basic_string@DU?$char_traits@D@std@@V?$allocator@D@2@@std@@@2@@std@@@Z
	?overflow@?$basic_stringbuf@DU?$char_traits@D@std@@V?$allocator@D@2@@std@@MAEHH@Z
	??1FromYca@RgbaInputFile@Imf@@UAE@XZ
	??0?$_Pair_base@V?$_Tree_iterator@V?$_Tree_val@V?$_Tmap_traits@VName@Imf@@USlice@2@U?$less@VName@Imf@@@std@@V?$allocator@U?$pair@$$CBVName@Imf@@USlice@2@@std@@@5@$0A@@std@@@std@@@std@@_N@std@@QAE@$$QAV?$_Tree_iterator@V?$_Tree_val@V?$_Tmap_traits@VName@Imf@@USlice@2@U?$less@VName@Imf@@@std@@V?$allocator@U?$pair@$$CBVName@Imf@@USlice@2@@std@@@5@$0A@@std@@@std@@@1@$$QA_N@Z
	?capacity@?$vector@_KV?$allocator@_K@std@@@std@@QBEIXZ
	??1?$_Iterator012@Urandom_access_iterator_tag@std@@UTInSliceInfo@?A0xf6fcebb6@Imf@@HPBU345@ABU345@U_Iterator_base12@2@@std@@QAE@XZ
	??9?$_Vector_const_iterator@V?$_Vector_val@PAULineBuffer@?A0xcbf8ace6@Imf@@V?$allocator@PAULineBuffer@?A0xcbf8ace6@Imf@@@std@@@std@@@std@@QBE_NABV01@@Z
	?computeYw@RgbaYca@Imf@@YA?AV?$Vec3@M@Imath@@ABUChromaticities@2@@Z
	?goodbit@?$_Iosb@H@std@@2W4_Iostate@12@B
	??8?$_Tree_const_iterator@V?$_Tree_val@V?$_Tset_traits@V?$basic_string@DU?$char_traits@D@std@@V?$allocator@D@2@@std@@U?$less@V?$basic_string@DU?$char_traits@D@std@@V?$allocator@D@2@@std@@@2@V?$allocator@V?$basic_string@DU?$char_traits@D@std@@V?$allocator@D@2@@std@@@2@$0A@@std@@@std@@@std@@QBE_NABV01@@Z
	?capDate@Imf@@YAAAV?$basic_string@DU?$char_traits@D@std@@V?$allocator@D@2@@std@@AAVHeader@1@@Z
	??$move@AAV?$vector@V?$vector@_KV?$allocator@_K@std@@@std@@V?$allocator@V?$vector@_KV?$allocator@_K@std@@@std@@@2@@std@@@std@@YA$$QAV?$vector@V?$vector@_KV?$allocator@_K@std@@@std@@V?$allocator@V?$vector@_KV?$allocator@_K@std@@@std@@@2@@0@AAV10@@Z
	??$_Debug_range@PAPAUTileBuffer@?A0x39e5c904@Imf@@@std@@YAXPAPAUTileBuffer@?A0x39e5c904@Imf@@0PB_WI@Z
	?cast@?$TypedAttribute@VChannelList@Imf@@@Imf@@SAPBV12@PBVAttribute@2@@Z
	sqrtf
	??$readUnsignedChars@UStreamIO@Imf@@VIStream@2@@Xdr@Imf@@YAXAAVIStream@1@QAEH@Z
	??4?$Box@V?$Vec2@H@Imath@@@Imath@@QAEAAV01@ABV01@@Z
	??0?$_Tree_unchecked_const_iterator@V?$_Tree_val@V?$_Tmap_traits@VName@Imf@@UChannel@2@U?$less@VName@Imf@@@std@@V?$allocator@U?$pair@$$CBVName@Imf@@UChannel@2@@std@@@5@$0A@@std@@@std@@U_Iterator_base12@2@@std@@QAE@PAU_Node@?$_Tree_nod@V?$_Tmap_traits@VName@Imf@@UChannel@2@U?$less@VName@Imf@@@std@@V?$allocator@U?$pair@$$CBVName@Imf@@UChannel@2@@std@@@5@$0A@@std@@@1@PBV?$_Tree_val@V?$_Tmap_traits@VName@Imf@@UChannel@2@U?$less@VName@Imf@@@std@@V?$allocator@U?$pair@$$CBVName@Imf@@UChannel@2@@std@@@5@$0A@@std@@@1@@Z
	??9?$_Tree_const_iterator@V?$_Tree_val@V?$_Tmap_traits@VName@Imf@@USlice@2@U?$less@VName@Imf@@@std@@V?$allocator@U?$pair@$$CBVName@Imf@@USlice@2@@std@@@5@$0A@@std@@@std@@@std@@QBE_NABV01@@Z
	??$forward@_K@std@@YA$$QA_KAA_K@Z
	??$typedAttribute@V?$TypedAttribute@V?$Matrix33@M@Imath@@@Imf@@@Header@Imf@@QAEAAV?$TypedAttribute@V?$Matrix33@M@Imath@@@1@QBD@Z
	??0?$_Iterator012@Urandom_access_iterator_tag@std@@V?$vector@_KV?$allocator@_K@std@@@2@HPBV32@ABV32@U_Iterator_base12@2@@std@@QAE@ABU01@@Z
	?beg@?$_Iosb@H@std@@2W4_Seekdir@12@B
	?_Eos@?$basic_string@DU?$char_traits@D@std@@V?$allocator@D@2@@std@@QAEXI@Z
	??8?$_Vector_const_iterator@V?$_Vector_val@PAULineBuffer@?A0xcbf8ace6@Imf@@V?$allocator@PAULineBuffer@?A0xcbf8ace6@Imf@@@std@@@std@@@std@@QBE_NABV01@@Z
	?writeTo@TileOffsets@Imf@@QBE_KAAVOStream@2@@Z
	??1Header@Imf@@QAE@XZ
	??$construct@AAV?$vector@_KV?$allocator@_K@std@@@std@@@?$allocator@V?$vector@_KV?$allocator@_K@std@@@std@@@std@@QAEXPAV?$vector@_KV?$allocator@_K@std@@@1@AAV21@@Z
	??1bad_alloc@std@@UAE@XZ
	?cast@?$TypedAttribute@V?$Vec2@M@Imath@@@Imf@@SAABV12@ABVAttribute@2@@Z
	??1?$_Iterator012@Urandom_access_iterator_tag@std@@PAULineBuffer@?A0xcbf8ace6@Imf@@HPBQAU345@ABQAU345@U_Iterator_base12@2@@std@@QAE@XZ
	??0?$Matrix33@M@Imath@@QAE@XZ
	??0?$pair@V?$_Tree_iterator@V?$_Tree_val@V?$_Tmap_traits@VName@Imf@@USlice@2@U?$less@VName@Imf@@@std@@V?$allocator@U?$pair@$$CBVName@Imf@@USlice@2@@std@@@5@$0A@@std@@@std@@@std@@_N@std@@QAE@$$QAV?$_Tree_iterator@V?$_Tree_val@V?$_Tmap_traits@VName@Imf@@USlice@2@U?$less@VName@Imf@@@std@@V?$allocator@U?$pair@$$CBVName@Imf@@USlice@2@@std@@@5@$0A@@std@@@std@@@1@$$QA_N@Z
	??0?$_Tmap_traits@VName@Imf@@PAVAttribute@2@U?$less@VName@Imf@@@std@@V?$allocator@U?$pair@$$CBVName@Imf@@PAVAttribute@2@@std@@@5@$0A@@std@@QAE@U?$less@VName@Imf@@@1@@Z
	?_Erase@?$_Tree@V?$_Tmap_traits@VName@Imf@@PAVAttribute@2@U?$less@VName@Imf@@@std@@V?$allocator@U?$pair@$$CBVName@Imf@@PAVAttribute@2@@std@@@5@$0A@@std@@@std@@IAEXPAU_Node@?$_Tree_nod@V?$_Tmap_traits@VName@Imf@@PAVAttribute@2@U?$less@VName@Imf@@@std@@V?$allocator@U?$pair@$$CBVName@Imf@@PAVAttribute@2@@std@@@5@$0A@@std@@@2@@Z
	??$_Copy_impl@PAV?$vector@V?$vector@_KV?$allocator@_K@std@@@std@@V?$allocator@V?$vector@_KV?$allocator@_K@std@@@std@@@2@@std@@PAV12@@std@@YAPAV?$vector@V?$vector@_KV?$allocator@_K@std@@@std@@V?$allocator@V?$vector@_KV?$allocator@_K@std@@@std@@@2@@0@PAV10@00U_Nonscalar_ptr_iterator_tag@0@@Z
	?cast@?$TypedAttribute@V?$Matrix44@M@Imath@@@Imf@@SAABV12@ABVAttribute@2@@Z
	?end@?$vector@V?$vector@_KV?$allocator@_K@std@@@std@@V?$allocator@V?$vector@_KV?$allocator@_K@std@@@std@@@2@@std@@QAE?AV?$_Vector_iterator@V?$_Vector_val@V?$vector@_KV?$allocator@_K@std@@@std@@V?$allocator@V?$vector@_KV?$allocator@_K@std@@@std@@@2@@std@@@2@XZ
	?copyValueFrom@?$TypedAttribute@VTileDescription@Imf@@@Imf@@UAEXABVAttribute@2@@Z
	?end@Header@Imf@@QBE?AVConstIterator@12@XZ
	?find@?$_Tree@V?$_Tmap_traits@VName@Imf@@USlice@2@U?$less@VName@Imf@@@std@@V?$allocator@U?$pair@$$CBVName@Imf@@USlice@2@@std@@@5@$0A@@std@@@std@@QBE?AV?$_Tree_const_iterator@V?$_Tree_val@V?$_Tmap_traits@VName@Imf@@USlice@2@U?$less@VName@Imf@@@std@@V?$allocator@U?$pair@$$CBVName@Imf@@USlice@2@@std@@@5@$0A@@std@@@std@@@2@ABVName@Imf@@@Z
	?header@TiledRgbaOutputFile@Imf@@QBEABVHeader@2@XZ
	??$read@UCharPtrIO@Imf@@PBD@Xdr@Imf@@YAXAAPBDAAG@Z
	?apply@HalfLut@Imf@@QBEXABUSlice@2@ABV?$Box@V?$Vec2@H@Imath@@@Imath@@@Z
	??$write@UStreamIO@Imf@@VOStream@2@@Xdr@Imf@@YAXAAVOStream@1@M@Z
	?channelInAllViews@Imf@@YA?AVChannelList@1@ABV?$basic_string@DU?$char_traits@D@std@@V?$allocator@D@2@@std@@ABV21@ABV?$vector@V?$basic_string@DU?$char_traits@D@std@@V?$allocator@D@2@@std@@V?$allocator@V?$basic_string@DU?$char_traits@D@std@@V?$allocator@D@2@@std@@@2@@4@@Z
	?capacity@?$vector@V?$vector@V?$vector@_KV?$allocator@_K@std@@@std@@V?$allocator@V?$vector@_KV?$allocator@_K@std@@@std@@@2@@std@@V?$allocator@V?$vector@V?$vector@_KV?$allocator@_K@std@@@std@@V?$allocator@V?$vector@_KV?$allocator@_K@std@@@std@@@2@@std@@@2@@std@@QBEIXZ
	?registerAttributeType@?$TypedAttribute@V?$Matrix44@M@Imath@@@Imf@@SAXXZ
	?_Rank@?$_Arithmetic_traits@H@std@@2HB
	?staticTypeName@?$TypedAttribute@V?$Vec3@M@Imath@@@Imf@@SAPBDXZ
	??0?$basic_string@DU?$char_traits@D@std@@V?$allocator@D@2@@std@@QAE@PBDI@Z
	?makeEmpty@?$Box@V?$Vec2@H@Imath@@@Imath@@QAEXXZ
	?numYLevels@TiledOutputFile@Imf@@QBEHXZ
	?internal@?$_Iosb@H@std@@2W4_Fmtflags@12@B
	?ywFromHeader@?A0x756c113c@Imf@@YA?AV?$Vec3@M@Imath@@ABVHeader@2@@Z
	?hufCompress@Imf@@YAHQBGHQAD@Z
	??1?$_Vector_iterator@V?$_Vector_val@PAULineBuffer@?A0xf57f9ec6@Imf@@V?$allocator@PAULineBuffer@?A0xf57f9ec6@Imf@@@std@@@std@@@std@@QAE@XZ
	?end@?$vector@PAUTileBuffer@?A0xf6fcebb6@Imf@@V?$allocator@PAUTileBuffer@?A0xf6fcebb6@Imf@@@std@@@std@@QAE?AV?$_Vector_iterator@V?$_Vector_val@PAUTileBuffer@?A0xf6fcebb6@Imf@@V?$allocator@PAUTileBuffer@?A0xf6fcebb6@Imf@@@std@@@std@@@2@XZ
	??$_Umove@PAPAUTileBuffer@?A0x39e5c904@Imf@@@?$vector@PAUTileBuffer@?A0x39e5c904@Imf@@V?$allocator@PAUTileBuffer@?A0x39e5c904@Imf@@@std@@@std@@IAEPAPAUTileBuffer@?A0x39e5c904@Imf@@PAPAU234@00@Z
	??$make_heap@PAPA_KUFHeapCompare@?A0xc87c6bb7@Imf@@@std@@YAXPAPA_K0UFHeapCompare@?A0xc87c6bb7@Imf@@@Z
	?eq@?$char_traits@D@std@@SA_NABD0@Z
	??$typedAttribute@V?$TypedAttribute@V?$Vec2@M@Imath@@@Imf@@@Header@Imf@@QAEAAV?$TypedAttribute@V?$Vec2@M@Imath@@@1@QBD@Z
	??9?$_Tree_const_iterator@V?$_Tree_val@V?$_Tmap_traits@UTileCoord@?A0x39e5c904@Imf@@PAUBufferedTile@23@U?$less@UTileCoord@?A0x39e5c904@Imf@@@std@@V?$allocator@U?$pair@$$CBUTileCoord@?A0x39e5c904@Imf@@PAUBufferedTile@23@@std@@@6@$0A@@std@@@std@@@std@@QBE_NABV01@@Z
	?dataWindow@TiledRgbaInputFile@Imf@@QBEABV?$Box@V?$Vec2@H@Imath@@@Imath@@XZ
	?_Orphan_ptr@?$_Tree@V?$_Tmap_traits@UTileCoord@?A0x39e5c904@Imf@@PAUBufferedTile@23@U?$less@UTileCoord@?A0x39e5c904@Imf@@@std@@V?$allocator@U?$pair@$$CBUTileCoord@?A0x39e5c904@Imf@@PAUBufferedTile@23@@std@@@6@$0A@@std@@@std@@IBEXAAV12@PAU_Node@?$_Tree_nod@V?$_Tmap_traits@UTileCoord@?A0x39e5c904@Imf@@PAUBufferedTile@23@U?$less@UTileCoord@?A0x39e5c904@Imf@@@std@@V?$allocator@U?$pair@$$CBUTileCoord@?A0x39e5c904@Imf@@PAUBufferedTile@23@@std@@@6@$0A@@std@@@2@@Z
	??$_Ucopy@V?$_Vector_const_iterator@V?$_Vector_val@V?$vector@_KV?$allocator@_K@std@@@std@@V?$allocator@V?$vector@_KV?$allocator@_K@std@@@std@@@2@@std@@@std@@@?$vector@V?$vector@_KV?$allocator@_K@std@@@std@@V?$allocator@V?$vector@_KV?$allocator@_K@std@@@std@@@2@@std@@IAEPAV?$vector@_KV?$allocator@_K@std@@@1@V?$_Vector_const_iterator@V?$_Vector_val@V?$vector@_KV?$allocator@_K@std@@@std@@V?$allocator@V?$vector@_KV?$allocator@_K@std@@@std@@@2@@std@@@1@0PAV21@@Z
	?unitbuf@?$_Iosb@H@std@@2W4_Fmtflags@12@B
	??1?$_Vector_val@UTOutSliceInfo@?A0x39e5c904@Imf@@V?$allocator@UTOutSliceInfo@?A0x39e5c904@Imf@@@std@@@std@@QAE@XZ
	ImfNewRound12logLut
	?_Max@?$_Tree_val@V?$_Tmap_traits@VName@Imf@@USlice@2@U?$less@VName@Imf@@@std@@V?$allocator@U?$pair@$$CBVName@Imf@@USlice@2@@std@@@5@$0A@@std@@@std@@SAPAU_Node@?$_Tree_nod@V?$_Tmap_traits@VName@Imf@@USlice@2@U?$less@VName@Imf@@@std@@V?$allocator@U?$pair@$$CBVName@Imf@@USlice@2@@std@@@5@$0A@@std@@@2@PAU342@@Z
	??$sign@M@Imath@@YAHM@Z
	?compare@?$char_traits@D@std@@SAHPBD0I@Z
	?hasFramesPerSecond@Imf@@YA_NABVHeader@1@@Z
	??0?$pair@$$CBVName@Imf@@PAVAttribute@2@@std@@QAE@ABVName@Imf@@$$QAPAVAttribute@3@@Z
	??D?$_Tree_const_iterator@V?$_Tree_val@V?$_Tmap_traits@VName@Imf@@UChannel@2@U?$less@VName@Imf@@@std@@V?$allocator@U?$pair@$$CBVName@Imf@@UChannel@2@@std@@@5@$0A@@std@@@std@@@std@@QBEABU?$pair@$$CBVName@Imf@@UChannel@2@@1@XZ
	?typeName@?$TypedAttribute@VTimeCode@Imf@@@Imf@@UBEPBDXZ
	??$_Cons_val@V?$allocator@UOutSliceInfo@?A0xf57f9ec6@Imf@@@std@@UOutSliceInfo@?A0xf57f9ec6@Imf@@AAU345@@std@@YAXAAV?$allocator@UOutSliceInfo@?A0xf57f9ec6@Imf@@@0@PAUOutSliceInfo@?A0xf57f9ec6@Imf@@AAU234@@Z
	?registerAttributeType@?$TypedAttribute@VChannelList@Imf@@@Imf@@SAXXZ
	??1?$_Pair_base@V?$_Tree_const_iterator@V?$_Tree_val@V?$_Tset_traits@V?$basic_string@DU?$char_traits@D@std@@V?$allocator@D@2@@std@@U?$less@V?$basic_string@DU?$char_traits@D@std@@V?$allocator@D@2@@std@@@2@V?$allocator@V?$basic_string@DU?$char_traits@D@std@@V?$allocator@D@2@@std@@@2@$0A@@std@@@std@@@std@@_N@std@@QAE@XZ
	?addUtcOffset@Imf@@YAXAAVHeader@1@ABM@Z
	??0?$_Iterator012@Urandom_access_iterator_tag@std@@UTInSliceInfo@?A0xf6fcebb6@Imf@@HPBU345@ABU345@U_Iterator_base12@2@@std@@QAE@ABU01@@Z
	?registerAttributeType@?$TypedAttribute@VRational@Imf@@@Imf@@SAXXZ
	??E?$_Tree_const_iterator@V?$_Tree_val@V?$_Tmap_traits@UTileCoord@?A0x39e5c904@Imf@@PAUBufferedTile@23@U?$less@UTileCoord@?A0x39e5c904@Imf@@@std@@V?$allocator@U?$pair@$$CBUTileCoord@?A0x39e5c904@Imf@@PAUBufferedTile@23@@std@@@6@$0A@@std@@@std@@@std@@QAE?AV01@H@Z
	?_Buynode@?$_Tree_val@V?$_Tmap_traits@VName@Imf@@USlice@2@U?$less@VName@Imf@@@std@@V?$allocator@U?$pair@$$CBVName@Imf@@USlice@2@@std@@@5@$0A@@std@@@std@@QAEPAU_Node@?$_Tree_nod@V?$_Tmap_traits@VName@Imf@@USlice@2@U?$less@VName@Imf@@@std@@V?$allocator@U?$pair@$$CBVName@Imf@@USlice@2@@std@@@5@$0A@@std@@@2@XZ
	?duplicateSecondToLastBuffer@ToYca@RgbaOutputFile@Imf@@AAEXXZ
	??A?$Vec2@H@Imath@@QAEAAHH@Z
	?_Tidy@?$basic_string@DU?$char_traits@D@std@@V?$allocator@D@2@@std@@QAEX_NI@Z
	?tellg@StdIFStream@Imf@@UAE_KXZ
	?writeValueTo@?$TypedAttribute@V?$Matrix33@M@Imath@@@Imf@@UBEXAAVOStream@2@H@Z
	??0OutSliceInfo@?A0xf57f9ec6@Imf@@QAE@W4PixelType@2@PBDIIHH_N@Z
	?longitudeAttribute@Imf@@YAABV?$TypedAttribute@M@1@ABVHeader@1@@Z
	?execute@LineBufferTask@?A0xf57f9ec6@Imf@@UAEXXZ
	??$_Uninitialized_move@PAPAULineBuffer@?A0xcbf8ace6@Imf@@PAPAU123@V?$allocator@PAULineBuffer@?A0xcbf8ace6@Imf@@@std@@@std@@YAPAPAULineBuffer@?A0xcbf8ace6@Imf@@PAPAU123@00AAV?$allocator@PAULineBuffer@?A0xcbf8ace6@Imf@@@0@@Z
	??8Imf@@YA_NABVConstIterator@FrameBuffer@0@0@Z
	?_Linsert@?$_Tree@V?$_Tset_traits@V?$basic_string@DU?$char_traits@D@std@@V?$allocator@D@2@@std@@U?$less@V?$basic_string@DU?$char_traits@D@std@@V?$allocator@D@2@@std@@@2@V?$allocator@V?$basic_string@DU?$char_traits@D@std@@V?$allocator@D@2@@std@@@2@$0A@@std@@@std@@QAE?AU?$pair@V?$_Tree_const_iterator@V?$_Tree_val@V?$_Tset_traits@V?$basic_string@DU?$char_traits@D@std@@V?$allocator@D@2@@std@@U?$less@V?$basic_string@DU?$char_traits@D@std@@V?$allocator@D@2@@std@@@2@V?$allocator@V?$basic_string@DU?$char_traits@D@std@@V?$allocator@D@2@@std@@@2@$0A@@std@@@std@@@std@@_N@2@PAU_Node@?$_Tree_nod@V?$_Tset_traits@V?$basic_string@DU?$char_traits@D@std@@V?$allocator@D@2@@std@@U?$less@V?$basic_string@DU?$char_traits@D@std@@V?$allocator@D@2@@std@@@2@V?$allocator@V?$basic_string@DU?$char_traits@D@std@@V?$allocator@D@2@@std@@@2@$0A@@std@@@2@_N@Z
	??0bad_alloc@std@@QAE@ABV01@@Z
	??$_Debug_range2@PAPAUTileBuffer@?A0xf6fcebb6@Imf@@@std@@YAXPAPAUTileBuffer@?A0xf6fcebb6@Imf@@0PB_WIUrandom_access_iterator_tag@0@@Z
	??1?$pair@V?$_Tree_iterator@V?$_Tree_val@V?$_Tmap_traits@UTileCoord@?A0x39e5c904@Imf@@PAUBufferedTile@23@U?$less@UTileCoord@?A0x39e5c904@Imf@@@std@@V?$allocator@U?$pair@$$CBUTileCoord@?A0x39e5c904@Imf@@PAUBufferedTile@23@@std@@@6@$0A@@std@@@std@@@std@@_N@std@@QAE@XZ
	??$_Destroy_range@V?$allocator@PAULineBuffer@?A0xcbf8ace6@Imf@@@std@@@std@@YAXPAPAULineBuffer@?A0xcbf8ace6@Imf@@0AAV?$allocator@PAULineBuffer@?A0xcbf8ace6@Imf@@@0@U_Scalar_ptr_iterator_tag@0@@Z
	?readTiles@TiledRgbaInputFile@Imf@@QAEXHHHHH@Z
	?state@?$fpos@H@std@@QBEHXZ
	?baseTypeMin@?$Vec2@M@Imath@@SAMXZ
	??$_Destroy_range@V?$allocator@V?$vector@_KV?$allocator@_K@std@@@std@@@std@@@std@@YAXPAV?$vector@_KV?$allocator@_K@std@@@0@0AAV?$allocator@V?$vector@_KV?$allocator@_K@std@@@std@@@0@U_Nonscalar_ptr_iterator_tag@0@@Z
	?writeValueTo@?$TypedAttribute@VTimeCode@Imf@@@Imf@@UBEXAAVOStream@2@H@Z
	??$_Destroy_range@V?$allocator@PAULineBuffer@?A0xf57f9ec6@Imf@@@std@@@std@@YAXPAPAULineBuffer@?A0xf57f9ec6@Imf@@0AAV?$allocator@PAULineBuffer@?A0xf57f9ec6@Imf@@@0@U_Scalar_ptr_iterator_tag@0@@Z
	??0TiledInputFile@Imf@@QAE@AAVIStream@1@H@Z
	??0ToYa@TiledRgbaOutputFile@Imf@@QAE@AAVTiledOutputFile@2@W4RgbaChannels@2@@Z
	?_Key@?$_Tree_val@V?$_Tmap_traits@UTileCoord@?A0x39e5c904@Imf@@PAUBufferedTile@23@U?$less@UTileCoord@?A0x39e5c904@Imf@@@std@@V?$allocator@U?$pair@$$CBUTileCoord@?A0x39e5c904@Imf@@PAUBufferedTile@23@@std@@@6@$0A@@std@@@std@@SAAAUTileCoord@?A0x39e5c904@Imf@@PAU_Node@?$_Tree_nod@V?$_Tmap_traits@UTileCoord@?A0x39e5c904@Imf@@PAUBufferedTile@23@U?$less@UTileCoord@?A0x39e5c904@Imf@@@std@@V?$allocator@U?$pair@$$CBUTileCoord@?A0x39e5c904@Imf@@PAUBufferedTile@23@@std@@@6@$0A@@std@@@2@@Z
	?begin@?$vector@V?$vector@V?$vector@_KV?$allocator@_K@std@@@std@@V?$allocator@V?$vector@_KV?$allocator@_K@std@@@std@@@2@@std@@V?$allocator@V?$vector@V?$vector@_KV?$allocator@_K@std@@@std@@V?$allocator@V?$vector@_KV?$allocator@_K@std@@@std@@@2@@std@@@2@@std@@QAE?AV?$_Vector_iterator@V?$_Vector_val@V?$vector@V?$vector@_KV?$allocator@_K@std@@@std@@V?$allocator@V?$vector@_KV?$allocator@_K@std@@@std@@@2@@std@@V?$allocator@V?$vector@V?$vector@_KV?$allocator@_K@std@@@std@@V?$allocator@V?$vector@_KV?$allocator@_K@std@@@std@@@2@@std@@@2@@std@@@2@XZ
	?initialize@OutputFile@Imf@@AAEXABVHeader@2@@Z
	??1?$TypedAttribute@N@Imf@@UAE@XZ
	?_Orphan_ptr@?$_Tree@V?$_Tmap_traits@VName@Imf@@USlice@2@U?$less@VName@Imf@@@std@@V?$allocator@U?$pair@$$CBVName@Imf@@USlice@2@@std@@@5@$0A@@std@@@std@@IBEXAAV12@PAU_Node@?$_Tree_nod@V?$_Tmap_traits@VName@Imf@@USlice@2@U?$less@VName@Imf@@@std@@V?$allocator@U?$pair@$$CBVName@Imf@@USlice@2@@std@@@5@$0A@@std@@@2@@Z
	??$_Ptr_cat@V?$vector@_KV?$allocator@_K@std@@@std@@V12@@std@@YA?AU_Nonscalar_ptr_iterator_tag@0@PAV?$vector@_KV?$allocator@_K@std@@@0@0@Z
	?end@?$_Tree@V?$_Tmap_traits@UTileCoord@?A0x39e5c904@Imf@@PAUBufferedTile@23@U?$less@UTileCoord@?A0x39e5c904@Imf@@@std@@V?$allocator@U?$pair@$$CBUTileCoord@?A0x39e5c904@Imf@@PAUBufferedTile@23@@std@@@6@$0A@@std@@@std@@QAE?AV?$_Tree_iterator@V?$_Tree_val@V?$_Tmap_traits@UTileCoord@?A0x39e5c904@Imf@@PAUBufferedTile@23@U?$less@UTileCoord@?A0x39e5c904@Imf@@@std@@V?$allocator@U?$pair@$$CBUTileCoord@?A0x39e5c904@Imf@@PAUBufferedTile@23@@std@@@6@$0A@@std@@@std@@@2@XZ
	ImfHeaderIntAttribute
	?_Inside@?$vector@UTInSliceInfo@?A0xf6fcebb6@Imf@@V?$allocator@UTInSliceInfo@?A0xf6fcebb6@Imf@@@std@@@std@@IBE_NPBUTInSliceInfo@?A0xf6fcebb6@Imf@@@Z
	?capacity@?$vector@UOutSliceInfo@?A0xf57f9ec6@Imf@@V?$allocator@UOutSliceInfo@?A0xf57f9ec6@Imf@@@std@@@std@@QBEIXZ
	??$forward@AAP6APAVAttribute@Imf@@XZ@std@@YAAAP6APAVAttribute@Imf@@XZAAP6APAV12@XZ@Z
	?commentsAttribute@Imf@@YAAAV?$TypedAttribute@V?$basic_string@DU?$char_traits@D@std@@V?$allocator@D@2@@std@@@1@AAVHeader@1@@Z
	??0?$allocator@UOutSliceInfo@?A0xf57f9ec6@Imf@@@std@@QAE@ABV01@@Z
	??0?$allocator@V?$vector@_KV?$allocator@_K@std@@@std@@@std@@QAE@ABV01@@Z
	?header@InputFile@Imf@@QBEABVHeader@2@XZ
	??$_Destroy_range@V?$allocator@UOutSliceInfo@?A0xf57f9ec6@Imf@@@std@@@std@@YAXPAUOutSliceInfo@?A0xf57f9ec6@Imf@@0AAV?$allocator@UOutSliceInfo@?A0xf57f9ec6@Imf@@@0@@Z
	?_Destroy@?$vector@V?$vector@_KV?$allocator@_K@std@@@std@@V?$allocator@V?$vector@_KV?$allocator@_K@std@@@std@@@2@@std@@IAEXPAV?$vector@_KV?$allocator@_K@std@@@2@0@Z
	?_Parent@?$_Tree_val@V?$_Tmap_traits@VName@Imf@@PAVAttribute@2@U?$less@VName@Imf@@@std@@V?$allocator@U?$pair@$$CBVName@Imf@@PAVAttribute@2@@std@@@5@$0A@@std@@@std@@SAAAPAU_Node@?$_Tree_nod@V?$_Tmap_traits@VName@Imf@@PAVAttribute@2@U?$less@VName@Imf@@@std@@V?$allocator@U?$pair@$$CBVName@Imf@@PAVAttribute@2@@std@@@5@$0A@@std@@@2@PAU342@@Z
	ImfHeaderLineOrder
	?_Lmost@?$_Tree@V?$_Tmap_traits@VName@Imf@@UChannel@2@U?$less@VName@Imf@@@std@@V?$allocator@U?$pair@$$CBVName@Imf@@UChannel@2@@std@@@5@$0A@@std@@@std@@IBEAAPAU_Node@?$_Tree_nod@V?$_Tmap_traits@VName@Imf@@UChannel@2@U?$less@VName@Imf@@@std@@V?$allocator@U?$pair@$$CBVName@Imf@@UChannel@2@@std@@@5@$0A@@std@@@2@XZ
	?pixelPosition@LatLongMap@Imf@@YA?AV?$Vec2@M@Imath@@ABV?$Box@V?$Vec2@H@Imath@@@4@ABV34@@Z
	??E?$_Tree_const_iterator@V?$_Tree_val@V?$_Tmap_traits@VName@Imf@@PAVAttribute@2@U?$less@VName@Imf@@@std@@V?$allocator@U?$pair@$$CBVName@Imf@@PAVAttribute@2@@std@@@5@$0A@@std@@@std@@@std@@QAE?AV01@H@Z
	?setMinutes@TimeCode@Imf@@QAEXH@Z
	?_Xlen@?$vector@PAULineBuffer@?A0xcbf8ace6@Imf@@V?$allocator@PAULineBuffer@?A0xcbf8ace6@Imf@@@std@@@std@@IBEXXZ
	?cast@?$TypedAttribute@V?$Box@V?$Vec2@H@Imath@@@Imath@@@Imf@@SAPBV12@PBVAttribute@2@@Z
	??$_Dest_val@V?$allocator@_K@std@@_K@std@@YAXAAV?$allocator@_K@0@PA_K@Z
	?expTime@Imf@@YAABMABVHeader@1@@Z
	?_Copy@?$_Tree@V?$_Tmap_traits@VName@Imf@@UChannel@2@U?$less@VName@Imf@@@std@@V?$allocator@U?$pair@$$CBVName@Imf@@UChannel@2@@std@@@5@$0A@@std@@@std@@IAEPAU_Node@?$_Tree_nod@V?$_Tmap_traits@VName@Imf@@UChannel@2@U?$less@VName@Imf@@@std@@V?$allocator@U?$pair@$$CBVName@Imf@@UChannel@2@@std@@@5@$0A@@std@@@2@PAU342@0@Z
	?post@LineBuffer@?A0xcbf8ace6@Imf@@QAEXXZ
	?shiftAndRound@?A0xb36f0740@Imf@@YAHHH@Z
	?clear@?$vector@_KV?$allocator@_K@std@@@std@@QAEXXZ
	?wrapmodes@Imf@@YAAAV?$basic_string@DU?$char_traits@D@std@@V?$allocator@D@2@@std@@AAVHeader@1@@Z
	?lengthTiny@?$Vec3@M@Imath@@ABEMXZ
	?hasXDensity@Imf@@YA_NABVHeader@1@@Z
	??$?0I@?$allocator@U_Container_proxy@std@@@std@@QAE@ABV?$allocator@I@1@@Z
	??$_Val_type@PAPAUTileBuffer@?A0x39e5c904@Imf@@@std@@YAPAPAUTileBuffer@?A0x39e5c904@Imf@@PAPAU123@@Z
	??$_Destroy_range@V?$allocator@UInSliceInfo@?A0xcbf8ace6@Imf@@@std@@@std@@YAXPAUInSliceInfo@?A0xcbf8ace6@Imf@@0AAV?$allocator@UInSliceInfo@?A0xcbf8ace6@Imf@@@0@@Z
	?_Tidy@?$vector@UInSliceInfo@?A0xcbf8ace6@Imf@@V?$allocator@UInSliceInfo@?A0xcbf8ace6@Imf@@@std@@@std@@IAEXXZ
	??$checkArraySize@I@Imf@@YAIII@Z
	?addAdoptedNeutral@Imf@@YAXAAVHeader@1@ABV?$Vec2@M@Imath@@@Z
	?hufBuildEncTable@?A0xc87c6bb7@Imf@@YAXPA_KPAH1@Z
	??1?$basic_ostringstream@DU?$char_traits@D@std@@V?$allocator@D@2@@std@@UAE@XZ
	??$forward@V?$vector@_KV?$allocator@_K@std@@@std@@@std@@YA$$QAV?$vector@_KV?$allocator@_K@std@@@0@AAV10@@Z
	??A?$vector@PAULineBuffer@?A0xcbf8ace6@Imf@@V?$allocator@PAULineBuffer@?A0xcbf8ace6@Imf@@@std@@@std@@QAEAAPAULineBuffer@?A0xcbf8ace6@Imf@@I@Z
	?reconstructFromFile@TileOffsets@Imf@@AAEXAAVIStream@2@@Z
	?outputBits@?A0xc87c6bb7@Imf@@YAXH_KAA_KAAHAAPAD@Z
	?lower_bound@?$_Tree@V?$_Tmap_traits@VName@Imf@@USlice@2@U?$less@VName@Imf@@@std@@V?$allocator@U?$pair@$$CBVName@Imf@@USlice@2@@std@@@5@$0A@@std@@@std@@QBE?AV?$_Tree_const_iterator@V?$_Tree_val@V?$_Tmap_traits@VName@Imf@@USlice@2@U?$less@VName@Imf@@@std@@V?$allocator@U?$pair@$$CBVName@Imf@@USlice@2@@std@@@5@$0A@@std@@@std@@@2@ABVName@Imf@@@Z
	?numYLevels@TiledRgbaInputFile@Imf@@QBEHXZ
	??$_Allocate@U_Node@?$_Tree_nod@V?$_Tmap_traits@VName@Imf@@UChannel@2@U?$less@VName@Imf@@@std@@V?$allocator@U?$pair@$$CBVName@Imf@@UChannel@2@@std@@@5@$0A@@std@@@std@@@std@@YAPAU_Node@?$_Tree_nod@V?$_Tmap_traits@VName@Imf@@UChannel@2@U?$less@VName@Imf@@@std@@V?$allocator@U?$pair@$$CBVName@Imf@@UChannel@2@@std@@@5@$0A@@std@@@0@IPAU120@@Z
	??$_Umove@PAUTInSliceInfo@?A0xf6fcebb6@Imf@@@?$vector@UTInSliceInfo@?A0xf6fcebb6@Imf@@V?$allocator@UTInSliceInfo@?A0xf6fcebb6@Imf@@@std@@@std@@IAEPAUTInSliceInfo@?A0xf6fcebb6@Imf@@PAU234@00@Z
	?cast@?$TypedAttribute@VTimeCode@Imf@@@Imf@@SAABV12@ABVAttribute@2@@Z
	??$_Uninitialized_copy@V?$_Vector_const_iterator@V?$_Vector_val@V?$basic_string@DU?$char_traits@D@std@@V?$allocator@D@2@@std@@V?$allocator@V?$basic_string@DU?$char_traits@D@std@@V?$allocator@D@2@@std@@@2@@std@@@std@@PAV?$basic_string@DU?$char_traits@D@std@@V?$allocator@D@2@@2@V?$allocator@V?$basic_string@DU?$char_traits@D@std@@V?$allocator@D@2@@std@@@2@@std@@YAPAV?$basic_string@DU?$char_traits@D@std@@V?$allocator@D@2@@0@V?$_Vector_const_iterator@V?$_Vector_val@V?$basic_string@DU?$char_traits@D@std@@V?$allocator@D@2@@std@@V?$allocator@V?$basic_string@DU?$char_traits@D@std@@V?$allocator@D@2@@std@@@2@@std@@@0@0PAV10@AAV?$allocator@V?$basic_string@DU?$char_traits@D@std@@V?$allocator@D@2@@std@@@0@@Z
	??0?$vector@V?$basic_string@DU?$char_traits@D@std@@V?$allocator@D@2@@std@@V?$allocator@V?$basic_string@DU?$char_traits@D@std@@V?$allocator@D@2@@std@@@2@@std@@QAE@ABV01@@Z
	?copyPixels@TiledOutputFile@Imf@@QAEXAAVTiledInputFile@2@@Z
	?readValueFrom@?$TypedAttribute@VRational@Imf@@@Imf@@UAEXAAVIStream@2@HH@Z
	??0?$pair@V?$_Tree_iterator@V?$_Tree_val@V?$_Tmap_traits@VName@Imf@@PAVAttribute@2@U?$less@VName@Imf@@@std@@V?$allocator@U?$pair@$$CBVName@Imf@@PAVAttribute@2@@std@@@5@$0A@@std@@@std@@@std@@_N@std@@QAE@$$QAV?$_Tree_iterator@V?$_Tree_val@V?$_Tmap_traits@VName@Imf@@PAVAttribute@2@U?$less@VName@Imf@@@std@@V?$allocator@U?$pair@$$CBVName@Imf@@PAVAttribute@2@@std@@@5@$0A@@std@@@std@@@1@$$QA_N@Z
	?_Xran@?$basic_string@DU?$char_traits@D@std@@V?$allocator@D@2@@std@@QBEXXZ
	?writeTiles@TiledOutputFile@Imf@@QAEXHHHHHH@Z
	?setFrameBuffer@ToYca@RgbaOutputFile@Imf@@QAEXPBURgba@3@II@Z
	?showpoint@?$_Iosb@H@std@@2W4_Fmtflags@12@B
	?addComments@Imf@@YAXAAVHeader@1@ABV?$basic_string@DU?$char_traits@D@std@@V?$allocator@D@2@@std@@@Z
	?setTileDescription@Header@Imf@@QAEXABVTileDescription@2@@Z
	?sqrt@?$Math@M@Imath@@SAMM@Z
	?typeName@?$TypedAttribute@V?$Vec3@M@Imath@@@Imf@@UBEPBDXZ
	?begin@?$vector@UOutSliceInfo@?A0xf57f9ec6@Imf@@V?$allocator@UOutSliceInfo@?A0xf57f9ec6@Imf@@@std@@@std@@QAE?AV?$_Vector_iterator@V?$_Vector_val@UOutSliceInfo@?A0xf57f9ec6@Imf@@V?$allocator@UOutSliceInfo@?A0xf57f9ec6@Imf@@@std@@@std@@@2@XZ
	??0Data@ScanLineInputFile@Imf@@QAE@PAVIStream@2@H@Z
	?out@?$_Iosb@H@std@@2W4_Openmode@12@B
	?ywFromHeader@?A0x5c932b76@Imf@@YA?AV?$Vec3@M@Imath@@ABVHeader@2@@Z
	??0?$_Tmap_traits@PBDP6APAVAttribute@Imf@@XZUNameCompare@?A0x0779e1ad@2@V?$allocator@U?$pair@QBDP6APAVAttribute@Imf@@XZ@std@@@std@@$0A@@std@@QAE@UNameCompare@?A0x0779e1ad@Imf@@@Z
	?erase@?$vector@IV?$allocator@I@std@@@std@@QAE?AV?$_Vector_iterator@V?$_Vector_val@IV?$allocator@I@std@@@std@@@2@V?$_Vector_const_iterator@V?$_Vector_val@IV?$allocator@I@std@@@std@@@2@0@Z
	?str@?$basic_ostringstream@DU?$char_traits@D@std@@V?$allocator@D@2@@std@@QBE?AV?$basic_string@DU?$char_traits@D@std@@V?$allocator@D@2@@2@XZ
	ImfCloseTiledOutputFile
	??0?$basic_ostringstream@DU?$char_traits@D@std@@V?$allocator@D@2@@std@@QAE@H@Z
	?_Color@?$_Tree_val@V?$_Tmap_traits@VName@Imf@@USlice@2@U?$less@VName@Imf@@@std@@V?$allocator@U?$pair@$$CBVName@Imf@@USlice@2@@std@@@5@$0A@@std@@@std@@SAAADPAU_Node@?$_Tree_nod@V?$_Tmap_traits@VName@Imf@@USlice@2@U?$less@VName@Imf@@@std@@V?$allocator@U?$pair@$$CBVName@Imf@@USlice@2@@std@@@5@$0A@@std@@@2@@Z
	??$typedAttribute@V?$TypedAttribute@H@Imf@@@Header@Imf@@QBEABV?$TypedAttribute@H@1@QBD@Z
	??1locale@std@@QAE@XZ
	?resize@?$basic_string@DU?$char_traits@D@std@@V?$allocator@D@2@@std@@QAEXID@Z
	?time@?$_Locbase@H@std@@2HB
	?outputCode@?A0xc87c6bb7@Imf@@YAX_KAA_KAAHAAPAD@Z
	?wrapmodes@Imf@@YAABV?$basic_string@DU?$char_traits@D@std@@V?$allocator@D@2@@std@@ABVHeader@1@@Z
	??0?$TypedAttribute@V?$Vec2@H@Imath@@@Imf@@QAE@XZ
	?__LINE__Var@?1??apply@HalfLut@Imf@@QBEXABUSlice@3@ABV?$Box@V?$Vec2@H@Imath@@@Imath@@@Z@4JA
	??8?$_Tree_const_iterator@V?$_Tree_val@V?$_Tmap_traits@VName@Imf@@USlice@2@U?$less@VName@Imf@@@std@@V?$allocator@U?$pair@$$CBVName@Imf@@USlice@2@@std@@@5@$0A@@std@@@std@@@std@@QBE_NABV01@@Z
	??M?$_Vector_const_iterator@V?$_Vector_val@UTOutSliceInfo@?A0x39e5c904@Imf@@V?$allocator@UTOutSliceInfo@?A0x39e5c904@Imf@@@std@@@std@@@std@@QBE_NABV01@@Z
	??0?$vector@_KV?$allocator@_K@std@@@std@@QAE@ABV01@@Z
	??$_Iter_cat@PAI@std@@YA?AUrandom_access_iterator_tag@0@ABQAI@Z
	?max_size@?$allocator@U?$pair@$$CBUTileCoord@?A0x39e5c904@Imf@@PAUBufferedTile@23@@std@@@std@@QBEIXZ
	??$_Uninit_copy@PAUTInSliceInfo@?A0xf6fcebb6@Imf@@PAU123@V?$allocator@UTInSliceInfo@?A0xf6fcebb6@Imf@@@std@@@std@@YAPAUTInSliceInfo@?A0xf6fcebb6@Imf@@PAU123@00AAV?$allocator@UTInSliceInfo@?A0xf6fcebb6@Imf@@@0@U_Nonscalar_ptr_iterator_tag@0@@Z
	?numYTiles@TiledOutputFile@Imf@@QBEHH@Z
	?assign@?$basic_string@DU?$char_traits@D@std@@V?$allocator@D@2@@std@@QAEAAV12@PBD@Z
	??1?$_Tree_iterator@V?$_Tree_val@V?$_Tmap_traits@UTileCoord@?A0x39e5c904@Imf@@PAUBufferedTile@23@U?$less@UTileCoord@?A0x39e5c904@Imf@@@std@@V?$allocator@U?$pair@$$CBUTileCoord@?A0x39e5c904@Imf@@PAUBufferedTile@23@@std@@@6@$0A@@std@@@std@@@std@@QAE@XZ
	?fixSaturation@RgbaYca@Imf@@YAXABV?$Vec3@M@Imath@@HQBQBURgba@2@QAU52@@Z
	??$_Debug_range2@PAUTInSliceInfo@?A0xf6fcebb6@Imf@@@std@@YAXPAUTInSliceInfo@?A0xf6fcebb6@Imf@@0PB_WIUrandom_access_iterator_tag@0@@Z
	??1?$vector@IV?$allocator@I@std@@@std@@QAE@XZ
	??$move@AAV?$_Tree_const_iterator@V?$_Tree_val@V?$_Tset_traits@V?$basic_string@DU?$char_traits@D@std@@V?$allocator@D@2@@std@@U?$less@V?$basic_string@DU?$char_traits@D@std@@V?$allocator@D@2@@std@@@2@V?$allocator@V?$basic_string@DU?$char_traits@D@std@@V?$allocator@D@2@@std@@@2@$0A@@std@@@std@@@std@@@std@@YA$$QAV?$_Tree_const_iterator@V?$_Tree_val@V?$_Tset_traits@V?$basic_string@DU?$char_traits@D@std@@V?$allocator@D@2@@std@@U?$less@V?$basic_string@DU?$char_traits@D@std@@V?$allocator@D@2@@std@@@2@V?$allocator@V?$basic_string@DU?$char_traits@D@std@@V?$allocator@D@2@@std@@@2@$0A@@std@@@std@@@0@AAV10@@Z
	??$move@AAV?$_Tree_iterator@V?$_Tree_val@V?$_Tmap_traits@PBDP6APAVAttribute@Imf@@XZUNameCompare@?A0x0779e1ad@2@V?$allocator@U?$pair@QBDP6APAVAttribute@Imf@@XZ@std@@@std@@$0A@@std@@@std@@@std@@@std@@YA$$QAV?$_Tree_iterator@V?$_Tree_val@V?$_Tmap_traits@PBDP6APAVAttribute@Imf@@XZUNameCompare@?A0x0779e1ad@2@V?$allocator@U?$pair@QBDP6APAVAttribute@Imf@@XZ@std@@@std@@$0A@@std@@@std@@@0@AAV10@@Z
	??$_Debug_range2@PAV?$basic_string@DU?$char_traits@D@std@@V?$allocator@D@2@@std@@@std@@YAXPAV?$basic_string@DU?$char_traits@D@std@@V?$allocator@D@2@@0@0PB_WIUrandom_access_iterator_tag@0@@Z
	??$_Debug_lt_pred@U?$less@VName@Imf@@@std@@VName@Imf@@V34@@std@@YA_NU?$less@VName@Imf@@@0@ABVName@Imf@@AAV23@PB_WI@Z
	?copy@?$TypedAttribute@V?$Box@V?$Vec2@M@Imath@@@Imath@@@Imf@@UBEPAVAttribute@2@XZ
	??4Header@Imf@@QAEAAV01@ABV01@@Z
	?_Insert@?$_Tree@V?$_Tmap_traits@VName@Imf@@UChannel@2@U?$less@VName@Imf@@@std@@V?$allocator@U?$pair@$$CBVName@Imf@@UChannel@2@@std@@@5@$0A@@std@@@std@@IAE?AV?$_Tree_iterator@V?$_Tree_val@V?$_Tmap_traits@VName@Imf@@UChannel@2@U?$less@VName@Imf@@@std@@V?$allocator@U?$pair@$$CBVName@Imf@@UChannel@2@@std@@@5@$0A@@std@@@std@@@2@_NPAU_Node@?$_Tree_nod@V?$_Tmap_traits@VName@Imf@@UChannel@2@U?$less@VName@Imf@@@std@@V?$allocator@U?$pair@$$CBVName@Imf@@UChannel@2@@std@@@5@$0A@@std@@@2@1@Z
	?lineOrder@Header@Imf@@QAEAAW4LineOrder@2@XZ
	??0?$allocator@V?$vector@V?$vector@_KV?$allocator@_K@std@@@std@@V?$allocator@V?$vector@_KV?$allocator@_K@std@@@std@@@2@@std@@@std@@QAE@ABV01@@Z
	??$_Allocate@U_Node@?$_Tree_nod@V?$_Tmap_traits@UTileCoord@?A0x39e5c904@Imf@@PAUBufferedTile@23@U?$less@UTileCoord@?A0x39e5c904@Imf@@@std@@V?$allocator@U?$pair@$$CBUTileCoord@?A0x39e5c904@Imf@@PAUBufferedTile@23@@std@@@6@$0A@@std@@@std@@@std@@YAPAU_Node@?$_Tree_nod@V?$_Tmap_traits@UTileCoord@?A0x39e5c904@Imf@@PAUBufferedTile@23@U?$less@UTileCoord@?A0x39e5c904@Imf@@@std@@V?$allocator@U?$pair@$$CBUTileCoord@?A0x39e5c904@Imf@@PAUBufferedTile@23@@std@@@6@$0A@@std@@@0@IPAU120@@Z
	??$_Umove@PAV?$vector@V?$vector@_KV?$allocator@_K@std@@@std@@V?$allocator@V?$vector@_KV?$allocator@_K@std@@@std@@@2@@std@@@?$vector@V?$vector@V?$vector@_KV?$allocator@_K@std@@@std@@V?$allocator@V?$vector@_KV?$allocator@_K@std@@@std@@@2@@std@@V?$allocator@V?$vector@V?$vector@_KV?$allocator@_K@std@@@std@@V?$allocator@V?$vector@_KV?$allocator@_K@std@@@std@@@2@@std@@@2@@std@@IAEPAV?$vector@V?$vector@_KV?$allocator@_K@std@@@std@@V?$allocator@V?$vector@_KV?$allocator@_K@std@@@std@@@2@@1@PAV21@00@Z
	??$read@UStreamIO@Imf@@VIStream@2@@Xdr@Imf@@YAXAAVIStream@1@AA_N@Z
	ImfHeaderSetV3fAttribute
	?deallocate@?$allocator@UTInSliceInfo@?A0xf6fcebb6@Imf@@@std@@QAEXPAUTInSliceInfo@?A0xf6fcebb6@Imf@@I@Z
	?end@?$vector@_KV?$allocator@_K@std@@@std@@QBE?AV?$_Vector_const_iterator@V?$_Vector_val@_KV?$allocator@_K@std@@@std@@@2@XZ
	?decimateChromaVertAndWriteScanLine@ToYca@RgbaOutputFile@Imf@@AAEXXZ
	??4Name@Imf@@QAEAAV01@QBD@Z
	??0?$allocator@D@std@@QAE@ABV01@@Z
	?erase@?$_Tree@V?$_Tmap_traits@UTileCoord@?A0x39e5c904@Imf@@PAUBufferedTile@23@U?$less@UTileCoord@?A0x39e5c904@Imf@@@std@@V?$allocator@U?$pair@$$CBUTileCoord@?A0x39e5c904@Imf@@PAUBufferedTile@23@@std@@@6@$0A@@std@@@std@@QAE?AV?$_Tree_iterator@V?$_Tree_val@V?$_Tmap_traits@UTileCoord@?A0x39e5c904@Imf@@PAUBufferedTile@23@U?$less@UTileCoord@?A0x39e5c904@Imf@@@std@@V?$allocator@U?$pair@$$CBUTileCoord@?A0x39e5c904@Imf@@PAUBufferedTile@23@@std@@@6@$0A@@std@@@std@@@2@V?$_Tree_const_iterator@V?$_Tree_val@V?$_Tmap_traits@UTileCoord@?A0x39e5c904@Imf@@PAUBufferedTile@23@U?$less@UTileCoord@?A0x39e5c904@Imf@@@std@@V?$allocator@U?$pair@$$CBUTileCoord@?A0x39e5c904@Imf@@PAUBufferedTile@23@@std@@@6@$0A@@std@@@std@@@2@@Z
	?typeName@?$TypedAttribute@VKeyCode@Imf@@@Imf@@UBEPBDXZ
	??0?$_Pair_base@$$CBVName@Imf@@USlice@2@@std@@QAE@$$QBVName@Imf@@$$QAUSlice@3@@Z
	??0?$_Tree@V?$_Tmap_traits@VName@Imf@@USlice@2@U?$less@VName@Imf@@@std@@V?$allocator@U?$pair@$$CBVName@Imf@@USlice@2@@std@@@5@$0A@@std@@@std@@QAE@ABU?$less@VName@Imf@@@1@ABV?$allocator@U?$pair@$$CBVName@Imf@@USlice@2@@std@@@1@@Z
	?inverse@?$Matrix44@M@Imath@@QBE?AV12@_N@Z
	?destroy@?$allocator@U?$pair@$$CBUTileCoord@?A0x39e5c904@Imf@@PAUBufferedTile@23@@std@@@std@@QAEXPAU?$pair@$$CBUTileCoord@?A0x39e5c904@Imf@@PAUBufferedTile@23@@2@@Z
	?sync@?$basic_filebuf@DU?$char_traits@D@std@@@std@@MAEHXZ
	?hasAltitude@Imf@@YA_NABVHeader@1@@Z
	?multiView@Imf@@YAABV?$vector@V?$basic_string@DU?$char_traits@D@std@@V?$allocator@D@2@@std@@V?$allocator@V?$basic_string@DU?$char_traits@D@std@@V?$allocator@D@2@@std@@@2@@std@@ABVHeader@1@@Z
	?_Make_iter@?$vector@PAUTileBuffer@?A0xf6fcebb6@Imf@@V?$allocator@PAUTileBuffer@?A0xf6fcebb6@Imf@@@std@@@std@@QBE?AV?$_Vector_iterator@V?$_Vector_val@PAUTileBuffer@?A0xf6fcebb6@Imf@@V?$allocator@PAUTileBuffer@?A0xf6fcebb6@Imf@@@std@@@std@@@2@V?$_Vector_const_iterator@V?$_Vector_val@PAUTileBuffer@?A0xf6fcebb6@Imf@@V?$allocator@PAUTileBuffer@?A0xf6fcebb6@Imf@@@std@@@std@@@2@@Z
	??0Rational@Imf@@QAE@XZ
	??0?$pair@V?$_Tree_const_iterator@V?$_Tree_val@V?$_Tset_traits@V?$basic_string@DU?$char_traits@D@std@@V?$allocator@D@2@@std@@U?$less@V?$basic_string@DU?$char_traits@D@std@@V?$allocator@D@2@@std@@@2@V?$allocator@V?$basic_string@DU?$char_traits@D@std@@V?$allocator@D@2@@std@@@2@$0A@@std@@@std@@@std@@_N@std@@QAE@$$QAV?$_Tree_const_iterator@V?$_Tree_val@V?$_Tset_traits@V?$basic_string@DU?$char_traits@D@std@@V?$allocator@D@2@@std@@U?$less@V?$basic_string@DU?$char_traits@D@std@@V?$allocator@D@2@@std@@@2@V?$allocator@V?$basic_string@DU?$char_traits@D@std@@V?$allocator@D@2@@std@@@2@$0A@@std@@@std@@@1@$$QA_N@Z
	??1?$map@VName@Imf@@UChannel@2@U?$less@VName@Imf@@@std@@V?$allocator@U?$pair@$$CBVName@Imf@@UChannel@2@@std@@@5@@std@@QAE@XZ
	??0?$_String_const_iterator@DU?$char_traits@D@std@@V?$allocator@D@2@@std@@QAE@PBDPBU_Container_base12@1@@Z
	??0TiledRgbaInputFile@Imf@@QAE@AAVIStream@1@ABV?$basic_string@DU?$char_traits@D@std@@V?$allocator@D@2@@std@@H@Z
	?defaultFormat@Imf@@YA?AW4Format@Compressor@1@PAV31@@Z
	?copyValueFrom@?$TypedAttribute@M@Imf@@UAEXABVAttribute@2@@Z
	?cast@?$TypedAttribute@V?$Vec3@N@Imath@@@Imf@@SAPBV12@PBVAttribute@2@@Z
	ImfTiledInputReadTiles
	??0InputExc@Iex@@QAE@PBD@Z
	??$_Uninitialized_move@PAIPAIV?$allocator@I@std@@@std@@YAPAIPAI00AAV?$allocator@I@0@@Z
	?typeName@?$TypedAttribute@V?$Vec2@N@Imath@@@Imf@@UBEPBDXZ
	?_Copy@?$_Tree@V?$_Tmap_traits@VName@Imf@@USlice@2@U?$less@VName@Imf@@@std@@V?$allocator@U?$pair@$$CBVName@Imf@@USlice@2@@std@@@5@$0A@@std@@@std@@IAEPAU_Node@?$_Tree_nod@V?$_Tmap_traits@VName@Imf@@USlice@2@U?$less@VName@Imf@@@std@@V?$allocator@U?$pair@$$CBVName@Imf@@USlice@2@@std@@@5@$0A@@std@@@2@PAU342@0@Z
	?addWorldToCamera@Imf@@YAXAAVHeader@1@ABV?$Matrix44@M@Imath@@@Z
	??0?$_Iterator012@Urandom_access_iterator_tag@std@@DHPBDABDU_Iterator_base12@2@@std@@QAE@XZ
	?pixels@PreviewImage@Imf@@QBEPBUPreviewRgba@2@XZ
	?copy@?$char_traits@D@std@@SAPADPADPBDI@Z
	??$_Debug_pointer@V?$_Vector_const_iterator@V?$_Vector_val@_KV?$allocator@_K@std@@@std@@@std@@@std@@YAXAAV?$_Vector_const_iterator@V?$_Vector_val@_KV?$allocator@_K@std@@@std@@@0@PB_WI@Z
	?readMemoryMapped@IStream@Imf@@UAEPADH@Z
	?setFrameBuffer@OutputFile@Imf@@QAEXABVFrameBuffer@2@@Z
	??A?$vector@UOutSliceInfo@?A0xf57f9ec6@Imf@@V?$allocator@UOutSliceInfo@?A0xf57f9ec6@Imf@@@std@@@std@@QAEAAUOutSliceInfo@?A0xf57f9ec6@Imf@@I@Z
	?binaryToBcd@?A0x304371a6@Imf@@YAIH@Z
	?apply@HalfLut@Imf@@QBEXPAVhalf@@HH@Z
	??$_Destroy@V?$basic_string@DU?$char_traits@D@std@@V?$allocator@D@2@@std@@@std@@YAXPAV?$basic_string@DU?$char_traits@D@std@@V?$allocator@D@2@@0@@Z
	??$?0UroundNBit@Imf@@@RgbaLut@Imf@@QAE@UroundNBit@1@W4RgbaChannels@1@@Z
	??1LogicExc@Iex@@UAE@XZ
	??$addressof@UTOutSliceInfo@?A0x39e5c904@Imf@@@std@@YAPAUTOutSliceInfo@?A0x39e5c904@Imf@@AAU123@@Z
	??0?$_Iterator012@Urandom_access_iterator_tag@std@@PAUTileBuffer@?A0xf6fcebb6@Imf@@HPBQAU345@ABQAU345@U_Iterator_base12@2@@std@@QAE@XZ
	??$_Cons_val@V?$allocator@_K@std@@_KAB_K@std@@YAXAAV?$allocator@_K@0@PA_KAB_K@Z
	??0?$TypedAttribute@V?$basic_string@DU?$char_traits@D@std@@V?$allocator@D@2@@std@@@Imf@@QAE@XZ
	?cast@?$TypedAttribute@VChannelList@Imf@@@Imf@@SAABV12@ABVAttribute@2@@Z
	??$_Dest_val@V?$allocator@U?$pair@$$CBVName@Imf@@UChannel@2@@std@@@std@@U?$pair@$$CBVName@Imf@@UChannel@2@@2@@std@@YAXAAV?$allocator@U?$pair@$$CBVName@Imf@@UChannel@2@@std@@@0@PAU?$pair@$$CBVName@Imf@@UChannel@2@@0@@Z
	??$_Iter_cat@V?$_Tree_iterator@V?$_Tree_val@V?$_Tmap_traits@PBDP6APAVAttribute@Imf@@XZUNameCompare@?A0x0779e1ad@2@V?$allocator@U?$pair@QBDP6APAVAttribute@Imf@@XZ@std@@@std@@$0A@@std@@@std@@@std@@@std@@YA?AUbidirectional_iterator_tag@0@ABV?$_Tree_iterator@V?$_Tree_val@V?$_Tmap_traits@PBDP6APAVAttribute@Imf@@XZUNameCompare@?A0x0779e1ad@2@V?$allocator@U?$pair@QBDP6APAVAttribute@Imf@@XZ@std@@@std@@$0A@@std@@@std@@@0@@Z
	?filmMfcCode@KeyCode@Imf@@QBEHXZ
	??0?$AutoArray@_K$0BAAAB@@Imf@@QAE@XZ
	?isNegative@?A0xd34937d7@Imf@@YA_NM@Z
	?numYLevels@TiledRgbaOutputFile@Imf@@QBEHXZ
	?wav2Decode@Imf@@YAXPAGHHHHG@Z
	??$_Cons_val@V?$allocator@UOutSliceInfo@?A0xf57f9ec6@Imf@@@std@@UOutSliceInfo@?A0xf57f9ec6@Imf@@U345@@std@@YAXAAV?$allocator@UOutSliceInfo@?A0xf57f9ec6@Imf@@@0@PAUOutSliceInfo@?A0xf57f9ec6@Imf@@$$QAU234@@Z
	?guessExactFps@Imf@@YA?AVRational@1@ABV21@@Z
	?allocate@?$allocator@UInSliceInfo@?A0xcbf8ace6@Imf@@@std@@QAEPAUInSliceInfo@?A0xcbf8ace6@Imf@@I@Z
	?_Compat@?$_Vector_const_iterator@V?$_Vector_val@UTInSliceInfo@?A0xf6fcebb6@Imf@@V?$allocator@UTInSliceInfo@?A0xf6fcebb6@Imf@@@std@@@std@@@std@@QBEXABV12@@Z
	?addAltitude@Imf@@YAXAAVHeader@1@ABM@Z
	?construct@?$allocator@_K@std@@QAEXPA_K$$QA_K@Z
	?pixelPosition@LatLongMap@Imf@@YA?AV?$Vec2@M@Imath@@ABV?$Box@V?$Vec2@H@Imath@@@4@ABV?$Vec3@M@4@@Z
	?setFilmType@KeyCode@Imf@@QAEXH@Z
	??$_Debug_range@PAV?$vector@V?$vector@_KV?$allocator@_K@std@@@std@@V?$allocator@V?$vector@_KV?$allocator@_K@std@@@std@@@2@@std@@@std@@YAXPAV?$vector@V?$vector@_KV?$allocator@_K@std@@@std@@V?$allocator@V?$vector@_KV?$allocator@_K@std@@@std@@@2@@0@0PB_WI@Z
	?height@PreviewImage@Imf@@QBEIXZ
	??1?$_Tree_nod@V?$_Tmap_traits@VName@Imf@@UChannel@2@U?$less@VName@Imf@@@std@@V?$allocator@U?$pair@$$CBVName@Imf@@UChannel@2@@std@@@5@$0A@@std@@@std@@QAE@XZ
	?envmapAttribute@Imf@@YAABV?$TypedAttribute@W4Envmap@Imf@@@1@ABVHeader@1@@Z
	?_Assign_rv@?$vector@V?$vector@_KV?$allocator@_K@std@@@std@@V?$allocator@V?$vector@_KV?$allocator@_K@std@@@std@@@2@@std@@QAEX$$QAV12@@Z
	?_Stz@?$fpos@H@std@@0HB
	??1?$_Vector_iterator@V?$_Vector_val@V?$basic_string@DU?$char_traits@D@std@@V?$allocator@D@2@@std@@V?$allocator@V?$basic_string@DU?$char_traits@D@std@@V?$allocator@D@2@@std@@@2@@std@@@std@@QAE@XZ
	??$_Ptr_cat@UTOutSliceInfo@?A0x39e5c904@Imf@@U123@@std@@YA?AU_Nonscalar_ptr_iterator_tag@0@PAUTOutSliceInfo@?A0x39e5c904@Imf@@0@Z
	??$typedAttribute@V?$TypedAttribute@W4Envmap@Imf@@@Imf@@@Header@Imf@@QAEAAV?$TypedAttribute@W4Envmap@Imf@@@1@QBD@Z
	??8Imf@@YA_NABVConstIterator@ChannelList@0@0@Z
	??$?0P6A?AVhalf@@V0@@Z@RgbaLut@Imf@@QAE@P6A?AVhalf@@V2@@ZW4RgbaChannels@1@@Z
	?cast@?$TypedAttribute@V?$Box@V?$Vec2@H@Imath@@@Imath@@@Imf@@SAABV12@ABVAttribute@2@@Z
	?staticTypeName@?$TypedAttribute@V?$Vec2@N@Imath@@@Imf@@SAPBDXZ
	??1?$_Vector_val@PAUTileBuffer@?A0x39e5c904@Imf@@V?$allocator@PAUTileBuffer@?A0x39e5c904@Imf@@@std@@@std@@QAE@XZ
	??0?$TypedAttribute@V?$Matrix33@N@Imath@@@Imf@@QAE@XZ
	??1Lock@IlmThread@@QAE@XZ
	??0?$_Iterator012@Ubidirectional_iterator_tag@std@@U?$pair@QBDP6APAVAttribute@Imf@@XZ@2@HPBU32@ABU32@U_Iterator_base12@2@@std@@QAE@ABU01@@Z
	??0?$_Pair_base@V?$_Tree_iterator@V?$_Tree_val@V?$_Tmap_traits@VName@Imf@@UChannel@2@U?$less@VName@Imf@@@std@@V?$allocator@U?$pair@$$CBVName@Imf@@UChannel@2@@std@@@5@$0A@@std@@@std@@@std@@_N@std@@QAE@$$QAV?$_Tree_iterator@V?$_Tree_val@V?$_Tmap_traits@VName@Imf@@UChannel@2@U?$less@VName@Imf@@@std@@V?$allocator@U?$pair@$$CBVName@Imf@@UChannel@2@@std@@@5@$0A@@std@@@std@@@1@$$QA_N@Z
	??1?$vector@UInSliceInfo@?A0xcbf8ace6@Imf@@V?$allocator@UInSliceInfo@?A0xcbf8ace6@Imf@@@std@@@std@@QAE@XZ
	??0?$_Tree_iterator@V?$_Tree_val@V?$_Tmap_traits@UTileCoord@?A0x39e5c904@Imf@@PAUBufferedTile@23@U?$less@UTileCoord@?A0x39e5c904@Imf@@@std@@V?$allocator@U?$pair@$$CBUTileCoord@?A0x39e5c904@Imf@@PAUBufferedTile@23@@std@@@6@$0A@@std@@@std@@@std@@QAE@ABV01@@Z
	?_Xlen@?$vector@V?$vector@V?$vector@_KV?$allocator@_K@std@@@std@@V?$allocator@V?$vector@_KV?$allocator@_K@std@@@std@@@2@@std@@V?$allocator@V?$vector@V?$vector@_KV?$allocator@_K@std@@@std@@V?$allocator@V?$vector@_KV?$allocator@_K@std@@@std@@@2@@std@@@2@@std@@IBEXXZ
	?makeNewAttribute@?$TypedAttribute@VPreviewImage@Imf@@@Imf@@SAPAVAttribute@2@XZ
	?isValidLevel@TiledRgbaInputFile@Imf@@QBE_NHH@Z
	?prefixFromLayerName@?A0x756c113c@Imf@@YA?AV?$basic_string@DU?$char_traits@D@std@@V?$allocator@D@2@@std@@ABV34@ABVHeader@2@@Z
	??$forward@UTInSliceInfo@?A0xf6fcebb6@Imf@@@std@@YA$$QAUTInSliceInfo@?A0xf6fcebb6@Imf@@AAU123@@Z
	??A?$Matrix33@M@Imath@@QBEPBMH@Z
	??4?$Vec3@N@Imath@@QAEABV01@ABV01@@Z
	??$forward@AAV?$basic_string@DU?$char_traits@D@std@@V?$allocator@D@2@@std@@@std@@YAAAV?$basic_string@DU?$char_traits@D@std@@V?$allocator@D@2@@0@AAV10@@Z
	?_Buynode@?$_Tree_val@V?$_Tset_traits@V?$basic_string@DU?$char_traits@D@std@@V?$allocator@D@2@@std@@U?$less@V?$basic_string@DU?$char_traits@D@std@@V?$allocator@D@2@@std@@@2@V?$allocator@V?$basic_string@DU?$char_traits@D@std@@V?$allocator@D@2@@std@@@2@$0A@@std@@@std@@QAEPAU_Node@?$_Tree_nod@V?$_Tset_traits@V?$basic_string@DU?$char_traits@D@std@@V?$allocator@D@2@@std@@U?$less@V?$basic_string@DU?$char_traits@D@std@@V?$allocator@D@2@@std@@@2@V?$allocator@V?$basic_string@DU?$char_traits@D@std@@V?$allocator@D@2@@std@@@2@$0A@@std@@@2@XZ
	??$_Uninit_def_fill_n@PAUTileBuffer@?A0xf6fcebb6@Imf@@IPAU123@PAU123@@std@@YAXPAPAUTileBuffer@?A0xf6fcebb6@Imf@@IPBQAU123@AAV?$allocator@PAUTileBuffer@?A0xf6fcebb6@Imf@@@0@0U_Scalar_ptr_iterator_tag@0@@Z
	?_Min@?$_Tree_val@V?$_Tmap_traits@VName@Imf@@UChannel@2@U?$less@VName@Imf@@@std@@V?$allocator@U?$pair@$$CBVName@Imf@@UChannel@2@@std@@@5@$0A@@std@@@std@@SAPAU_Node@?$_Tree_nod@V?$_Tmap_traits@VName@Imf@@UChannel@2@U?$less@VName@Imf@@@std@@V?$allocator@U?$pair@$$CBVName@Imf@@UChannel@2@@std@@@5@$0A@@std@@@2@PAU342@@Z
	?findTiles@TileOffsets@Imf@@AAEXAAVIStream@2@@Z
	?uncompressTile@Pxr24Compressor@Imf@@UAEHPBDHV?$Box@V?$Vec2@H@Imath@@@Imath@@AAPBD@Z
	?writeTiles@TiledRgbaOutputFile@Imf@@QAEXHHHHH@Z
	?capacity@?$vector@UInSliceInfo@?A0xcbf8ace6@Imf@@V?$allocator@UInSliceInfo@?A0xcbf8ace6@Imf@@@std@@@std@@QBEIXZ
	sinf
	?destroy@?$allocator@V?$vector@V?$vector@_KV?$allocator@_K@std@@@std@@V?$allocator@V?$vector@_KV?$allocator@_K@std@@@std@@@2@@std@@@std@@QAEXPAV?$vector@V?$vector@_KV?$allocator@_K@std@@@std@@V?$allocator@V?$vector@_KV?$allocator@_K@std@@@std@@@2@@2@@Z
	?begin@?$vector@_KV?$allocator@_K@std@@@std@@QAE?AV?$_Vector_iterator@V?$_Vector_val@_KV?$allocator@_K@std@@@std@@@2@XZ
	??1?$_String_const_iterator@DU?$char_traits@D@std@@V?$allocator@D@2@@std@@QAE@XZ
	?registerAttributeType@?$TypedAttribute@V?$Matrix33@N@Imath@@@Imf@@SAXXZ
	?value@?$TypedAttribute@V?$Box@V?$Vec2@M@Imath@@@Imath@@@Imf@@QBEABV?$Box@V?$Vec2@M@Imath@@@Imath@@XZ
	?addLongitude@Imf@@YAXAAVHeader@1@ABM@Z
	__CTA6?AVErrnoExc@Iex@@
	??4?$Vec2@N@Imath@@QAEABV01@ABV01@@Z
	?_Lrotate@?$_Tree@V?$_Tmap_traits@PBDP6APAVAttribute@Imf@@XZUNameCompare@?A0x0779e1ad@2@V?$allocator@U?$pair@QBDP6APAVAttribute@Imf@@XZ@std@@@std@@$0A@@std@@@std@@IAEXPAU_Node@?$_Tree_nod@V?$_Tmap_traits@PBDP6APAVAttribute@Imf@@XZUNameCompare@?A0x0779e1ad@2@V?$allocator@U?$pair@QBDP6APAVAttribute@Imf@@XZ@std@@@std@@$0A@@std@@@2@@Z
	??$_Push_heap_0@PAPA_KHPA_KUFHeapCompare@?A0xc87c6bb7@Imf@@@std@@YAXPAPA_K0UFHeapCompare@?A0xc87c6bb7@Imf@@PAH0@Z
	?erase@?$_Tree@V?$_Tmap_traits@VName@Imf@@UChannel@2@U?$less@VName@Imf@@@std@@V?$allocator@U?$pair@$$CBVName@Imf@@UChannel@2@@std@@@5@$0A@@std@@@std@@QAE?AV?$_Tree_iterator@V?$_Tree_val@V?$_Tmap_traits@VName@Imf@@UChannel@2@U?$less@VName@Imf@@@std@@V?$allocator@U?$pair@$$CBVName@Imf@@UChannel@2@@std@@@5@$0A@@std@@@std@@@2@V?$_Tree_const_iterator@V?$_Tree_val@V?$_Tmap_traits@VName@Imf@@UChannel@2@U?$less@VName@Imf@@@std@@V?$allocator@U?$pair@$$CBVName@Imf@@UChannel@2@@std@@@5@$0A@@std@@@std@@@2@0@Z
	??$_Val_type@PAV?$vector@_KV?$allocator@_K@std@@@std@@@std@@YAPAV?$vector@_KV?$allocator@_K@std@@@0@PAV10@@Z
	?cast@?$TypedAttribute@V?$Vec3@H@Imath@@@Imf@@SAABV12@ABVAttribute@2@@Z
	?layers@ChannelList@Imf@@QBEXAAV?$set@V?$basic_string@DU?$char_traits@D@std@@V?$allocator@D@2@@std@@U?$less@V?$basic_string@DU?$char_traits@D@std@@V?$allocator@D@2@@std@@@2@V?$allocator@V?$basic_string@DU?$char_traits@D@std@@V?$allocator@D@2@@std@@@2@@std@@@Z
	?isMemoryMapped@IStream@Imf@@UBE_NXZ
	?seekpos@?$basic_filebuf@DU?$char_traits@D@std@@@std@@MAE?AV?$fpos@H@2@V32@H@Z
	?screenWindowWidth@Header@Imf@@QBEABMXZ
	?levelHeight@TiledRgbaInputFile@Imf@@QBEHH@Z
	?makeNewAttribute@?$TypedAttribute@H@Imf@@SAPAVAttribute@2@XZ
	??0TiledOutputFile@Imf@@QAE@AAVOStream@1@ABVHeader@1@H@Z
	??4?$Matrix33@M@Imath@@QAEABV01@ABV01@@Z
	?dataWindow@RgbaInputFile@Imf@@QBEABV?$Box@V?$Vec2@H@Imath@@@Imath@@XZ
	?keyCodeAttribute@Imf@@YAABV?$TypedAttribute@VKeyCode@Imf@@@1@ABVHeader@1@@Z
	??1?$_Iterator012@Ubidirectional_iterator_tag@std@@V?$basic_string@DU?$char_traits@D@std@@V?$allocator@D@2@@2@HPBV32@ABV32@U_Iterator_base12@2@@std@@QAE@XZ
	??0?$Vec2@H@Imath@@QAE@H@Z
	?_Orphan_range@?$vector@_KV?$allocator@_K@std@@@std@@IBEXPA_K0@Z
	?cast@?$TypedAttribute@VRational@Imf@@@Imf@@SAPBV12@PBVAttribute@2@@Z
	?_Right@?$_Tree_val@V?$_Tmap_traits@VName@Imf@@PAVAttribute@2@U?$less@VName@Imf@@@std@@V?$allocator@U?$pair@$$CBVName@Imf@@PAVAttribute@2@@std@@@5@$0A@@std@@@std@@SAAAPAU_Node@?$_Tree_nod@V?$_Tmap_traits@VName@Imf@@PAVAttribute@2@U?$less@VName@Imf@@@std@@V?$allocator@U?$pair@$$CBVName@Imf@@PAVAttribute@2@@std@@@5@$0A@@std@@@2@PAU342@@Z
	?addXDensity@Imf@@YAXAAVHeader@1@ABM@Z
	?erase@?$_Tree@V?$_Tmap_traits@PBDP6APAVAttribute@Imf@@XZUNameCompare@?A0x0779e1ad@2@V?$allocator@U?$pair@QBDP6APAVAttribute@Imf@@XZ@std@@@std@@$0A@@std@@@std@@QAE?AV?$_Tree_iterator@V?$_Tree_val@V?$_Tmap_traits@PBDP6APAVAttribute@Imf@@XZUNameCompare@?A0x0779e1ad@2@V?$allocator@U?$pair@QBDP6APAVAttribute@Imf@@XZ@std@@@std@@$0A@@std@@@std@@@2@V?$_Tree_const_iterator@V?$_Tree_val@V?$_Tmap_traits@PBDP6APAVAttribute@Imf@@XZUNameCompare@?A0x0779e1ad@2@V?$allocator@U?$pair@QBDP6APAVAttribute@Imf@@XZ@std@@@std@@$0A@@std@@@std@@@2@@Z
	?writeValueTo@?$TypedAttribute@V?$Vec3@N@Imath@@@Imf@@UBEXAAVOStream@2@H@Z
	?writeValueTo@?$TypedAttribute@W4Compression@Imf@@@Imf@@UBEXAAVOStream@2@H@Z
	??0Attribute@Imf@@QAE@XZ
	?readTileData@?A0xf6fcebb6@Imf@@YAXPAUData@TiledInputFile@2@HHHHAAPADAAH@Z
	?precalculateTileInfo@Imf@@YAXABVTileDescription@1@HHHHAAPAH1AAH2@Z
	?readTile@TiledRgbaInputFile@Imf@@QAEXHHHH@Z
	??E?$_Vector_iterator@V?$_Vector_val@_KV?$allocator@_K@std@@@std@@@std@@QAEAAV01@XZ
	?staticTypeName@?$TypedAttribute@V?$vector@V?$basic_string@DU?$char_traits@D@std@@V?$allocator@D@2@@std@@V?$allocator@V?$basic_string@DU?$char_traits@D@std@@V?$allocator@D@2@@std@@@2@@std@@@Imf@@SAPBDXZ
	??$_Ucopy@PAUOutSliceInfo@?A0xf57f9ec6@Imf@@@?$vector@UOutSliceInfo@?A0xf57f9ec6@Imf@@V?$allocator@UOutSliceInfo@?A0xf57f9ec6@Imf@@@std@@@std@@IAEPAUOutSliceInfo@?A0xf57f9ec6@Imf@@PAU234@00@Z
	??0?$allocator@V?$basic_string@DU?$char_traits@D@std@@V?$allocator@D@2@@std@@@std@@QAE@XZ
	??1?$TypedAttribute@W4Compression@Imf@@@Imf@@UAE@XZ
	??1BufferedTile@?A0x39e5c904@Imf@@QAE@XZ
	??1?$_Tree_iterator@V?$_Tree_val@V?$_Tmap_traits@VName@Imf@@USlice@2@U?$less@VName@Imf@@@std@@V?$allocator@U?$pair@$$CBVName@Imf@@USlice@2@@std@@@5@$0A@@std@@@std@@@std@@QAE@XZ
	??$_Uninit_def_fill_n@_KI_K_K@std@@YAXPA_KIPB_KAAV?$allocator@_K@0@0U_Scalar_ptr_iterator_tag@0@@Z
	??$?0UOutSliceInfo@?A0xf57f9ec6@Imf@@@?$allocator@U_Container_proxy@std@@@std@@QAE@ABV?$allocator@UOutSliceInfo@?A0xf57f9ec6@Imf@@@1@@Z
	?clear@?$vector@UOutSliceInfo@?A0xf57f9ec6@Imf@@V?$allocator@UOutSliceInfo@?A0xf57f9ec6@Imf@@@std@@@std@@QAEXXZ
	??$?0U?$pair@$$CBVName@Imf@@PAVAttribute@2@@std@@@?$allocator@U_Node@?$_Tree_nod@V?$_Tmap_traits@VName@Imf@@PAVAttribute@2@U?$less@VName@Imf@@@std@@V?$allocator@U?$pair@$$CBVName@Imf@@PAVAttribute@2@@std@@@5@$0A@@std@@@std@@@std@@QAE@ABV?$allocator@U?$pair@$$CBVName@Imf@@PAVAttribute@2@@std@@@1@@Z
	??1?$TypedAttribute@M@Imf@@UAE@XZ
	?writeValueTo@?$TypedAttribute@V?$Box@V?$Vec2@H@Imath@@@Imath@@@Imf@@UBEXAAVOStream@2@H@Z
	?find@?$_Tree@V?$_Tmap_traits@VName@Imf@@UChannel@2@U?$less@VName@Imf@@@std@@V?$allocator@U?$pair@$$CBVName@Imf@@UChannel@2@@std@@@5@$0A@@std@@@std@@QAE?AV?$_Tree_iterator@V?$_Tree_val@V?$_Tmap_traits@VName@Imf@@UChannel@2@U?$less@VName@Imf@@@std@@V?$allocator@U?$pair@$$CBVName@Imf@@UChannel@2@@std@@@5@$0A@@std@@@std@@@2@ABVName@Imf@@@Z
	?viewNum@?A0x4734fbb7@Imf@@YAHABV?$basic_string@DU?$char_traits@D@std@@V?$allocator@D@2@@std@@ABV?$vector@V?$basic_string@DU?$char_traits@D@std@@V?$allocator@D@2@@std@@V?$allocator@V?$basic_string@DU?$char_traits@D@std@@V?$allocator@D@2@@std@@@2@@4@@Z
	??0?$_Tree_val@V?$_Tmap_traits@VName@Imf@@USlice@2@U?$less@VName@Imf@@@std@@V?$allocator@U?$pair@$$CBVName@Imf@@USlice@2@@std@@@5@$0A@@std@@@std@@QAE@ABU?$less@VName@Imf@@@1@V?$allocator@U?$pair@$$CBVName@Imf@@USlice@2@@std@@@1@@Z
	?altitudeAttribute@Imf@@YAABV?$TypedAttribute@M@1@ABVHeader@1@@Z
	?_Rank@?$_Arithmetic_traits@M@std@@2HB
	??RTileOffsets@Imf@@QAEAA_KHHHH@Z
	?size@?$vector@UTOutSliceInfo@?A0x39e5c904@Imf@@V?$allocator@UTOutSliceInfo@?A0x39e5c904@Imf@@@std@@@std@@QBEIXZ
	?getTileBuffer@Data@TiledInputFile@Imf@@QAEPAUTileBuffer@?A0xf6fcebb6@3@H@Z
	??E?$_Tree_unchecked_const_iterator@V?$_Tree_val@V?$_Tmap_traits@VName@Imf@@PAVAttribute@2@U?$less@VName@Imf@@@std@@V?$allocator@U?$pair@$$CBVName@Imf@@PAVAttribute@2@@std@@@5@$0A@@std@@@std@@U_Iterator_base12@2@@std@@QAEAAV01@XZ
	?updatePreviewImage@RgbaOutputFile@Imf@@QAEXQBUPreviewRgba@2@@Z
	?wdec16@?A0xfda0f276@Imf@@YAXGGAAG0@Z
	?copyValueFrom@?$TypedAttribute@W4Compression@Imf@@@Imf@@UAEXABVAttribute@2@@Z
	?hasWorldToNDC@Imf@@YA_NABVHeader@1@@Z
	??$forward@USlice@Imf@@@std@@YA$$QAUSlice@Imf@@AAU12@@Z
	?newAttribute@Attribute@Imf@@SAPAV12@QBD@Z
	?dataWindowForTile@TiledRgbaInputFile@Imf@@QBE?AV?$Box@V?$Vec2@H@Imath@@@Imath@@HHH@Z
	?channel@ConstIterator@ChannelList@Imf@@QBEABUChannel@3@XZ
	?copyValueFrom@?$TypedAttribute@V?$Matrix33@M@Imath@@@Imf@@UAEXABVAttribute@2@@Z
	?numXLevels@TiledRgbaInputFile@Imf@@QBEHXZ
	??AFrameBuffer@Imf@@QAEAAUSlice@1@ABV?$basic_string@DU?$char_traits@D@std@@V?$allocator@D@2@@std@@@Z
	?_Color@?$_Tree_val@V?$_Tmap_traits@PBDP6APAVAttribute@Imf@@XZUNameCompare@?A0x0779e1ad@2@V?$allocator@U?$pair@QBDP6APAVAttribute@Imf@@XZ@std@@@std@@$0A@@std@@@std@@SAAADPAU_Node@?$_Tree_nod@V?$_Tmap_traits@PBDP6APAVAttribute@Imf@@XZUNameCompare@?A0x0779e1ad@2@V?$allocator@U?$pair@QBDP6APAVAttribute@Imf@@XZ@std@@@std@@$0A@@std@@@2@@Z
	??$_Buynode@AAU?$pair@$$CBVName@Imf@@UChannel@2@@std@@@?$_Tree_val@V?$_Tmap_traits@VName@Imf@@UChannel@2@U?$less@VName@Imf@@@std@@V?$allocator@U?$pair@$$CBVName@Imf@@UChannel@2@@std@@@5@$0A@@std@@@std@@QAEPAU_Node@?$_Tree_nod@V?$_Tmap_traits@VName@Imf@@UChannel@2@U?$less@VName@Imf@@@std@@V?$allocator@U?$pair@$$CBVName@Imf@@UChannel@2@@std@@@5@$0A@@std@@@1@AAU?$pair@$$CBVName@Imf@@UChannel@2@@1@@Z
	?XYZtoRGB@Imf@@YA?AV?$Matrix44@M@Imath@@UChromaticities@1@M@Z
	?hasIsoSpeed@Imf@@YA_NABVHeader@1@@Z
	?writeValueTo@?$TypedAttribute@N@Imf@@UBEXAAVOStream@2@H@Z
	?channels@Header@Imf@@QAEAAVChannelList@2@XZ
	?readTiles@TiledInputFile@Imf@@QAEXHHHHHH@Z
	?max_size@?$_Tree@V?$_Tmap_traits@PBDP6APAVAttribute@Imf@@XZUNameCompare@?A0x0779e1ad@2@V?$allocator@U?$pair@QBDP6APAVAttribute@Imf@@XZ@std@@@std@@$0A@@std@@@std@@QBEIXZ
	?updatePreviewImage@TiledOutputFile@Imf@@QAEXQBUPreviewRgba@2@@Z
	?substr@?$basic_string@DU?$char_traits@D@std@@V?$allocator@D@2@@std@@QBE?AV12@II@Z
	?_Inside@?$vector@V?$basic_string@DU?$char_traits@D@std@@V?$allocator@D@2@@std@@V?$allocator@V?$basic_string@DU?$char_traits@D@std@@V?$allocator@D@2@@std@@@2@@std@@IBE_NPBV?$basic_string@DU?$char_traits@D@std@@V?$allocator@D@2@@2@@Z
	??F?$_Tree_unchecked_const_iterator@V?$_Tree_val@V?$_Tmap_traits@PBDP6APAVAttribute@Imf@@XZUNameCompare@?A0x0779e1ad@2@V?$allocator@U?$pair@QBDP6APAVAttribute@Imf@@XZ@std@@@std@@$0A@@std@@@std@@U_Iterator_base12@2@@std@@QAEAAV01@XZ
	?unpack3@?A0xb36f0740@Imf@@YAXQBEQAG@Z
	?_Hardfail@?$_Iosb@H@std@@2W4_Iostate@12@B
	?convertFromLinear@?A0xb36f0740@Imf@@YAXQAG@Z
	??$construct@AAUInSliceInfo@?A0xcbf8ace6@Imf@@@?$allocator@UInSliceInfo@?A0xcbf8ace6@Imf@@@std@@QAEXPAUInSliceInfo@?A0xcbf8ace6@Imf@@AAU234@@Z
	??0Lock@IlmThread@@QAE@ABVMutex@1@_N@Z
	??1?$_Iterator012@Ubidirectional_iterator_tag@std@@U?$pair@$$CBVName@Imf@@USlice@2@@2@HPBU32@ABU32@U_Iterator_base12@2@@std@@QAE@XZ
	?_Left@?$_Tree_val@V?$_Tmap_traits@VName@Imf@@PAVAttribute@2@U?$less@VName@Imf@@@std@@V?$allocator@U?$pair@$$CBVName@Imf@@PAVAttribute@2@@std@@@5@$0A@@std@@@std@@SAAAPAU_Node@?$_Tree_nod@V?$_Tmap_traits@VName@Imf@@PAVAttribute@2@U?$less@VName@Imf@@@std@@V?$allocator@U?$pair@$$CBVName@Imf@@PAVAttribute@2@@std@@@5@$0A@@std@@@2@PAU342@@Z
	?key_comp@?$_Tree@V?$_Tmap_traits@VName@Imf@@UChannel@2@U?$less@VName@Imf@@@std@@V?$allocator@U?$pair@$$CBVName@Imf@@UChannel@2@@std@@@5@$0A@@std@@@std@@QBE?AU?$less@VName@Imf@@@2@XZ
	??$_Destroy_range@V?$allocator@UInSliceInfo@?A0xcbf8ace6@Imf@@@std@@@std@@YAXPAUInSliceInfo@?A0xcbf8ace6@Imf@@0AAV?$allocator@UInSliceInfo@?A0xcbf8ace6@Imf@@@0@U_Nonscalar_ptr_iterator_tag@0@@Z
	?reserve@?$vector@V?$basic_string@DU?$char_traits@D@std@@V?$allocator@D@2@@std@@V?$allocator@V?$basic_string@DU?$char_traits@D@std@@V?$allocator@D@2@@std@@@2@@std@@QAEXI@Z
	??$write@UCharPtrIO@Imf@@PAD@Xdr@Imf@@YAXAAPADI@Z
	?collate@?$_Locbase@H@std@@2HB
	?compress@ZipCompressor@Imf@@UAEHPBDHHAAPBD@Z
	?renderingTransform@Imf@@YAAAV?$basic_string@DU?$char_traits@D@std@@V?$allocator@D@2@@std@@AAVHeader@1@@Z
	??0?$_Tree_const_iterator@V?$_Tree_val@V?$_Tmap_traits@UTileCoord@?A0x39e5c904@Imf@@PAUBufferedTile@23@U?$less@UTileCoord@?A0x39e5c904@Imf@@@std@@V?$allocator@U?$pair@$$CBUTileCoord@?A0x39e5c904@Imf@@PAUBufferedTile@23@@std@@@6@$0A@@std@@@std@@@std@@QAE@XZ
	??0?$_Tree_unchecked_const_iterator@V?$_Tree_val@V?$_Tmap_traits@VName@Imf@@PAVAttribute@2@U?$less@VName@Imf@@@std@@V?$allocator@U?$pair@$$CBVName@Imf@@PAVAttribute@2@@std@@@5@$0A@@std@@@std@@U_Iterator_base12@2@@std@@QAE@XZ
	?typeName@?$TypedAttribute@V?$basic_string@DU?$char_traits@D@std@@V?$allocator@D@2@@std@@@Imf@@UBEPBDXZ
	?_Tidy@?$_Tree@V?$_Tmap_traits@VName@Imf@@UChannel@2@U?$less@VName@Imf@@@std@@V?$allocator@U?$pair@$$CBVName@Imf@@UChannel@2@@std@@@5@$0A@@std@@@std@@IAEXXZ
	?assign@?$basic_string@DU?$char_traits@D@std@@V?$allocator@D@2@@std@@QAEAAV12@$$QAV12@@Z
	?seekg@StdIFStream@Imf@@UAEX_K@Z
	??$_Copy_impl@PA_KPA_K@std@@YAPA_KPA_K00U_Scalar_ptr_iterator_tag@0@@Z
	?max_size@?$vector@UTOutSliceInfo@?A0x39e5c904@Imf@@V?$allocator@UTOutSliceInfo@?A0x39e5c904@Imf@@@std@@@std@@QBEIXZ
	?reserve@?$basic_string@DU?$char_traits@D@std@@V?$allocator@D@2@@std@@QAEXI@Z
	??$_Destroy_range@V?$allocator@PAUTileBuffer@?A0x39e5c904@Imf@@@std@@@std@@YAXPAPAUTileBuffer@?A0x39e5c904@Imf@@0AAV?$allocator@PAUTileBuffer@?A0x39e5c904@Imf@@@0@@Z
	?readValueFrom@?$TypedAttribute@UChromaticities@Imf@@@Imf@@UAEXAAVIStream@2@HH@Z
	??$write@UCharPtrIO@Imf@@PAD@Xdr@Imf@@YAXAAPADH@Z
	??0?$_Pair_base@$$CBVName@Imf@@UChannel@2@@std@@QAE@ABVName@Imf@@$$QAUChannel@3@@Z
	?construct@?$allocator@V?$vector@_KV?$allocator@_K@std@@@std@@@std@@QAEXPAV?$vector@_KV?$allocator@_K@std@@@2@$$QAV32@@Z
	??1?$vector@V?$vector@V?$vector@_KV?$allocator@_K@std@@@std@@V?$allocator@V?$vector@_KV?$allocator@_K@std@@@std@@@2@@std@@V?$allocator@V?$vector@V?$vector@_KV?$allocator@_K@std@@@std@@V?$allocator@V?$vector@_KV?$allocator@_K@std@@@std@@@2@@std@@@2@@std@@QAE@XZ
	?whiteLuminanceAttribute@Imf@@YAABV?$TypedAttribute@M@1@ABVHeader@1@@Z
	??$?0_K@?$allocator@U_Container_proxy@std@@@std@@QAE@ABV?$allocator@_K@1@@Z
	?writeValueTo@?$TypedAttribute@VChannelList@Imf@@@Imf@@UBEXAAVOStream@2@H@Z
	?clear@StdIFStream@Imf@@UAEXXZ
	fabsf
	?registerAttributeType@Attribute@Imf@@KAXQBDP6APAV12@XZ@Z
	??H?$_Vector_iterator@V?$_Vector_val@IV?$allocator@I@std@@@std@@@std@@QBE?AV01@H@Z
	??$_Iter_cat@PAV?$vector@_KV?$allocator@_K@std@@@std@@@std@@YA?AUrandom_access_iterator_tag@0@ABQAV?$vector@_KV?$allocator@_K@std@@@0@@Z
	??1?$pair@V?$_Tree_iterator@V?$_Tree_val@V?$_Tmap_traits@VName@Imf@@PAVAttribute@2@U?$less@VName@Imf@@@std@@V?$allocator@U?$pair@$$CBVName@Imf@@PAVAttribute@2@@std@@@5@$0A@@std@@@std@@@std@@_N@std@@QAE@XZ
	??0IoExc@Iex@@QAE@ABV01@@Z
	ImfFloatToHalf
	?allocate@?$allocator@_K@std@@QAEPA_KI@Z
	??$_Cons_val@V?$allocator@U?$pair@QBDP6APAVAttribute@Imf@@XZ@std@@@std@@U?$pair@QBDP6APAVAttribute@Imf@@XZ@2@U32@@std@@YAXAAV?$allocator@U?$pair@QBDP6APAVAttribute@Imf@@XZ@std@@@0@PAU?$pair@QBDP6APAVAttribute@Imf@@XZ@0@$$QAU20@@Z
	?_Orphan_range@?$vector@IV?$allocator@I@std@@@std@@IBEXPAI0@Z
	?channelsWithPrefix@ChannelList@Imf@@QAEXABV?$basic_string@DU?$char_traits@D@std@@V?$allocator@D@2@@std@@AAVIterator@12@1@Z
	??$typedAttribute@V?$TypedAttribute@V?$Vec3@M@Imath@@@Imf@@@Header@Imf@@QBEABV?$TypedAttribute@V?$Vec3@M@Imath@@@1@QBD@Z
	??$_Val_type@PAUInSliceInfo@?A0xcbf8ace6@Imf@@@std@@YAPAUInSliceInfo@?A0xcbf8ace6@Imf@@PAU123@@Z
	?find@Header@Imf@@QBE?AVConstIterator@12@QBD@Z
	?monetary@?$_Locbase@H@std@@2HB
	?writeValueTo@OpaqueAttribute@Imf@@UBEXAAVOStream@2@H@Z
	ImfTiledOutputLevelRoundingMode
	?value@?$TypedAttribute@W4Envmap@Imf@@@Imf@@QAEAAW4Envmap@2@XZ
	??0?$TypedAttribute@N@Imf@@QAE@XZ
	?_Init@?$basic_stringbuf@DU?$char_traits@D@std@@V?$allocator@D@2@@std@@IAEXPBDIH@Z
	?_Max@?$_Tree_val@V?$_Tset_traits@V?$basic_string@DU?$char_traits@D@std@@V?$allocator@D@2@@std@@U?$less@V?$basic_string@DU?$char_traits@D@std@@V?$allocator@D@2@@std@@@2@V?$allocator@V?$basic_string@DU?$char_traits@D@std@@V?$allocator@D@2@@std@@@2@$0A@@std@@@std@@SAPAU_Node@?$_Tree_nod@V?$_Tset_traits@V?$basic_string@DU?$char_traits@D@std@@V?$allocator@D@2@@std@@U?$less@V?$basic_string@DU?$char_traits@D@std@@V?$allocator@D@2@@std@@@2@V?$allocator@V?$basic_string@DU?$char_traits@D@std@@V?$allocator@D@2@@std@@@2@$0A@@std@@@2@PAU342@@Z
	?abs@@YAMM@Z
	??1TileBuffer@?A0x39e5c904@Imf@@QAE@XZ
	?frameBuffer@InputFile@Imf@@QBEABVFrameBuffer@2@XZ
	??$forward@AAUOutSliceInfo@?A0xf57f9ec6@Imf@@@std@@YAAAUOutSliceInfo@?A0xf57f9ec6@Imf@@AAU123@@Z
	??1ConstIterator@FrameBuffer@Imf@@QAE@XZ
	??F?$_Tree_iterator@V?$_Tree_val@V?$_Tmap_traits@VName@Imf@@PAVAttribute@2@U?$less@VName@Imf@@@std@@V?$allocator@U?$pair@$$CBVName@Imf@@PAVAttribute@2@@std@@@5@$0A@@std@@@std@@@std@@QAEAAV01@XZ
	?setCount@KeyCode@Imf@@QAEXH@Z
	?cast@?$TypedAttribute@W4Envmap@Imf@@@Imf@@SAABV12@ABVAttribute@2@@Z
	??$_Move@PAPAUTileBuffer@?A0xf6fcebb6@Imf@@PAPAU123@@std@@YAPAPAUTileBuffer@?A0xf6fcebb6@Imf@@PAPAU123@00@Z
	??$_Debug_lt_pred@UFHeapCompare@?A0xc87c6bb7@Imf@@PA_KPA_K@std@@YA_NUFHeapCompare@?A0xc87c6bb7@Imf@@AAPA_K1PB_WI@Z
	??0?$_Pair_base@V?$_Tree_iterator@V?$_Tree_val@V?$_Tmap_traits@VName@Imf@@PAVAttribute@2@U?$less@VName@Imf@@@std@@V?$allocator@U?$pair@$$CBVName@Imf@@PAVAttribute@2@@std@@@5@$0A@@std@@@std@@@std@@_N@std@@QAE@$$QAV?$_Tree_iterator@V?$_Tree_val@V?$_Tmap_traits@VName@Imf@@PAVAttribute@2@U?$less@VName@Imf@@@std@@V?$allocator@U?$pair@$$CBVName@Imf@@PAVAttribute@2@@std@@@5@$0A@@std@@@std@@@1@$$QA_N@Z
	??9?$_Tree_const_iterator@V?$_Tree_val@V?$_Tmap_traits@PBDP6APAVAttribute@Imf@@XZUNameCompare@?A0x0779e1ad@2@V?$allocator@U?$pair@QBDP6APAVAttribute@Imf@@XZ@std@@@std@@$0A@@std@@@std@@@std@@QBE_NABV01@@Z
	ImfCopyHeader
	?push_back@?$vector@V?$basic_string@DU?$char_traits@D@std@@V?$allocator@D@2@@std@@V?$allocator@V?$basic_string@DU?$char_traits@D@std@@V?$allocator@D@2@@std@@@2@@std@@QAEXABV?$basic_string@DU?$char_traits@D@std@@V?$allocator@D@2@@2@@Z
	?wait@LineBuffer@?A0xf57f9ec6@Imf@@QAEXXZ
	??$typedAttribute@V?$TypedAttribute@V?$Vec2@H@Imath@@@Imf@@@Header@Imf@@QBEABV?$TypedAttribute@V?$Vec2@H@Imath@@@1@QBD@Z
	?deallocate@?$allocator@U_Node@?$_Tree_nod@V?$_Tmap_traits@VName@Imf@@PAVAttribute@2@U?$less@VName@Imf@@@std@@V?$allocator@U?$pair@$$CBVName@Imf@@PAVAttribute@2@@std@@@5@$0A@@std@@@std@@@std@@QAEXPAU_Node@?$_Tree_nod@V?$_Tmap_traits@VName@Imf@@PAVAttribute@2@U?$less@VName@Imf@@@std@@V?$allocator@U?$pair@$$CBVName@Imf@@PAVAttribute@2@@std@@@5@$0A@@std@@@2@I@Z
	??$?0AAV?$_Tree_iterator@V?$_Tree_val@V?$_Tmap_traits@VName@Imf@@PAVAttribute@2@U?$less@VName@Imf@@@std@@V?$allocator@U?$pair@$$CBVName@Imf@@PAVAttribute@2@@std@@@5@$0A@@std@@@std@@@std@@_N@?$_Pair_base@V?$_Tree_iterator@V?$_Tree_val@V?$_Tmap_traits@VName@Imf@@PAVAttribute@2@U?$less@VName@Imf@@@std@@V?$allocator@U?$pair@$$CBVName@Imf@@PAVAttribute@2@@std@@@5@$0A@@std@@@std@@@std@@_N@std@@QAE@AAV?$_Tree_iterator@V?$_Tree_val@V?$_Tmap_traits@VName@Imf@@PAVAttribute@2@U?$less@VName@Imf@@@std@@V?$allocator@U?$pair@$$CBVName@Imf@@PAVAttribute@2@@std@@@5@$0A@@std@@@std@@@1@$$QA_N@Z
	?begin@?$vector@V?$basic_string@DU?$char_traits@D@std@@V?$allocator@D@2@@std@@V?$allocator@V?$basic_string@DU?$char_traits@D@std@@V?$allocator@D@2@@std@@@2@@std@@QAE?AV?$_Vector_iterator@V?$_Vector_val@V?$basic_string@DU?$char_traits@D@std@@V?$allocator@D@2@@std@@V?$allocator@V?$basic_string@DU?$char_traits@D@std@@V?$allocator@D@2@@std@@@2@@std@@@2@XZ
	??0?$_Iterator012@Urandom_access_iterator_tag@std@@UOutSliceInfo@?A0xf57f9ec6@Imf@@HPBU345@ABU345@U_Iterator_base12@2@@std@@QAE@XZ
	??$construct@AAUTInSliceInfo@?A0xf6fcebb6@Imf@@@?$allocator@UTInSliceInfo@?A0xf6fcebb6@Imf@@@std@@QAEXPAUTInSliceInfo@?A0xf6fcebb6@Imf@@AAU234@@Z
	??0?$allocator@D@std@@QAE@XZ
	?setPreviewImage@Header@Imf@@QAEXABVPreviewImage@2@@Z
	?str@StdOSStream@Imf@@QBE?AV?$basic_string@DU?$char_traits@D@std@@V?$allocator@D@2@@std@@XZ
	??0?$TypedAttribute@N@Imf@@QAE@ABN@Z
	??A?$vector@PAUTileBuffer@?A0x39e5c904@Imf@@V?$allocator@PAUTileBuffer@?A0x39e5c904@Imf@@@std@@@std@@QAEAAPAUTileBuffer@?A0x39e5c904@Imf@@I@Z
	?screenWindowWidth@RgbaInputFile@Imf@@QBEMXZ
	??1ToYa@TiledRgbaOutputFile@Imf@@UAE@XZ
	?dataWindowForTile@TiledInputFile@Imf@@QBE?AV?$Box@V?$Vec2@H@Imath@@@Imath@@HHH@Z
	__CTA6?AVInputExc@Iex@@
	ImfHeaderSetV2iAttribute
	??0?$vector@UTInSliceInfo@?A0xf6fcebb6@Imf@@V?$allocator@UTInSliceInfo@?A0xf6fcebb6@Imf@@@std@@@std@@QAE@XZ
	??1?$_Pair_base@V?$_Tree_iterator@V?$_Tree_val@V?$_Tmap_traits@PBDP6APAVAttribute@Imf@@XZUNameCompare@?A0x0779e1ad@2@V?$allocator@U?$pair@QBDP6APAVAttribute@Imf@@XZ@std@@@std@@$0A@@std@@@std@@@std@@V12@@std@@QAE@XZ
	??$_Debug_pointer@PAULineBuffer@?A0xcbf8ace6@Imf@@@std@@YAXPAPAULineBuffer@?A0xcbf8ace6@Imf@@PB_WI@Z
	?readValueFrom@?$TypedAttribute@W4Compression@Imf@@@Imf@@UAEXAAVIStream@2@HH@Z
	??D?$_Tree_iterator@V?$_Tree_val@V?$_Tmap_traits@VName@Imf@@PAVAttribute@2@U?$less@VName@Imf@@@std@@V?$allocator@U?$pair@$$CBVName@Imf@@PAVAttribute@2@@std@@@5@$0A@@std@@@std@@@std@@QBEAAU?$pair@$$CBVName@Imf@@PAVAttribute@2@@1@XZ
	??Y?$_Vector_iterator@V?$_Vector_val@PAULineBuffer@?A0xf57f9ec6@Imf@@V?$allocator@PAULineBuffer@?A0xf57f9ec6@Imf@@@std@@@std@@@std@@QAEAAV01@H@Z
	?end@?$_Tree@V?$_Tmap_traits@VName@Imf@@USlice@2@U?$less@VName@Imf@@@std@@V?$allocator@U?$pair@$$CBVName@Imf@@USlice@2@@std@@@5@$0A@@std@@@std@@QAE?AV?$_Tree_iterator@V?$_Tree_val@V?$_Tmap_traits@VName@Imf@@USlice@2@U?$less@VName@Imf@@@std@@V?$allocator@U?$pair@$$CBVName@Imf@@USlice@2@@std@@@5@$0A@@std@@@std@@@2@XZ
	?insertViewName@Imf@@YA?AV?$basic_string@DU?$char_traits@D@std@@V?$allocator@D@2@@std@@ABV23@ABV?$vector@V?$basic_string@DU?$char_traits@D@std@@V?$allocator@D@2@@std@@V?$allocator@V?$basic_string@DU?$char_traits@D@std@@V?$allocator@D@2@@std@@@2@@3@H@Z
	?tileDescription@Header@Imf@@QAEAAVTileDescription@2@XZ
	??F?$_Tree_iterator@V?$_Tree_val@V?$_Tmap_traits@VName@Imf@@UChannel@2@U?$less@VName@Imf@@@std@@V?$allocator@U?$pair@$$CBVName@Imf@@UChannel@2@@std@@@5@$0A@@std@@@std@@@std@@QAEAAV01@XZ
	??1?$_Iterator012@Urandom_access_iterator_tag@std@@DHPBDABDU_Iterator_base12@2@@std@@QAE@XZ
	??4?$_Tree_const_iterator@V?$_Tree_val@V?$_Tmap_traits@VName@Imf@@PAVAttribute@2@U?$less@VName@Imf@@@std@@V?$allocator@U?$pair@$$CBVName@Imf@@PAVAttribute@2@@std@@@5@$0A@@std@@@std@@@std@@QAEAAV01@ABV01@@Z
	?getTileBuffer@Data@TiledOutputFile@Imf@@QAEPAUTileBuffer@?A0x39e5c904@3@H@Z
	?dataWindowForLevel@Imf@@YA?AV?$Box@V?$Vec2@H@Imath@@@Imath@@ABVTileDescription@1@HHHHHH@Z
	??9?$_Vector_const_iterator@V?$_Vector_val@_KV?$allocator@_K@std@@@std@@@std@@QBE_NABV01@@Z
	?value@?$TypedAttribute@V?$basic_string@DU?$char_traits@D@std@@V?$allocator@D@2@@std@@@Imf@@QBEABV?$basic_string@DU?$char_traits@D@std@@V?$allocator@D@2@@std@@XZ
	??$?0ABVName@Imf@@AAUChannel@1@@?$_Pair_base@$$CBVName@Imf@@UChannel@2@@std@@QAE@ABVName@Imf@@AAUChannel@3@@Z
	??AHeader@Imf@@QAEAAVAttribute@1@QBD@Z
	?floatToFloat24@?A0x2158812f@Imf@@YAIM@Z
	??R?$less@V?$basic_string@DU?$char_traits@D@std@@V?$allocator@D@2@@std@@@std@@QBE_NABV?$basic_string@DU?$char_traits@D@std@@V?$allocator@D@2@@1@0@Z
	??1SingMatrixExc@Imath@@UAE@XZ
	?chromaticities@Imf@@YAAAUChromaticities@1@AAVHeader@1@@Z
	??$_Cons_val@V?$allocator@UTOutSliceInfo@?A0x39e5c904@Imf@@@std@@UTOutSliceInfo@?A0x39e5c904@Imf@@AAU345@@std@@YAXAAV?$allocator@UTOutSliceInfo@?A0x39e5c904@Imf@@@0@PAUTOutSliceInfo@?A0x39e5c904@Imf@@AAU234@@Z
	?_Rrotate@?$_Tree@V?$_Tmap_traits@UTileCoord@?A0x39e5c904@Imf@@PAUBufferedTile@23@U?$less@UTileCoord@?A0x39e5c904@Imf@@@std@@V?$allocator@U?$pair@$$CBUTileCoord@?A0x39e5c904@Imf@@PAUBufferedTile@23@@std@@@6@$0A@@std@@@std@@IAEXPAU_Node@?$_Tree_nod@V?$_Tmap_traits@UTileCoord@?A0x39e5c904@Imf@@PAUBufferedTile@23@U?$less@UTileCoord@?A0x39e5c904@Imf@@@std@@V?$allocator@U?$pair@$$CBUTileCoord@?A0x39e5c904@Imf@@PAUBufferedTile@23@@std@@@6@$0A@@std@@@2@@Z
	?errorMessage@?A0xa29ce62f@@3PADA
	??$forward@PAUBufferedTile@?A0x39e5c904@Imf@@@std@@YA$$QAPAUBufferedTile@?A0x39e5c904@Imf@@AAPAU123@@Z
	??0Chromaticities@Imf@@QAE@ABU01@@Z
	??0MathExc@Iex@@QAE@PBD@Z
	??F?$_Tree_unchecked_const_iterator@V?$_Tree_val@V?$_Tmap_traits@VName@Imf@@USlice@2@U?$less@VName@Imf@@@std@@V?$allocator@U?$pair@$$CBVName@Imf@@USlice@2@@std@@@5@$0A@@std@@@std@@U_Iterator_base12@2@@std@@QAEAAV01@XZ
	?_Destroy@?$vector@_KV?$allocator@_K@std@@@std@@IAEXPA_K0@Z
	?levelWidth@TiledRgbaInputFile@Imf@@QBEHH@Z
	??$forward@U?$pair@$$CBVName@Imf@@UChannel@2@@std@@@std@@YA$$QAU?$pair@$$CBVName@Imf@@UChannel@2@@0@AAU10@@Z
	??0KeyCode@Imf@@QAE@HHHHHHH@Z
	?multiView@Imf@@YAAAV?$vector@V?$basic_string@DU?$char_traits@D@std@@V?$allocator@D@2@@std@@V?$allocator@V?$basic_string@DU?$char_traits@D@std@@V?$allocator@D@2@@std@@@2@@std@@AAVHeader@1@@Z
	??4?$_Tree_unchecked_const_iterator@V?$_Tree_val@V?$_Tmap_traits@UTileCoord@?A0x39e5c904@Imf@@PAUBufferedTile@23@U?$less@UTileCoord@?A0x39e5c904@Imf@@@std@@V?$allocator@U?$pair@$$CBUTileCoord@?A0x39e5c904@Imf@@PAUBufferedTile@23@@std@@@6@$0A@@std@@@std@@U_Iterator_base12@2@@std@@QAEAAV01@ABV01@@Z
	?erase@?$basic_string@DU?$char_traits@D@std@@V?$allocator@D@2@@std@@QAEAAV12@II@Z
	?readValueFrom@?$TypedAttribute@V?$vector@V?$basic_string@DU?$char_traits@D@std@@V?$allocator@D@2@@std@@V?$allocator@V?$basic_string@DU?$char_traits@D@std@@V?$allocator@D@2@@std@@@2@@std@@@Imf@@UAEXAAVIStream@2@HH@Z
	?makeNewAttribute@?$TypedAttribute@V?$Vec3@H@Imath@@@Imf@@SAPAVAttribute@2@XZ
	?notEnoughData@?A0x2158812f@Imf@@YAXXZ
	?underflow@?$basic_filebuf@DU?$char_traits@D@std@@@std@@MAEHXZ
	??1?$_Vector_const_iterator@V?$_Vector_val@PAULineBuffer@?A0xf57f9ec6@Imf@@V?$allocator@PAULineBuffer@?A0xf57f9ec6@Imf@@@std@@@std@@@std@@QAE@XZ
	??1TiledOutputFile@Imf@@UAE@XZ
	??BRational@Imf@@QBENXZ
	?desaturate@?A0x950c9801@RgbaYca@Imf@@YAXABURgba@3@MABV?$Vec3@M@Imath@@AAU43@@Z
	?move@?$char_traits@D@std@@SAPADPADPBDI@Z
	?_Make_iter@?$vector@UTOutSliceInfo@?A0x39e5c904@Imf@@V?$allocator@UTOutSliceInfo@?A0x39e5c904@Imf@@@std@@@std@@QBE?AV?$_Vector_iterator@V?$_Vector_val@UTOutSliceInfo@?A0x39e5c904@Imf@@V?$allocator@UTOutSliceInfo@?A0x39e5c904@Imf@@@std@@@std@@@2@V?$_Vector_const_iterator@V?$_Vector_val@UTOutSliceInfo@?A0x39e5c904@Imf@@V?$allocator@UTOutSliceInfo@?A0x39e5c904@Imf@@@std@@@std@@@2@@Z
	??E?$_Tree_const_iterator@V?$_Tree_val@V?$_Tmap_traits@VName@Imf@@PAVAttribute@2@U?$less@VName@Imf@@@std@@V?$allocator@U?$pair@$$CBVName@Imf@@PAVAttribute@2@@std@@@5@$0A@@std@@@std@@@std@@QAEAAV01@XZ
	??AHeader@Imf@@QBEABVAttribute@1@ABV?$basic_string@DU?$char_traits@D@std@@V?$allocator@D@2@@std@@@Z
	?hasTileDescription@Header@Imf@@QBE_NXZ
	?cast@?$TypedAttribute@W4Compression@Imf@@@Imf@@SAABV12@ABVAttribute@2@@Z
	?lineOrder@RgbaOutputFile@Imf@@QBE?AW4LineOrder@2@XZ
	??1?$_Tmap_traits@VName@Imf@@UChannel@2@U?$less@VName@Imf@@@std@@V?$allocator@U?$pair@$$CBVName@Imf@@UChannel@2@@std@@@5@$0A@@std@@QAE@XZ
	?max_size@?$allocator@V?$basic_string@DU?$char_traits@D@std@@V?$allocator@D@2@@std@@@std@@QBEIXZ
	?max_size@?$_Tree@V?$_Tmap_traits@VName@Imf@@UChannel@2@U?$less@VName@Imf@@@std@@V?$allocator@U?$pair@$$CBVName@Imf@@UChannel@2@@std@@@5@$0A@@std@@@std@@QBEIXZ
	??$_Ucopy@PAV?$basic_string@DU?$char_traits@D@std@@V?$allocator@D@2@@std@@@?$vector@V?$basic_string@DU?$char_traits@D@std@@V?$allocator@D@2@@std@@V?$allocator@V?$basic_string@DU?$char_traits@D@std@@V?$allocator@D@2@@std@@@2@@std@@IAEPAV?$basic_string@DU?$char_traits@D@std@@V?$allocator@D@2@@1@PAV21@00@Z
	?_Nocreate@?$_Iosb@H@std@@2W4_Openmode@12@B
	??0?$AutoArray@G$0BAAAA@@Imf@@QAE@XZ
	??1?$Array2D@URgba@Imf@@@Imf@@QAE@XZ
	??A?$basic_string@DU?$char_traits@D@std@@V?$allocator@D@2@@std@@QBEABDI@Z
	??D?$_Tree_unchecked_const_iterator@V?$_Tree_val@V?$_Tmap_traits@VName@Imf@@USlice@2@U?$less@VName@Imf@@@std@@V?$allocator@U?$pair@$$CBVName@Imf@@USlice@2@@std@@@5@$0A@@std@@@std@@U_Iterator_base12@2@@std@@QBEABU?$pair@$$CBVName@Imf@@USlice@2@@1@XZ
	??1?$TypedAttribute@V?$Box@V?$Vec2@M@Imath@@@Imath@@@Imf@@UAE@XZ
	??0?$Vec3@M@Imath@@QAE@XZ
	?readValueFrom@?$TypedAttribute@V?$Matrix33@M@Imath@@@Imf@@UAEXAAVIStream@2@HH@Z
	??$insert@U?$pair@$$CBVName@Imf@@PAVAttribute@2@@std@@@?$_Tree@V?$_Tmap_traits@VName@Imf@@PAVAttribute@2@U?$less@VName@Imf@@@std@@V?$allocator@U?$pair@$$CBVName@Imf@@PAVAttribute@2@@std@@@5@$0A@@std@@@std@@QAE?AV?$_Tree_iterator@V?$_Tree_val@V?$_Tmap_traits@VName@Imf@@PAVAttribute@2@U?$less@VName@Imf@@@std@@V?$allocator@U?$pair@$$CBVName@Imf@@PAVAttribute@2@@std@@@5@$0A@@std@@@std@@@1@V?$_Tree_const_iterator@V?$_Tree_val@V?$_Tmap_traits@VName@Imf@@PAVAttribute@2@U?$less@VName@Imf@@@std@@V?$allocator@U?$pair@$$CBVName@Imf@@PAVAttribute@2@@std@@@5@$0A@@std@@@std@@@1@$$QAU?$pair@$$CBVName@Imf@@PAVAttribute@2@@1@@Z
	??0OpaqueAttribute@Imf@@QAE@ABV01@@Z
	??$?9DU?$char_traits@D@std@@V?$allocator@D@1@@std@@YA_NABV?$basic_string@DU?$char_traits@D@std@@V?$allocator@D@2@@0@0@Z
	??$_Allocate@UTInSliceInfo@?A0xf6fcebb6@Imf@@@std@@YAPAUTInSliceInfo@?A0xf6fcebb6@Imf@@IPAU123@@Z
	??0?$Matrix44@M@Imath@@QAE@XZ
	??0ConstIterator@Header@Imf@@QAE@ABV?$_Tree_const_iterator@V?$_Tree_val@V?$_Tmap_traits@VName@Imf@@PAVAttribute@2@U?$less@VName@Imf@@@std@@V?$allocator@U?$pair@$$CBVName@Imf@@PAVAttribute@2@@std@@@5@$0A@@std@@@std@@@std@@@Z
	?colorFrame@TimeCode@Imf@@QBE_NXZ
	?value@?$TypedAttribute@V?$Matrix33@M@Imath@@@Imf@@QAEAAV?$Matrix33@M@Imath@@XZ
	?wrapmodesAttribute@Imf@@YAAAV?$TypedAttribute@V?$basic_string@DU?$char_traits@D@std@@V?$allocator@D@2@@std@@@1@AAVHeader@1@@Z
	?_Destroy@?$vector@IV?$allocator@I@std@@@std@@IAEXPAI0@Z
	??$typedAttribute@V?$TypedAttribute@V?$Vec3@H@Imath@@@Imf@@@Header@Imf@@QAEAAV?$TypedAttribute@V?$Vec3@H@Imath@@@1@QBD@Z
	??E?$_Tree_iterator@V?$_Tree_val@V?$_Tmap_traits@UTileCoord@?A0x39e5c904@Imf@@PAUBufferedTile@23@U?$less@UTileCoord@?A0x39e5c904@Imf@@@std@@V?$allocator@U?$pair@$$CBUTileCoord@?A0x39e5c904@Imf@@PAUBufferedTile@23@@std@@@6@$0A@@std@@@std@@@std@@QAEAAV01@XZ
	??A?$vector@_KV?$allocator@_K@std@@@std@@QAEAA_KI@Z
	?copy@?$TypedAttribute@V?$Vec2@M@Imath@@@Imf@@UBEPAVAttribute@2@XZ
	?_Rrotate@?$_Tree@V?$_Tset_traits@V?$basic_string@DU?$char_traits@D@std@@V?$allocator@D@2@@std@@U?$less@V?$basic_string@DU?$char_traits@D@std@@V?$allocator@D@2@@std@@@2@V?$allocator@V?$basic_string@DU?$char_traits@D@std@@V?$allocator@D@2@@std@@@2@$0A@@std@@@std@@IAEXPAU_Node@?$_Tree_nod@V?$_Tset_traits@V?$basic_string@DU?$char_traits@D@std@@V?$allocator@D@2@@std@@U?$less@V?$basic_string@DU?$char_traits@D@std@@V?$allocator@D@2@@std@@@2@V?$allocator@V?$basic_string@DU?$char_traits@D@std@@V?$allocator@D@2@@std@@@2@$0A@@std@@@2@@Z
	?findChannel@ChannelList@Imf@@QBEPBUChannel@2@QBD@Z
	?hufPackEncTable@?A0xc87c6bb7@Imf@@YAXPB_KHHPAPAD@Z
	?addIsoSpeed@Imf@@YAXAAVHeader@1@ABM@Z
	?deallocate@?$allocator@U_Container_proxy@std@@@std@@QAEXPAU_Container_proxy@2@I@Z
	??$write@UStreamIO@Imf@@VOStream@2@@Xdr@Imf@@YAXAAVOStream@1@E@Z
	??RTileOffsets@Imf@@QBEAB_KHHHH@Z
	??1?$_String_iterator@DU?$char_traits@D@std@@V?$allocator@D@2@@std@@QAE@XZ
	?fixed@?$_Iosb@H@std@@2W4_Fmtflags@12@B
	?registerAttributeType@?$TypedAttribute@VPreviewImage@Imf@@@Imf@@SAXXZ
	?_Lmost@?$_Tree@V?$_Tmap_traits@PBDP6APAVAttribute@Imf@@XZUNameCompare@?A0x0779e1ad@2@V?$allocator@U?$pair@QBDP6APAVAttribute@Imf@@XZ@std@@@std@@$0A@@std@@@std@@IBEAAPAU_Node@?$_Tree_nod@V?$_Tmap_traits@PBDP6APAVAttribute@Imf@@XZUNameCompare@?A0x0779e1ad@2@V?$allocator@U?$pair@QBDP6APAVAttribute@Imf@@XZ@std@@@std@@$0A@@std@@@2@XZ
	?lower_bound@?$_Tree@V?$_Tmap_traits@VName@Imf@@PAVAttribute@2@U?$less@VName@Imf@@@std@@V?$allocator@U?$pair@$$CBVName@Imf@@PAVAttribute@2@@std@@@5@$0A@@std@@@std@@QBE?AV?$_Tree_const_iterator@V?$_Tree_val@V?$_Tmap_traits@VName@Imf@@PAVAttribute@2@U?$less@VName@Imf@@@std@@V?$allocator@U?$pair@$$CBVName@Imf@@PAVAttribute@2@@std@@@5@$0A@@std@@@std@@@2@ABVName@Imf@@@Z
	??$_Allocate@V?$vector@V?$vector@_KV?$allocator@_K@std@@@std@@V?$allocator@V?$vector@_KV?$allocator@_K@std@@@std@@@2@@std@@@std@@YAPAV?$vector@V?$vector@_KV?$allocator@_K@std@@@std@@V?$allocator@V?$vector@_KV?$allocator@_K@std@@@std@@@2@@0@IPAV10@@Z
	?_Rank@?$_Arithmetic_traits@E@std@@2HB
	?capacity@?$vector@PAUTileBuffer@?A0x39e5c904@Imf@@V?$allocator@PAUTileBuffer@?A0x39e5c904@Imf@@@std@@@std@@QBEIXZ
	__CTA6?AVArgExc@Iex@@
	??$_Val_type@PAV?$vector@V?$vector@_KV?$allocator@_K@std@@@std@@V?$allocator@V?$vector@_KV?$allocator@_K@std@@@std@@@2@@std@@@std@@YAPAV?$vector@V?$vector@_KV?$allocator@_K@std@@@std@@V?$allocator@V?$vector@_KV?$allocator@_K@std@@@std@@@2@@0@PAV10@@Z
	?readPixels@InputFile@Imf@@QAEXHH@Z
	?readPixels@RgbaInputFile@Imf@@QAEXHH@Z
	??0?$basic_stringbuf@DU?$char_traits@D@std@@V?$allocator@D@2@@std@@QAE@H@Z
	?_Tidy@?$vector@PAUTileBuffer@?A0x39e5c904@Imf@@V?$allocator@PAUTileBuffer@?A0x39e5c904@Imf@@@std@@@std@@IAEXXZ
	?binary@?$_Iosb@H@std@@2W4_Openmode@12@B
	?_Initcvt@?$basic_filebuf@DU?$char_traits@D@std@@@std@@IAEXPBV?$codecvt@DDH@2@@Z
	?deallocate@?$allocator@PAUTileBuffer@?A0xf6fcebb6@Imf@@@std@@QAEXPAPAUTileBuffer@?A0xf6fcebb6@Imf@@I@Z
	?_Reserve@?$vector@PAULineBuffer@?A0xf57f9ec6@Imf@@V?$allocator@PAULineBuffer@?A0xf57f9ec6@Imf@@@std@@@std@@IAEXI@Z
	?getFlags@Imf@@YAHH@Z
	?construct@?$allocator@V?$basic_string@DU?$char_traits@D@std@@V?$allocator@D@2@@std@@@std@@QAEXPAV?$basic_string@DU?$char_traits@D@std@@V?$allocator@D@2@@2@ABV32@@Z
	??$_Move@PAUTInSliceInfo@?A0xf6fcebb6@Imf@@PAU123@@std@@YAPAUTInSliceInfo@?A0xf6fcebb6@Imf@@PAU123@00U_Nonscalar_ptr_iterator_tag@0@@Z
	?copy@?$TypedAttribute@VTimeCode@Imf@@@Imf@@UBEPAVAttribute@2@XZ
	??1?$_Tree_nod@V?$_Tmap_traits@VName@Imf@@USlice@2@U?$less@VName@Imf@@@std@@V?$allocator@U?$pair@$$CBVName@Imf@@USlice@2@@std@@@5@$0A@@std@@@std@@QAE@XZ
	?allocate@?$allocator@V?$vector@_KV?$allocator@_K@std@@@std@@@std@@QAEPAV?$vector@_KV?$allocator@_K@std@@@2@I@Z
	??$move@AAV?$_Tree_iterator@V?$_Tree_val@V?$_Tmap_traits@UTileCoord@?A0x39e5c904@Imf@@PAUBufferedTile@23@U?$less@UTileCoord@?A0x39e5c904@Imf@@@std@@V?$allocator@U?$pair@$$CBUTileCoord@?A0x39e5c904@Imf@@PAUBufferedTile@23@@std@@@6@$0A@@std@@@std@@@std@@@std@@YA$$QAV?$_Tree_iterator@V?$_Tree_val@V?$_Tmap_traits@UTileCoord@?A0x39e5c904@Imf@@PAUBufferedTile@23@U?$less@UTileCoord@?A0x39e5c904@Imf@@@std@@V?$allocator@U?$pair@$$CBUTileCoord@?A0x39e5c904@Imf@@PAUBufferedTile@23@@std@@@6@$0A@@std@@@std@@@0@AAV10@@Z
	?seekpos@?$fpos@H@std@@QBE_JXZ
	??$_Allocate@U_Container_proxy@std@@@std@@YAPAU_Container_proxy@0@IPAU10@@Z
	??0?$_Iterator012@Urandom_access_iterator_tag@std@@PAUTileBuffer@?A0xf6fcebb6@Imf@@HPBQAU345@ABQAU345@U_Iterator_base12@2@@std@@QAE@ABU01@@Z
	??E?$_Tree_const_iterator@V?$_Tree_val@V?$_Tmap_traits@PBDP6APAVAttribute@Imf@@XZUNameCompare@?A0x0779e1ad@2@V?$allocator@U?$pair@QBDP6APAVAttribute@Imf@@XZ@std@@@std@@$0A@@std@@@std@@@std@@QAEAAV01@XZ
	?breakScanLine@OutputFile@Imf@@QAEXHHHD@Z
	?writeUInt@?A0xc87c6bb7@Imf@@YAXQADI@Z
	??8?$_Vector_const_iterator@V?$_Vector_val@UInSliceInfo@?A0xcbf8ace6@Imf@@V?$allocator@UInSliceInfo@?A0xcbf8ace6@Imf@@@std@@@std@@@std@@QBE_NABV01@@Z
	?copy@?$TypedAttribute@UChromaticities@Imf@@@Imf@@UBEPAVAttribute@2@XZ
	??$min@H@std@@YAABHABH0@Z
	?_Xlen@?$basic_string@DU?$char_traits@D@std@@V?$allocator@D@2@@std@@QBEXXZ
	??$_Destroy@V?$vector@_KV?$allocator@_K@std@@@std@@@std@@YAXPAV?$vector@_KV?$allocator@_K@std@@@0@@Z
	?eof@?$char_traits@D@std@@SAHXZ
	??0?$TypedAttribute@M@Imf@@QAE@ABV01@@Z
	??1?$_Tree_iterator@V?$_Tree_val@V?$_Tmap_traits@PBDP6APAVAttribute@Imf@@XZUNameCompare@?A0x0779e1ad@2@V?$allocator@U?$pair@QBDP6APAVAttribute@Imf@@XZ@std@@@std@@$0A@@std@@@std@@@std@@QAE@XZ
	?readValueFrom@?$TypedAttribute@VChannelList@Imf@@@Imf@@UAEXAAVIStream@2@HH@Z
	??0TileCoord@?A0x39e5c904@Imf@@QAE@HHHH@Z
	??1?$vector@PAUTileBuffer@?A0xf6fcebb6@Imf@@V?$allocator@PAUTileBuffer@?A0xf6fcebb6@Imf@@@std@@@std@@QAE@XZ
	?channels@Header@Imf@@QBEABVChannelList@2@XZ
	??1Compressor@Imf@@UAE@XZ
	?halfToUint@Imf@@YAIVhalf@@@Z
	??$_Debug_lt@Vhalf@@V1@@std@@YA_NABVhalf@@0PB_WI@Z
	??1?$TypedAttribute@VTimeCode@Imf@@@Imf@@UAE@XZ
	?readChars@CharPtrIO@Imf@@SA_NAAPBDQADH@Z
	?value@?$integral_constant@_N$00@tr1@std@@2_NB
	?find@?$_Tree@V?$_Tmap_traits@PBDP6APAVAttribute@Imf@@XZUNameCompare@?A0x0779e1ad@2@V?$allocator@U?$pair@QBDP6APAVAttribute@Imf@@XZ@std@@@std@@$0A@@std@@@std@@QAE?AV?$_Tree_iterator@V?$_Tree_val@V?$_Tmap_traits@PBDP6APAVAttribute@Imf@@XZUNameCompare@?A0x0779e1ad@2@V?$allocator@U?$pair@QBDP6APAVAttribute@Imf@@XZ@std@@@std@@$0A@@std@@@std@@@2@ABQBD@Z
	?in@?$_Iosb@H@std@@2W4_Openmode@12@B
	??0TiledRgbaInputFile@Imf@@QAE@AAVIStream@1@H@Z
	?name@Iterator@ChannelList@Imf@@QBEPBDXZ
	?perfsPerFrame@KeyCode@Imf@@QBEHXZ
	?expTime@Imf@@YAAAMAAVHeader@1@@Z
	?resize@?$basic_string@DU?$char_traits@D@std@@V?$allocator@D@2@@std@@QAEXI@Z
	??$typedAttribute@V?$TypedAttribute@V?$Box@V?$Vec2@H@Imath@@@Imath@@@Imf@@@Header@Imf@@QBEABV?$TypedAttribute@V?$Box@V?$Vec2@H@Imath@@@Imath@@@1@QBD@Z
	??1?$_Vector_iterator@V?$_Vector_val@PAUTileBuffer@?A0x39e5c904@Imf@@V?$allocator@PAUTileBuffer@?A0x39e5c904@Imf@@@std@@@std@@@std@@QAE@XZ
	?value@?$TypedAttribute@VKeyCode@Imf@@@Imf@@QAEAAVKeyCode@2@XZ
	??0?$basic_string@DU?$char_traits@D@std@@V?$allocator@D@2@@std@@QAE@XZ
	??0?$_Tree_const_iterator@V?$_Tree_val@V?$_Tset_traits@V?$basic_string@DU?$char_traits@D@std@@V?$allocator@D@2@@std@@U?$less@V?$basic_string@DU?$char_traits@D@std@@V?$allocator@D@2@@std@@@2@V?$allocator@V?$basic_string@DU?$char_traits@D@std@@V?$allocator@D@2@@std@@@2@$0A@@std@@@std@@@std@@QAE@ABV01@@Z
	?readValueFrom@?$TypedAttribute@W4LineOrder@Imf@@@Imf@@UAEXAAVIStream@2@HH@Z
	??0ConstIterator@FrameBuffer@Imf@@QAE@ABV?$_Tree_const_iterator@V?$_Tree_val@V?$_Tmap_traits@VName@Imf@@USlice@2@U?$less@VName@Imf@@@std@@V?$allocator@U?$pair@$$CBVName@Imf@@USlice@2@@std@@@5@$0A@@std@@@std@@@std@@@Z
	??1StdOSStream@Imf@@UAE@XZ
	?typeName@?$TypedAttribute@V?$Matrix33@N@Imath@@@Imf@@UBEPBDXZ
	??$addressof@UOutSliceInfo@?A0xf57f9ec6@Imf@@@std@@YAPAUOutSliceInfo@?A0xf57f9ec6@Imf@@AAU123@@Z
	?readPixels@ScanLineInputFile@Imf@@QAEXHH@Z
	??1?$vector@UOutSliceInfo@?A0xf57f9ec6@Imf@@V?$allocator@UOutSliceInfo@?A0xf57f9ec6@Imf@@@std@@@std@@QAE@XZ
	??0_Container_proxy@std@@QAE@XZ
	?_Orphan_ptr@?$_Tree@V?$_Tset_traits@V?$basic_string@DU?$char_traits@D@std@@V?$allocator@D@2@@std@@U?$less@V?$basic_string@DU?$char_traits@D@std@@V?$allocator@D@2@@std@@@2@V?$allocator@V?$basic_string@DU?$char_traits@D@std@@V?$allocator@D@2@@std@@@2@$0A@@std@@@std@@IBEXAAV12@PAU_Node@?$_Tree_nod@V?$_Tset_traits@V?$basic_string@DU?$char_traits@D@std@@V?$allocator@D@2@@std@@U?$less@V?$basic_string@DU?$char_traits@D@std@@V?$allocator@D@2@@std@@@2@V?$allocator@V?$basic_string@DU?$char_traits@D@std@@V?$allocator@D@2@@std@@@2@$0A@@std@@@2@@Z
	?numScanLines@PizCompressor@Imf@@UBEHXZ
	__TI6?AVErrnoExc@Iex@@
	??0PreviewImage@Imf@@QAE@ABV01@@Z
	??$forward@AAUTOutSliceInfo@?A0x39e5c904@Imf@@@std@@YAAAUTOutSliceInfo@?A0x39e5c904@Imf@@AAU123@@Z
	??$forward@UTOutSliceInfo@?A0x39e5c904@Imf@@@std@@YA$$QAUTOutSliceInfo@?A0x39e5c904@Imf@@AAU123@@Z
	??0?$_Tree_unchecked_const_iterator@V?$_Tree_val@V?$_Tmap_traits@VName@Imf@@USlice@2@U?$less@VName@Imf@@@std@@V?$allocator@U?$pair@$$CBVName@Imf@@USlice@2@@std@@@5@$0A@@std@@@std@@U_Iterator_base12@2@@std@@QAE@XZ
	?hasFocus@Imf@@YA_NABVHeader@1@@Z
	?supportsFlags@Imf@@YA_NH@Z
	?_Rank@?$_Arithmetic_traits@_N@std@@2HB
	?tileYSize@TiledOutputFile@Imf@@QBEIXZ
	?screenWindowCenter@Header@Imf@@QAEAAV?$Vec2@M@Imath@@XZ
	?_Grow_to@?$vector@PAULineBuffer@?A0xcbf8ace6@Imf@@V?$allocator@PAULineBuffer@?A0xcbf8ace6@Imf@@@std@@@std@@IBEII@Z
	??E?$_Tree_const_iterator@V?$_Tree_val@V?$_Tmap_traits@VName@Imf@@UChannel@2@U?$less@VName@Imf@@@std@@V?$allocator@U?$pair@$$CBVName@Imf@@UChannel@2@@std@@@5@$0A@@std@@@std@@@std@@QAEAAV01@XZ
	??H?$_Vector_iterator@V?$_Vector_val@PAUTileBuffer@?A0x39e5c904@Imf@@V?$allocator@PAUTileBuffer@?A0x39e5c904@Imf@@@std@@@std@@@std@@QBE?AV01@H@Z
	??$_Construct@V?$vector@_KV?$allocator@_K@std@@@std@@ABV12@@std@@YAXPAV?$vector@_KV?$allocator@_K@std@@@0@ABV10@@Z
	??0?$_Iterator012@Ubidirectional_iterator_tag@std@@U?$pair@$$CBVName@Imf@@PAVAttribute@2@@2@HPBU32@ABU32@U_Iterator_base12@2@@std@@QAE@XZ
	??9?$_Vector_const_iterator@V?$_Vector_val@PAULineBuffer@?A0xf57f9ec6@Imf@@V?$allocator@PAULineBuffer@?A0xf57f9ec6@Imf@@@std@@@std@@@std@@QBE_NABV01@@Z
	?_Myval@?$_Tree_val@V?$_Tmap_traits@VName@Imf@@PAVAttribute@2@U?$less@VName@Imf@@@std@@V?$allocator@U?$pair@$$CBVName@Imf@@PAVAttribute@2@@std@@@5@$0A@@std@@@std@@SAAAU?$pair@$$CBVName@Imf@@PAVAttribute@2@@2@PAU_Node@?$_Tree_nod@V?$_Tmap_traits@VName@Imf@@PAVAttribute@2@U?$less@VName@Imf@@@std@@V?$allocator@U?$pair@$$CBVName@Imf@@PAVAttribute@2@@std@@@5@$0A@@std@@@2@@Z
	?erase@?$vector@V?$basic_string@DU?$char_traits@D@std@@V?$allocator@D@2@@std@@V?$allocator@V?$basic_string@DU?$char_traits@D@std@@V?$allocator@D@2@@std@@@2@@std@@QAE?AV?$_Vector_iterator@V?$_Vector_val@V?$basic_string@DU?$char_traits@D@std@@V?$allocator@D@2@@std@@V?$allocator@V?$basic_string@DU?$char_traits@D@std@@V?$allocator@D@2@@std@@@2@@std@@@2@V?$_Vector_const_iterator@V?$_Vector_val@V?$basic_string@DU?$char_traits@D@std@@V?$allocator@D@2@@std@@V?$allocator@V?$basic_string@DU?$char_traits@D@std@@V?$allocator@D@2@@std@@@2@@std@@@2@0@Z
	??1?$_Tree_nod@V?$_Tmap_traits@VName@Imf@@PAVAttribute@2@U?$less@VName@Imf@@@std@@V?$allocator@U?$pair@$$CBVName@Imf@@PAVAttribute@2@@std@@@5@$0A@@std@@@std@@QAE@XZ
	?header@?A0xa29ce62f@@YAPAVHeader@Imf@@PAUImfHeader@@@Z
	??$typedAttribute@V?$TypedAttribute@V?$Matrix33@M@Imath@@@Imf@@@Header@Imf@@QBEABV?$TypedAttribute@V?$Matrix33@M@Imath@@@1@QBD@Z
	?readTile@TiledRgbaInputFile@Imf@@QAEXHHH@Z
	?__LINE__Var@?1???0B44Compressor@Imf@@QAE@ABVHeader@2@II_N@Z@4JA
	ImfHalfToFloatArray
	?_Tidy@?$vector@UTOutSliceInfo@?A0x39e5c904@Imf@@V?$allocator@UTOutSliceInfo@?A0x39e5c904@Imf@@@std@@@std@@IAEXXZ
	?version@ScanLineInputFile@Imf@@QBEHXZ
	?reserve@?$vector@V?$vector@V?$vector@_KV?$allocator@_K@std@@@std@@V?$allocator@V?$vector@_KV?$allocator@_K@std@@@std@@@2@@std@@V?$allocator@V?$vector@V?$vector@_KV?$allocator@_K@std@@@std@@V?$allocator@V?$vector@_KV?$allocator@_K@std@@@std@@@2@@std@@@2@@std@@QAEXI@Z
	?typeName@?$TypedAttribute@VTileDescription@Imf@@@Imf@@UBEPBDXZ
	??0?$Matrix44@M@Imath@@QAE@MMMMMMMMMMMMMMMM@Z
	?addOwner@Imf@@YAXAAVHeader@1@ABV?$basic_string@DU?$char_traits@D@std@@V?$allocator@D@2@@std@@@Z
	?writeValueTo@?$TypedAttribute@V?$Vec3@H@Imath@@@Imf@@UBEXAAVOStream@2@H@Z
	__CTA7?AVSingMatrixExc@Imath@@
	??B?$AutoArray@_K$0BAAAB@@Imf@@QAEPA_KXZ
	??1?$_Tree_const_iterator@V?$_Tree_val@V?$_Tset_traits@V?$basic_string@DU?$char_traits@D@std@@V?$allocator@D@2@@std@@U?$less@V?$basic_string@DU?$char_traits@D@std@@V?$allocator@D@2@@std@@@2@V?$allocator@V?$basic_string@DU?$char_traits@D@std@@V?$allocator@D@2@@std@@@2@$0A@@std@@@std@@@std@@QAE@XZ
	??1?$_Tree_const_iterator@V?$_Tree_val@V?$_Tmap_traits@VName@Imf@@UChannel@2@U?$less@VName@Imf@@@std@@V?$allocator@U?$pair@$$CBVName@Imf@@UChannel@2@@std@@@5@$0A@@std@@@std@@@std@@QAE@XZ
	??1?$_Vector_val@PAUTileBuffer@?A0xf6fcebb6@Imf@@V?$allocator@PAUTileBuffer@?A0xf6fcebb6@Imf@@@std@@@std@@QAE@XZ
	??4?$_Tree_iterator@V?$_Tree_val@V?$_Tmap_traits@UTileCoord@?A0x39e5c904@Imf@@PAUBufferedTile@23@U?$less@UTileCoord@?A0x39e5c904@Imf@@@std@@V?$allocator@U?$pair@$$CBUTileCoord@?A0x39e5c904@Imf@@PAUBufferedTile@23@@std@@@6@$0A@@std@@@std@@@std@@QAEAAV01@ABV01@@Z
	?hasKeyCode@Imf@@YA_NABVHeader@1@@Z
	?max_size@?$vector@V?$vector@_KV?$allocator@_K@std@@@std@@V?$allocator@V?$vector@_KV?$allocator@_K@std@@@std@@@2@@std@@QBEIXZ
	??D?$_Tree_const_iterator@V?$_Tree_val@V?$_Tmap_traits@VName@Imf@@PAVAttribute@2@U?$less@VName@Imf@@@std@@V?$allocator@U?$pair@$$CBVName@Imf@@PAVAttribute@2@@std@@@5@$0A@@std@@@std@@@std@@QBEABU?$pair@$$CBVName@Imf@@PAVAttribute@2@@1@XZ
	??E?$_Vector_iterator@V?$_Vector_val@V?$vector@_KV?$allocator@_K@std@@@std@@V?$allocator@V?$vector@_KV?$allocator@_K@std@@@std@@@2@@std@@@std@@QAEAAV01@XZ
	?findChannel@ChannelList@Imf@@QBEPBUChannel@2@ABV?$basic_string@DU?$char_traits@D@std@@V?$allocator@D@2@@std@@@Z
	??0KeyCode@Imf@@QAE@ABV01@@Z
	?hasUtcOffset@Imf@@YA_NABVHeader@1@@Z
	?numScanLines@ZipCompressor@Imf@@UBEHXZ
	??0?$_Iterator012@Urandom_access_iterator_tag@std@@PAUTileBuffer@?A0x39e5c904@Imf@@HPBQAU345@ABQAU345@U_Iterator_base12@2@@std@@QAE@XZ
	?readValueFrom@?$TypedAttribute@V?$Box@V?$Vec2@H@Imath@@@Imath@@@Imf@@UAEXAAVIStream@2@HH@Z
	??1?$_Pair_base@V?$_Tree_iterator@V?$_Tree_val@V?$_Tmap_traits@PBDP6APAVAttribute@Imf@@XZUNameCompare@?A0x0779e1ad@2@V?$allocator@U?$pair@QBDP6APAVAttribute@Imf@@XZ@std@@@std@@$0A@@std@@@std@@@std@@_N@std@@QAE@XZ
	??0Slice@Imf@@QAE@W4PixelType@1@PADIIHHN_N2@Z
	??$_Uninit_move@PAV?$vector@_KV?$allocator@_K@std@@@std@@PAV12@V?$allocator@V?$vector@_KV?$allocator@_K@std@@@std@@@2@V12@@std@@YAPAV?$vector@_KV?$allocator@_K@std@@@0@PAV10@00AAV?$allocator@V?$vector@_KV?$allocator@_K@std@@@std@@@0@0U_Nonscalar_ptr_iterator_tag@0@@Z
	??EConstIterator@FrameBuffer@Imf@@QAEAAV012@XZ
	??$read@UCharPtrIO@Imf@@PBD@Xdr@Imf@@YAXAAPBDQADH@Z
	?newLineBufferTask@?A0xcbf8ace6@Imf@@YAPAVLineBufferTask@12@PAVTaskGroup@IlmThread@@PAUData@ScanLineInputFile@2@HHH@Z
	?_Max@?$_Tree_val@V?$_Tmap_traits@VName@Imf@@UChannel@2@U?$less@VName@Imf@@@std@@V?$allocator@U?$pair@$$CBVName@Imf@@UChannel@2@@std@@@5@$0A@@std@@@std@@SAPAU_Node@?$_Tree_nod@V?$_Tmap_traits@VName@Imf@@UChannel@2@U?$less@VName@Imf@@@std@@V?$allocator@U?$pair@$$CBVName@Imf@@UChannel@2@@std@@@5@$0A@@std@@@2@PAU342@@Z
	??0?$_String_val@DV?$allocator@D@std@@@std@@QAE@V?$allocator@D@1@@Z
	??$_Construct@_KAB_K@std@@YAXPA_KAB_K@Z
	??$_Move@PAUInSliceInfo@?A0xcbf8ace6@Imf@@PAU123@@std@@YAPAUInSliceInfo@?A0xcbf8ace6@Imf@@PAU123@00U_Nonscalar_ptr_iterator_tag@0@@Z
	??$findTypedAttribute@V?$TypedAttribute@V?$Matrix44@M@Imath@@@Imf@@@Header@Imf@@QBEPBV?$TypedAttribute@V?$Matrix44@M@Imath@@@1@QBD@Z
	??$?0AAQBDAAP6APAVAttribute@Imf@@XZ@?$pair@QBDP6APAVAttribute@Imf@@XZ@std@@QAE@AAQBDAAP6APAVAttribute@Imf@@XZ@Z
	??$_Iter_cat@V?$_Vector_const_iterator@V?$_Vector_val@V?$vector@_KV?$allocator@_K@std@@@std@@V?$allocator@V?$vector@_KV?$allocator@_K@std@@@std@@@2@@std@@@std@@@std@@YA?AUrandom_access_iterator_tag@0@ABV?$_Vector_const_iterator@V?$_Vector_val@V?$vector@_KV?$allocator@_K@std@@@std@@V?$allocator@V?$vector@_KV?$allocator@_K@std@@@std@@@2@@std@@@0@@Z
	??$_Debug_pointer@UInSliceInfo@?A0xcbf8ace6@Imf@@@std@@YAXPAUInSliceInfo@?A0xcbf8ace6@Imf@@PB_WI@Z
	??0TiledRgbaOutputFile@Imf@@QAE@QBDABVHeader@1@W4RgbaChannels@1@HHW4LevelMode@1@W4LevelRoundingMode@1@H@Z
	??$_Copy_impl@PAUOutSliceInfo@?A0xf57f9ec6@Imf@@PAU123@@std@@YAPAUOutSliceInfo@?A0xf57f9ec6@Imf@@PAU123@00U_Nonscalar_ptr_iterator_tag@0@@Z
	?registerAttributeType@?$TypedAttribute@UChromaticities@Imf@@@Imf@@SAXXZ
	??$write@UStreamIO@Imf@@VOStream@2@@Xdr@Imf@@YAXAAVOStream@1@N@Z
	?multiViewAttribute@Imf@@YAABV?$TypedAttribute@V?$vector@V?$basic_string@DU?$char_traits@D@std@@V?$allocator@D@2@@std@@V?$allocator@V?$basic_string@DU?$char_traits@D@std@@V?$allocator@D@2@@std@@@2@@std@@@1@ABVHeader@1@@Z
	??0?$TypedAttribute@V?$Box@V?$Vec2@H@Imath@@@Imath@@@Imf@@QAE@XZ
	??0TiledRgbaInputFile@Imf@@QAE@QBDABV?$basic_string@DU?$char_traits@D@std@@V?$allocator@D@2@@std@@H@Z
	??1?$basic_filebuf@DU?$char_traits@D@std@@@std@@UAE@XZ
	?showpos@?$_Iosb@H@std@@2W4_Fmtflags@12@B
	?value@?$TypedAttribute@UChromaticities@Imf@@@Imf@@QAEAAUChromaticities@2@XZ
	?invalidTableEntry@?A0xc87c6bb7@Imf@@YAXXZ
	?copyValueFrom@?$TypedAttribute@V?$Vec3@H@Imath@@@Imf@@UAEXABVAttribute@2@@Z
	?value@?$TypedAttribute@H@Imf@@QBEABHXZ
	?staticTypeName@?$TypedAttribute@V?$Matrix44@N@Imath@@@Imf@@SAPBDXZ
	??EIterator@ChannelList@Imf@@QAEAAV012@XZ
	??Y?$_Vector_iterator@V?$_Vector_val@PAULineBuffer@?A0xcbf8ace6@Imf@@V?$allocator@PAULineBuffer@?A0xcbf8ace6@Imf@@@std@@@std@@@std@@QAEAAV01@H@Z
	??$move@AAV?$basic_string@DU?$char_traits@D@std@@V?$allocator@D@2@@std@@@std@@YA$$QAV?$basic_string@DU?$char_traits@D@std@@V?$allocator@D@2@@0@AAV10@@Z
	??0?$Box@V?$Vec2@M@Imath@@@Imath@@QAE@ABV01@@Z
	??0?$allocator@U?$pair@$$CBVName@Imf@@USlice@2@@std@@@std@@QAE@XZ
	?_Make_iter@?$vector@V?$vector@V?$vector@_KV?$allocator@_K@std@@@std@@V?$allocator@V?$vector@_KV?$allocator@_K@std@@@std@@@2@@std@@V?$allocator@V?$vector@V?$vector@_KV?$allocator@_K@std@@@std@@V?$allocator@V?$vector@_KV?$allocator@_K@std@@@std@@@2@@std@@@2@@std@@QBE?AV?$_Vector_iterator@V?$_Vector_val@V?$vector@V?$vector@_KV?$allocator@_K@std@@@std@@V?$allocator@V?$vector@_KV?$allocator@_K@std@@@std@@@2@@std@@V?$allocator@V?$vector@V?$vector@_KV?$allocator@_K@std@@@std@@V?$allocator@V?$vector@_KV?$allocator@_K@std@@@std@@@2@@std@@@2@@std@@@2@V?$_Vector_const_iterator@V?$_Vector_val@V?$vector@V?$vector@_KV?$allocator@_K@std@@@std@@V?$allocator@V?$vector@_KV?$allocator@_K@std@@@std@@@2@@std@@V?$allocator@V?$vector@V?$vector@_KV?$allocator@_K@std@@@std@@V?$allocator@V?$vector@_KV?$allocator@_K@std@@@std@@@2@@std@@@2@@std@@@2@@Z
	?deallocate@?$allocator@U_Node@?$_Tree_nod@V?$_Tset_traits@V?$basic_string@DU?$char_traits@D@std@@V?$allocator@D@2@@std@@U?$less@V?$basic_string@DU?$char_traits@D@std@@V?$allocator@D@2@@std@@@2@V?$allocator@V?$basic_string@DU?$char_traits@D@std@@V?$allocator@D@2@@std@@@2@$0A@@std@@@std@@@std@@QAEXPAU_Node@?$_Tree_nod@V?$_Tset_traits@V?$basic_string@DU?$char_traits@D@std@@V?$allocator@D@2@@std@@U?$less@V?$basic_string@DU?$char_traits@D@std@@V?$allocator@D@2@@std@@@2@V?$allocator@V?$basic_string@DU?$char_traits@D@std@@V?$allocator@D@2@@std@@@2@$0A@@std@@@2@I@Z
	?uflow@?$basic_filebuf@DU?$char_traits@D@std@@@std@@MAEHXZ
	??Y?$basic_string@DU?$char_traits@D@std@@V?$allocator@D@2@@std@@QAEAAV01@D@Z
	?rawPixelData@ScanLineInputFile@Imf@@QAEXHAAPBDAAH@Z
	??1?$_Tree_unchecked_const_iterator@V?$_Tree_val@V?$_Tmap_traits@VName@Imf@@UChannel@2@U?$less@VName@Imf@@@std@@V?$allocator@U?$pair@$$CBVName@Imf@@UChannel@2@@std@@@5@$0A@@std@@@std@@U_Iterator_base12@2@@std@@QAE@XZ
	?overflow@?$basic_filebuf@DU?$char_traits@D@std@@@std@@MAEHH@Z
	??0?$vector@V?$basic_string@DU?$char_traits@D@std@@V?$allocator@D@2@@std@@V?$allocator@V?$basic_string@DU?$char_traits@D@std@@V?$allocator@D@2@@std@@@2@@std@@QAE@XZ
	??0TileBufferTask@?A0xf6fcebb6@Imf@@QAE@PAVTaskGroup@IlmThread@@PAUData@TiledInputFile@2@PAUTileBuffer@12@@Z
	?numXLevels@TiledInputFile@Imf@@QBEHXZ
	??AChannelList@Imf@@QBEABUChannel@1@QBD@Z
	?hasCapDate@Imf@@YA_NABVHeader@1@@Z
	?construct@?$allocator@UTOutSliceInfo@?A0x39e5c904@Imf@@@std@@QAEXPAUTOutSliceInfo@?A0x39e5c904@Imf@@$$QAU345@@Z
	?padTmpBuf@ToYca@RgbaOutputFile@Imf@@AAEXXZ
	?bitmapFromData@?A0xce4d6f11@Imf@@YAXQBGHQAEAAG2@Z
	?max_size@?$allocator@U?$pair@$$CBVName@Imf@@UChannel@2@@std@@@std@@QBEIXZ
	?envmap@Imf@@YAAAW4Envmap@1@AAVHeader@1@@Z
	?isValidTile@TiledInputFile@Imf@@ABE_NHHHH@Z
	__mask@@NegDouble@
	?cast@?$TypedAttribute@V?$Vec2@H@Imath@@@Imf@@SAPBV12@PBVAttribute@2@@Z
	?find@ChannelList@Imf@@QAE?AVIterator@12@ABV?$basic_string@DU?$char_traits@D@std@@V?$allocator@D@2@@std@@@Z
	??0?$TypedAttribute@VKeyCode@Imf@@@Imf@@QAE@ABVKeyCode@1@@Z
	??0?$allocator@U?$pair@$$CBVName@Imf@@UChannel@2@@std@@@std@@QAE@XZ
	?readPixels@FromYca@RgbaInputFile@Imf@@QAEXHH@Z
	??$read@UStreamIO@Imf@@VIStream@2@@Xdr@Imf@@YAXAAVIStream@1@AAE@Z
	??1?$pair@V?$_Tree_iterator@V?$_Tree_val@V?$_Tmap_traits@PBDP6APAVAttribute@Imf@@XZUNameCompare@?A0x0779e1ad@2@V?$allocator@U?$pair@QBDP6APAVAttribute@Imf@@XZ@std@@@std@@$0A@@std@@@std@@@std@@_N@std@@QAE@XZ
	??1Data@TiledInputFile@Imf@@UAE@XZ
	??0Data@InputFile@Imf@@QAE@_NH@Z
	?writeTo@Header@Imf@@QBE_KAAVOStream@2@_N@Z
	??8?$_Tree_const_iterator@V?$_Tree_val@V?$_Tmap_traits@VName@Imf@@UChannel@2@U?$less@VName@Imf@@@std@@V?$allocator@U?$pair@$$CBVName@Imf@@UChannel@2@@std@@@5@$0A@@std@@@std@@@std@@QBE_NABV01@@Z
	??Y?$_Vector_iterator@V?$_Vector_val@V?$vector@V?$vector@_KV?$allocator@_K@std@@@std@@V?$allocator@V?$vector@_KV?$allocator@_K@std@@@std@@@2@@std@@V?$allocator@V?$vector@V?$vector@_KV?$allocator@_K@std@@@std@@V?$allocator@V?$vector@_KV?$allocator@_K@std@@@std@@@2@@std@@@2@@std@@@std@@QAEAAV01@H@Z
	?wait@TileBuffer@?A0xf6fcebb6@Imf@@QAEXXZ
	?destroy@?$allocator@U?$pair@QBDP6APAVAttribute@Imf@@XZ@std@@@std@@QAEXPAU?$pair@QBDP6APAVAttribute@Imf@@XZ@2@@Z
	?staticTypeName@?$TypedAttribute@V?$Vec3@H@Imath@@@Imf@@SAPBDXZ
	??0?$allocator@I@std@@QAE@ABV01@@Z
	?deallocate@?$allocator@U_Node@?$_Tree_nod@V?$_Tmap_traits@PBDP6APAVAttribute@Imf@@XZUNameCompare@?A0x0779e1ad@2@V?$allocator@U?$pair@QBDP6APAVAttribute@Imf@@XZ@std@@@std@@$0A@@std@@@std@@@std@@QAEXPAU_Node@?$_Tree_nod@V?$_Tmap_traits@PBDP6APAVAttribute@Imf@@XZUNameCompare@?A0x0779e1ad@2@V?$allocator@U?$pair@QBDP6APAVAttribute@Imf@@XZ@std@@@std@@$0A@@std@@@2@I@Z
	??$move@AAUSlice@Imf@@@std@@YA$$QAUSlice@Imf@@AAU12@@Z
	??A?$vector@UTOutSliceInfo@?A0x39e5c904@Imf@@V?$allocator@UTOutSliceInfo@?A0x39e5c904@Imf@@@std@@@std@@QAEAAUTOutSliceInfo@?A0x39e5c904@Imf@@I@Z
	?addAperture@Imf@@YAXAAVHeader@1@ABM@Z
	??0InputExc@Iex@@QAE@AAV?$basic_stringstream@DU?$char_traits@D@std@@V?$allocator@D@2@@std@@@Z
	?copyValueFrom@?$TypedAttribute@VPreviewImage@Imf@@@Imf@@UAEXABVAttribute@2@@Z
	??0?$TypedAttribute@VTileDescription@Imf@@@Imf@@QAE@XZ
	?_Left@?$_Tree_val@V?$_Tset_traits@V?$basic_string@DU?$char_traits@D@std@@V?$allocator@D@2@@std@@U?$less@V?$basic_string@DU?$char_traits@D@std@@V?$allocator@D@2@@std@@@2@V?$allocator@V?$basic_string@DU?$char_traits@D@std@@V?$allocator@D@2@@std@@@2@$0A@@std@@@std@@SAAAPAU_Node@?$_Tree_nod@V?$_Tset_traits@V?$basic_string@DU?$char_traits@D@std@@V?$allocator@D@2@@std@@U?$less@V?$basic_string@DU?$char_traits@D@std@@V?$allocator@D@2@@std@@@2@V?$allocator@V?$basic_string@DU?$char_traits@D@std@@V?$allocator@D@2@@std@@@2@$0A@@std@@@2@PAU342@@Z
	?to_char_type@?$char_traits@D@std@@SADABH@Z
	??$_Cons_val@V?$allocator@U?$pair@$$CBVName@Imf@@USlice@2@@std@@@std@@U?$pair@$$CBVName@Imf@@USlice@2@@2@U32@@std@@YAXAAV?$allocator@U?$pair@$$CBVName@Imf@@USlice@2@@std@@@0@PAU?$pair@$$CBVName@Imf@@USlice@2@@0@$$QAU20@@Z
	?convertToXdr@?A0xf57f9ec6@Imf@@YAXPAUData@OutputFile@2@AAV?$Array@D@2@HHH@Z
	??$_Debug_range2@V?$_Vector_const_iterator@V?$_Vector_val@V?$basic_string@DU?$char_traits@D@std@@V?$allocator@D@2@@std@@V?$allocator@V?$basic_string@DU?$char_traits@D@std@@V?$allocator@D@2@@std@@@2@@std@@@std@@@std@@YAXV?$_Vector_const_iterator@V?$_Vector_val@V?$basic_string@DU?$char_traits@D@std@@V?$allocator@D@2@@std@@V?$allocator@V?$basic_string@DU?$char_traits@D@std@@V?$allocator@D@2@@std@@@2@@std@@@0@0PB_WIUrandom_access_iterator_tag@0@@Z
	?writeValueTo@?$TypedAttribute@W4Envmap@Imf@@@Imf@@UBEXAAVOStream@2@H@Z
	??$move@AAV?$_Tree_iterator@V?$_Tree_val@V?$_Tmap_traits@VName@Imf@@PAVAttribute@2@U?$less@VName@Imf@@@std@@V?$allocator@U?$pair@$$CBVName@Imf@@PAVAttribute@2@@std@@@5@$0A@@std@@@std@@@std@@@std@@YA$$QAV?$_Tree_iterator@V?$_Tree_val@V?$_Tmap_traits@VName@Imf@@PAVAttribute@2@U?$less@VName@Imf@@@std@@V?$allocator@U?$pair@$$CBVName@Imf@@PAVAttribute@2@@std@@@5@$0A@@std@@@std@@@0@AAV10@@Z
	??$_Copy_impl@PAUInSliceInfo@?A0xcbf8ace6@Imf@@PAU123@@std@@YAPAUInSliceInfo@?A0xcbf8ace6@Imf@@PAU123@00@Z
	??A?$map@UTileCoord@?A0x39e5c904@Imf@@PAUBufferedTile@23@U?$less@UTileCoord@?A0x39e5c904@Imf@@@std@@V?$allocator@U?$pair@$$CBUTileCoord@?A0x39e5c904@Imf@@PAUBufferedTile@23@@std@@@6@@std@@QAEAAPAUBufferedTile@?A0x39e5c904@Imf@@ABUTileCoord@34@@Z
	?timeCodeAttribute@Imf@@YAAAV?$TypedAttribute@VTimeCode@Imf@@@1@AAVHeader@1@@Z
	ImfHeaderDisplayWindow
	??$?0AAV?$_Tree_iterator@V?$_Tree_val@V?$_Tmap_traits@VName@Imf@@UChannel@2@U?$less@VName@Imf@@@std@@V?$allocator@U?$pair@$$CBVName@Imf@@UChannel@2@@std@@@5@$0A@@std@@@std@@@std@@_N@?$_Pair_base@V?$_Tree_iterator@V?$_Tree_val@V?$_Tmap_traits@VName@Imf@@UChannel@2@U?$less@VName@Imf@@@std@@V?$allocator@U?$pair@$$CBVName@Imf@@UChannel@2@@std@@@5@$0A@@std@@@std@@@std@@_N@std@@QAE@AAV?$_Tree_iterator@V?$_Tree_val@V?$_Tmap_traits@VName@Imf@@UChannel@2@U?$less@VName@Imf@@@std@@V?$allocator@U?$pair@$$CBVName@Imf@@UChannel@2@@std@@@5@$0A@@std@@@std@@@1@$$QA_N@Z
	?copyValueFrom@?$TypedAttribute@V?$Matrix44@N@Imath@@@Imf@@UAEXABVAttribute@2@@Z
	??0?$_Tree_unchecked_const_iterator@V?$_Tree_val@V?$_Tset_traits@V?$basic_string@DU?$char_traits@D@std@@V?$allocator@D@2@@std@@U?$less@V?$basic_string@DU?$char_traits@D@std@@V?$allocator@D@2@@std@@@2@V?$allocator@V?$basic_string@DU?$char_traits@D@std@@V?$allocator@D@2@@std@@@2@$0A@@std@@@std@@U_Iterator_base12@2@@std@@QAE@PAU_Node@?$_Tree_nod@V?$_Tset_traits@V?$basic_string@DU?$char_traits@D@std@@V?$allocator@D@2@@std@@U?$less@V?$basic_string@DU?$char_traits@D@std@@V?$allocator@D@2@@std@@@2@V?$allocator@V?$basic_string@DU?$char_traits@D@std@@V?$allocator@D@2@@std@@@2@$0A@@std@@@1@PBV?$_Tree_val@V?$_Tset_traits@V?$basic_string@DU?$char_traits@D@std@@V?$allocator@D@2@@std@@U?$less@V?$basic_string@DU?$char_traits@D@std@@V?$allocator@D@2@@std@@@2@V?$allocator@V?$basic_string@DU?$char_traits@D@std@@V?$allocator@D@2@@std@@@2@$0A@@std@@@1@@Z
	??$typedAttribute@V?$TypedAttribute@VKeyCode@Imf@@@Imf@@@Header@Imf@@QBEABV?$TypedAttribute@VKeyCode@Imf@@@1@QBD@Z
	?_Destroy@?$vector@V?$vector@V?$vector@_KV?$allocator@_K@std@@@std@@V?$allocator@V?$vector@_KV?$allocator@_K@std@@@std@@@2@@std@@V?$allocator@V?$vector@V?$vector@_KV?$allocator@_K@std@@@std@@V?$allocator@V?$vector@_KV?$allocator@_K@std@@@std@@@2@@std@@@2@@std@@IAEXPAV?$vector@V?$vector@_KV?$allocator@_K@std@@@std@@V?$allocator@V?$vector@_KV?$allocator@_K@std@@@std@@@2@@2@0@Z
	?staticTypeName@?$TypedAttribute@VRational@Imf@@@Imf@@SAPBDXZ
	?isImfMagic@Imf@@YA_NQBD@Z
	?hasEnvmap@Imf@@YA_NABVHeader@1@@Z
	?deallocate@?$allocator@U_Node@?$_Tree_nod@V?$_Tmap_traits@UTileCoord@?A0x39e5c904@Imf@@PAUBufferedTile@23@U?$less@UTileCoord@?A0x39e5c904@Imf@@@std@@V?$allocator@U?$pair@$$CBUTileCoord@?A0x39e5c904@Imf@@PAUBufferedTile@23@@std@@@6@$0A@@std@@@std@@@std@@QAEXPAU_Node@?$_Tree_nod@V?$_Tmap_traits@UTileCoord@?A0x39e5c904@Imf@@PAUBufferedTile@23@U?$less@UTileCoord@?A0x39e5c904@Imf@@@std@@V?$allocator@U?$pair@$$CBUTileCoord@?A0x39e5c904@Imf@@PAUBufferedTile@23@@std@@@6@$0A@@std@@@2@I@Z
	??0?$_Tree_val@V?$_Tmap_traits@VName@Imf@@PAVAttribute@2@U?$less@VName@Imf@@@std@@V?$allocator@U?$pair@$$CBVName@Imf@@PAVAttribute@2@@std@@@5@$0A@@std@@@std@@QAE@ABU?$less@VName@Imf@@@1@V?$allocator@U?$pair@$$CBVName@Imf@@PAVAttribute@2@@std@@@1@@Z
	?hufEncode@?A0xc87c6bb7@Imf@@YAHPB_KPBGHHPAD@Z
	??$findTypedAttribute@V?$TypedAttribute@VKeyCode@Imf@@@Imf@@@Header@Imf@@QBEPBV?$TypedAttribute@VKeyCode@Imf@@@1@QBD@Z
	?isComplete@InputFile@Imf@@QBE_NXZ
	??1ScanLineInputFile@Imf@@UAE@XZ
	??9?$_Vector_const_iterator@V?$_Vector_val@V?$vector@V?$vector@_KV?$allocator@_K@std@@@std@@V?$allocator@V?$vector@_KV?$allocator@_K@std@@@std@@@2@@std@@V?$allocator@V?$vector@V?$vector@_KV?$allocator@_K@std@@@std@@V?$allocator@V?$vector@_KV?$allocator@_K@std@@@std@@@2@@std@@@2@@std@@@std@@QBE_NABV01@@Z
	?_Compat@?$_Vector_const_iterator@V?$_Vector_val@PAUTileBuffer@?A0x39e5c904@Imf@@V?$allocator@PAUTileBuffer@?A0x39e5c904@Imf@@@std@@@std@@@std@@QBEXABV12@@Z
	?seconds@TimeCode@Imf@@QBEHXZ
	?begin@ChannelList@Imf@@QAE?AVIterator@12@XZ
	?hasAperture@Imf@@YA_NABVHeader@1@@Z
	?begin@?$vector@UTInSliceInfo@?A0xf6fcebb6@Imf@@V?$allocator@UTInSliceInfo@?A0xf6fcebb6@Imf@@@std@@@std@@QAE?AV?$_Vector_iterator@V?$_Vector_val@UTInSliceInfo@?A0xf6fcebb6@Imf@@V?$allocator@UTInSliceInfo@?A0xf6fcebb6@Imf@@@std@@@std@@@2@XZ
	??$_Allocate@PAULineBuffer@?A0xcbf8ace6@Imf@@@std@@YAPAPAULineBuffer@?A0xcbf8ace6@Imf@@IPAPAU123@@Z
	?_Tidy@?$vector@_KV?$allocator@_K@std@@@std@@IAEXXZ
	?_Xlen@?$vector@V?$vector@_KV?$allocator@_K@std@@@std@@V?$allocator@V?$vector@_KV?$allocator@_K@std@@@std@@@2@@std@@IBEXXZ
	?unRegisterAttributeType@?$TypedAttribute@N@Imf@@SAXXZ
	??1?$_Vector_val@V?$vector@V?$vector@_KV?$allocator@_K@std@@@std@@V?$allocator@V?$vector@_KV?$allocator@_K@std@@@std@@@2@@std@@V?$allocator@V?$vector@V?$vector@_KV?$allocator@_K@std@@@std@@V?$allocator@V?$vector@_KV?$allocator@_K@std@@@std@@@2@@std@@@2@@std@@QAE@XZ
	??$?HDU?$char_traits@D@std@@V?$allocator@D@1@@std@@YA?AV?$basic_string@DU?$char_traits@D@std@@V?$allocator@D@2@@0@ABV10@D@Z
	?_Insert@?$_Tree@V?$_Tmap_traits@VName@Imf@@USlice@2@U?$less@VName@Imf@@@std@@V?$allocator@U?$pair@$$CBVName@Imf@@USlice@2@@std@@@5@$0A@@std@@@std@@QAE?AV?$_Tree_iterator@V?$_Tree_val@V?$_Tmap_traits@VName@Imf@@USlice@2@U?$less@VName@Imf@@@std@@V?$allocator@U?$pair@$$CBVName@Imf@@USlice@2@@std@@@5@$0A@@std@@@std@@@2@V?$_Tree_const_iterator@V?$_Tree_val@V?$_Tmap_traits@VName@Imf@@USlice@2@U?$less@VName@Imf@@@std@@V?$allocator@U?$pair@$$CBVName@Imf@@USlice@2@@std@@@5@$0A@@std@@@std@@@2@PAU_Node@?$_Tree_nod@V?$_Tmap_traits@VName@Imf@@USlice@2@U?$less@VName@Imf@@@std@@V?$allocator@U?$pair@$$CBVName@Imf@@USlice@2@@std@@@5@$0A@@std@@@2@@Z
	??0?$basic_string@DU?$char_traits@D@std@@V?$allocator@D@2@@std@@QAE@ID@Z
	?header@RgbaOutputFile@Imf@@QBEABVHeader@2@XZ
	??0?$_Tree_unchecked_const_iterator@V?$_Tree_val@V?$_Tmap_traits@UTileCoord@?A0x39e5c904@Imf@@PAUBufferedTile@23@U?$less@UTileCoord@?A0x39e5c904@Imf@@@std@@V?$allocator@U?$pair@$$CBUTileCoord@?A0x39e5c904@Imf@@PAUBufferedTile@23@@std@@@6@$0A@@std@@@std@@U_Iterator_base12@2@@std@@QAE@ABV01@@Z
	?max@?$limits@H@Imath@@SAHXZ
	??$_Val_type@PA_K@std@@YAPA_KPA_K@Z
	??$?0U_Node@?$_Tree_nod@V?$_Tmap_traits@VName@Imf@@USlice@2@U?$less@VName@Imf@@@std@@V?$allocator@U?$pair@$$CBVName@Imf@@USlice@2@@std@@@5@$0A@@std@@@std@@@?$allocator@U_Container_proxy@std@@@std@@QAE@ABV?$allocator@U_Node@?$_Tree_nod@V?$_Tmap_traits@VName@Imf@@USlice@2@U?$less@VName@Imf@@@std@@V?$allocator@U?$pair@$$CBVName@Imf@@USlice@2@@std@@@5@$0A@@std@@@std@@@1@@Z
	?readValueFrom@?$TypedAttribute@V?$Matrix44@N@Imath@@@Imf@@UAEXAAVIStream@2@HH@Z
	??1StdOFStream@Imf@@UAE@XZ
	??1ZipCompressor@Imf@@UAE@XZ
	?resize@?$vector@PAUTileBuffer@?A0xf6fcebb6@Imf@@V?$allocator@PAUTileBuffer@?A0xf6fcebb6@Imf@@@std@@@std@@QAEXI@Z
	??$?0V?$vector@V?$vector@_KV?$allocator@_K@std@@@std@@V?$allocator@V?$vector@_KV?$allocator@_K@std@@@std@@@2@@std@@@?$allocator@U_Container_proxy@std@@@std@@QAE@ABV?$allocator@V?$vector@V?$vector@_KV?$allocator@_K@std@@@std@@V?$allocator@V?$vector@_KV?$allocator@_K@std@@@std@@@2@@std@@@1@@Z
	??$_Ptr_cat@UTInSliceInfo@?A0xf6fcebb6@Imf@@U123@@std@@YA?AU_Nonscalar_ptr_iterator_tag@0@PAUTInSliceInfo@?A0xf6fcebb6@Imf@@0@Z
	?hasMultiView@Imf@@YA_NABVHeader@1@@Z
	?_Insert@?$_Tree@V?$_Tmap_traits@UTileCoord@?A0x39e5c904@Imf@@PAUBufferedTile@23@U?$less@UTileCoord@?A0x39e5c904@Imf@@@std@@V?$allocator@U?$pair@$$CBUTileCoord@?A0x39e5c904@Imf@@PAUBufferedTile@23@@std@@@6@$0A@@std@@@std@@QAE?AV?$_Tree_iterator@V?$_Tree_val@V?$_Tmap_traits@UTileCoord@?A0x39e5c904@Imf@@PAUBufferedTile@23@U?$less@UTileCoord@?A0x39e5c904@Imf@@@std@@V?$allocator@U?$pair@$$CBUTileCoord@?A0x39e5c904@Imf@@PAUBufferedTile@23@@std@@@6@$0A@@std@@@std@@@2@V?$_Tree_const_iterator@V?$_Tree_val@V?$_Tmap_traits@UTileCoord@?A0x39e5c904@Imf@@PAUBufferedTile@23@U?$less@UTileCoord@?A0x39e5c904@Imf@@@std@@V?$allocator@U?$pair@$$CBUTileCoord@?A0x39e5c904@Imf@@PAUBufferedTile@23@@std@@@6@$0A@@std@@@std@@@2@PAU_Node@?$_Tree_nod@V?$_Tmap_traits@UTileCoord@?A0x39e5c904@Imf@@PAUBufferedTile@23@U?$less@UTileCoord@?A0x39e5c904@Imf@@@std@@V?$allocator@U?$pair@$$CBUTileCoord@?A0x39e5c904@Imf@@PAUBufferedTile@23@@std@@@6@$0A@@std@@@2@@Z
	?resize@?$vector@_KV?$allocator@_K@std@@@std@@QAEXI@Z
	??$readSignedChars@UStreamIO@Imf@@VIStream@2@@Xdr@Imf@@YAXAAVIStream@1@QACH@Z
	??$?0PAULineBuffer@?A0xcbf8ace6@Imf@@@?$allocator@U_Container_proxy@std@@@std@@QAE@ABV?$allocator@PAULineBuffer@?A0xcbf8ace6@Imf@@@1@@Z
	??$?6U?$char_traits@D@std@@@std@@YAAAV?$basic_ostream@DU?$char_traits@D@std@@@0@AAV10@PBD@Z
	??1?$_Vector_iterator@V?$_Vector_val@PAUTileBuffer@?A0xf6fcebb6@Imf@@V?$allocator@PAUTileBuffer@?A0xf6fcebb6@Imf@@@std@@@std@@@std@@QAE@XZ
	?_Color@?$_Tree_val@V?$_Tset_traits@V?$basic_string@DU?$char_traits@D@std@@V?$allocator@D@2@@std@@U?$less@V?$basic_string@DU?$char_traits@D@std@@V?$allocator@D@2@@std@@@2@V?$allocator@V?$basic_string@DU?$char_traits@D@std@@V?$allocator@D@2@@std@@@2@$0A@@std@@@std@@SAAADPAU_Node@?$_Tree_nod@V?$_Tset_traits@V?$basic_string@DU?$char_traits@D@std@@V?$allocator@D@2@@std@@U?$less@V?$basic_string@DU?$char_traits@D@std@@V?$allocator@D@2@@std@@@2@V?$allocator@V?$basic_string@DU?$char_traits@D@std@@V?$allocator@D@2@@std@@@2@$0A@@std@@@2@@Z
	??$_Umove@PAUTOutSliceInfo@?A0x39e5c904@Imf@@@?$vector@UTOutSliceInfo@?A0x39e5c904@Imf@@V?$allocator@UTOutSliceInfo@?A0x39e5c904@Imf@@@std@@@std@@IAEPAUTOutSliceInfo@?A0x39e5c904@Imf@@PAU234@00@Z
	?typeName@?$TypedAttribute@V?$Vec2@M@Imath@@@Imf@@UBEPBDXZ
	??$?0AAV?$_Tree_iterator@V?$_Tree_val@V?$_Tmap_traits@UTileCoord@?A0x39e5c904@Imf@@PAUBufferedTile@23@U?$less@UTileCoord@?A0x39e5c904@Imf@@@std@@V?$allocator@U?$pair@$$CBUTileCoord@?A0x39e5c904@Imf@@PAUBufferedTile@23@@std@@@6@$0A@@std@@@std@@@std@@_N@?$_Pair_base@V?$_Tree_iterator@V?$_Tree_val@V?$_Tmap_traits@UTileCoord@?A0x39e5c904@Imf@@PAUBufferedTile@23@U?$less@UTileCoord@?A0x39e5c904@Imf@@@std@@V?$allocator@U?$pair@$$CBUTileCoord@?A0x39e5c904@Imf@@PAUBufferedTile@23@@std@@@6@$0A@@std@@@std@@@std@@_N@std@@QAE@AAV?$_Tree_iterator@V?$_Tree_val@V?$_Tmap_traits@UTileCoord@?A0x39e5c904@Imf@@PAUBufferedTile@23@U?$less@UTileCoord@?A0x39e5c904@Imf@@@std@@V?$allocator@U?$pair@$$CBUTileCoord@?A0x39e5c904@Imf@@PAUBufferedTile@23@@std@@@6@$0A@@std@@@std@@@1@$$QA_N@Z
	?levelHeight@TiledOutputFile@Imf@@QBEHH@Z
	?reconstructChromaHoriz@RgbaYca@Imf@@YAXHQBURgba@2@QAU32@@Z
	?hasWorldToCamera@Imf@@YA_NABVHeader@1@@Z
	?equal_range@?$_Tree@V?$_Tmap_traits@PBDP6APAVAttribute@Imf@@XZUNameCompare@?A0x0779e1ad@2@V?$allocator@U?$pair@QBDP6APAVAttribute@Imf@@XZ@std@@@std@@$0A@@std@@@std@@QAE?AU?$pair@V?$_Tree_iterator@V?$_Tree_val@V?$_Tmap_traits@PBDP6APAVAttribute@Imf@@XZUNameCompare@?A0x0779e1ad@2@V?$allocator@U?$pair@QBDP6APAVAttribute@Imf@@XZ@std@@@std@@$0A@@std@@@std@@@std@@V12@@2@ABQBD@Z
	??1?$TypedAttribute@V?$Vec2@H@Imath@@@Imf@@UAE@XZ
	?writeTile@ToYa@TiledRgbaOutputFile@Imf@@QAEXHHHH@Z
	??$_Uninitialized_copy@PAV?$basic_string@DU?$char_traits@D@std@@V?$allocator@D@2@@std@@PAV12@V?$allocator@V?$basic_string@DU?$char_traits@D@std@@V?$allocator@D@2@@std@@@2@@std@@YAPAV?$basic_string@DU?$char_traits@D@std@@V?$allocator@D@2@@0@PAV10@00AAV?$allocator@V?$basic_string@DU?$char_traits@D@std@@V?$allocator@D@2@@std@@@0@@Z
	??$_Uninitialized_move@PAPAUTileBuffer@?A0x39e5c904@Imf@@PAPAU123@V?$allocator@PAUTileBuffer@?A0x39e5c904@Imf@@@std@@@std@@YAPAPAUTileBuffer@?A0x39e5c904@Imf@@PAPAU123@00AAV?$allocator@PAUTileBuffer@?A0x39e5c904@Imf@@@0@@Z
	??4?$_Tree_const_iterator@V?$_Tree_val@V?$_Tmap_traits@VName@Imf@@UChannel@2@U?$less@VName@Imf@@@std@@V?$allocator@U?$pair@$$CBVName@Imf@@UChannel@2@@std@@@5@$0A@@std@@@std@@@std@@QAEAAV01@ABV01@@Z
	?copyValueFrom@?$TypedAttribute@V?$vector@V?$basic_string@DU?$char_traits@D@std@@V?$allocator@D@2@@std@@V?$allocator@V?$basic_string@DU?$char_traits@D@std@@V?$allocator@D@2@@std@@@2@@std@@@Imf@@UAEXABVAttribute@2@@Z
	?typeMap@?A0x0779e1ad@Imf@@YAAAVLockedTypeMap@12@XZ
	??0PizCompressor@Imf@@QAE@ABVHeader@1@II@Z
	?end@ChannelList@Imf@@QAE?AVIterator@12@XZ
	??0Compressor@Imf@@QAE@ABVHeader@1@@Z
	?uncompress@PizCompressor@Imf@@AAEHPBDHV?$Box@V?$Vec2@H@Imath@@@Imath@@AAPBD@Z
	??$typedAttribute@V?$TypedAttribute@VTimeCode@Imf@@@Imf@@@Header@Imf@@QAEAAV?$TypedAttribute@VTimeCode@Imf@@@1@QBD@Z
	?writeValueTo@?$TypedAttribute@VTileDescription@Imf@@@Imf@@UBEXAAVOStream@2@H@Z
	?infile@?A0xa29ce62f@@YAPBVRgbaInputFile@Imf@@PBUImfInputFile@@@Z
	?numLevels@TiledOutputFile@Imf@@QBEHXZ
	??4?$vector@V?$vector@_KV?$allocator@_K@std@@@std@@V?$allocator@V?$vector@_KV?$allocator@_K@std@@@std@@@2@@std@@QAEAAV01@$$QAV01@@Z
	?_Min@?$_Tree_val@V?$_Tmap_traits@VName@Imf@@PAVAttribute@2@U?$less@VName@Imf@@@std@@V?$allocator@U?$pair@$$CBVName@Imf@@PAVAttribute@2@@std@@@5@$0A@@std@@@std@@SAPAU_Node@?$_Tree_nod@V?$_Tmap_traits@VName@Imf@@PAVAttribute@2@U?$less@VName@Imf@@@std@@V?$allocator@U?$pair@$$CBVName@Imf@@PAVAttribute@2@@std@@@5@$0A@@std@@@2@PAU342@@Z
	?direction@LatLongMap@Imf@@YA?AV?$Vec3@M@Imath@@ABV?$Box@V?$Vec2@H@Imath@@@4@ABV?$Vec2@M@4@@Z
	??$_Move@PAV?$vector@_KV?$allocator@_K@std@@@std@@PAV12@@std@@YAPAV?$vector@_KV?$allocator@_K@std@@@0@PAV10@00@Z
	?value@?$TypedAttribute@V?$vector@V?$basic_string@DU?$char_traits@D@std@@V?$allocator@D@2@@std@@V?$allocator@V?$basic_string@DU?$char_traits@D@std@@V?$allocator@D@2@@std@@@2@@std@@@Imf@@QBEABV?$vector@V?$basic_string@DU?$char_traits@D@std@@V?$allocator@D@2@@std@@V?$allocator@V?$basic_string@DU?$char_traits@D@std@@V?$allocator@D@2@@std@@@2@@std@@XZ
	?getLineBuffer@Data@OutputFile@Imf@@QAEPAULineBuffer@?A0xf57f9ec6@3@H@Z
	??1Attribute@Imf@@UAE@XZ
	?SIZE@Name@Imf@@2HB
	?_Assign_rv@?$vector@_KV?$allocator@_K@std@@@std@@QAEX$$QAV12@@Z
	?max_size@?$_Tree@V?$_Tmap_traits@VName@Imf@@USlice@2@U?$less@VName@Imf@@@std@@V?$allocator@U?$pair@$$CBVName@Imf@@USlice@2@@std@@@5@$0A@@std@@@std@@QBEIXZ
	??1RgbaOutputFile@Imf@@UAE@XZ
	?allocate@?$allocator@U_Node@?$_Tree_nod@V?$_Tset_traits@V?$basic_string@DU?$char_traits@D@std@@V?$allocator@D@2@@std@@U?$less@V?$basic_string@DU?$char_traits@D@std@@V?$allocator@D@2@@std@@@2@V?$allocator@V?$basic_string@DU?$char_traits@D@std@@V?$allocator@D@2@@std@@@2@$0A@@std@@@std@@@std@@QAEPAU_Node@?$_Tree_nod@V?$_Tset_traits@V?$basic_string@DU?$char_traits@D@std@@V?$allocator@D@2@@std@@U?$less@V?$basic_string@DU?$char_traits@D@std@@V?$allocator@D@2@@std@@@2@V?$allocator@V?$basic_string@DU?$char_traits@D@std@@V?$allocator@D@2@@std@@@2@$0A@@std@@@2@I@Z
	?typeName@?$TypedAttribute@V?$Vec3@N@Imath@@@Imf@@UBEPBDXZ
	?minutes@TimeCode@Imf@@QBEHXZ
	?readValueFrom@?$TypedAttribute@V?$Vec2@N@Imath@@@Imf@@UAEXAAVIStream@2@HH@Z
	?str@?$basic_stringbuf@DU?$char_traits@D@std@@V?$allocator@D@2@@std@@QBE?AV?$basic_string@DU?$char_traits@D@std@@V?$allocator@D@2@@2@XZ
	??$_Destroy@UTOutSliceInfo@?A0x39e5c904@Imf@@@std@@YAXPAUTOutSliceInfo@?A0x39e5c904@Imf@@@Z
	??$_Uninitialized_move@PAUInSliceInfo@?A0xcbf8ace6@Imf@@PAU123@V?$allocator@UInSliceInfo@?A0xcbf8ace6@Imf@@@std@@@std@@YAPAUInSliceInfo@?A0xcbf8ace6@Imf@@PAU123@00AAV?$allocator@UInSliceInfo@?A0xcbf8ace6@Imf@@@0@@Z
	?tileXSize@TiledRgbaInputFile@Imf@@QBEIXZ
	??F?$_Tree_iterator@V?$_Tree_val@V?$_Tmap_traits@PBDP6APAVAttribute@Imf@@XZUNameCompare@?A0x0779e1ad@2@V?$allocator@U?$pair@QBDP6APAVAttribute@Imf@@XZ@std@@@std@@$0A@@std@@@std@@@std@@QAEAAV01@XZ
	??0?$_Tree_unchecked_const_iterator@V?$_Tree_val@V?$_Tmap_traits@VName@Imf@@UChannel@2@U?$less@VName@Imf@@@std@@V?$allocator@U?$pair@$$CBVName@Imf@@UChannel@2@@std@@@5@$0A@@std@@@std@@U_Iterator_base12@2@@std@@QAE@ABV01@@Z
	?name@ConstIterator@FrameBuffer@Imf@@QBEPBDXZ
	?destroy@?$allocator@U_Container_proxy@std@@@std@@QAEXPAU_Container_proxy@2@@Z
	ImfCloseInputFile
	?setPerfsPerFrame@KeyCode@Imf@@QAEXH@Z
	??$?0U?$pair@$$CBVName@Imf@@USlice@2@@std@@@?$allocator@U_Node@?$_Tree_nod@V?$_Tmap_traits@VName@Imf@@USlice@2@U?$less@VName@Imf@@@std@@V?$allocator@U?$pair@$$CBVName@Imf@@USlice@2@@std@@@5@$0A@@std@@@std@@@std@@QAE@ABV?$allocator@U?$pair@$$CBVName@Imf@@USlice@2@@std@@@1@@Z
	?setBgf1@TimeCode@Imf@@QAEX_N@Z
	??$_Iter_cat@V?$_Vector_const_iterator@V?$_Vector_val@V?$basic_string@DU?$char_traits@D@std@@V?$allocator@D@2@@std@@V?$allocator@V?$basic_string@DU?$char_traits@D@std@@V?$allocator@D@2@@std@@@2@@std@@@std@@@std@@YA?AUrandom_access_iterator_tag@0@ABV?$_Vector_const_iterator@V?$_Vector_val@V?$basic_string@DU?$char_traits@D@std@@V?$allocator@D@2@@std@@V?$allocator@V?$basic_string@DU?$char_traits@D@std@@V?$allocator@D@2@@std@@@2@@std@@@0@@Z
	?end@?$vector@PAULineBuffer@?A0xf57f9ec6@Imf@@V?$allocator@PAULineBuffer@?A0xf57f9ec6@Imf@@@std@@@std@@QAE?AV?$_Vector_iterator@V?$_Vector_val@PAULineBuffer@?A0xf57f9ec6@Imf@@V?$allocator@PAULineBuffer@?A0xf57f9ec6@Imf@@@std@@@std@@@2@XZ
	?max_size@?$vector@V?$basic_string@DU?$char_traits@D@std@@V?$allocator@D@2@@std@@V?$allocator@V?$basic_string@DU?$char_traits@D@std@@V?$allocator@D@2@@std@@@2@@std@@QBEIXZ
	??0RgbaInputFile@Imf@@QAE@QBDABV?$basic_string@DU?$char_traits@D@std@@V?$allocator@D@2@@std@@H@Z
	??$forward@QBD@std@@YA$$QBQBDABQBD@Z
	??0?$TypedAttribute@V?$Box@V?$Vec2@M@Imath@@@Imath@@@Imf@@QAE@XZ
	?readValueFrom@?$TypedAttribute@N@Imf@@UAEXAAVIStream@2@HH@Z
	??0?$fpos@H@std@@QAE@_J@Z
	?value@?$TypedAttribute@V?$Box@V?$Vec2@H@Imath@@@Imath@@@Imf@@QBEABV?$Box@V?$Vec2@H@Imath@@@Imath@@XZ
	??$_Destroy_range@V?$allocator@UTOutSliceInfo@?A0x39e5c904@Imf@@@std@@@std@@YAXPAUTOutSliceInfo@?A0x39e5c904@Imf@@0AAV?$allocator@UTOutSliceInfo@?A0x39e5c904@Imf@@@0@U_Nonscalar_ptr_iterator_tag@0@@Z
	??$readSignedChars@UStreamIO@Imf@@VStdIFStream@2@@Xdr@Imf@@YAXAAVStdIFStream@1@QACH@Z
	??$skip@UStreamIO@Imf@@VIStream@2@@Xdr@Imf@@YAXAAVIStream@1@H@Z
	??0?$allocator@UInSliceInfo@?A0xcbf8ace6@Imf@@@std@@QAE@ABV01@@Z
	?makeNewAttribute@?$TypedAttribute@V?$Matrix33@N@Imath@@@Imf@@SAPAVAttribute@2@XZ
	??$forward@U?$pair@$$CBVName@Imf@@USlice@2@@std@@@std@@YA$$QAU?$pair@$$CBVName@Imf@@USlice@2@@0@AAU10@@Z
	?end@?$_Iosb@H@std@@2W4_Seekdir@12@B
	?size@?$vector@UInSliceInfo@?A0xcbf8ace6@Imf@@V?$allocator@UInSliceInfo@?A0xcbf8ace6@Imf@@@std@@@std@@QBEIXZ
	??1?$_Vector_const_iterator@V?$_Vector_val@PAULineBuffer@?A0xcbf8ace6@Imf@@V?$allocator@PAULineBuffer@?A0xcbf8ace6@Imf@@@std@@@std@@@std@@QAE@XZ
	?fileName@TiledOutputFile@Imf@@QBEPBDXZ
	?staticTypeName@?$TypedAttribute@H@Imf@@SAPBDXZ
	??0?$_Tree_unchecked_const_iterator@V?$_Tree_val@V?$_Tmap_traits@PBDP6APAVAttribute@Imf@@XZUNameCompare@?A0x0779e1ad@2@V?$allocator@U?$pair@QBDP6APAVAttribute@Imf@@XZ@std@@@std@@$0A@@std@@@std@@U_Iterator_base12@2@@std@@QAE@ABV01@@Z
	??$_Cons_val@V?$allocator@V?$vector@_KV?$allocator@_K@std@@@std@@@std@@V?$vector@_KV?$allocator@_K@std@@@2@AAV32@@std@@YAXAAV?$allocator@V?$vector@_KV?$allocator@_K@std@@@std@@@0@PAV?$vector@_KV?$allocator@_K@std@@@0@AAV20@@Z
	?renderingTransform@Imf@@YAABV?$basic_string@DU?$char_traits@D@std@@V?$allocator@D@2@@std@@ABVHeader@1@@Z
	?size@?$vector@UTInSliceInfo@?A0xf6fcebb6@Imf@@V?$allocator@UTInSliceInfo@?A0xf6fcebb6@Imf@@@std@@@std@@QBEIXZ
	??0?$_Pair_base@$$CBVName@Imf@@USlice@2@@std@@QAE@ABVName@Imf@@$$QAUSlice@3@@Z
	?makeNewAttribute@?$TypedAttribute@M@Imf@@SAPAVAttribute@2@XZ
	??$_Move@PAUTOutSliceInfo@?A0x39e5c904@Imf@@PAU123@@std@@YAPAUTOutSliceInfo@?A0x39e5c904@Imf@@PAU123@00U_Nonscalar_ptr_iterator_tag@0@@Z
	ImfHeaderSetPixelAspectRatio
	??1ToYca@RgbaOutputFile@Imf@@UAE@XZ
	??1?$halfFunction@Vhalf@@@@QAE@XZ
	?value@?$TypedAttribute@VTimeCode@Imf@@@Imf@@QAEAAVTimeCode@2@XZ
	?comments@Imf@@YAAAV?$basic_string@DU?$char_traits@D@std@@V?$allocator@D@2@@std@@AAVHeader@1@@Z
	?dataWindowForTile@TiledOutputFile@Imf@@QBE?AV?$Box@V?$Vec2@H@Imath@@@Imath@@HHH@Z
	??$?0V?$vector@_KV?$allocator@_K@std@@@std@@@?$allocator@U_Container_proxy@std@@@std@@QAE@ABV?$allocator@V?$vector@_KV?$allocator@_K@std@@@std@@@1@@Z
	?_Min@?$_Tree_val@V?$_Tmap_traits@UTileCoord@?A0x39e5c904@Imf@@PAUBufferedTile@23@U?$less@UTileCoord@?A0x39e5c904@Imf@@@std@@V?$allocator@U?$pair@$$CBUTileCoord@?A0x39e5c904@Imf@@PAUBufferedTile@23@@std@@@6@$0A@@std@@@std@@SAPAU_Node@?$_Tree_nod@V?$_Tmap_traits@UTileCoord@?A0x39e5c904@Imf@@PAUBufferedTile@23@U?$less@UTileCoord@?A0x39e5c904@Imf@@@std@@V?$allocator@U?$pair@$$CBUTileCoord@?A0x39e5c904@Imf@@PAUBufferedTile@23@@std@@@6@$0A@@std@@@2@PAU342@@Z
	?push_back@?$vector@_KV?$allocator@_K@std@@@std@@QAEX$$QA_K@Z
	?max_size@?$allocator@PAULineBuffer@?A0xcbf8ace6@Imf@@@std@@QBEIXZ
	?setBgf0@TimeCode@Imf@@QAEX_N@Z
	?isoSpeedAttribute@Imf@@YAABV?$TypedAttribute@M@1@ABVHeader@1@@Z
	??1?$_Tree@V?$_Tmap_traits@PBDP6APAVAttribute@Imf@@XZUNameCompare@?A0x0779e1ad@2@V?$allocator@U?$pair@QBDP6APAVAttribute@Imf@@XZ@std@@@std@@$0A@@std@@@std@@QAE@XZ
	??0TiledRgbaInputFile@Imf@@QAE@QBDH@Z
	?altitude@Imf@@YAABMABVHeader@1@@Z
	ImfHeaderV3fAttribute
	??$?0$$CBVName@Imf@@UChannel@1@@?$pair@$$CBVName@Imf@@UChannel@2@@std@@QAE@AAU01@@Z
	?numXTiles@TiledRgbaOutputFile@Imf@@QBEHH@Z
	?frameBuffer@TiledRgbaOutputFile@Imf@@QBEABVFrameBuffer@2@XZ
	?max_size@?$allocator@U?$pair@$$CBVName@Imf@@USlice@2@@std@@@std@@QBEIXZ
	?expTimeAttribute@Imf@@YAABV?$TypedAttribute@M@1@ABVHeader@1@@Z
	??$forward@V?$basic_string@DU?$char_traits@D@std@@V?$allocator@D@2@@std@@@std@@YA$$QAV?$basic_string@DU?$char_traits@D@std@@V?$allocator@D@2@@0@AAV10@@Z
	?max@?$limits@M@Imath@@SAMXZ
	??0?$TypedAttribute@VRational@Imf@@@Imf@@QAE@ABVRational@1@@Z
	?_Tidy@?$_Tree@V?$_Tmap_traits@PBDP6APAVAttribute@Imf@@XZUNameCompare@?A0x0779e1ad@2@V?$allocator@U?$pair@QBDP6APAVAttribute@Imf@@XZ@std@@@std@@$0A@@std@@@std@@IAEXXZ
	??$_Make_heap@PAPA_KHPA_KUFHeapCompare@?A0xc87c6bb7@Imf@@@std@@YAXPAPA_K0UFHeapCompare@?A0xc87c6bb7@Imf@@PAH0@Z
	?typeName@?$TypedAttribute@N@Imf@@UBEPBDXZ
	ImfOutputWritePixels
	??4ConstIterator@ChannelList@Imf@@QAEAAV012@ABV012@@Z
	?_Orphan_range@?$vector@PAUTileBuffer@?A0xf6fcebb6@Imf@@V?$allocator@PAUTileBuffer@?A0xf6fcebb6@Imf@@@std@@@std@@IBEXPAPAUTileBuffer@?A0xf6fcebb6@Imf@@0@Z
	?owner@Imf@@YAAAV?$basic_string@DU?$char_traits@D@std@@V?$allocator@D@2@@std@@AAVHeader@1@@Z
	??$_Umove@PAUOutSliceInfo@?A0xf57f9ec6@Imf@@@?$vector@UOutSliceInfo@?A0xf57f9ec6@Imf@@V?$allocator@UOutSliceInfo@?A0xf57f9ec6@Imf@@@std@@@std@@IAEPAUOutSliceInfo@?A0xf57f9ec6@Imf@@PAU234@00@Z
	??$typedAttribute@V?$TypedAttribute@V?$Vec2@H@Imath@@@Imf@@@Header@Imf@@QAEAAV?$TypedAttribute@V?$Vec2@H@Imath@@@1@QBD@Z
	??1?$_Tree_const_iterator@V?$_Tree_val@V?$_Tmap_traits@VName@Imf@@USlice@2@U?$less@VName@Imf@@@std@@V?$allocator@U?$pair@$$CBVName@Imf@@USlice@2@@std@@@5@$0A@@std@@@std@@@std@@QAE@XZ
	??$?0$$CBVName@Imf@@USlice@1@@?$pair@$$CBVName@Imf@@USlice@2@@std@@QAE@$$QAU01@@Z
	??0?$_Vector_val@V?$vector@V?$vector@_KV?$allocator@_K@std@@@std@@V?$allocator@V?$vector@_KV?$allocator@_K@std@@@std@@@2@@std@@V?$allocator@V?$vector@V?$vector@_KV?$allocator@_K@std@@@std@@V?$allocator@V?$vector@_KV?$allocator@_K@std@@@std@@@2@@std@@@2@@std@@QAE@V?$allocator@V?$vector@V?$vector@_KV?$allocator@_K@std@@@std@@V?$allocator@V?$vector@_KV?$allocator@_K@std@@@std@@@2@@std@@@1@@Z
	?_Destroy@?$vector@UOutSliceInfo@?A0xf57f9ec6@Imf@@V?$allocator@UOutSliceInfo@?A0xf57f9ec6@Imf@@@std@@@std@@IAEXPAUOutSliceInfo@?A0xf57f9ec6@Imf@@0@Z
	ImfHeaderPixelAspectRatio
	??1sentry@?$basic_ostream@DU?$char_traits@D@std@@@std@@QAE@XZ
	?cos@@YAMM@Z
	??M?$_Vector_const_iterator@V?$_Vector_val@PAUTileBuffer@?A0x39e5c904@Imf@@V?$allocator@PAUTileBuffer@?A0x39e5c904@Imf@@@std@@@std@@@std@@QBE_NABV01@@Z
	?roundYCA@RgbaYca@Imf@@YAXHIIQBURgba@2@QAU32@@Z
	??$_Cons_val@V?$allocator@_K@std@@_K_K@std@@YAXAAV?$allocator@_K@0@PA_K$$QA_K@Z
	?begin@?$vector@V?$vector@_KV?$allocator@_K@std@@@std@@V?$allocator@V?$vector@_KV?$allocator@_K@std@@@std@@@2@@std@@QAE?AV?$_Vector_iterator@V?$_Vector_val@V?$vector@_KV?$allocator@_K@std@@@std@@V?$allocator@V?$vector@_KV?$allocator@_K@std@@@std@@@2@@std@@@2@XZ
	??F?$_Tree_const_iterator@V?$_Tree_val@V?$_Tset_traits@V?$basic_string@DU?$char_traits@D@std@@V?$allocator@D@2@@std@@U?$less@V?$basic_string@DU?$char_traits@D@std@@V?$allocator@D@2@@std@@@2@V?$allocator@V?$basic_string@DU?$char_traits@D@std@@V?$allocator@D@2@@std@@@2@$0A@@std@@@std@@@std@@QAEAAV01@XZ
	??0?$_Vector_val@UTInSliceInfo@?A0xf6fcebb6@Imf@@V?$allocator@UTInSliceInfo@?A0xf6fcebb6@Imf@@@std@@@std@@QAE@V?$allocator@UTInSliceInfo@?A0xf6fcebb6@Imf@@@1@@Z
	??1LineBufferTask@?A0xf57f9ec6@Imf@@UAE@XZ
	??1Iterator@Header@Imf@@QAE@XZ
	??$_Move@PA_KPA_K@std@@YAPA_KPA_K00U_Scalar_ptr_iterator_tag@0@@Z
	?readYCAScanLine@FromYca@RgbaInputFile@Imf@@AAEXHQAURgba@3@@Z
	?registerAttributeType@?$TypedAttribute@V?$vector@V?$basic_string@DU?$char_traits@D@std@@V?$allocator@D@2@@std@@V?$allocator@V?$basic_string@DU?$char_traits@D@std@@V?$allocator@D@2@@std@@@2@@std@@@Imf@@SAXXZ
	?value@?$TypedAttribute@VPreviewImage@Imf@@@Imf@@QAEAAVPreviewImage@2@XZ
	??$write@UCharPtrIO@Imf@@PAD@Xdr@Imf@@YAXAAPADQBDH@Z
	?dataWindowForTile@TiledRgbaOutputFile@Imf@@QBE?AV?$Box@V?$Vec2@H@Imath@@@Imath@@HHH@Z
	??$_Move@PAPAULineBuffer@?A0xf57f9ec6@Imf@@PAPAU123@@std@@YAPAPAULineBuffer@?A0xf57f9ec6@Imf@@PAPAU123@00@Z
	?bitField@?A0x304371a6@Imf@@YAIIHH@Z
	??8?$_Vector_const_iterator@V?$_Vector_val@PAUTileBuffer@?A0xf6fcebb6@Imf@@V?$allocator@PAUTileBuffer@?A0xf6fcebb6@Imf@@@std@@@std@@@std@@QBE_NABV01@@Z
	?compress@RleCompressor@Imf@@UAEHPBDHHAAPBD@Z
	?makeNewAttribute@?$TypedAttribute@V?$Box@V?$Vec2@H@Imath@@@Imath@@@Imf@@SAPAVAttribute@2@XZ
	?uncompress@B44Compressor@Imf@@UAEHPBDHHAAPBD@Z
	??1?$pair@V?$_Tree_const_iterator@V?$_Tree_val@V?$_Tset_traits@V?$basic_string@DU?$char_traits@D@std@@V?$allocator@D@2@@std@@U?$less@V?$basic_string@DU?$char_traits@D@std@@V?$allocator@D@2@@std@@@2@V?$allocator@V?$basic_string@DU?$char_traits@D@std@@V?$allocator@D@2@@std@@@2@$0A@@std@@@std@@@std@@_N@std@@QAE@XZ
	??$write@UStreamIO@Imf@@VOStream@2@@Xdr@Imf@@YAXAAVOStream@1@QBDH@Z
	?maxImageHeight@?A0x1f5ff9f2@Imf@@3HA
	?value@?$TypedAttribute@VPreviewImage@Imf@@@Imf@@QBEABVPreviewImage@2@XZ
	??0LogicExc@Iex@@QAE@ABV01@@Z
	??8?$_Vector_const_iterator@V?$_Vector_val@UTInSliceInfo@?A0xf6fcebb6@Imf@@V?$allocator@UTInSliceInfo@?A0xf6fcebb6@Imf@@@std@@@std@@@std@@QBE_NABV01@@Z
	?push_back@?$vector@V?$vector@_KV?$allocator@_K@std@@@std@@V?$allocator@V?$vector@_KV?$allocator@_K@std@@@std@@@2@@std@@QAEX$$QAV?$vector@_KV?$allocator@_K@std@@@2@@Z
	??$_Kfn@QBDP6APAVAttribute@Imf@@XZ@?$_Tmap_traits@PBDP6APAVAttribute@Imf@@XZUNameCompare@?A0x0779e1ad@2@V?$allocator@U?$pair@QBDP6APAVAttribute@Imf@@XZ@std@@@std@@$0A@@std@@SAABQBDABU?$pair@QBDP6APAVAttribute@Imf@@XZ@1@@Z
	?cast@?$TypedAttribute@VKeyCode@Imf@@@Imf@@SAPBV12@PBVAttribute@2@@Z
	??$_Destroy@U?$pair@$$CBVName@Imf@@PAVAttribute@2@@std@@@std@@YAXPAU?$pair@$$CBVName@Imf@@PAVAttribute@2@@0@@Z
	?compressTile@Compressor@Imf@@UAEHPBDHV?$Box@V?$Vec2@H@Imath@@@Imath@@AAPBD@Z
	??D?$_Tree_iterator@V?$_Tree_val@V?$_Tmap_traits@VName@Imf@@UChannel@2@U?$less@VName@Imf@@@std@@V?$allocator@U?$pair@$$CBVName@Imf@@UChannel@2@@std@@@5@$0A@@std@@@std@@@std@@QBEAAU?$pair@$$CBVName@Imf@@UChannel@2@@1@XZ
	?cast@?$TypedAttribute@V?$basic_string@DU?$char_traits@D@std@@V?$allocator@D@2@@std@@@Imf@@SAABV12@ABVAttribute@2@@Z
	?length@?$basic_string@DU?$char_traits@D@std@@V?$allocator@D@2@@std@@QBEIXZ
	?_Orphan_me@_Iterator_base12@std@@QAEXXZ
	??0?$_Vector_val@PAULineBuffer@?A0xf57f9ec6@Imf@@V?$allocator@PAULineBuffer@?A0xf57f9ec6@Imf@@@std@@@std@@QAE@V?$allocator@PAULineBuffer@?A0xf57f9ec6@Imf@@@1@@Z
	??1?$_Tmap_traits@VName@Imf@@PAVAttribute@2@U?$less@VName@Imf@@@std@@V?$allocator@U?$pair@$$CBVName@Imf@@PAVAttribute@2@@std@@@5@$0A@@std@@QAE@XZ
	?eq_int_type@?$char_traits@D@std@@SA_NABH0@Z
	?_Grow_to@?$vector@_KV?$allocator@_K@std@@@std@@IBEII@Z
	??$uiAdd@I@Imf@@YAIII@Z
	?readValueFrom@?$TypedAttribute@M@Imf@@UAEXAAVIStream@2@HH@Z
	?registerAttributeType@?$TypedAttribute@V?$basic_string@DU?$char_traits@D@std@@V?$allocator@D@2@@std@@@Imf@@SAXXZ
	?_Tidy@?$vector@V?$basic_string@DU?$char_traits@D@std@@V?$allocator@D@2@@std@@V?$allocator@V?$basic_string@DU?$char_traits@D@std@@V?$allocator@D@2@@std@@@2@@std@@IAEXXZ
	?_Key@?$_Tree_val@V?$_Tset_traits@V?$basic_string@DU?$char_traits@D@std@@V?$allocator@D@2@@std@@U?$less@V?$basic_string@DU?$char_traits@D@std@@V?$allocator@D@2@@std@@@2@V?$allocator@V?$basic_string@DU?$char_traits@D@std@@V?$allocator@D@2@@std@@@2@$0A@@std@@@std@@SAAAV?$basic_string@DU?$char_traits@D@std@@V?$allocator@D@2@@2@PAU_Node@?$_Tree_nod@V?$_Tset_traits@V?$basic_string@DU?$char_traits@D@std@@V?$allocator@D@2@@std@@U?$less@V?$basic_string@DU?$char_traits@D@std@@V?$allocator@D@2@@std@@@2@V?$allocator@V?$basic_string@DU?$char_traits@D@std@@V?$allocator@D@2@@std@@@2@$0A@@std@@@2@@Z
	??$_Ptr_cat@V?$basic_string@DU?$char_traits@D@std@@V?$allocator@D@2@@std@@V12@@std@@YA?AU_Nonscalar_ptr_iterator_tag@0@PAV?$basic_string@DU?$char_traits@D@std@@V?$allocator@D@2@@0@0@Z
	??0Iterator@FrameBuffer@Imf@@QAE@ABV?$_Tree_iterator@V?$_Tree_val@V?$_Tmap_traits@VName@Imf@@USlice@2@U?$less@VName@Imf@@@std@@V?$allocator@U?$pair@$$CBVName@Imf@@USlice@2@@std@@@5@$0A@@std@@@std@@@std@@@Z
	?resizeErase@?$Array@D@Imf@@QAEXJ@Z
	?_Lbound@?$_Tree@V?$_Tmap_traits@VName@Imf@@UChannel@2@U?$less@VName@Imf@@@std@@V?$allocator@U?$pair@$$CBVName@Imf@@UChannel@2@@std@@@5@$0A@@std@@@std@@IBEPAU_Node@?$_Tree_nod@V?$_Tmap_traits@VName@Imf@@UChannel@2@U?$less@VName@Imf@@@std@@V?$allocator@U?$pair@$$CBVName@Imf@@UChannel@2@@std@@@5@$0A@@std@@@2@ABVName@Imf@@@Z
	?assign@?$basic_string@DU?$char_traits@D@std@@V?$allocator@D@2@@std@@QAEAAV12@ID@Z
	?copy@?$TypedAttribute@VPreviewImage@Imf@@@Imf@@UBEPAVAttribute@2@XZ
	??1IoExc@Iex@@UAE@XZ
	?_Lbound@?$_Tree@V?$_Tmap_traits@VName@Imf@@PAVAttribute@2@U?$less@VName@Imf@@@std@@V?$allocator@U?$pair@$$CBVName@Imf@@PAVAttribute@2@@std@@@5@$0A@@std@@@std@@IBEPAU_Node@?$_Tree_nod@V?$_Tmap_traits@VName@Imf@@PAVAttribute@2@U?$less@VName@Imf@@@std@@V?$allocator@U?$pair@$$CBVName@Imf@@PAVAttribute@2@@std@@@5@$0A@@std@@@2@ABVName@Imf@@@Z
	??$_Move@PAPAUTileBuffer@?A0xf6fcebb6@Imf@@PAPAU123@@std@@YAPAPAUTileBuffer@?A0xf6fcebb6@Imf@@PAPAU123@00U_Scalar_ptr_iterator_tag@0@@Z
	??$forward@AAV?$_Tree_iterator@V?$_Tree_val@V?$_Tmap_traits@VName@Imf@@USlice@2@U?$less@VName@Imf@@@std@@V?$allocator@U?$pair@$$CBVName@Imf@@USlice@2@@std@@@5@$0A@@std@@@std@@@std@@@std@@YAAAV?$_Tree_iterator@V?$_Tree_val@V?$_Tmap_traits@VName@Imf@@USlice@2@U?$less@VName@Imf@@@std@@V?$allocator@U?$pair@$$CBVName@Imf@@USlice@2@@std@@@5@$0A@@std@@@std@@@0@AAV10@@Z
	??0?$_Iterator012@Urandom_access_iterator_tag@std@@UTOutSliceInfo@?A0x39e5c904@Imf@@HPBU345@ABU345@U_Iterator_base12@2@@std@@QAE@XZ
	??0Iterator@ChannelList@Imf@@QAE@ABV?$_Tree_iterator@V?$_Tree_val@V?$_Tmap_traits@VName@Imf@@UChannel@2@U?$less@VName@Imf@@@std@@V?$allocator@U?$pair@$$CBVName@Imf@@UChannel@2@@std@@@5@$0A@@std@@@std@@@std@@@Z
	?countFrequencies@?A0xc87c6bb7@Imf@@YAXQA_KQBGH@Z
	ImfHeaderSetDoubleAttribute
	?makeNewAttribute@?$TypedAttribute@V?$Matrix44@N@Imath@@@Imf@@SAPAVAttribute@2@XZ
	??4?$_Tree_iterator@V?$_Tree_val@V?$_Tmap_traits@VName@Imf@@UChannel@2@U?$less@VName@Imf@@@std@@V?$allocator@U?$pair@$$CBVName@Imf@@UChannel@2@@std@@@5@$0A@@std@@@std@@@std@@QAEAAV01@ABV01@@Z
	??0?$basic_ofstream@DU?$char_traits@D@std@@@std@@QAE@PBDHH@Z
	?lookModTransformAttribute@Imf@@YAAAV?$TypedAttribute@V?$basic_string@DU?$char_traits@D@std@@V?$allocator@D@2@@std@@@1@AAVHeader@1@@Z
	?staticTypeName@?$TypedAttribute@V?$Vec2@H@Imath@@@Imf@@SAPBDXZ
	?_Destroy@?$vector@PAUTileBuffer@?A0x39e5c904@Imf@@V?$allocator@PAUTileBuffer@?A0x39e5c904@Imf@@@std@@@std@@IAEXPAPAUTileBuffer@?A0x39e5c904@Imf@@0@Z
	??0?$_Iterator012@Urandom_access_iterator_tag@std@@PAUTileBuffer@?A0x39e5c904@Imf@@HPBQAU345@ABQAU345@U_Iterator_base12@2@@std@@QAE@ABU01@@Z
	?levelWidth@TiledOutputFile@Imf@@QBEHH@Z
	?post@TileBuffer@?A0x39e5c904@Imf@@QAEXXZ
	??$_Allocate@D@std@@YAPADIPAD@Z
	?adoptedNeutralAttribute@Imf@@YAABV?$TypedAttribute@V?$Vec2@M@Imath@@@1@ABVHeader@1@@Z
	??$_Move@PAIPAI@std@@YAPAIPAI00@Z
	?max_size@?$_Tree@V?$_Tset_traits@V?$basic_string@DU?$char_traits@D@std@@V?$allocator@D@2@@std@@U?$less@V?$basic_string@DU?$char_traits@D@std@@V?$allocator@D@2@@std@@@2@V?$allocator@V?$basic_string@DU?$char_traits@D@std@@V?$allocator@D@2@@std@@@2@$0A@@std@@@std@@QBEIXZ
	?numXTiles@TiledOutputFile@Imf@@QBEHH@Z
	??$?0UTOutSliceInfo@?A0x39e5c904@Imf@@@?$allocator@U_Container_proxy@std@@@std@@QAE@ABV?$allocator@UTOutSliceInfo@?A0x39e5c904@Imf@@@1@@Z
	?_Tidy@?$_Tree@V?$_Tmap_traits@UTileCoord@?A0x39e5c904@Imf@@PAUBufferedTile@23@U?$less@UTileCoord@?A0x39e5c904@Imf@@@std@@V?$allocator@U?$pair@$$CBUTileCoord@?A0x39e5c904@Imf@@PAUBufferedTile@23@@std@@@6@$0A@@std@@@std@@IAEXXZ
	?read@StdIFStream@Imf@@UAE_NQADH@Z
	?hasAdoptedNeutral@Imf@@YA_NABVHeader@1@@Z
	?copyIntoFrameBuffer@Imf@@YAXAAPBDPAD1I_NNW4Format@Compressor@1@W4PixelType@1@4@Z
	?staticTypeName@?$TypedAttribute@V?$Matrix44@M@Imath@@@Imf@@SAPBDXZ
	??$typedAttribute@V?$TypedAttribute@V?$Vec3@H@Imath@@@Imf@@@Header@Imf@@QBEABV?$TypedAttribute@V?$Vec3@H@Imath@@@1@QBD@Z
	??1?$AutoArray@_K$0BAAAB@@Imf@@QAE@XZ
	??4?$_Iterator012@Ubidirectional_iterator_tag@std@@U?$pair@$$CBVName@Imf@@USlice@2@@2@HPBU32@ABU32@U_Iterator_base12@2@@std@@QAEAAU01@ABU01@@Z
	??4?$_Tree_const_iterator@V?$_Tree_val@V?$_Tmap_traits@VName@Imf@@USlice@2@U?$less@VName@Imf@@@std@@V?$allocator@U?$pair@$$CBVName@Imf@@USlice@2@@std@@@5@$0A@@std@@@std@@@std@@QAEAAV01@ABV01@@Z
	?lineOrder@TiledRgbaInputFile@Imf@@QBE?AW4LineOrder@2@XZ
	??0?$_Tree_const_iterator@V?$_Tree_val@V?$_Tmap_traits@VName@Imf@@USlice@2@U?$less@VName@Imf@@@std@@V?$allocator@U?$pair@$$CBVName@Imf@@USlice@2@@std@@@5@$0A@@std@@@std@@@std@@QAE@ABV01@@Z
	??0?$pair@$$CBUTileCoord@?A0x39e5c904@Imf@@PAUBufferedTile@23@@std@@QAE@ABUTileCoord@?A0x39e5c904@Imf@@$$QAPAUBufferedTile@34@@Z
	??1?$TypedAttribute@VRational@Imf@@@Imf@@UAE@XZ
	?_Compat@?$_Vector_const_iterator@V?$_Vector_val@UOutSliceInfo@?A0xf57f9ec6@Imf@@V?$allocator@UOutSliceInfo@?A0xf57f9ec6@Imf@@@std@@@std@@@std@@QBEXABV12@@Z
	?_Lmost@?$_Tree@V?$_Tset_traits@V?$basic_string@DU?$char_traits@D@std@@V?$allocator@D@2@@std@@U?$less@V?$basic_string@DU?$char_traits@D@std@@V?$allocator@D@2@@std@@@2@V?$allocator@V?$basic_string@DU?$char_traits@D@std@@V?$allocator@D@2@@std@@@2@$0A@@std@@@std@@IBEAAPAU_Node@?$_Tree_nod@V?$_Tset_traits@V?$basic_string@DU?$char_traits@D@std@@V?$allocator@D@2@@std@@U?$less@V?$basic_string@DU?$char_traits@D@std@@V?$allocator@D@2@@std@@@2@V?$allocator@V?$basic_string@DU?$char_traits@D@std@@V?$allocator@D@2@@std@@@2@$0A@@std@@@2@XZ
	??1?$_Vector_const_iterator@V?$_Vector_val@V?$basic_string@DU?$char_traits@D@std@@V?$allocator@D@2@@std@@V?$allocator@V?$basic_string@DU?$char_traits@D@std@@V?$allocator@D@2@@std@@@2@@std@@@std@@QAE@XZ
	?readValueFrom@?$TypedAttribute@V?$Vec3@M@Imath@@@Imf@@UAEXAAVIStream@2@HH@Z
	?_Lbound@?$_Tree@V?$_Tmap_traits@VName@Imf@@USlice@2@U?$less@VName@Imf@@@std@@V?$allocator@U?$pair@$$CBVName@Imf@@USlice@2@@std@@@5@$0A@@std@@@std@@IBEPAU_Node@?$_Tree_nod@V?$_Tmap_traits@VName@Imf@@USlice@2@U?$less@VName@Imf@@@std@@V?$allocator@U?$pair@$$CBVName@Imf@@USlice@2@@std@@@5@$0A@@std@@@2@ABVName@Imf@@@Z
	?channelsInView@Imf@@YA?AVChannelList@1@ABV?$basic_string@DU?$char_traits@D@std@@V?$allocator@D@2@@std@@ABV21@ABV?$vector@V?$basic_string@DU?$char_traits@D@std@@V?$allocator@D@2@@std@@V?$allocator@V?$basic_string@DU?$char_traits@D@std@@V?$allocator@D@2@@std@@@2@@4@@Z
	?levelHeight@TiledInputFile@Imf@@QBEHH@Z
	?size@?$vector@IV?$allocator@I@std@@@std@@QBEIXZ
	??$_Ptr_cat@UOutSliceInfo@?A0xf57f9ec6@Imf@@U123@@std@@YA?AU_Nonscalar_ptr_iterator_tag@0@PAUOutSliceInfo@?A0xf57f9ec6@Imf@@0@Z
	?_Mynode@?$_Tree_unchecked_const_iterator@V?$_Tree_val@V?$_Tmap_traits@UTileCoord@?A0x39e5c904@Imf@@PAUBufferedTile@23@U?$less@UTileCoord@?A0x39e5c904@Imf@@@std@@V?$allocator@U?$pair@$$CBUTileCoord@?A0x39e5c904@Imf@@PAUBufferedTile@23@@std@@@6@$0A@@std@@@std@@U_Iterator_base12@2@@std@@QBEPAU_Node@?$_Tree_nod@V?$_Tmap_traits@UTileCoord@?A0x39e5c904@Imf@@PAUBufferedTile@23@U?$less@UTileCoord@?A0x39e5c904@Imf@@@std@@V?$allocator@U?$pair@$$CBUTileCoord@?A0x39e5c904@Imf@@PAUBufferedTile@23@@std@@@6@$0A@@std@@@2@XZ
	?_Isnil@?$_Tree_val@V?$_Tmap_traits@VName@Imf@@PAVAttribute@2@U?$less@VName@Imf@@@std@@V?$allocator@U?$pair@$$CBVName@Imf@@PAVAttribute@2@@std@@@5@$0A@@std@@@std@@SAAADPAU_Node@?$_Tree_nod@V?$_Tmap_traits@VName@Imf@@PAVAttribute@2@U?$less@VName@Imf@@@std@@V?$allocator@U?$pair@$$CBVName@Imf@@PAVAttribute@2@@std@@@5@$0A@@std@@@2@@Z
	?value@?$TypedAttribute@M@Imf@@QAEAAMXZ
	ImfInputHeader
	??0ConstIterator@FrameBuffer@Imf@@QAE@ABVIterator@12@@Z
	??0?$_Pair_base@$$CBVName@Imf@@UChannel@2@@std@@QAE@$$QBVName@Imf@@$$QAUChannel@3@@Z
	??AChannelList@Imf@@QBEABUChannel@1@ABV?$basic_string@DU?$char_traits@D@std@@V?$allocator@D@2@@std@@@Z
	ImfOpenInputFile
	?_Tidy@?$_Tree@V?$_Tmap_traits@VName@Imf@@PAVAttribute@2@U?$less@VName@Imf@@@std@@V?$allocator@U?$pair@$$CBVName@Imf@@PAVAttribute@2@@std@@@5@$0A@@std@@@std@@IAEXXZ
	??0?$Vec3@H@Imath@@QAE@XZ
	??1?$_Tree_val@V?$_Tmap_traits@PBDP6APAVAttribute@Imf@@XZUNameCompare@?A0x0779e1ad@2@V?$allocator@U?$pair@QBDP6APAVAttribute@Imf@@XZ@std@@@std@@$0A@@std@@@std@@QAE@XZ
	?value@?$TypedAttribute@W4Compression@Imf@@@Imf@@QAEAAW4Compression@2@XZ
	??M?$_Vector_const_iterator@V?$_Vector_val@UOutSliceInfo@?A0xf57f9ec6@Imf@@V?$allocator@UOutSliceInfo@?A0xf57f9ec6@Imf@@@std@@@std@@@std@@QBE_NABV01@@Z
	??D?$_Tree_unchecked_const_iterator@V?$_Tree_val@V?$_Tmap_traits@PBDP6APAVAttribute@Imf@@XZUNameCompare@?A0x0779e1ad@2@V?$allocator@U?$pair@QBDP6APAVAttribute@Imf@@XZ@std@@@std@@$0A@@std@@@std@@U_Iterator_base12@2@@std@@QBEABU?$pair@QBDP6APAVAttribute@Imf@@XZ@1@XZ
	?length@?$Vec3@M@Imath@@QBEMXZ
	?square@?A0x06844fa0@Imf@@YANN@Z
	??A?$Matrix33@N@Imath@@QAEPANH@Z
	?_Chassign@?$basic_string@DU?$char_traits@D@std@@V?$allocator@D@2@@std@@QAEXIID@Z
	?_Init@?$basic_filebuf@DU?$char_traits@D@std@@@std@@IAEXPAU_iobuf@@W4_Initfl@12@@Z
	?value@?$TypedAttribute@V?$Box@V?$Vec2@H@Imath@@@Imath@@@Imf@@QAEAAV?$Box@V?$Vec2@H@Imath@@@Imath@@XZ
	?capacity@?$vector@UTOutSliceInfo@?A0x39e5c904@Imf@@V?$allocator@UTOutSliceInfo@?A0x39e5c904@Imf@@@std@@@std@@QBEIXZ
	?deallocate@?$allocator@UOutSliceInfo@?A0xf57f9ec6@Imf@@@std@@QAEXPAUOutSliceInfo@?A0xf57f9ec6@Imf@@I@Z
	??$_Move@PAV?$basic_string@DU?$char_traits@D@std@@V?$allocator@D@2@@std@@PAV12@@std@@YAPAV?$basic_string@DU?$char_traits@D@std@@V?$allocator@D@2@@0@PAV10@00@Z
	??C?$_Tree_iterator@V?$_Tree_val@V?$_Tmap_traits@VName@Imf@@PAVAttribute@2@U?$less@VName@Imf@@@std@@V?$allocator@U?$pair@$$CBVName@Imf@@PAVAttribute@2@@std@@@5@$0A@@std@@@std@@@std@@QBEPAU?$pair@$$CBVName@Imf@@PAVAttribute@2@@1@XZ
	?binaryGroup@TimeCode@Imf@@QBEHH@Z
	??RroundNBit@Imf@@QAE?AVhalf@@V2@@Z
	?reserve@?$vector@_KV?$allocator@_K@std@@@std@@QAEXI@Z
	?xDensityAttribute@Imf@@YAAAV?$TypedAttribute@M@1@AAVHeader@1@@Z
	?get_allocator@?$vector@V?$basic_string@DU?$char_traits@D@std@@V?$allocator@D@2@@std@@V?$allocator@V?$basic_string@DU?$char_traits@D@std@@V?$allocator@D@2@@std@@@2@@std@@QBE?AV?$allocator@V?$basic_string@DU?$char_traits@D@std@@V?$allocator@D@2@@std@@@2@XZ
	??$_Uninit_move@PAUTInSliceInfo@?A0xf6fcebb6@Imf@@PAU123@V?$allocator@UTInSliceInfo@?A0xf6fcebb6@Imf@@@std@@U123@@std@@YAPAUTInSliceInfo@?A0xf6fcebb6@Imf@@PAU123@00AAV?$allocator@UTInSliceInfo@?A0xf6fcebb6@Imf@@@0@0U_Nonscalar_ptr_iterator_tag@0@@Z
	??0?$basic_string@DU?$char_traits@D@std@@V?$allocator@D@2@@std@@QAE@ABV01@@Z
	??0TileBufferTask@?A0x39e5c904@Imf@@QAE@PAVTaskGroup@IlmThread@@PAUData@TiledOutputFile@2@HHHHH@Z
	?deallocate@?$allocator@UTOutSliceInfo@?A0x39e5c904@Imf@@@std@@QAEXPAUTOutSliceInfo@?A0x39e5c904@Imf@@I@Z
	?lower_bound@?$_Tree@V?$_Tmap_traits@VName@Imf@@UChannel@2@U?$less@VName@Imf@@@std@@V?$allocator@U?$pair@$$CBVName@Imf@@UChannel@2@@std@@@5@$0A@@std@@@std@@QBE?AV?$_Tree_const_iterator@V?$_Tree_val@V?$_Tmap_traits@VName@Imf@@UChannel@2@U?$less@VName@Imf@@@std@@V?$allocator@U?$pair@$$CBVName@Imf@@UChannel@2@@std@@@5@$0A@@std@@@std@@@2@ABVName@Imf@@@Z
	?readValueFrom@?$TypedAttribute@VTimeCode@Imf@@@Imf@@UAEXAAVIStream@2@HH@Z
	??$forward@AAV?$vector@V?$vector@_KV?$allocator@_K@std@@@std@@V?$allocator@V?$vector@_KV?$allocator@_K@std@@@std@@@2@@std@@@std@@YAAAV?$vector@V?$vector@_KV?$allocator@_K@std@@@std@@V?$allocator@V?$vector@_KV?$allocator@_K@std@@@std@@@2@@0@AAV10@@Z
	??$uiMult@I@Imf@@YAIII@Z
	??8?$_Vector_const_iterator@V?$_Vector_val@V?$vector@V?$vector@_KV?$allocator@_K@std@@@std@@V?$allocator@V?$vector@_KV?$allocator@_K@std@@@std@@@2@@std@@V?$allocator@V?$vector@V?$vector@_KV?$allocator@_K@std@@@std@@V?$allocator@V?$vector@_KV?$allocator@_K@std@@@std@@@2@@std@@@2@@std@@@std@@QBE_NABV01@@Z
	??$_Dest_val@V?$allocator@U_Container_proxy@std@@@std@@U_Container_proxy@2@@std@@YAXAAV?$allocator@U_Container_proxy@std@@@0@PAU_Container_proxy@0@@Z
	??$_Destroy@UTInSliceInfo@?A0xf6fcebb6@Imf@@@std@@YAXPAUTInSliceInfo@?A0xf6fcebb6@Imf@@@Z
	??0?$TypedAttribute@W4LineOrder@Imf@@@Imf@@QAE@XZ
	?findSlice@FrameBuffer@Imf@@QAEPAUSlice@2@QBD@Z
	?readValueFrom@?$TypedAttribute@H@Imf@@UAEXAAVIStream@2@HH@Z
	?_Grow_to@?$vector@UTInSliceInfo@?A0xf6fcebb6@Imf@@V?$allocator@UTInSliceInfo@?A0xf6fcebb6@Imf@@@std@@@std@@IBEII@Z
	?lineOrder@RgbaInputFile@Imf@@QBE?AW4LineOrder@2@XZ
	??$_Buynode@U?$pair@QBDP6APAVAttribute@Imf@@XZ@std@@@?$_Tree_val@V?$_Tmap_traits@PBDP6APAVAttribute@Imf@@XZUNameCompare@?A0x0779e1ad@2@V?$allocator@U?$pair@QBDP6APAVAttribute@Imf@@XZ@std@@@std@@$0A@@std@@@std@@QAEPAU_Node@?$_Tree_nod@V?$_Tmap_traits@PBDP6APAVAttribute@Imf@@XZUNameCompare@?A0x0779e1ad@2@V?$allocator@U?$pair@QBDP6APAVAttribute@Imf@@XZ@std@@@std@@$0A@@std@@@1@$$QAU?$pair@QBDP6APAVAttribute@Imf@@XZ@1@@Z
	?_Unlock@?$basic_filebuf@DU?$char_traits@D@std@@@std@@UAEXXZ
	?setGlobalThreadCount@Imf@@YAXH@Z
	ImfHeaderStringAttribute
	?sin@@YAMM@Z
	?_Buy@?$vector@UTOutSliceInfo@?A0x39e5c904@Imf@@V?$allocator@UTOutSliceInfo@?A0x39e5c904@Imf@@@std@@@std@@IAE_NI@Z
	??0?$allocator@UOutSliceInfo@?A0xf57f9ec6@Imf@@@std@@QAE@XZ
	??$_Debug_lt@MM@std@@YA_NABM0PB_WI@Z
	??$_Kfn@$$CBVName@Imf@@USlice@2@@?$_Tmap_traits@VName@Imf@@USlice@2@U?$less@VName@Imf@@@std@@V?$allocator@U?$pair@$$CBVName@Imf@@USlice@2@@std@@@5@$0A@@std@@SAABVName@Imf@@ABU?$pair@$$CBVName@Imf@@USlice@2@@1@@Z
	?maxImageWidth@?A0x1f5ff9f2@Imf@@3HA
	?_Inside@?$vector@UOutSliceInfo@?A0xf57f9ec6@Imf@@V?$allocator@UOutSliceInfo@?A0xf57f9ec6@Imf@@@std@@@std@@IBE_NPBUOutSliceInfo@?A0xf57f9ec6@Imf@@@Z
	?_Psave@?$_Facetptr@V?$codecvt@DDH@std@@@std@@2PBVfacet@locale@2@B
	?bufferedTileWrite@?A0x39e5c904@Imf@@YAXPAUData@TiledOutputFile@2@HHHHQBDH@Z
	?unpack14@?A0xb36f0740@Imf@@YAXQBEQAG@Z
	?_Buynode@?$_Tree_val@V?$_Tmap_traits@UTileCoord@?A0x39e5c904@Imf@@PAUBufferedTile@23@U?$less@UTileCoord@?A0x39e5c904@Imf@@@std@@V?$allocator@U?$pair@$$CBUTileCoord@?A0x39e5c904@Imf@@PAUBufferedTile@23@@std@@@6@$0A@@std@@@std@@QAEPAU_Node@?$_Tree_nod@V?$_Tmap_traits@UTileCoord@?A0x39e5c904@Imf@@PAUBufferedTile@23@U?$less@UTileCoord@?A0x39e5c904@Imf@@@std@@V?$allocator@U?$pair@$$CBUTileCoord@?A0x39e5c904@Imf@@PAUBufferedTile@23@@std@@@6@$0A@@std@@@2@XZ
	?allocate@?$allocator@U_Node@?$_Tree_nod@V?$_Tmap_traits@VName@Imf@@UChannel@2@U?$less@VName@Imf@@@std@@V?$allocator@U?$pair@$$CBVName@Imf@@UChannel@2@@std@@@5@$0A@@std@@@std@@@std@@QAEPAU_Node@?$_Tree_nod@V?$_Tmap_traits@VName@Imf@@UChannel@2@U?$less@VName@Imf@@@std@@V?$allocator@U?$pair@$$CBVName@Imf@@UChannel@2@@std@@@5@$0A@@std@@@2@I@Z
	?copyValueFrom@?$TypedAttribute@VKeyCode@Imf@@@Imf@@UAEXABVAttribute@2@@Z
	??A?$Matrix44@N@Imath@@QAEPANH@Z
	??$_Ptr_cat@PAULineBuffer@?A0xf57f9ec6@Imf@@PAU123@@std@@YA?AU_Scalar_ptr_iterator_tag@0@PAPAULineBuffer@?A0xf57f9ec6@Imf@@0@Z
	??1?$TypedAttribute@VPreviewImage@Imf@@@Imf@@UAE@XZ
	?readValueFrom@?$TypedAttribute@W4Envmap@Imf@@@Imf@@UAEXAAVIStream@2@HH@Z
	?uncompress@PizCompressor@Imf@@UAEHPBDHHAAPBD@Z
	?reserve@?$vector@UTOutSliceInfo@?A0x39e5c904@Imf@@V?$allocator@UTOutSliceInfo@?A0x39e5c904@Imf@@@std@@@std@@QAEXI@Z
	??1InputExc@Iex@@UAE@XZ
	?_Rrotate@?$_Tree@V?$_Tmap_traits@VName@Imf@@USlice@2@U?$less@VName@Imf@@@std@@V?$allocator@U?$pair@$$CBVName@Imf@@USlice@2@@std@@@5@$0A@@std@@@std@@IAEXPAU_Node@?$_Tree_nod@V?$_Tmap_traits@VName@Imf@@USlice@2@U?$less@VName@Imf@@@std@@V?$allocator@U?$pair@$$CBVName@Imf@@USlice@2@@std@@@5@$0A@@std@@@2@@Z
	??0?$Vec3@M@Imath@@QAE@ABV01@@Z
	?isFinite@?A0xd34937d7@Imf@@YA_NM@Z
	?hasWrapmodes@Imf@@YA_NABVHeader@1@@Z
	??$_Cons_val@V?$allocator@U?$pair@$$CBVName@Imf@@UChannel@2@@std@@@std@@U?$pair@$$CBVName@Imf@@UChannel@2@@2@AAU32@@std@@YAXAAV?$allocator@U?$pair@$$CBVName@Imf@@UChannel@2@@std@@@0@PAU?$pair@$$CBVName@Imf@@UChannel@2@@0@AAU20@@Z
	??1?$TypedAttribute@UChromaticities@Imf@@@Imf@@UAE@XZ
	?readValueFrom@?$TypedAttribute@VPreviewImage@Imf@@@Imf@@UAEXAAVIStream@2@HH@Z
	??$_Val_type@PAV?$basic_string@DU?$char_traits@D@std@@V?$allocator@D@2@@std@@@std@@YAPAV?$basic_string@DU?$char_traits@D@std@@V?$allocator@D@2@@0@PAV10@@Z
	?writeValueTo@?$TypedAttribute@V?$Matrix44@M@Imath@@@Imf@@UBEXAAVOStream@2@H@Z
	?end@?$vector@IV?$allocator@I@std@@@std@@QAE?AV?$_Vector_iterator@V?$_Vector_val@IV?$allocator@I@std@@@std@@@2@XZ
	?typeName@?$TypedAttribute@W4Envmap@Imf@@@Imf@@UBEPBDXZ
	??1?$_Vector_const_iterator@V?$_Vector_val@V?$vector@V?$vector@_KV?$allocator@_K@std@@@std@@V?$allocator@V?$vector@_KV?$allocator@_K@std@@@std@@@2@@std@@V?$allocator@V?$vector@V?$vector@_KV?$allocator@_K@std@@@std@@V?$allocator@V?$vector@_KV?$allocator@_K@std@@@std@@@2@@std@@@2@@std@@@std@@QAE@XZ
	??$construct@AAV?$basic_string@DU?$char_traits@D@std@@V?$allocator@D@2@@std@@@?$allocator@V?$basic_string@DU?$char_traits@D@std@@V?$allocator@D@2@@std@@@std@@QAEXPAV?$basic_string@DU?$char_traits@D@std@@V?$allocator@D@2@@1@AAV21@@Z
	??0?$Matrix44@N@Imath@@QAE@XZ
	?end@FrameBuffer@Imf@@QAE?AVIterator@12@XZ
	??$_Pop_heap_0@PAPA_KPA_KUFHeapCompare@?A0xc87c6bb7@Imf@@@std@@YAXPAPA_K0UFHeapCompare@?A0xc87c6bb7@Imf@@0@Z
	??$_Destroy_range@V?$allocator@PAUTileBuffer@?A0xf6fcebb6@Imf@@@std@@@std@@YAXPAPAUTileBuffer@?A0xf6fcebb6@Imf@@0AAV?$allocator@PAUTileBuffer@?A0xf6fcebb6@Imf@@@0@U_Scalar_ptr_iterator_tag@0@@Z
	?isOpenExrFile@Imf@@YA_NQBD@Z
	??1?$vector@PAULineBuffer@?A0xf57f9ec6@Imf@@V?$allocator@PAULineBuffer@?A0xf57f9ec6@Imf@@@std@@@std@@QAE@XZ
	??H?$_Vector_iterator@V?$_Vector_val@_KV?$allocator@_K@std@@@std@@@std@@QBE?AV01@H@Z
	??$_Uninit_copy@V?$_Vector_const_iterator@V?$_Vector_val@V?$basic_string@DU?$char_traits@D@std@@V?$allocator@D@2@@std@@V?$allocator@V?$basic_string@DU?$char_traits@D@std@@V?$allocator@D@2@@std@@@2@@std@@@std@@PAV?$basic_string@DU?$char_traits@D@std@@V?$allocator@D@2@@2@V?$allocator@V?$basic_string@DU?$char_traits@D@std@@V?$allocator@D@2@@std@@@2@@std@@YAPAV?$basic_string@DU?$char_traits@D@std@@V?$allocator@D@2@@0@V?$_Vector_const_iterator@V?$_Vector_val@V?$basic_string@DU?$char_traits@D@std@@V?$allocator@D@2@@std@@V?$allocator@V?$basic_string@DU?$char_traits@D@std@@V?$allocator@D@2@@std@@@2@@std@@@0@0PAV10@AAV?$allocator@V?$basic_string@DU?$char_traits@D@std@@V?$allocator@D@2@@std@@@0@U_Nonscalar_ptr_iterator_tag@0@@Z
	?_Assign_rv@?$vector@V?$basic_string@DU?$char_traits@D@std@@V?$allocator@D@2@@std@@V?$allocator@V?$basic_string@DU?$char_traits@D@std@@V?$allocator@D@2@@std@@@2@@std@@QAEX$$QAV12@@Z
	?write@StdOSStream@Imf@@UAEXQBDH@Z
	?readValueFrom@?$TypedAttribute@V?$Vec3@N@Imath@@@Imf@@UAEXAAVIStream@2@HH@Z
	?writeValueTo@?$TypedAttribute@V?$basic_string@DU?$char_traits@D@std@@V?$allocator@D@2@@std@@@Imf@@UBEXAAVOStream@2@H@Z
	??$_Uninitialized_copy@PAV?$vector@V?$vector@_KV?$allocator@_K@std@@@std@@V?$allocator@V?$vector@_KV?$allocator@_K@std@@@std@@@2@@std@@PAV12@V?$allocator@V?$vector@V?$vector@_KV?$allocator@_K@std@@@std@@V?$allocator@V?$vector@_KV?$allocator@_K@std@@@std@@@2@@std@@@2@@std@@YAPAV?$vector@V?$vector@_KV?$allocator@_K@std@@@std@@V?$allocator@V?$vector@_KV?$allocator@_K@std@@@std@@@2@@0@PAV10@00AAV?$allocator@V?$vector@V?$vector@_KV?$allocator@_K@std@@@std@@V?$allocator@V?$vector@_KV?$allocator@_K@std@@@std@@@2@@std@@@0@@Z
	??0?$_Tree_iterator@V?$_Tree_val@V?$_Tmap_traits@VName@Imf@@UChannel@2@U?$less@VName@Imf@@@std@@V?$allocator@U?$pair@$$CBVName@Imf@@UChannel@2@@std@@@5@$0A@@std@@@std@@@std@@QAE@PAU_Node@?$_Tree_nod@V?$_Tmap_traits@VName@Imf@@UChannel@2@U?$less@VName@Imf@@@std@@V?$allocator@U?$pair@$$CBVName@Imf@@UChannel@2@@std@@@5@$0A@@std@@@1@PBV?$_Tree_val@V?$_Tmap_traits@VName@Imf@@UChannel@2@U?$less@VName@Imf@@@std@@V?$allocator@U?$pair@$$CBVName@Imf@@UChannel@2@@std@@@5@$0A@@std@@@1@@Z
	??$?0PAUTileBuffer@?A0xf6fcebb6@Imf@@@?$allocator@U_Container_proxy@std@@@std@@QAE@ABV?$allocator@PAUTileBuffer@?A0xf6fcebb6@Imf@@@1@@Z
	??0?$_Tree_unchecked_const_iterator@V?$_Tree_val@V?$_Tmap_traits@VName@Imf@@PAVAttribute@2@U?$less@VName@Imf@@@std@@V?$allocator@U?$pair@$$CBVName@Imf@@PAVAttribute@2@@std@@@5@$0A@@std@@@std@@U_Iterator_base12@2@@std@@QAE@PAU_Node@?$_Tree_nod@V?$_Tmap_traits@VName@Imf@@PAVAttribute@2@U?$less@VName@Imf@@@std@@V?$allocator@U?$pair@$$CBVName@Imf@@PAVAttribute@2@@std@@@5@$0A@@std@@@1@PBV?$_Tree_val@V?$_Tmap_traits@VName@Imf@@PAVAttribute@2@U?$less@VName@Imf@@@std@@V?$allocator@U?$pair@$$CBVName@Imf@@PAVAttribute@2@@std@@@5@$0A@@std@@@1@@Z
	??$_Move@PAV?$vector@_KV?$allocator@_K@std@@@std@@PAV12@@std@@YAPAV?$vector@_KV?$allocator@_K@std@@@0@PAV10@00U_Nonscalar_ptr_iterator_tag@0@@Z
	??$forward@AAV?$vector@_KV?$allocator@_K@std@@@std@@@std@@YAAAV?$vector@_KV?$allocator@_K@std@@@0@AAV10@@Z
	?find@FrameBuffer@Imf@@QAE?AVIterator@12@QBD@Z
	?floatToUint@Imf@@YAIM@Z
	??$addressof@U?$pair@$$CBUTileCoord@?A0x39e5c904@Imf@@PAUBufferedTile@23@@std@@@std@@YAPAU?$pair@$$CBUTileCoord@?A0x39e5c904@Imf@@PAUBufferedTile@23@@0@AAU10@@Z
	??$move@AAV?$vector@_KV?$allocator@_K@std@@@std@@@std@@YA$$QAV?$vector@_KV?$allocator@_K@std@@@0@AAV10@@Z
	?tileYSize@TiledInputFile@Imf@@QBEIXZ
	??0?$allocator@PAUTileBuffer@?A0xf6fcebb6@Imf@@@std@@QAE@XZ
	??1TileBufferTask@?A0xf6fcebb6@Imf@@UAE@XZ
	?_Insert@?$_Tree@V?$_Tmap_traits@UTileCoord@?A0x39e5c904@Imf@@PAUBufferedTile@23@U?$less@UTileCoord@?A0x39e5c904@Imf@@@std@@V?$allocator@U?$pair@$$CBUTileCoord@?A0x39e5c904@Imf@@PAUBufferedTile@23@@std@@@6@$0A@@std@@@std@@IAE?AV?$_Tree_iterator@V?$_Tree_val@V?$_Tmap_traits@UTileCoord@?A0x39e5c904@Imf@@PAUBufferedTile@23@U?$less@UTileCoord@?A0x39e5c904@Imf@@@std@@V?$allocator@U?$pair@$$CBUTileCoord@?A0x39e5c904@Imf@@PAUBufferedTile@23@@std@@@6@$0A@@std@@@std@@@2@_NPAU_Node@?$_Tree_nod@V?$_Tmap_traits@UTileCoord@?A0x39e5c904@Imf@@PAUBufferedTile@23@U?$less@UTileCoord@?A0x39e5c904@Imf@@@std@@V?$allocator@U?$pair@$$CBUTileCoord@?A0x39e5c904@Imf@@PAUBufferedTile@23@@std@@@6@$0A@@std@@@2@1@Z
	?staticTypeName@?$TypedAttribute@UChromaticities@Imf@@@Imf@@SAPBDXZ
	??4?$_Tree@V?$_Tmap_traits@VName@Imf@@UChannel@2@U?$less@VName@Imf@@@std@@V?$allocator@U?$pair@$$CBVName@Imf@@UChannel@2@@std@@@5@$0A@@std@@@std@@QAEAAV01@ABV01@@Z
	?end@?$vector@V?$basic_string@DU?$char_traits@D@std@@V?$allocator@D@2@@std@@V?$allocator@V?$basic_string@DU?$char_traits@D@std@@V?$allocator@D@2@@std@@@2@@std@@QAE?AV?$_Vector_iterator@V?$_Vector_val@V?$basic_string@DU?$char_traits@D@std@@V?$allocator@D@2@@std@@V?$allocator@V?$basic_string@DU?$char_traits@D@std@@V?$allocator@D@2@@std@@@2@@std@@@2@XZ
	??$typedAttribute@V?$TypedAttribute@N@Imf@@@Header@Imf@@QAEAAV?$TypedAttribute@N@1@QBD@Z
	ImfHeaderSetV2fAttribute
	?isoSpeedAttribute@Imf@@YAAAV?$TypedAttribute@M@1@AAVHeader@1@@Z
	??$_Cons_val@V?$allocator@UInSliceInfo@?A0xcbf8ace6@Imf@@@std@@UInSliceInfo@?A0xcbf8ace6@Imf@@AAU345@@std@@YAXAAV?$allocator@UInSliceInfo@?A0xcbf8ace6@Imf@@@0@PAUInSliceInfo@?A0xcbf8ace6@Imf@@AAU234@@Z
	??$_Debug_heap@PAPA_KUFHeapCompare@?A0xc87c6bb7@Imf@@@std@@YAXPAPA_K0UFHeapCompare@?A0xc87c6bb7@Imf@@@Z
	??$_Iter_cat@PA_K@std@@YA?AUrandom_access_iterator_tag@0@ABQA_K@Z
	?staticTypeName@?$TypedAttribute@V?$Box@V?$Vec2@H@Imath@@@Imath@@@Imf@@SAPBDXZ
	?_Reserve@?$vector@PAULineBuffer@?A0xcbf8ace6@Imf@@V?$allocator@PAULineBuffer@?A0xcbf8ace6@Imf@@@std@@@std@@IAEXI@Z
	??$_Destroy_range@V?$allocator@UTInSliceInfo@?A0xf6fcebb6@Imf@@@std@@@std@@YAXPAUTInSliceInfo@?A0xf6fcebb6@Imf@@0AAV?$allocator@UTInSliceInfo@?A0xf6fcebb6@Imf@@@0@U_Nonscalar_ptr_iterator_tag@0@@Z
	?capacity@?$vector@V?$vector@_KV?$allocator@_K@std@@@std@@V?$allocator@V?$vector@_KV?$allocator@_K@std@@@std@@@2@@std@@QBEIXZ
	??0?$Vec2@M@Imath@@QAE@ABV01@@Z
	??$_Val_type@PAPAULineBuffer@?A0xcbf8ace6@Imf@@@std@@YAPAPAULineBuffer@?A0xcbf8ace6@Imf@@PAPAU123@@Z
	??A?$vector@_KV?$allocator@_K@std@@@std@@QBEAB_KI@Z
	??$_Copy_impl@PAUTOutSliceInfo@?A0x39e5c904@Imf@@PAU123@@std@@YAPAUTOutSliceInfo@?A0x39e5c904@Imf@@PAU123@00@Z
	ImfTiledInputFileName
	?_Lbound@?$_Tree@V?$_Tmap_traits@PBDP6APAVAttribute@Imf@@XZUNameCompare@?A0x0779e1ad@2@V?$allocator@U?$pair@QBDP6APAVAttribute@Imf@@XZ@std@@@std@@$0A@@std@@@std@@IAEPAU_Node@?$_Tree_nod@V?$_Tmap_traits@PBDP6APAVAttribute@Imf@@XZUNameCompare@?A0x0779e1ad@2@V?$allocator@U?$pair@QBDP6APAVAttribute@Imf@@XZ@std@@@std@@$0A@@std@@@2@ABQBD@Z
	?allocate@?$allocator@U_Container_proxy@std@@@std@@QAEPAU_Container_proxy@2@I@Z
	??$read@UCharPtrIO@Imf@@PBD@Xdr@Imf@@YAXAAPBDAAVhalf@@@Z
	??0?$_Iterator012@Urandom_access_iterator_tag@std@@UTOutSliceInfo@?A0x39e5c904@Imf@@HPBU345@ABU345@U_Iterator_base12@2@@std@@QAE@ABU01@@Z
	??A?$vector@V?$vector@V?$vector@_KV?$allocator@_K@std@@@std@@V?$allocator@V?$vector@_KV?$allocator@_K@std@@@std@@@2@@std@@V?$allocator@V?$vector@V?$vector@_KV?$allocator@_K@std@@@std@@V?$allocator@V?$vector@_KV?$allocator@_K@std@@@std@@@2@@std@@@2@@std@@QAEAAV?$vector@V?$vector@_KV?$allocator@_K@std@@@std@@V?$allocator@V?$vector@_KV?$allocator@_K@std@@@std@@@2@@1@I@Z
	??0ErrnoExc@Iex@@QAE@ABV01@@Z
	??0?$_Tree_const_iterator@V?$_Tree_val@V?$_Tmap_traits@VName@Imf@@PAVAttribute@2@U?$less@VName@Imf@@@std@@V?$allocator@U?$pair@$$CBVName@Imf@@PAVAttribute@2@@std@@@5@$0A@@std@@@std@@@std@@QAE@XZ
	?setFrameBuffer@FromYa@TiledRgbaInputFile@Imf@@QAEXPAURgba@3@IIABV?$basic_string@DU?$char_traits@D@std@@V?$allocator@D@2@@std@@@Z
	??0?$_Iterator012@Ubidirectional_iterator_tag@std@@V?$basic_string@DU?$char_traits@D@std@@V?$allocator@D@2@@2@HPBV32@ABV32@U_Iterator_base12@2@@std@@QAE@ABU01@@Z
	?adoptedNeutral@Imf@@YAABV?$Vec2@M@Imath@@ABVHeader@1@@Z
	??$_Destroy@V?$vector@V?$vector@_KV?$allocator@_K@std@@@std@@V?$allocator@V?$vector@_KV?$allocator@_K@std@@@std@@@2@@std@@@std@@YAXPAV?$vector@V?$vector@_KV?$allocator@_K@std@@@std@@V?$allocator@V?$vector@_KV?$allocator@_K@std@@@std@@@2@@0@@Z
	??9?$_Vector_const_iterator@V?$_Vector_val@UOutSliceInfo@?A0xf57f9ec6@Imf@@V?$allocator@UOutSliceInfo@?A0xf57f9ec6@Imf@@@std@@@std@@@std@@QBE_NABV01@@Z
	?begin@?$_Tree@V?$_Tset_traits@V?$basic_string@DU?$char_traits@D@std@@V?$allocator@D@2@@std@@U?$less@V?$basic_string@DU?$char_traits@D@std@@V?$allocator@D@2@@std@@@2@V?$allocator@V?$basic_string@DU?$char_traits@D@std@@V?$allocator@D@2@@std@@@2@$0A@@std@@@std@@QAE?AV?$_Tree_const_iterator@V?$_Tree_val@V?$_Tset_traits@V?$basic_string@DU?$char_traits@D@std@@V?$allocator@D@2@@std@@U?$less@V?$basic_string@DU?$char_traits@D@std@@V?$allocator@D@2@@std@@@2@V?$allocator@V?$basic_string@DU?$char_traits@D@std@@V?$allocator@D@2@@std@@@2@$0A@@std@@@std@@@2@XZ
	?construct@?$allocator@U?$pair@$$CBVName@Imf@@PAVAttribute@2@@std@@@std@@QAEXPAU?$pair@$$CBVName@Imf@@PAVAttribute@2@@2@$$QAU32@@Z
	?_Destroy@?$vector@UInSliceInfo@?A0xcbf8ace6@Imf@@V?$allocator@UInSliceInfo@?A0xcbf8ace6@Imf@@@std@@@std@@IAEXPAUInSliceInfo@?A0xcbf8ace6@Imf@@0@Z
	??0Rgba@Imf@@QAE@XZ
	??4?$_Iterator012@Ubidirectional_iterator_tag@std@@U?$pair@$$CBVName@Imf@@UChannel@2@@2@HPBU32@ABU32@U_Iterator_base12@2@@std@@QAEAAU01@ABU01@@Z
	?value@?$TypedAttribute@VChannelList@Imf@@@Imf@@QBEABVChannelList@2@XZ
	?hasRenderingTransform@Imf@@YA_NABVHeader@1@@Z
	??1ErrnoExc@Iex@@UAE@XZ
	??F?$_Tree_const_iterator@V?$_Tree_val@V?$_Tmap_traits@VName@Imf@@PAVAttribute@2@U?$less@VName@Imf@@@std@@V?$allocator@U?$pair@$$CBVName@Imf@@PAVAttribute@2@@std@@@5@$0A@@std@@@std@@@std@@QAEAAV01@XZ
	??$read@UCharPtrIO@Imf@@PBD@Xdr@Imf@@YAXAAPBDAAI@Z
	?uncompress@ZipCompressor@Imf@@UAEHPBDHHAAPBD@Z
	??0?$TypedAttribute@M@Imf@@QAE@ABM@Z
	ImfCloseTiledInputFile
	?begin@?$_Tree@V?$_Tmap_traits@VName@Imf@@USlice@2@U?$less@VName@Imf@@@std@@V?$allocator@U?$pair@$$CBVName@Imf@@USlice@2@@std@@@5@$0A@@std@@@std@@QAE?AV?$_Tree_iterator@V?$_Tree_val@V?$_Tmap_traits@VName@Imf@@USlice@2@U?$less@VName@Imf@@@std@@V?$allocator@U?$pair@$$CBVName@Imf@@USlice@2@@std@@@5@$0A@@std@@@std@@@2@XZ
	?_Erase@?$_Tree@V?$_Tmap_traits@VName@Imf@@UChannel@2@U?$less@VName@Imf@@@std@@V?$allocator@U?$pair@$$CBVName@Imf@@UChannel@2@@std@@@5@$0A@@std@@@std@@IAEXPAU_Node@?$_Tree_nod@V?$_Tmap_traits@VName@Imf@@UChannel@2@U?$less@VName@Imf@@@std@@V?$allocator@U?$pair@$$CBVName@Imf@@UChannel@2@@std@@@5@$0A@@std@@@2@@Z
	?destroy@?$allocator@V?$vector@_KV?$allocator@_K@std@@@std@@@std@@QAEXPAV?$vector@_KV?$allocator@_K@std@@@2@@Z
	??$_Destroy_range@V?$allocator@V?$basic_string@DU?$char_traits@D@std@@V?$allocator@D@2@@std@@@std@@@std@@YAXPAV?$basic_string@DU?$char_traits@D@std@@V?$allocator@D@2@@0@0AAV?$allocator@V?$basic_string@DU?$char_traits@D@std@@V?$allocator@D@2@@std@@@0@@Z
	??4Rgba@Imf@@QAEAAU01@ABU01@@Z
	??$_Uninitialized_default_fill_n@PAV?$vector@V?$vector@_KV?$allocator@_K@std@@@std@@V?$allocator@V?$vector@_KV?$allocator@_K@std@@@std@@@2@@std@@IV12@V?$allocator@V?$vector@V?$vector@_KV?$allocator@_K@std@@@std@@V?$allocator@V?$vector@_KV?$allocator@_K@std@@@std@@@2@@std@@@2@@std@@YAXPAV?$vector@V?$vector@_KV?$allocator@_K@std@@@std@@V?$allocator@V?$vector@_KV?$allocator@_K@std@@@std@@@2@@0@IPBV10@AAV?$allocator@V?$vector@V?$vector@_KV?$allocator@_K@std@@@std@@V?$allocator@V?$vector@_KV?$allocator@_K@std@@@std@@@2@@std@@@0@@Z
	??$forward@AAV?$_Tree_iterator@V?$_Tree_val@V?$_Tmap_traits@PBDP6APAVAttribute@Imf@@XZUNameCompare@?A0x0779e1ad@2@V?$allocator@U?$pair@QBDP6APAVAttribute@Imf@@XZ@std@@@std@@$0A@@std@@@std@@@std@@@std@@YAAAV?$_Tree_iterator@V?$_Tree_val@V?$_Tmap_traits@PBDP6APAVAttribute@Imf@@XZUNameCompare@?A0x0779e1ad@2@V?$allocator@U?$pair@QBDP6APAVAttribute@Imf@@XZ@std@@@std@@$0A@@std@@@std@@@0@AAV10@@Z
	??$_Destroy@U_Container_proxy@std@@@std@@YAXPAU_Container_proxy@0@@Z
	?_Inside@?$vector@V?$vector@_KV?$allocator@_K@std@@@std@@V?$allocator@V?$vector@_KV?$allocator@_K@std@@@std@@@2@@std@@IBE_NPBV?$vector@_KV?$allocator@_K@std@@@2@@Z
	?append@?$basic_string@DU?$char_traits@D@std@@V?$allocator@D@2@@std@@QAEAAV12@PBD@Z
	??$_Buynode@U?$pair@$$CBUTileCoord@?A0x39e5c904@Imf@@PAUBufferedTile@23@@std@@@?$_Tree_val@V?$_Tmap_traits@UTileCoord@?A0x39e5c904@Imf@@PAUBufferedTile@23@U?$less@UTileCoord@?A0x39e5c904@Imf@@@std@@V?$allocator@U?$pair@$$CBUTileCoord@?A0x39e5c904@Imf@@PAUBufferedTile@23@@std@@@6@$0A@@std@@@std@@QAEPAU_Node@?$_Tree_nod@V?$_Tmap_traits@UTileCoord@?A0x39e5c904@Imf@@PAUBufferedTile@23@U?$less@UTileCoord@?A0x39e5c904@Imf@@@std@@V?$allocator@U?$pair@$$CBUTileCoord@?A0x39e5c904@Imf@@PAUBufferedTile@23@@std@@@6@$0A@@std@@@1@$$QAU?$pair@$$CBUTileCoord@?A0x39e5c904@Imf@@PAUBufferedTile@23@@1@@Z
	??0?$TypedAttribute@V?$Vec2@H@Imath@@@Imf@@QAE@ABV?$Vec2@H@Imath@@@Z
	?_Rank@?$_Arithmetic_traits@K@std@@2HB
	?_Rank@?$_Arithmetic_traits@_K@std@@2HB
	??$_Cons_val@V?$allocator@U_Container_proxy@std@@@std@@U_Container_proxy@2@U32@@std@@YAXAAV?$allocator@U_Container_proxy@std@@@0@PAU_Container_proxy@0@$$QAU20@@Z
	??$forward@AAUSlice@Imf@@@std@@YAAAUSlice@Imf@@AAU12@@Z
	??1?$_Tree@V?$_Tmap_traits@VName@Imf@@USlice@2@U?$less@VName@Imf@@@std@@V?$allocator@U?$pair@$$CBVName@Imf@@USlice@2@@std@@@5@$0A@@std@@@std@@QAE@XZ
	?isValidTile@TiledOutputFile@Imf@@ABE_NHHHH@Z
	?typeName@?$TypedAttribute@VRational@Imf@@@Imf@@UBEPBDXZ
	??0?$TypedAttribute@V?$Vec3@M@Imath@@@Imf@@QAE@ABV?$Vec3@M@Imath@@@Z
	?_Lrotate@?$_Tree@V?$_Tmap_traits@VName@Imf@@UChannel@2@U?$less@VName@Imf@@@std@@V?$allocator@U?$pair@$$CBVName@Imf@@UChannel@2@@std@@@5@$0A@@std@@@std@@IAEXPAU_Node@?$_Tree_nod@V?$_Tmap_traits@VName@Imf@@UChannel@2@U?$less@VName@Imf@@@std@@V?$allocator@U?$pair@$$CBVName@Imf@@UChannel@2@@std@@@5@$0A@@std@@@2@@Z
	?find@ChannelList@Imf@@QBE?AVConstIterator@12@QBD@Z
	??$read@UStreamIO@Imf@@VIStream@2@@Xdr@Imf@@YAXAAVIStream@1@QADH@Z
	??$?0$$CBVName@Imf@@UChannel@1@@?$pair@$$CBVName@Imf@@UChannel@2@@std@@QAE@$$QAU01@@Z
	?find@?$_Tree@V?$_Tmap_traits@VName@Imf@@PAVAttribute@2@U?$less@VName@Imf@@@std@@V?$allocator@U?$pair@$$CBVName@Imf@@PAVAttribute@2@@std@@@5@$0A@@std@@@std@@QAE?AV?$_Tree_iterator@V?$_Tree_val@V?$_Tmap_traits@VName@Imf@@PAVAttribute@2@U?$less@VName@Imf@@@std@@V?$allocator@U?$pair@$$CBVName@Imf@@PAVAttribute@2@@std@@@5@$0A@@std@@@std@@@2@ABVName@Imf@@@Z
	?readValueFrom@?$TypedAttribute@VKeyCode@Imf@@@Imf@@UAEXAAVIStream@2@HH@Z
	??1?$TypedAttribute@H@Imf@@UAE@XZ
	?_Tidy@?$vector@UTInSliceInfo@?A0xf6fcebb6@Imf@@V?$allocator@UTInSliceInfo@?A0xf6fcebb6@Imf@@@std@@@std@@IAEXXZ
	??E?$_Tree_unchecked_const_iterator@V?$_Tree_val@V?$_Tmap_traits@VName@Imf@@UChannel@2@U?$less@VName@Imf@@@std@@V?$allocator@U?$pair@$$CBVName@Imf@@UChannel@2@@std@@@5@$0A@@std@@@std@@U_Iterator_base12@2@@std@@QAEAAV01@XZ
	__TI6?AVArgExc@Iex@@
	?capDate@Imf@@YAABV?$basic_string@DU?$char_traits@D@std@@V?$allocator@D@2@@std@@ABVHeader@1@@Z
	??$typedAttribute@V?$TypedAttribute@H@Imf@@@Header@Imf@@QAEAAV?$TypedAttribute@H@1@QBD@Z
	?setFrameBuffer@RgbaInputFile@Imf@@QAEXPAURgba@2@II@Z
	??$forward@U?$pair@QBDP6APAVAttribute@Imf@@XZ@std@@@std@@YA$$QAU?$pair@QBDP6APAVAttribute@Imf@@XZ@0@AAU10@@Z
	?end@?$_Tree@V?$_Tmap_traits@VName@Imf@@USlice@2@U?$less@VName@Imf@@@std@@V?$allocator@U?$pair@$$CBVName@Imf@@USlice@2@@std@@@5@$0A@@std@@@std@@QBE?AV?$_Tree_const_iterator@V?$_Tree_val@V?$_Tmap_traits@VName@Imf@@USlice@2@U?$less@VName@Imf@@@std@@V?$allocator@U?$pair@$$CBVName@Imf@@USlice@2@@std@@@5@$0A@@std@@@std@@@2@XZ
	??0?$allocator@U?$pair@$$CBVName@Imf@@USlice@2@@std@@@std@@QAE@ABV01@@Z
	?_Buy@?$vector@UTInSliceInfo@?A0xf6fcebb6@Imf@@V?$allocator@UTInSliceInfo@?A0xf6fcebb6@Imf@@@std@@@std@@IAE_NI@Z
	?owner@Imf@@YAABV?$basic_string@DU?$char_traits@D@std@@V?$allocator@D@2@@std@@ABVHeader@1@@Z
	?altitude@Imf@@YAAAMAAVHeader@1@@Z
	ImfHeaderDataWindow
	?_Make_iter@?$vector@_KV?$allocator@_K@std@@@std@@QBE?AV?$_Vector_iterator@V?$_Vector_val@_KV?$allocator@_K@std@@@std@@@2@V?$_Vector_const_iterator@V?$_Vector_val@_KV?$allocator@_K@std@@@std@@@2@@Z
	?lineBufferMinY@Imf@@YAHHHH@Z
	?unexpectedEndOfTable@?A0xc87c6bb7@Imf@@YAXXZ
	?invalidNBits@?A0xc87c6bb7@Imf@@YAXXZ
	??8Imf@@YA_NABVConstIterator@Header@0@0@Z
	??0?$_Tree_const_iterator@V?$_Tree_val@V?$_Tmap_traits@VName@Imf@@PAVAttribute@2@U?$less@VName@Imf@@@std@@V?$allocator@U?$pair@$$CBVName@Imf@@PAVAttribute@2@@std@@@5@$0A@@std@@@std@@@std@@QAE@PAU_Node@?$_Tree_nod@V?$_Tmap_traits@VName@Imf@@PAVAttribute@2@U?$less@VName@Imf@@@std@@V?$allocator@U?$pair@$$CBVName@Imf@@PAVAttribute@2@@std@@@5@$0A@@std@@@1@PBV?$_Tree_val@V?$_Tmap_traits@VName@Imf@@PAVAttribute@2@U?$less@VName@Imf@@@std@@V?$allocator@U?$pair@$$CBVName@Imf@@PAVAttribute@2@@std@@@5@$0A@@std@@@1@@Z
	??$move@AAPAVAttribute@Imf@@@std@@YA$$QAPAVAttribute@Imf@@AAPAV12@@Z
	??0?$TypedAttribute@W4Compression@Imf@@@Imf@@QAE@XZ
	??$write@UStreamIO@Imf@@VOStream@2@@Xdr@Imf@@YAXAAVOStream@1@_N@Z
	?_Tidy@?$vector@PAUTileBuffer@?A0xf6fcebb6@Imf@@V?$allocator@PAUTileBuffer@?A0xf6fcebb6@Imf@@@std@@@std@@IAEXXZ
	?addExpTime@Imf@@YAXAAVHeader@1@ABM@Z
	?value@?$TypedAttribute@VTileDescription@Imf@@@Imf@@QBEABVTileDescription@2@XZ
	?value@?$TypedAttribute@W4LineOrder@Imf@@@Imf@@QAEAAW4LineOrder@2@XZ
	?readValueFrom@?$TypedAttribute@V?$Matrix33@N@Imath@@@Imf@@UAEXAAVIStream@2@HH@Z
	?size@?$_Tree@V?$_Tmap_traits@VName@Imf@@PAVAttribute@2@U?$less@VName@Imf@@@std@@V?$allocator@U?$pair@$$CBVName@Imf@@PAVAttribute@2@@std@@@5@$0A@@std@@@std@@QBEIXZ
	?_Make_iter@?$vector@UInSliceInfo@?A0xcbf8ace6@Imf@@V?$allocator@UInSliceInfo@?A0xcbf8ace6@Imf@@@std@@@std@@QBE?AV?$_Vector_iterator@V?$_Vector_val@UInSliceInfo@?A0xcbf8ace6@Imf@@V?$allocator@UInSliceInfo@?A0xcbf8ace6@Imf@@@std@@@std@@@2@V?$_Vector_const_iterator@V?$_Vector_val@UInSliceInfo@?A0xcbf8ace6@Imf@@V?$allocator@UInSliceInfo@?A0xcbf8ace6@Imf@@@std@@@std@@@2@@Z
	?_Insert@?$_Tree@V?$_Tmap_traits@VName@Imf@@USlice@2@U?$less@VName@Imf@@@std@@V?$allocator@U?$pair@$$CBVName@Imf@@USlice@2@@std@@@5@$0A@@std@@@std@@IAE?AV?$_Tree_iterator@V?$_Tree_val@V?$_Tmap_traits@VName@Imf@@USlice@2@U?$less@VName@Imf@@@std@@V?$allocator@U?$pair@$$CBVName@Imf@@USlice@2@@std@@@5@$0A@@std@@@std@@@2@_NPAU_Node@?$_Tree_nod@V?$_Tmap_traits@VName@Imf@@USlice@2@U?$less@VName@Imf@@@std@@V?$allocator@U?$pair@$$CBVName@Imf@@USlice@2@@std@@@5@$0A@@std@@@2@1@Z
	?chromaticities@Imf@@YAABUChromaticities@1@ABVHeader@1@@Z
	?_Compat@?$_Vector_const_iterator@V?$_Vector_val@_KV?$allocator@_K@std@@@std@@@std@@QBEXABV12@@Z
	??$_Uninitialized_move@PAPAUTileBuffer@?A0xf6fcebb6@Imf@@PAPAU123@V?$allocator@PAUTileBuffer@?A0xf6fcebb6@Imf@@@std@@@std@@YAPAPAUTileBuffer@?A0xf6fcebb6@Imf@@PAPAU123@00AAV?$allocator@PAUTileBuffer@?A0xf6fcebb6@Imf@@@0@@Z
	?levelMode@TiledRgbaOutputFile@Imf@@QBE?AW4LevelMode@2@XZ
	?envmapAttribute@Imf@@YAAAV?$TypedAttribute@W4Envmap@Imf@@@1@AAVHeader@1@@Z
	??$max@Vhalf@@@std@@YAABVhalf@@ABV1@0@Z
	??1?$_Iterator012@Urandom_access_iterator_tag@std@@PAULineBuffer@?A0xf57f9ec6@Imf@@HPBQAU345@ABQAU345@U_Iterator_base12@2@@std@@QAE@XZ
	??$read@UStreamIO@Imf@@VIStream@2@@Xdr@Imf@@YAXAAVIStream@1@AAN@Z
	??1RgbaLut@Imf@@QAE@XZ
	?eofbit@?$_Iosb@H@std@@2W4_Iostate@12@B
	?numScanLines@B44Compressor@Imf@@UBEHXZ
	?cast@?$TypedAttribute@UChromaticities@Imf@@@Imf@@SAABV12@ABVAttribute@2@@Z
	?uncompressTile@B44Compressor@Imf@@UAEHPBDHV?$Box@V?$Vec2@H@Imath@@@Imath@@AAPBD@Z
	ImfTiledOutputTileXSize
	?unRegisterAttributeType@Attribute@Imf@@KAXQBD@Z
	??0Rational@Imf@@QAE@HH@Z
	?assign@?$basic_string@DU?$char_traits@D@std@@V?$allocator@D@2@@std@@QAEAAV12@ABV12@@Z
	??$_Move@PAV?$vector@V?$vector@_KV?$allocator@_K@std@@@std@@V?$allocator@V?$vector@_KV?$allocator@_K@std@@@std@@@2@@std@@PAV12@@std@@YAPAV?$vector@V?$vector@_KV?$allocator@_K@std@@@std@@V?$allocator@V?$vector@_KV?$allocator@_K@std@@@std@@@2@@0@PAV10@00U_Nonscalar_ptr_iterator_tag@0@@Z
	??D?$_Vector_const_iterator@V?$_Vector_val@V?$vector@_KV?$allocator@_K@std@@@std@@V?$allocator@V?$vector@_KV?$allocator@_K@std@@@std@@@2@@std@@@std@@QBEABV?$vector@_KV?$allocator@_K@std@@@1@XZ
	??4?$_Tree_iterator@V?$_Tree_val@V?$_Tmap_traits@VName@Imf@@PAVAttribute@2@U?$less@VName@Imf@@@std@@V?$allocator@U?$pair@$$CBVName@Imf@@PAVAttribute@2@@std@@@5@$0A@@std@@@std@@@std@@QAEAAV01@ABV01@@Z
	?end@?$vector@PAULineBuffer@?A0xcbf8ace6@Imf@@V?$allocator@PAULineBuffer@?A0xcbf8ace6@Imf@@@std@@@std@@QAE?AV?$_Vector_iterator@V?$_Vector_val@PAULineBuffer@?A0xcbf8ace6@Imf@@V?$allocator@PAULineBuffer@?A0xcbf8ace6@Imf@@@std@@@std@@@2@XZ
	?_Tidy@?$vector@V?$vector@_KV?$allocator@_K@std@@@std@@V?$allocator@V?$vector@_KV?$allocator@_K@std@@@std@@@2@@std@@IAEXXZ
	??$abs@N@Imath@@YANN@Z
	?_Xlen@?$vector@V?$basic_string@DU?$char_traits@D@std@@V?$allocator@D@2@@std@@V?$allocator@V?$basic_string@DU?$char_traits@D@std@@V?$allocator@D@2@@std@@@2@@std@@IBEXXZ
	?makeNewAttribute@?$TypedAttribute@W4Envmap@Imf@@@Imf@@SAPAVAttribute@2@XZ
	?isComplete@TiledInputFile@Imf@@QBE_NXZ
	?lookModTransform@Imf@@YAAAV?$basic_string@DU?$char_traits@D@std@@V?$allocator@D@2@@std@@AAVHeader@1@@Z
	?c_str@?$basic_string@DU?$char_traits@D@std@@V?$allocator@D@2@@std@@QBEPBDXZ
	?name@ConstIterator@Header@Imf@@QBEPBDXZ
	??$?0AAV?$_Tree_iterator@V?$_Tree_val@V?$_Tmap_traits@VName@Imf@@UChannel@2@U?$less@VName@Imf@@@std@@V?$allocator@U?$pair@$$CBVName@Imf@@UChannel@2@@std@@@5@$0A@@std@@@std@@@std@@_N@?$pair@V?$_Tree_iterator@V?$_Tree_val@V?$_Tmap_traits@VName@Imf@@UChannel@2@U?$less@VName@Imf@@@std@@V?$allocator@U?$pair@$$CBVName@Imf@@UChannel@2@@std@@@5@$0A@@std@@@std@@@std@@_N@std@@QAE@AAV?$_Tree_iterator@V?$_Tree_val@V?$_Tmap_traits@VName@Imf@@UChannel@2@U?$less@VName@Imf@@@std@@V?$allocator@U?$pair@$$CBVName@Imf@@UChannel@2@@std@@@5@$0A@@std@@@std@@@1@$$QA_N@Z
	??R?$less@UTileCoord@?A0x39e5c904@Imf@@@std@@QBE_NABUTileCoord@?A0x39e5c904@Imf@@0@Z
	?max_size@?$vector@PAUTileBuffer@?A0xf6fcebb6@Imf@@V?$allocator@PAUTileBuffer@?A0xf6fcebb6@Imf@@@std@@@std@@QBEIXZ
	ImfHeaderSetBox2iAttribute
	??$_Construct@V?$basic_string@DU?$char_traits@D@std@@V?$allocator@D@2@@std@@ABV12@@std@@YAXPAV?$basic_string@DU?$char_traits@D@std@@V?$allocator@D@2@@0@ABV10@@Z
	?readPixels@InputFile@Imf@@QAEXH@Z
	?newCompressor@Imf@@YAPAVCompressor@1@W4Compression@1@IABVHeader@1@@Z
	ImfHeaderSetDisplayWindow
	??0?$allocator@UInSliceInfo@?A0xcbf8ace6@Imf@@@std@@QAE@XZ
	?_Xlen@?$vector@_KV?$allocator@_K@std@@@std@@IBEXXZ
	??$_Buynode@U?$pair@$$CBVName@Imf@@PAVAttribute@2@@std@@@?$_Tree_val@V?$_Tmap_traits@VName@Imf@@PAVAttribute@2@U?$less@VName@Imf@@@std@@V?$allocator@U?$pair@$$CBVName@Imf@@PAVAttribute@2@@std@@@5@$0A@@std@@@std@@QAEPAU_Node@?$_Tree_nod@V?$_Tmap_traits@VName@Imf@@PAVAttribute@2@U?$less@VName@Imf@@@std@@V?$allocator@U?$pair@$$CBVName@Imf@@PAVAttribute@2@@std@@@5@$0A@@std@@@1@$$QAU?$pair@$$CBVName@Imf@@PAVAttribute@2@@1@@Z
	??0?$TypedAttribute@V?$Vec3@M@Imath@@@Imf@@QAE@XZ
	??B?$Array@D@Imf@@QBEPBDXZ
	?max_size@?$vector@PAULineBuffer@?A0xf57f9ec6@Imf@@V?$allocator@PAULineBuffer@?A0xf57f9ec6@Imf@@@std@@@std@@QBEIXZ
	?capDateAttribute@Imf@@YAABV?$TypedAttribute@V?$basic_string@DU?$char_traits@D@std@@V?$allocator@D@2@@std@@@1@ABVHeader@1@@Z
	?readValueFrom@?$TypedAttribute@V?$Vec2@M@Imath@@@Imf@@UAEXAAVIStream@2@HH@Z
	??0?$_Vector_val@_KV?$allocator@_K@std@@@std@@QAE@V?$allocator@_K@1@@Z
	?frac@?A0x06844fa0@Imf@@YANNN@Z
	?isOpenExrFile@Imf@@YA_NQBDAA_N@Z
	?lower_bound@?$_Tree@V?$_Tmap_traits@UTileCoord@?A0x39e5c904@Imf@@PAUBufferedTile@23@U?$less@UTileCoord@?A0x39e5c904@Imf@@@std@@V?$allocator@U?$pair@$$CBUTileCoord@?A0x39e5c904@Imf@@PAUBufferedTile@23@@std@@@6@$0A@@std@@@std@@QAE?AV?$_Tree_iterator@V?$_Tree_val@V?$_Tmap_traits@UTileCoord@?A0x39e5c904@Imf@@PAUBufferedTile@23@U?$less@UTileCoord@?A0x39e5c904@Imf@@@std@@V?$allocator@U?$pair@$$CBUTileCoord@?A0x39e5c904@Imf@@PAUBufferedTile@23@@std@@@6@$0A@@std@@@std@@@2@ABUTileCoord@?A0x39e5c904@Imf@@@Z
	ImfTiledInputChannels
	??$move@AA_N@std@@YA$$QA_NAA_N@Z
	??0?$allocator@PAULineBuffer@?A0xf57f9ec6@Imf@@@std@@QAE@ABV01@@Z
	?channelsInLayer@ChannelList@Imf@@QBEXABV?$basic_string@DU?$char_traits@D@std@@V?$allocator@D@2@@std@@AAVConstIterator@12@1@Z
	?rotateBuf2@FromYca@RgbaInputFile@Imf@@AAEXH@Z
	?_Reserve@?$vector@V?$vector@_KV?$allocator@_K@std@@@std@@V?$allocator@V?$vector@_KV?$allocator@_K@std@@@std@@@2@@std@@IAEXI@Z
	??0?$_Tree_const_iterator@V?$_Tree_val@V?$_Tmap_traits@VName@Imf@@USlice@2@U?$less@VName@Imf@@@std@@V?$allocator@U?$pair@$$CBVName@Imf@@USlice@2@@std@@@5@$0A@@std@@@std@@@std@@QAE@PAU_Node@?$_Tree_nod@V?$_Tmap_traits@VName@Imf@@USlice@2@U?$less@VName@Imf@@@std@@V?$allocator@U?$pair@$$CBVName@Imf@@USlice@2@@std@@@5@$0A@@std@@@1@PBV?$_Tree_val@V?$_Tmap_traits@VName@Imf@@USlice@2@U?$less@VName@Imf@@@std@@V?$allocator@U?$pair@$$CBVName@Imf@@USlice@2@@std@@@5@$0A@@std@@@1@@Z
	?insert@FrameBuffer@Imf@@QAEXQBDABUSlice@2@@Z
	??1OverflowExc@Iex@@UAE@XZ
	??0?$_Vector_val@V?$vector@_KV?$allocator@_K@std@@@std@@V?$allocator@V?$vector@_KV?$allocator@_K@std@@@std@@@2@@std@@QAE@V?$allocator@V?$vector@_KV?$allocator@_K@std@@@std@@@1@@Z
	?size@?$vector@V?$vector@_KV?$allocator@_K@std@@@std@@V?$allocator@V?$vector@_KV?$allocator@_K@std@@@std@@@2@@std@@QBEIXZ
	?hufLength@?A0xc87c6bb7@Imf@@YA_K_K@Z
	??4?$vector@UTInSliceInfo@?A0xf6fcebb6@Imf@@V?$allocator@UTInSliceInfo@?A0xf6fcebb6@Imf@@@std@@@std@@QAEAAV01@ABV01@@Z
	??0?$pair@V?$_Tree_iterator@V?$_Tree_val@V?$_Tmap_traits@VName@Imf@@UChannel@2@U?$less@VName@Imf@@@std@@V?$allocator@U?$pair@$$CBVName@Imf@@UChannel@2@@std@@@5@$0A@@std@@@std@@@std@@_N@std@@QAE@$$QAV?$_Tree_iterator@V?$_Tree_val@V?$_Tmap_traits@VName@Imf@@UChannel@2@U?$less@VName@Imf@@@std@@V?$allocator@U?$pair@$$CBVName@Imf@@UChannel@2@@std@@@5@$0A@@std@@@std@@@1@$$QA_N@Z
	??0RgbaOutputFile@Imf@@QAE@QBDABVHeader@1@W4RgbaChannels@1@H@Z
	?_Rank@?$_Arithmetic_traits@J@std@@2HB
	?aperture@Imf@@YAABMABVHeader@1@@Z
	?frameBuffer@RgbaOutputFile@Imf@@QBEABVFrameBuffer@2@XZ
	??1?$_Vector_iterator@V?$_Vector_val@PAULineBuffer@?A0xcbf8ace6@Imf@@V?$allocator@PAULineBuffer@?A0xcbf8ace6@Imf@@@std@@@std@@@std@@QAE@XZ
	?_Color@?$_Tree_val@V?$_Tmap_traits@VName@Imf@@PAVAttribute@2@U?$less@VName@Imf@@@std@@V?$allocator@U?$pair@$$CBVName@Imf@@PAVAttribute@2@@std@@@5@$0A@@std@@@std@@SAAADPAU_Node@?$_Tree_nod@V?$_Tmap_traits@VName@Imf@@PAVAttribute@2@U?$less@VName@Imf@@@std@@V?$allocator@U?$pair@$$CBVName@Imf@@PAVAttribute@2@@std@@@5@$0A@@std@@@2@@Z
	?reserve@?$vector@PAUTileBuffer@?A0x39e5c904@Imf@@V?$allocator@PAUTileBuffer@?A0x39e5c904@Imf@@@std@@@std@@QAEXI@Z
	??$_Iter_cat@PAPAUTileBuffer@?A0xf6fcebb6@Imf@@@std@@YA?AUrandom_access_iterator_tag@0@ABQAPAUTileBuffer@?A0xf6fcebb6@Imf@@@Z
	?dataWindowForLevel@TiledRgbaOutputFile@Imf@@QBE?AV?$Box@V?$Vec2@H@Imath@@@Imath@@HH@Z
	??0?$pair@$$CBVName@Imf@@USlice@2@@std@@QAE@ABVName@Imf@@$$QAUSlice@3@@Z
	??0TimeCode@Imf@@QAE@XZ
	??$forward@AAU?$pair@$$CBVName@Imf@@UChannel@2@@std@@@std@@YAAAU?$pair@$$CBVName@Imf@@UChannel@2@@0@AAU10@@Z
	?erase@?$vector@UTOutSliceInfo@?A0x39e5c904@Imf@@V?$allocator@UTOutSliceInfo@?A0x39e5c904@Imf@@@std@@@std@@QAE?AV?$_Vector_iterator@V?$_Vector_val@UTOutSliceInfo@?A0x39e5c904@Imf@@V?$allocator@UTOutSliceInfo@?A0x39e5c904@Imf@@@std@@@std@@@2@V?$_Vector_const_iterator@V?$_Vector_val@UTOutSliceInfo@?A0x39e5c904@Imf@@V?$allocator@UTOutSliceInfo@?A0x39e5c904@Imf@@@std@@@std@@@2@0@Z
	?_Destroy@?$vector@UTOutSliceInfo@?A0x39e5c904@Imf@@V?$allocator@UTOutSliceInfo@?A0x39e5c904@Imf@@@std@@@std@@IAEXPAUTOutSliceInfo@?A0x39e5c904@Imf@@0@Z
	?dataWindowForTile@TiledRgbaInputFile@Imf@@QBE?AV?$Box@V?$Vec2@H@Imath@@@Imath@@HHHH@Z
	??$typedAttribute@V?$TypedAttribute@N@Imf@@@Header@Imf@@QBEABV?$TypedAttribute@N@1@QBD@Z
	??0ToYca@RgbaOutputFile@Imf@@QAE@AAVOutputFile@2@W4RgbaChannels@2@@Z
	?numXLevels@TiledOutputFile@Imf@@QBEHXZ
	?writeValueTo@?$TypedAttribute@M@Imf@@UBEXAAVOStream@2@H@Z
	?invalidCode@?A0xc87c6bb7@Imf@@YAXXZ
	?readValueFrom@OpaqueAttribute@Imf@@UAEXAAVIStream@2@HH@Z
	?_Buy@?$vector@V?$basic_string@DU?$char_traits@D@std@@V?$allocator@D@2@@std@@V?$allocator@V?$basic_string@DU?$char_traits@D@std@@V?$allocator@D@2@@std@@@2@@std@@IAE_NI@Z
	?assign@?$basic_string@DU?$char_traits@D@std@@V?$allocator@D@2@@std@@QAEAAV12@ABV12@II@Z
	?channels@TiledRgbaInputFile@Imf@@QBE?AW4RgbaChannels@2@XZ
	??$_Debug_pointer@PAUTileBuffer@?A0x39e5c904@Imf@@@std@@YAXPAPAUTileBuffer@?A0x39e5c904@Imf@@PB_WI@Z
	?sizeOfFace@CubeMap@Imf@@YAHABV?$Box@V?$Vec2@H@Imath@@@Imath@@@Z
	?capacity@?$vector@UTInSliceInfo@?A0xf6fcebb6@Imf@@V?$allocator@UTInSliceInfo@?A0xf6fcebb6@Imf@@@std@@@std@@QBEIXZ
	?numLinesInBuffer@Imf@@YAHPAVCompressor@1@@Z
	??0?$_Pair_base@$$CBUTileCoord@?A0x39e5c904@Imf@@PAUBufferedTile@23@@std@@QAE@$$QBUTileCoord@?A0x39e5c904@Imf@@$$QAPAUBufferedTile@34@@Z
	??$findTypedAttribute@V?$TypedAttribute@VTimeCode@Imf@@@Imf@@@Header@Imf@@QBEPBV?$TypedAttribute@VTimeCode@Imf@@@1@QBD@Z
	??4_Iterator_base12@std@@QAEAAU01@ABU01@@Z
	?bgf1@TimeCode@Imf@@QBE_NXZ
	?_Lock@?$basic_filebuf@DU?$char_traits@D@std@@@std@@UAEXXZ
	?clear@?$vector@V?$vector@V?$vector@_KV?$allocator@_K@std@@@std@@V?$allocator@V?$vector@_KV?$allocator@_K@std@@@std@@@2@@std@@V?$allocator@V?$vector@V?$vector@_KV?$allocator@_K@std@@@std@@V?$allocator@V?$vector@_KV?$allocator@_K@std@@@std@@@2@@std@@@2@@std@@QAEXXZ
	?_Tidy@?$vector@V?$vector@V?$vector@_KV?$allocator@_K@std@@@std@@V?$allocator@V?$vector@_KV?$allocator@_K@std@@@std@@@2@@std@@V?$allocator@V?$vector@V?$vector@_KV?$allocator@_K@std@@@std@@V?$allocator@V?$vector@_KV?$allocator@_K@std@@@std@@@2@@std@@@2@@std@@IAEXXZ
	??RTileOffsets@Imf@@QBEAB_KHHH@Z
	?_Myval@?$_Tree_val@V?$_Tmap_traits@VName@Imf@@USlice@2@U?$less@VName@Imf@@@std@@V?$allocator@U?$pair@$$CBVName@Imf@@USlice@2@@std@@@5@$0A@@std@@@std@@SAAAU?$pair@$$CBVName@Imf@@USlice@2@@2@PAU_Node@?$_Tree_nod@V?$_Tmap_traits@VName@Imf@@USlice@2@U?$less@VName@Imf@@@std@@V?$allocator@U?$pair@$$CBVName@Imf@@USlice@2@@std@@@5@$0A@@std@@@2@@Z
	ImfErrorMessage
	?altitudeAttribute@Imf@@YAAAV?$TypedAttribute@M@1@AAVHeader@1@@Z
	??1?$AutoArray@H$0BAAAB@@Imf@@QAE@XZ
	?displayWindow@RgbaInputFile@Imf@@QBEABV?$Box@V?$Vec2@H@Imath@@@Imath@@XZ
	??1?$TypedAttribute@V?$Matrix33@N@Imath@@@Imf@@UAE@XZ
	??1?$_Vector_const_iterator@V?$_Vector_val@UTInSliceInfo@?A0xf6fcebb6@Imf@@V?$allocator@UTInSliceInfo@?A0xf6fcebb6@Imf@@@std@@@std@@@std@@QAE@XZ
	?_Mynode@?$_Tree_unchecked_const_iterator@V?$_Tree_val@V?$_Tset_traits@V?$basic_string@DU?$char_traits@D@std@@V?$allocator@D@2@@std@@U?$less@V?$basic_string@DU?$char_traits@D@std@@V?$allocator@D@2@@std@@@2@V?$allocator@V?$basic_string@DU?$char_traits@D@std@@V?$allocator@D@2@@std@@@2@$0A@@std@@@std@@U_Iterator_base12@2@@std@@QBEPAU_Node@?$_Tree_nod@V?$_Tset_traits@V?$basic_string@DU?$char_traits@D@std@@V?$allocator@D@2@@std@@U?$less@V?$basic_string@DU?$char_traits@D@std@@V?$allocator@D@2@@std@@@2@V?$allocator@V?$basic_string@DU?$char_traits@D@std@@V?$allocator@D@2@@std@@@2@$0A@@std@@@2@XZ
	?value@?$TypedAttribute@V?$Vec2@M@Imath@@@Imf@@QBEABV?$Vec2@M@Imath@@XZ
	?maxTileWidth@?A0x1f5ff9f2@Imf@@3HA
	?dataWindow@TiledRgbaOutputFile@Imf@@QBEABV?$Box@V?$Vec2@H@Imath@@@Imath@@XZ
	??$_Dest_val@V?$allocator@U?$pair@QBDP6APAVAttribute@Imf@@XZ@std@@@std@@U?$pair@QBDP6APAVAttribute@Imf@@XZ@2@@std@@YAXAAV?$allocator@U?$pair@QBDP6APAVAttribute@Imf@@XZ@std@@@0@PAU?$pair@QBDP6APAVAttribute@Imf@@XZ@0@@Z
	?convertToLinear@?A0xb36f0740@Imf@@YAXQAG@Z
	??$?0UInSliceInfo@?A0xcbf8ace6@Imf@@@?$allocator@U_Container_proxy@std@@@std@@QAE@ABV?$allocator@UInSliceInfo@?A0xcbf8ace6@Imf@@@1@@Z
	??0Header@Imf@@QAE@HHABV?$Box@V?$Vec2@H@Imath@@@Imath@@MABV?$Vec2@M@3@MW4LineOrder@1@W4Compression@1@@Z
	??4?$vector@V?$vector@V?$vector@_KV?$allocator@_K@std@@@std@@V?$allocator@V?$vector@_KV?$allocator@_K@std@@@std@@@2@@std@@V?$allocator@V?$vector@V?$vector@_KV?$allocator@_K@std@@@std@@V?$allocator@V?$vector@_KV?$allocator@_K@std@@@std@@@2@@std@@@2@@std@@QAEAAV01@ABV01@@Z
	??0?$Vec2@H@Imath@@QAE@ABV01@@Z
	?compress@B44Compressor@Imf@@AAEHPBDHV?$Box@V?$Vec2@H@Imath@@@Imath@@AAPBD@Z
	?max_size@?$vector@UTInSliceInfo@?A0xf6fcebb6@Imf@@V?$allocator@UTInSliceInfo@?A0xf6fcebb6@Imf@@@std@@@std@@QBEIXZ
	??$forward@AAUChannel@Imf@@@std@@YAAAUChannel@Imf@@AAU12@@Z
	?cast@?$TypedAttribute@V?$Vec3@M@Imath@@@Imf@@SAPBV12@PBVAttribute@2@@Z
	?value@?$TypedAttribute@V?$Matrix44@M@Imath@@@Imf@@QAEAAV?$Matrix44@M@Imath@@XZ
	??$_Debug_range2@V?$_Vector_const_iterator@V?$_Vector_val@V?$vector@_KV?$allocator@_K@std@@@std@@V?$allocator@V?$vector@_KV?$allocator@_K@std@@@std@@@2@@std@@@std@@@std@@YAXV?$_Vector_const_iterator@V?$_Vector_val@V?$vector@_KV?$allocator@_K@std@@@std@@V?$allocator@V?$vector@_KV?$allocator@_K@std@@@std@@@2@@std@@@0@0PB_WIUrandom_access_iterator_tag@0@@Z
	?calculateNumXLevels@?A0x893782d4@Imf@@YAHABVTileDescription@2@HHHH@Z
	??0Pxr24Compressor@Imf@@QAE@ABVHeader@1@II@Z
	?_Right@?$_Tree_val@V?$_Tset_traits@V?$basic_string@DU?$char_traits@D@std@@V?$allocator@D@2@@std@@U?$less@V?$basic_string@DU?$char_traits@D@std@@V?$allocator@D@2@@std@@@2@V?$allocator@V?$basic_string@DU?$char_traits@D@std@@V?$allocator@D@2@@std@@@2@$0A@@std@@@std@@SAAAPAU_Node@?$_Tree_nod@V?$_Tset_traits@V?$basic_string@DU?$char_traits@D@std@@V?$allocator@D@2@@std@@U?$less@V?$basic_string@DU?$char_traits@D@std@@V?$allocator@D@2@@std@@@2@V?$allocator@V?$basic_string@DU?$char_traits@D@std@@V?$allocator@D@2@@std@@@2@$0A@@std@@@2@PAU342@@Z
	?setYCRounding@RgbaOutputFile@Imf@@QAEXII@Z
	?_Xlen@?$vector@PAULineBuffer@?A0xf57f9ec6@Imf@@V?$allocator@PAULineBuffer@?A0xf57f9ec6@Imf@@@std@@@std@@IBEXXZ
	?construct@?$allocator@UInSliceInfo@?A0xcbf8ace6@Imf@@@std@@QAEXPAUInSliceInfo@?A0xcbf8ace6@Imf@@$$QAU345@@Z
	??$?0AAV?$_Tree_iterator@V?$_Tree_val@V?$_Tmap_traits@UTileCoord@?A0x39e5c904@Imf@@PAUBufferedTile@23@U?$less@UTileCoord@?A0x39e5c904@Imf@@@std@@V?$allocator@U?$pair@$$CBUTileCoord@?A0x39e5c904@Imf@@PAUBufferedTile@23@@std@@@6@$0A@@std@@@std@@@std@@_N@?$pair@V?$_Tree_iterator@V?$_Tree_val@V?$_Tmap_traits@UTileCoord@?A0x39e5c904@Imf@@PAUBufferedTile@23@U?$less@UTileCoord@?A0x39e5c904@Imf@@@std@@V?$allocator@U?$pair@$$CBUTileCoord@?A0x39e5c904@Imf@@PAUBufferedTile@23@@std@@@6@$0A@@std@@@std@@@std@@_N@std@@QAE@AAV?$_Tree_iterator@V?$_Tree_val@V?$_Tmap_traits@UTileCoord@?A0x39e5c904@Imf@@PAUBufferedTile@23@U?$less@UTileCoord@?A0x39e5c904@Imf@@@std@@V?$allocator@U?$pair@$$CBUTileCoord@?A0x39e5c904@Imf@@PAUBufferedTile@23@@std@@@6@$0A@@std@@@std@@@1@$$QA_N@Z
	??$_Ptr_cat@V?$vector@V?$vector@_KV?$allocator@_K@std@@@std@@V?$allocator@V?$vector@_KV?$allocator@_K@std@@@std@@@2@@std@@V12@@std@@YA?AU_Nonscalar_ptr_iterator_tag@0@PAV?$vector@V?$vector@_KV?$allocator@_K@std@@@std@@V?$allocator@V?$vector@_KV?$allocator@_K@std@@@std@@@2@@0@0@Z
	?_Destroy@?$vector@V?$basic_string@DU?$char_traits@D@std@@V?$allocator@D@2@@std@@V?$allocator@V?$basic_string@DU?$char_traits@D@std@@V?$allocator@D@2@@std@@@2@@std@@IAEXPAV?$basic_string@DU?$char_traits@D@std@@V?$allocator@D@2@@2@0@Z
	?fps_23_976@Imf@@YA?AVRational@1@XZ
	??$read@UStreamIO@Imf@@VIStream@2@@Xdr@Imf@@YAXAAVIStream@1@AA_K@Z
	?registerAttributeType@?$TypedAttribute@V?$Vec3@N@Imath@@@Imf@@SAXXZ
	?destroy@?$allocator@V?$basic_string@DU?$char_traits@D@std@@V?$allocator@D@2@@std@@@std@@QAEXPAV?$basic_string@DU?$char_traits@D@std@@V?$allocator@D@2@@2@@Z
	??$_Debug_pointer@V?$vector@V?$vector@_KV?$allocator@_K@std@@@std@@V?$allocator@V?$vector@_KV?$allocator@_K@std@@@std@@@2@@std@@@std@@YAXPAV?$vector@V?$vector@_KV?$allocator@_K@std@@@std@@V?$allocator@V?$vector@_KV?$allocator@_K@std@@@std@@@2@@0@PB_WI@Z
	??1?$map@VName@Imf@@PAVAttribute@2@U?$less@VName@Imf@@@std@@V?$allocator@U?$pair@$$CBVName@Imf@@PAVAttribute@2@@std@@@5@@std@@QAE@XZ
	?_Grow_to@?$vector@IV?$allocator@I@std@@@std@@IBEII@Z
	??$typedAttribute@V?$TypedAttribute@V?$Box@V?$Vec2@M@Imath@@@Imath@@@Imf@@@Header@Imf@@QAEAAV?$TypedAttribute@V?$Box@V?$Vec2@M@Imath@@@Imath@@@1@QBD@Z
	?frame@TimeCode@Imf@@QBEHXZ
	??$_Uninitialized_copy@V?$_Vector_const_iterator@V?$_Vector_val@_KV?$allocator@_K@std@@@std@@@std@@PA_KV?$allocator@_K@2@@std@@YAPA_KV?$_Vector_const_iterator@V?$_Vector_val@_KV?$allocator@_K@std@@@std@@@0@0PA_KAAV?$allocator@_K@0@@Z
	??$writeSignedChars@UStreamIO@Imf@@VOStream@2@@Xdr@Imf@@YAXAAVOStream@1@QBCH@Z
	??1?$TypedAttribute@W4LineOrder@Imf@@@Imf@@UAE@XZ
	??1?$_Vector_val@PAULineBuffer@?A0xf57f9ec6@Imf@@V?$allocator@PAULineBuffer@?A0xf57f9ec6@Imf@@@std@@@std@@QAE@XZ
	?focusAttribute@Imf@@YAAAV?$TypedAttribute@M@1@AAVHeader@1@@Z
	?writeValueTo@?$TypedAttribute@V?$Vec2@M@Imath@@@Imf@@UBEXAAVOStream@2@H@Z
	??0?$_Vector_val@PAUTileBuffer@?A0xf6fcebb6@Imf@@V?$allocator@PAUTileBuffer@?A0xf6fcebb6@Imf@@@std@@@std@@QAE@V?$allocator@PAUTileBuffer@?A0xf6fcebb6@Imf@@@1@@Z
	??$addressof@V?$basic_string@DU?$char_traits@D@std@@V?$allocator@D@2@@std@@@std@@YAPAV?$basic_string@DU?$char_traits@D@std@@V?$allocator@D@2@@0@AAV10@@Z
	??0IStream@Imf@@IAE@QBD@Z
	??$_Debug_range@PAUInSliceInfo@?A0xcbf8ace6@Imf@@@std@@YAXPAUInSliceInfo@?A0xcbf8ace6@Imf@@0PB_WI@Z
	??$_Uninitialized_move@PA_KPA_KV?$allocator@_K@std@@@std@@YAPA_KPA_K00AAV?$allocator@_K@0@@Z
	?cast@?$TypedAttribute@V?$Vec3@M@Imath@@@Imf@@SAABV12@ABVAttribute@2@@Z
	?capacity@?$vector@V?$basic_string@DU?$char_traits@D@std@@V?$allocator@D@2@@std@@V?$allocator@V?$basic_string@DU?$char_traits@D@std@@V?$allocator@D@2@@std@@@2@@std@@QBEIXZ
	??9?$_Vector_const_iterator@V?$_Vector_val@UTOutSliceInfo@?A0x39e5c904@Imf@@V?$allocator@UTOutSliceInfo@?A0x39e5c904@Imf@@@std@@@std@@@std@@QBE_NABV01@@Z
	?infile@?A0xa29ce62f@@YAPAVRgbaInputFile@Imf@@PAUImfInputFile@@@Z
	?_Tidy@?$vector@PAULineBuffer@?A0xcbf8ace6@Imf@@V?$allocator@PAULineBuffer@?A0xcbf8ace6@Imf@@@std@@@std@@IAEXXZ
	?numSamples@Imf@@YAHHHH@Z
	??0?$_Tree_unchecked_const_iterator@V?$_Tree_val@V?$_Tmap_traits@VName@Imf@@UChannel@2@U?$less@VName@Imf@@@std@@V?$allocator@U?$pair@$$CBVName@Imf@@UChannel@2@@std@@@5@$0A@@std@@@std@@U_Iterator_base12@2@@std@@QAE@XZ
	?all@?$_Locbase@H@std@@2HB
	?ate@?$_Iosb@H@std@@2W4_Openmode@12@B
	?setTimeAndFlags@TimeCode@Imf@@QAEXIW4Packing@12@@Z
	??$_Uninit_move@_K_K_K@std@@YAPA_KPA_K00AAV?$allocator@_K@0@0U_Scalar_ptr_iterator_tag@0@@Z
	??0InSliceInfo@?A0xcbf8ace6@Imf@@QAE@W4PixelType@2@0PADIIHH_N2N@Z
	?_Grow_to@?$vector@UOutSliceInfo@?A0xf57f9ec6@Imf@@V?$allocator@UOutSliceInfo@?A0xf57f9ec6@Imf@@@std@@@std@@IBEII@Z
	??4FrameBuffer@Imf@@QAEAAV01@ABV01@@Z
	??M?$_Vector_const_iterator@V?$_Vector_val@_KV?$allocator@_K@std@@@std@@@std@@QBE_NABV01@@Z
	?setHours@TimeCode@Imf@@QAEXH@Z
	??4?$vector@_KV?$allocator@_K@std@@@std@@QAEAAV01@ABV01@@Z
	?_Parent@?$_Tree_val@V?$_Tmap_traits@VName@Imf@@UChannel@2@U?$less@VName@Imf@@@std@@V?$allocator@U?$pair@$$CBVName@Imf@@UChannel@2@@std@@@5@$0A@@std@@@std@@SAAAPAU_Node@?$_Tree_nod@V?$_Tmap_traits@VName@Imf@@UChannel@2@U?$less@VName@Imf@@@std@@V?$allocator@U?$pair@$$CBVName@Imf@@UChannel@2@@std@@@5@$0A@@std@@@2@PAU342@@Z
	?erase@?$_Tree@V?$_Tmap_traits@VName@Imf@@USlice@2@U?$less@VName@Imf@@@std@@V?$allocator@U?$pair@$$CBVName@Imf@@USlice@2@@std@@@5@$0A@@std@@@std@@QAE?AV?$_Tree_iterator@V?$_Tree_val@V?$_Tmap_traits@VName@Imf@@USlice@2@U?$less@VName@Imf@@@std@@V?$allocator@U?$pair@$$CBVName@Imf@@USlice@2@@std@@@5@$0A@@std@@@std@@@2@V?$_Tree_const_iterator@V?$_Tree_val@V?$_Tmap_traits@VName@Imf@@USlice@2@U?$less@VName@Imf@@@std@@V?$allocator@U?$pair@$$CBVName@Imf@@USlice@2@@std@@@5@$0A@@std@@@std@@@2@@Z
	?writeTiles@TiledOutputFile@Imf@@QAEXHHHHH@Z
	??0?$_Iterator012@Ubidirectional_iterator_tag@std@@U?$pair@$$CBVName@Imf@@PAVAttribute@2@@2@HPBU32@ABU32@U_Iterator_base12@2@@std@@QAE@ABU01@@Z
	??0?$map@PBDP6APAVAttribute@Imf@@XZUNameCompare@?A0x0779e1ad@2@V?$allocator@U?$pair@QBDP6APAVAttribute@Imf@@XZ@std@@@std@@@std@@QAE@XZ
	??1?$_Vector_const_iterator@V?$_Vector_val@UOutSliceInfo@?A0xf57f9ec6@Imf@@V?$allocator@UOutSliceInfo@?A0xf57f9ec6@Imf@@@std@@@std@@@std@@QAE@XZ
	??$?HDU?$char_traits@D@std@@V?$allocator@D@1@@std@@YA?AV?$basic_string@DU?$char_traits@D@std@@V?$allocator@D@2@@0@$$QAV10@ABV10@@Z
	?_Isnil@?$_Tree_val@V?$_Tmap_traits@PBDP6APAVAttribute@Imf@@XZUNameCompare@?A0x0779e1ad@2@V?$allocator@U?$pair@QBDP6APAVAttribute@Imf@@XZ@std@@@std@@$0A@@std@@@std@@SAAADPAU_Node@?$_Tree_nod@V?$_Tmap_traits@PBDP6APAVAttribute@Imf@@XZUNameCompare@?A0x0779e1ad@2@V?$allocator@U?$pair@QBDP6APAVAttribute@Imf@@XZ@std@@@std@@$0A@@std@@@2@@Z
	?isOpenExrFile@Imf@@YA_NAAVIStream@1@AA_N@Z
	?value@?$TypedAttribute@V?$Vec3@M@Imath@@@Imf@@QAEAAV?$Vec3@M@Imath@@XZ
	?dataWindowForLevel@TiledRgbaInputFile@Imf@@QBE?AV?$Box@V?$Vec2@H@Imath@@@Imath@@H@Z
	??0?$allocator@U?$pair@$$CBVName@Imf@@PAVAttribute@2@@std@@@std@@QAE@XZ
	??0Iterator@Header@Imf@@QAE@ABV?$_Tree_iterator@V?$_Tree_val@V?$_Tmap_traits@VName@Imf@@PAVAttribute@2@U?$less@VName@Imf@@@std@@V?$allocator@U?$pair@$$CBVName@Imf@@PAVAttribute@2@@std@@@5@$0A@@std@@@std@@@std@@@Z
	?begin@FrameBuffer@Imf@@QAE?AVIterator@12@XZ
	?max_size@?$allocator@PAUTileBuffer@?A0xf6fcebb6@Imf@@@std@@QBEIXZ
	?copy@?$TypedAttribute@VChannelList@Imf@@@Imf@@UBEPAVAttribute@2@XZ
	?format@Pxr24Compressor@Imf@@UBE?AW4Format@Compressor@2@XZ
	??1LineBuffer@?A0xcbf8ace6@Imf@@QAE@XZ
	??$_Umove@PA_K@?$vector@_KV?$allocator@_K@std@@@std@@IAEPA_KPA_K00@Z
	?_Buy@?$vector@V?$vector@V?$vector@_KV?$allocator@_K@std@@@std@@V?$allocator@V?$vector@_KV?$allocator@_K@std@@@std@@@2@@std@@V?$allocator@V?$vector@V?$vector@_KV?$allocator@_K@std@@@std@@V?$allocator@V?$vector@_KV?$allocator@_K@std@@@std@@@2@@std@@@2@@std@@IAE_NI@Z
	?cast@?$TypedAttribute@N@Imf@@SAPBV12@PBVAttribute@2@@Z
	?reserve@?$vector@UOutSliceInfo@?A0xf57f9ec6@Imf@@V?$allocator@UOutSliceInfo@?A0xf57f9ec6@Imf@@@std@@@std@@QAEXI@Z
	?value@?$TypedAttribute@UChromaticities@Imf@@@Imf@@QBEABUChromaticities@2@XZ
	?_Mynode@?$_Tree_unchecked_const_iterator@V?$_Tree_val@V?$_Tmap_traits@VName@Imf@@UChannel@2@U?$less@VName@Imf@@@std@@V?$allocator@U?$pair@$$CBVName@Imf@@UChannel@2@@std@@@5@$0A@@std@@@std@@U_Iterator_base12@2@@std@@QBEPAU_Node@?$_Tree_nod@V?$_Tmap_traits@VName@Imf@@UChannel@2@U?$less@VName@Imf@@@std@@V?$allocator@U?$pair@$$CBVName@Imf@@UChannel@2@@std@@@5@$0A@@std@@@2@XZ
	??$size@M@Xdr@Imf@@YAHXZ
	??$read@UStreamIO@Imf@@VIStream@2@@Xdr@Imf@@YAXAAVIStream@1@HQAD@Z
	?writeTile@TiledOutputFile@Imf@@QAEXHHH@Z
	?value@?$TypedAttribute@V?$vector@V?$basic_string@DU?$char_traits@D@std@@V?$allocator@D@2@@std@@V?$allocator@V?$basic_string@DU?$char_traits@D@std@@V?$allocator@D@2@@std@@@2@@std@@@Imf@@QAEAAV?$vector@V?$basic_string@DU?$char_traits@D@std@@V?$allocator@D@2@@std@@V?$allocator@V?$basic_string@DU?$char_traits@D@std@@V?$allocator@D@2@@std@@@2@@std@@XZ
	??$_Move@PAPAULineBuffer@?A0xf57f9ec6@Imf@@PAPAU123@@std@@YAPAPAULineBuffer@?A0xf57f9ec6@Imf@@PAPAU123@00U_Scalar_ptr_iterator_tag@0@@Z
	?_Eqrange@?$_Tree@V?$_Tmap_traits@PBDP6APAVAttribute@Imf@@XZUNameCompare@?A0x0779e1ad@2@V?$allocator@U?$pair@QBDP6APAVAttribute@Imf@@XZ@std@@@std@@$0A@@std@@@std@@IAE?AU?$pair@V?$_Tree_iterator@V?$_Tree_val@V?$_Tmap_traits@PBDP6APAVAttribute@Imf@@XZUNameCompare@?A0x0779e1ad@2@V?$allocator@U?$pair@QBDP6APAVAttribute@Imf@@XZ@std@@@std@@$0A@@std@@@std@@@std@@V12@@2@ABQBD@Z
	?_Lbound@?$_Tree@V?$_Tmap_traits@VName@Imf@@USlice@2@U?$less@VName@Imf@@@std@@V?$allocator@U?$pair@$$CBVName@Imf@@USlice@2@@std@@@5@$0A@@std@@@std@@IAEPAU_Node@?$_Tree_nod@V?$_Tmap_traits@VName@Imf@@USlice@2@U?$less@VName@Imf@@@std@@V?$allocator@U?$pair@$$CBVName@Imf@@USlice@2@@std@@@5@$0A@@std@@@2@ABVName@Imf@@@Z
	?erase@?$vector@V?$vector@_KV?$allocator@_K@std@@@std@@V?$allocator@V?$vector@_KV?$allocator@_K@std@@@std@@@2@@std@@QAE?AV?$_Vector_iterator@V?$_Vector_val@V?$vector@_KV?$allocator@_K@std@@@std@@V?$allocator@V?$vector@_KV?$allocator@_K@std@@@std@@@2@@std@@@2@V?$_Vector_const_iterator@V?$_Vector_val@V?$vector@_KV?$allocator@_K@std@@@std@@V?$allocator@V?$vector@_KV?$allocator@_K@std@@@std@@@2@@std@@@2@0@Z
	?version@InputFile@Imf@@QBEHXZ
	?execute@TileBufferTask@?A0xf6fcebb6@Imf@@UAEXXZ
	ImfTiledOutputChannels
	ImfTiledOutputLevelMode
	?registerAttributeType@?$TypedAttribute@V?$Box@V?$Vec2@M@Imath@@@Imath@@@Imf@@SAXXZ
	??$_Distance@V?$_Tree_iterator@V?$_Tree_val@V?$_Tmap_traits@PBDP6APAVAttribute@Imf@@XZUNameCompare@?A0x0779e1ad@2@V?$allocator@U?$pair@QBDP6APAVAttribute@Imf@@XZ@std@@@std@@$0A@@std@@@std@@@std@@I@std@@YAXV?$_Tree_iterator@V?$_Tree_val@V?$_Tmap_traits@PBDP6APAVAttribute@Imf@@XZUNameCompare@?A0x0779e1ad@2@V?$allocator@U?$pair@QBDP6APAVAttribute@Imf@@XZ@std@@@std@@$0A@@std@@@std@@@0@0AAI@Z
	?data@?$basic_string@DU?$char_traits@D@std@@V?$allocator@D@2@@std@@QBEPBDXZ
	??$_Move@PAUOutSliceInfo@?A0xf57f9ec6@Imf@@PAU123@@std@@YAPAUOutSliceInfo@?A0xf57f9ec6@Imf@@PAU123@00@Z
	??$forward@PAVAttribute@Imf@@@std@@YA$$QAPAVAttribute@Imf@@AAPAV12@@Z
	?_Compat@?$_Vector_const_iterator@V?$_Vector_val@PAULineBuffer@?A0xf57f9ec6@Imf@@V?$allocator@PAULineBuffer@?A0xf57f9ec6@Imf@@@std@@@std@@@std@@QBEXABV12@@Z
	?_Orphan_range@?$vector@V?$vector@V?$vector@_KV?$allocator@_K@std@@@std@@V?$allocator@V?$vector@_KV?$allocator@_K@std@@@std@@@2@@std@@V?$allocator@V?$vector@V?$vector@_KV?$allocator@_K@std@@@std@@V?$allocator@V?$vector@_KV?$allocator@_K@std@@@std@@@2@@std@@@2@@std@@IBEXPAV?$vector@V?$vector@_KV?$allocator@_K@std@@@std@@V?$allocator@V?$vector@_KV?$allocator@_K@std@@@std@@@2@@2@0@Z
	??0?$allocator@UTOutSliceInfo@?A0x39e5c904@Imf@@@std@@QAE@ABV01@@Z
	??0ErrnoExc@Iex@@QAE@PBD@Z
	?numScanLines@Pxr24Compressor@Imf@@UBEHXZ
	??0?$TypedAttribute@V?$Vec2@M@Imath@@@Imf@@QAE@ABV?$Vec2@M@Imath@@@Z
	?setDropFrame@TimeCode@Imf@@QAEX_N@Z
	??0?$_Iterator012@Urandom_access_iterator_tag@std@@UInSliceInfo@?A0xcbf8ace6@Imf@@HPBU345@ABU345@U_Iterator_base12@2@@std@@QAE@XZ
	?copy@OpaqueAttribute@Imf@@UBEPAVAttribute@2@XZ
	?typeName@?$TypedAttribute@W4LineOrder@Imf@@@Imf@@UBEPBDXZ
	?cast@?$TypedAttribute@W4Envmap@Imf@@@Imf@@SAPBV12@PBVAttribute@2@@Z
	??0?$allocator@_K@std@@QAE@XZ
	??$_Ucopy@PA_K@?$vector@_KV?$allocator@_K@std@@@std@@IAEPA_KPA_K00@Z
	logf
	??0?$Vec2@M@Imath@@QAE@M@Z
	?filmType@KeyCode@Imf@@QBEHXZ
	??$move@AAUTOutSliceInfo@?A0x39e5c904@Imf@@@std@@YA$$QAUTOutSliceInfo@?A0x39e5c904@Imf@@AAU123@@Z
	?copyFromFrameBuffer@Imf@@YAXAAPADAAPBDPBDIW4Format@Compressor@1@W4PixelType@1@@Z
	?isValidTile@TileOffsets@Imf@@ABE_NHHHH@Z
	??$_Dest_val@V?$allocator@V?$vector@V?$vector@_KV?$allocator@_K@std@@@std@@V?$allocator@V?$vector@_KV?$allocator@_K@std@@@std@@@2@@std@@@std@@V?$vector@V?$vector@_KV?$allocator@_K@std@@@std@@V?$allocator@V?$vector@_KV?$allocator@_K@std@@@std@@@2@@2@@std@@YAXAAV?$allocator@V?$vector@V?$vector@_KV?$allocator@_K@std@@@std@@V?$allocator@V?$vector@_KV?$allocator@_K@std@@@std@@@2@@std@@@0@PAV?$vector@V?$vector@_KV?$allocator@_K@std@@@std@@V?$allocator@V?$vector@_KV?$allocator@_K@std@@@std@@@2@@0@@Z
	?construct@?$allocator@UTInSliceInfo@?A0xf6fcebb6@Imf@@@std@@QAEXPAUTInSliceInfo@?A0xf6fcebb6@Imf@@$$QAU345@@Z
	??$?8DU?$char_traits@D@std@@V?$allocator@D@1@@std@@YA_NPBDABV?$basic_string@DU?$char_traits@D@std@@V?$allocator@D@2@@0@@Z
	?wait@TileBuffer@?A0x39e5c904@Imf@@QAEXXZ
	??4TimeCode@Imf@@QAEAAV01@ABV01@@Z
	?staticTypeName@?$TypedAttribute@W4Compression@Imf@@@Imf@@SAPBDXZ
	?findChannel@ChannelList@Imf@@QAEPAUChannel@2@ABV?$basic_string@DU?$char_traits@D@std@@V?$allocator@D@2@@std@@@Z
	??$_Allocate@UInSliceInfo@?A0xcbf8ace6@Imf@@@std@@YAPAUInSliceInfo@?A0xcbf8ace6@Imf@@IPAU123@@Z
	?tableTooLong@?A0xc87c6bb7@Imf@@YAXXZ
	?levelRoundingMode@TiledRgbaInputFile@Imf@@QBE?AW4LevelRoundingMode@2@XZ
	?begin@?$vector@PAUTileBuffer@?A0x39e5c904@Imf@@V?$allocator@PAUTileBuffer@?A0x39e5c904@Imf@@@std@@@std@@QAE?AV?$_Vector_iterator@V?$_Vector_val@PAUTileBuffer@?A0x39e5c904@Imf@@V?$allocator@PAUTileBuffer@?A0x39e5c904@Imf@@@std@@@std@@@2@XZ
	__TI6?AVTypeExc@Iex@@
	??0?$TypedAttribute@UChromaticities@Imf@@@Imf@@QAE@XZ
	?divp@Imath@@YAHHH@Z
	??1?$_Vector_val@_KV?$allocator@_K@std@@@std@@QAE@XZ
	?isoSpeed@Imf@@YAABMABVHeader@1@@Z
	??$_Ptr_cat@PAULineBuffer@?A0xcbf8ace6@Imf@@PAU123@@std@@YA?AU_Scalar_ptr_iterator_tag@0@PAPAULineBuffer@?A0xcbf8ace6@Imf@@0@Z
	??$typedAttribute@V?$TypedAttribute@W4Envmap@Imf@@@Imf@@@Header@Imf@@QBEABV?$TypedAttribute@W4Envmap@Imf@@@1@QBD@Z
	?hexfloat@?$_Iosb@H@std@@2W4_Fmtflags@12@B
	?registerAttributeType@?$TypedAttribute@V?$Vec3@M@Imath@@@Imf@@SAXXZ
	?resize@?$vector@IV?$allocator@I@std@@@std@@QAEXI@Z
	??$_Move@PAPAULineBuffer@?A0xcbf8ace6@Imf@@PAPAU123@@std@@YAPAPAULineBuffer@?A0xcbf8ace6@Imf@@PAPAU123@00U_Scalar_ptr_iterator_tag@0@@Z
	?value@?$TypedAttribute@VRational@Imf@@@Imf@@QAEAAVRational@2@XZ
	??0LineBufferTask@?A0xf57f9ec6@Imf@@QAE@PAVTaskGroup@IlmThread@@PAUData@OutputFile@2@HHH@Z
	?readTiles@TiledInputFile@Imf@@QAEXHHHHH@Z
	??0?$Matrix33@M@Imath@@QAE@ABV01@@Z
	??D?$_Tree_iterator@V?$_Tree_val@V?$_Tmap_traits@VName@Imf@@USlice@2@U?$less@VName@Imf@@@std@@V?$allocator@U?$pair@$$CBVName@Imf@@USlice@2@@std@@@5@$0A@@std@@@std@@@std@@QBEAAU?$pair@$$CBVName@Imf@@USlice@2@@1@XZ
	??RFHeapCompare@?A0xc87c6bb7@Imf@@QAE_NPA_K0@Z
	??Y?$_Vector_iterator@V?$_Vector_val@PAUTileBuffer@?A0xf6fcebb6@Imf@@V?$allocator@PAUTileBuffer@?A0xf6fcebb6@Imf@@@std@@@std@@@std@@QAEAAV01@H@Z
	?sqrt@@YAMM@Z
	??F?$_Tree_unchecked_const_iterator@V?$_Tree_val@V?$_Tmap_traits@UTileCoord@?A0x39e5c904@Imf@@PAUBufferedTile@23@U?$less@UTileCoord@?A0x39e5c904@Imf@@@std@@V?$allocator@U?$pair@$$CBUTileCoord@?A0x39e5c904@Imf@@PAUBufferedTile@23@@std@@@6@$0A@@std@@@std@@U_Iterator_base12@2@@std@@QAEAAV01@XZ
	?framesPerSecondAttribute@Imf@@YAAAV?$TypedAttribute@VRational@Imf@@@1@AAVHeader@1@@Z
	??Y?$_Vector_const_iterator@V?$_Vector_val@V?$vector@V?$vector@_KV?$allocator@_K@std@@@std@@V?$allocator@V?$vector@_KV?$allocator@_K@std@@@std@@@2@@std@@V?$allocator@V?$vector@V?$vector@_KV?$allocator@_K@std@@@std@@V?$allocator@V?$vector@_KV?$allocator@_K@std@@@std@@@2@@std@@@2@@std@@@std@@QAEAAV01@H@Z
	?timeCode@Imf@@YAAAVTimeCode@1@AAVHeader@1@@Z
	?_Orphan_ptr@?$_Tree@V?$_Tmap_traits@VName@Imf@@UChannel@2@U?$less@VName@Imf@@@std@@V?$allocator@U?$pair@$$CBVName@Imf@@UChannel@2@@std@@@5@$0A@@std@@@std@@IBEXAAV12@PAU_Node@?$_Tree_nod@V?$_Tmap_traits@VName@Imf@@UChannel@2@U?$less@VName@Imf@@@std@@V?$allocator@U?$pair@$$CBVName@Imf@@UChannel@2@@std@@@5@$0A@@std@@@2@@Z
	?registerAttributeType@?$TypedAttribute@V?$Matrix44@N@Imath@@@Imf@@SAXXZ
	?attribute@ConstIterator@Header@Imf@@QBEABVAttribute@3@XZ
	??$abs@M@Imath@@YAMM@Z
	?_Rmost@?$_Tree@V?$_Tset_traits@V?$basic_string@DU?$char_traits@D@std@@V?$allocator@D@2@@std@@U?$less@V?$basic_string@DU?$char_traits@D@std@@V?$allocator@D@2@@std@@@2@V?$allocator@V?$basic_string@DU?$char_traits@D@std@@V?$allocator@D@2@@std@@@2@$0A@@std@@@std@@IBEAAPAU_Node@?$_Tree_nod@V?$_Tset_traits@V?$basic_string@DU?$char_traits@D@std@@V?$allocator@D@2@@std@@U?$less@V?$basic_string@DU?$char_traits@D@std@@V?$allocator@D@2@@std@@@2@V?$allocator@V?$basic_string@DU?$char_traits@D@std@@V?$allocator@D@2@@std@@@2@$0A@@std@@@2@XZ
	?cast@?$TypedAttribute@VRational@Imf@@@Imf@@SAABV12@ABVAttribute@2@@Z
	??$_Uninitialized_move@PAV?$basic_string@DU?$char_traits@D@std@@V?$allocator@D@2@@std@@PAV12@V?$allocator@V?$basic_string@DU?$char_traits@D@std@@V?$allocator@D@2@@std@@@2@@std@@YAPAV?$basic_string@DU?$char_traits@D@std@@V?$allocator@D@2@@0@PAV10@00AAV?$allocator@V?$basic_string@DU?$char_traits@D@std@@V?$allocator@D@2@@std@@@0@@Z
	??$_Uninit_move@PAV?$basic_string@DU?$char_traits@D@std@@V?$allocator@D@2@@std@@PAV12@V?$allocator@V?$basic_string@DU?$char_traits@D@std@@V?$allocator@D@2@@std@@@2@V12@@std@@YAPAV?$basic_string@DU?$char_traits@D@std@@V?$allocator@D@2@@0@PAV10@00AAV?$allocator@V?$basic_string@DU?$char_traits@D@std@@V?$allocator@D@2@@std@@@0@0U_Nonscalar_ptr_iterator_tag@0@@Z
	??$addressof@U?$pair@QBDP6APAVAttribute@Imf@@XZ@std@@@std@@YAPAU?$pair@QBDP6APAVAttribute@Imf@@XZ@0@AAU10@@Z
	??Y?$_Vector_const_iterator@V?$_Vector_val@PAUTileBuffer@?A0x39e5c904@Imf@@V?$allocator@PAUTileBuffer@?A0x39e5c904@Imf@@@std@@@std@@@std@@QAEAAV01@H@Z
	?makeNewAttribute@?$TypedAttribute@V?$Vec2@H@Imath@@@Imf@@SAPAVAttribute@2@XZ
	??1?$_Iterator012@Urandom_access_iterator_tag@std@@UInSliceInfo@?A0xcbf8ace6@Imf@@HPBU345@ABU345@U_Iterator_base12@2@@std@@QAE@XZ
	??$write@UStreamIO@Imf@@VOStream@2@@Xdr@Imf@@YAXAAVOStream@1@H@Z
	??0?$Box@V?$Vec2@H@Imath@@@Imath@@QAE@ABV?$Vec2@H@1@0@Z
	??A?$Array2D@URgba@Imf@@@Imf@@QAEPAURgba@1@J@Z
	?_Copy@?$basic_string@DU?$char_traits@D@std@@V?$allocator@D@2@@std@@QAEXII@Z
	??0?$vector@PAULineBuffer@?A0xcbf8ace6@Imf@@V?$allocator@PAULineBuffer@?A0xcbf8ace6@Imf@@@std@@@std@@QAE@XZ
	?writeValueTo@?$TypedAttribute@V?$Vec2@N@Imath@@@Imf@@UBEXAAVOStream@2@H@Z
	??$_Allocate@PAUTileBuffer@?A0x39e5c904@Imf@@@std@@YAPAPAUTileBuffer@?A0x39e5c904@Imf@@IPAPAU123@@Z
	??0?$_Iterator012@Urandom_access_iterator_tag@std@@_KHPB_KAB_KU_Iterator_base12@2@@std@@QAE@XZ
	?setBinaryGroup@TimeCode@Imf@@QAEXHH@Z
	?copy@?$TypedAttribute@V?$basic_string@DU?$char_traits@D@std@@V?$allocator@D@2@@std@@@Imf@@UBEPAVAttribute@2@XZ
	?isValidLevel@TiledRgbaOutputFile@Imf@@QBE_NHH@Z
	??$_Copy_impl@PAUTOutSliceInfo@?A0x39e5c904@Imf@@PAU123@@std@@YAPAUTOutSliceInfo@?A0x39e5c904@Imf@@PAU123@00U_Nonscalar_ptr_iterator_tag@0@@Z
	?_Reserve@?$vector@V?$vector@V?$vector@_KV?$allocator@_K@std@@@std@@V?$allocator@V?$vector@_KV?$allocator@_K@std@@@std@@@2@@std@@V?$allocator@V?$vector@V?$vector@_KV?$allocator@_K@std@@@std@@V?$allocator@V?$vector@_KV?$allocator@_K@std@@@std@@@2@@std@@@2@@std@@IAEXI@Z
	??1?$_Vector_val@V?$vector@_KV?$allocator@_K@std@@@std@@V?$allocator@V?$vector@_KV?$allocator@_K@std@@@std@@@2@@std@@QAE@XZ
	??$_Fputc@D@std@@YA_NDPAU_iobuf@@@Z
	??0?$TypedAttribute@V?$basic_string@DU?$char_traits@D@std@@V?$allocator@D@2@@std@@@Imf@@QAE@ABV?$basic_string@DU?$char_traits@D@std@@V?$allocator@D@2@@std@@@Z
	??C?$_Tree_unchecked_const_iterator@V?$_Tree_val@V?$_Tmap_traits@VName@Imf@@USlice@2@U?$less@VName@Imf@@@std@@V?$allocator@U?$pair@$$CBVName@Imf@@USlice@2@@std@@@5@$0A@@std@@@std@@U_Iterator_base12@2@@std@@QBEPBU?$pair@$$CBVName@Imf@@USlice@2@@1@XZ
	??$typedAttribute@V?$TypedAttribute@V?$Matrix44@M@Imath@@@Imf@@@Header@Imf@@QAEAAV?$TypedAttribute@V?$Matrix44@M@Imath@@@1@QBD@Z
	??1?$_Tree_const_iterator@V?$_Tree_val@V?$_Tmap_traits@UTileCoord@?A0x39e5c904@Imf@@PAUBufferedTile@23@U?$less@UTileCoord@?A0x39e5c904@Imf@@@std@@V?$allocator@U?$pair@$$CBUTileCoord@?A0x39e5c904@Imf@@PAUBufferedTile@23@@std@@@6@$0A@@std@@@std@@@std@@QAE@XZ
	?expTimeAttribute@Imf@@YAAAV?$TypedAttribute@M@1@AAVHeader@1@@Z
	??0?$Matrix44@M@Imath@@QAE@QAY03$$CBM@Z
	?lower_bound@?$_Tree@V?$_Tmap_traits@VName@Imf@@USlice@2@U?$less@VName@Imf@@@std@@V?$allocator@U?$pair@$$CBVName@Imf@@USlice@2@@std@@@5@$0A@@std@@@std@@QAE?AV?$_Tree_iterator@V?$_Tree_val@V?$_Tmap_traits@VName@Imf@@USlice@2@U?$less@VName@Imf@@@std@@V?$allocator@U?$pair@$$CBVName@Imf@@USlice@2@@std@@@5@$0A@@std@@@std@@@2@ABVName@Imf@@@Z
	?readNextTileData@?A0xf6fcebb6@Imf@@YAXPAUData@TiledInputFile@2@AAH111AAPAD1@Z
	?registerAttributeType@?$TypedAttribute@H@Imf@@SAXXZ
	?end@?$_Tree@V?$_Tmap_traits@PBDP6APAVAttribute@Imf@@XZUNameCompare@?A0x0779e1ad@2@V?$allocator@U?$pair@QBDP6APAVAttribute@Imf@@XZ@std@@@std@@$0A@@std@@@std@@QAE?AV?$_Tree_iterator@V?$_Tree_val@V?$_Tmap_traits@PBDP6APAVAttribute@Imf@@XZUNameCompare@?A0x0779e1ad@2@V?$allocator@U?$pair@QBDP6APAVAttribute@Imf@@XZ@std@@@std@@$0A@@std@@@std@@@2@XZ
	??1?$map@VName@Imf@@USlice@2@U?$less@VName@Imf@@@std@@V?$allocator@U?$pair@$$CBVName@Imf@@USlice@2@@std@@@5@@std@@QAE@XZ
	??1Data@InputFile@Imf@@UAE@XZ
	?comments@Imf@@YAABV?$basic_string@DU?$char_traits@D@std@@V?$allocator@D@2@@std@@ABVHeader@1@@Z
	??1?$_Tree_nod@V?$_Tmap_traits@UTileCoord@?A0x39e5c904@Imf@@PAUBufferedTile@23@U?$less@UTileCoord@?A0x39e5c904@Imf@@@std@@V?$allocator@U?$pair@$$CBUTileCoord@?A0x39e5c904@Imf@@PAUBufferedTile@23@@std@@@6@$0A@@std@@@std@@QAE@XZ
	?RGBtoXYZ@Imf@@YA?AV?$Matrix44@M@Imath@@UChromaticities@1@M@Z
	?clear@?$vector@UInSliceInfo@?A0xcbf8ace6@Imf@@V?$allocator@UInSliceInfo@?A0xcbf8ace6@Imf@@@std@@@std@@QAEXXZ
	??$_Debug_range@V?$_Vector_const_iterator@V?$_Vector_val@V?$vector@_KV?$allocator@_K@std@@@std@@V?$allocator@V?$vector@_KV?$allocator@_K@std@@@std@@@2@@std@@@std@@@std@@YAXV?$_Vector_const_iterator@V?$_Vector_val@V?$vector@_KV?$allocator@_K@std@@@std@@V?$allocator@V?$vector@_KV?$allocator@_K@std@@@std@@@2@@std@@@0@0PB_WI@Z
	??4?$_Tree@V?$_Tmap_traits@VName@Imf@@USlice@2@U?$less@VName@Imf@@@std@@V?$allocator@U?$pair@$$CBVName@Imf@@USlice@2@@std@@@5@$0A@@std@@@std@@QAEAAV01@ABV01@@Z
	?insertChannels@?A0x5c932b76@Imf@@YAXAAVHeader@2@W4RgbaChannels@2@@Z
	?value@?$TypedAttribute@W4LineOrder@Imf@@@Imf@@QBEABW4LineOrder@2@XZ
	?copyValueFrom@?$TypedAttribute@V?$Vec3@N@Imath@@@Imf@@UAEXABVAttribute@2@@Z
	??$_Uninitialized_move@PAPAULineBuffer@?A0xf57f9ec6@Imf@@PAPAU123@V?$allocator@PAULineBuffer@?A0xf57f9ec6@Imf@@@std@@@std@@YAPAPAULineBuffer@?A0xf57f9ec6@Imf@@PAPAU123@00AAV?$allocator@PAULineBuffer@?A0xf57f9ec6@Imf@@@0@@Z
	?_Erase@?$_Tree@V?$_Tmap_traits@UTileCoord@?A0x39e5c904@Imf@@PAUBufferedTile@23@U?$less@UTileCoord@?A0x39e5c904@Imf@@@std@@V?$allocator@U?$pair@$$CBUTileCoord@?A0x39e5c904@Imf@@PAUBufferedTile@23@@std@@@6@$0A@@std@@@std@@IAEXPAU_Node@?$_Tree_nod@V?$_Tmap_traits@UTileCoord@?A0x39e5c904@Imf@@PAUBufferedTile@23@U?$less@UTileCoord@?A0x39e5c904@Imf@@@std@@V?$allocator@U?$pair@$$CBUTileCoord@?A0x39e5c904@Imf@@PAUBufferedTile@23@@std@@@6@$0A@@std@@@2@@Z
	??$_Debug_range@PAUTOutSliceInfo@?A0x39e5c904@Imf@@@std@@YAXPAUTOutSliceInfo@?A0x39e5c904@Imf@@0PB_WI@Z
	??0?$_Pair_base@V?$_Tree_iterator@V?$_Tree_val@V?$_Tmap_traits@PBDP6APAVAttribute@Imf@@XZUNameCompare@?A0x0779e1ad@2@V?$allocator@U?$pair@QBDP6APAVAttribute@Imf@@XZ@std@@@std@@$0A@@std@@@std@@@std@@_N@std@@QAE@$$QAV?$_Tree_iterator@V?$_Tree_val@V?$_Tmap_traits@PBDP6APAVAttribute@Imf@@XZUNameCompare@?A0x0779e1ad@2@V?$allocator@U?$pair@QBDP6APAVAttribute@Imf@@XZ@std@@@std@@$0A@@std@@@std@@@1@$$QA_N@Z
	?_Rank@?$_Arithmetic_traits@F@std@@2HB
	?compress@Pxr24Compressor@Imf@@UAEHPBDHHAAPBD@Z
	??4?$vector@_KV?$allocator@_K@std@@@std@@QAEAAV01@$$QAV01@@Z
	?destroy@?$allocator@U?$pair@$$CBVName@Imf@@USlice@2@@std@@@std@@QAEXPAU?$pair@$$CBVName@Imf@@USlice@2@@2@@Z
	?lookModTransform@Imf@@YAABV?$basic_string@DU?$char_traits@D@std@@V?$allocator@D@2@@std@@ABVHeader@1@@Z
	??0RgbaOutputFile@Imf@@QAE@QBDHHW4RgbaChannels@1@MV?$Vec2@M@Imath@@MW4LineOrder@1@W4Compression@1@H@Z
	??1?$TypedAttribute@W4Envmap@Imf@@@Imf@@UAE@XZ
	?size@?$vector@_KV?$allocator@_K@std@@@std@@QBEIXZ
	??$_Move@PAUInSliceInfo@?A0xcbf8ace6@Imf@@PAU123@@std@@YAPAUInSliceInfo@?A0xcbf8ace6@Imf@@PAU123@00@Z
	??$forward@V?$allocator@D@std@@@std@@YA$$QAV?$allocator@D@0@AAV10@@Z
	??0StdIFStream@Imf@@QAE@QBD@Z
	??RNameCompare@?A0x0779e1ad@Imf@@QBE_NPBD0@Z
	??$_Allocate@I@std@@YAPAIIPAI@Z
	??0RgbaOutputFile@Imf@@QAE@AAVOStream@1@ABVHeader@1@W4RgbaChannels@1@H@Z
	??1?$_Vector_const_iterator@V?$_Vector_val@V?$vector@_KV?$allocator@_K@std@@@std@@V?$allocator@V?$vector@_KV?$allocator@_K@std@@@std@@@2@@std@@@std@@QAE@XZ
	?cast@?$TypedAttribute@V?$Matrix33@M@Imath@@@Imf@@SAPBV12@PBVAttribute@2@@Z
	??0?$Vec3@H@Imath@@QAE@HHH@Z
	?copyValueFrom@?$TypedAttribute@H@Imf@@UAEXABVAttribute@2@@Z
	??$_Debug_lt_pred@U?$less@UTileCoord@?A0x39e5c904@Imf@@@std@@UTileCoord@?A0x39e5c904@Imf@@U345@@std@@YA_NU?$less@UTileCoord@?A0x39e5c904@Imf@@@0@AAUTileCoord@?A0x39e5c904@Imf@@ABU234@PB_WI@Z
	??$_Iter_cat@PAUInSliceInfo@?A0xcbf8ace6@Imf@@@std@@YA?AUrandom_access_iterator_tag@0@ABQAUInSliceInfo@?A0xcbf8ace6@Imf@@@Z
	??$?0U?$pair@$$CBVName@Imf@@UChannel@2@@std@@@?$allocator@U_Node@?$_Tree_nod@V?$_Tmap_traits@VName@Imf@@UChannel@2@U?$less@VName@Imf@@@std@@V?$allocator@U?$pair@$$CBVName@Imf@@UChannel@2@@std@@@5@$0A@@std@@@std@@@std@@QAE@ABV?$allocator@U?$pair@$$CBVName@Imf@@UChannel@2@@std@@@1@@Z
	?size@?$vector@PAUTileBuffer@?A0xf6fcebb6@Imf@@V?$allocator@PAUTileBuffer@?A0xf6fcebb6@Imf@@@std@@@std@@QBEIXZ
	?_Insert@?$_Tree@V?$_Tmap_traits@PBDP6APAVAttribute@Imf@@XZUNameCompare@?A0x0779e1ad@2@V?$allocator@U?$pair@QBDP6APAVAttribute@Imf@@XZ@std@@@std@@$0A@@std@@@std@@IAE?AV?$_Tree_iterator@V?$_Tree_val@V?$_Tmap_traits@PBDP6APAVAttribute@Imf@@XZUNameCompare@?A0x0779e1ad@2@V?$allocator@U?$pair@QBDP6APAVAttribute@Imf@@XZ@std@@@std@@$0A@@std@@@std@@@2@_NPAU_Node@?$_Tree_nod@V?$_Tmap_traits@PBDP6APAVAttribute@Imf@@XZUNameCompare@?A0x0779e1ad@2@V?$allocator@U?$pair@QBDP6APAVAttribute@Imf@@XZ@std@@@std@@$0A@@std@@@2@1@Z
	?end@?$_Tree@V?$_Tmap_traits@VName@Imf@@UChannel@2@U?$less@VName@Imf@@@std@@V?$allocator@U?$pair@$$CBVName@Imf@@UChannel@2@@std@@@5@$0A@@std@@@std@@QAE?AV?$_Tree_iterator@V?$_Tree_val@V?$_Tmap_traits@VName@Imf@@UChannel@2@U?$less@VName@Imf@@@std@@V?$allocator@U?$pair@$$CBVName@Imf@@UChannel@2@@std@@@5@$0A@@std@@@std@@@2@XZ
	__TI7?AVSingMatrixExc@Imath@@
	ImfDeleteLut
	?compression@TiledRgbaInputFile@Imf@@QBE?AW4Compression@2@XZ
	?find@?$char_traits@D@std@@SAPBDPBDIABD@Z
	??$_Debug_lt_pred@UNameCompare@?A0x0779e1ad@Imf@@PBDPBD@std@@YA_NUNameCompare@?A0x0779e1ad@Imf@@AAPBDABQBDPB_WI@Z
	?min@?$limits@M@Imath@@SAMXZ
	??$forward@ABV?$vector@_KV?$allocator@_K@std@@@std@@@std@@YAABV?$vector@_KV?$allocator@_K@std@@@0@ABV10@@Z
	?get_allocator@?$vector@_KV?$allocator@_K@std@@@std@@QBE?AV?$allocator@_K@2@XZ
	?typeName@?$TypedAttribute@VChannelList@Imf@@@Imf@@UBEPBDXZ
	??0?$_Iterator012@Urandom_access_iterator_tag@std@@IHPBIABIU_Iterator_base12@2@@std@@QAE@ABU01@@Z
	??$forward@AAV?$_Tree_const_iterator@V?$_Tree_val@V?$_Tset_traits@V?$basic_string@DU?$char_traits@D@std@@V?$allocator@D@2@@std@@U?$less@V?$basic_string@DU?$char_traits@D@std@@V?$allocator@D@2@@std@@@2@V?$allocator@V?$basic_string@DU?$char_traits@D@std@@V?$allocator@D@2@@std@@@2@$0A@@std@@@std@@@std@@@std@@YAAAV?$_Tree_const_iterator@V?$_Tree_val@V?$_Tset_traits@V?$basic_string@DU?$char_traits@D@std@@V?$allocator@D@2@@std@@U?$less@V?$basic_string@DU?$char_traits@D@std@@V?$allocator@D@2@@std@@@2@V?$allocator@V?$basic_string@DU?$char_traits@D@std@@V?$allocator@D@2@@std@@@2@$0A@@std@@@std@@@0@AAV10@@Z
	??$write@UCharPtrIO@Imf@@PAD@Xdr@Imf@@YAXAAPADVhalf@@@Z
	?_Insert@?$_Tree@V?$_Tset_traits@V?$basic_string@DU?$char_traits@D@std@@V?$allocator@D@2@@std@@U?$less@V?$basic_string@DU?$char_traits@D@std@@V?$allocator@D@2@@std@@@2@V?$allocator@V?$basic_string@DU?$char_traits@D@std@@V?$allocator@D@2@@std@@@2@$0A@@std@@@std@@IAE?AV?$_Tree_const_iterator@V?$_Tree_val@V?$_Tset_traits@V?$basic_string@DU?$char_traits@D@std@@V?$allocator@D@2@@std@@U?$less@V?$basic_string@DU?$char_traits@D@std@@V?$allocator@D@2@@std@@@2@V?$allocator@V?$basic_string@DU?$char_traits@D@std@@V?$allocator@D@2@@std@@@2@$0A@@std@@@std@@@2@_NPAU_Node@?$_Tree_nod@V?$_Tset_traits@V?$basic_string@DU?$char_traits@D@std@@V?$allocator@D@2@@std@@U?$less@V?$basic_string@DU?$char_traits@D@std@@V?$allocator@D@2@@std@@@2@V?$allocator@V?$basic_string@DU?$char_traits@D@std@@V?$allocator@D@2@@std@@@2@$0A@@std@@@2@1@Z
	?dataWindowForLevel@TiledRgbaOutputFile@Imf@@QBE?AV?$Box@V?$Vec2@H@Imath@@@Imath@@H@Z
	??0OverflowExc@Iex@@QAE@PBD@Z
	??$_Debug_range@V?$_Vector_const_iterator@V?$_Vector_val@_KV?$allocator@_K@std@@@std@@@std@@@std@@YAXV?$_Vector_const_iterator@V?$_Vector_val@_KV?$allocator@_K@std@@@std@@@0@0PB_WI@Z
	??0?$AutoArray@E$0CAAA@@Imf@@QAE@XZ
	??1?$_Pair_base@V?$_Tree_iterator@V?$_Tree_val@V?$_Tmap_traits@VName@Imf@@USlice@2@U?$less@VName@Imf@@@std@@V?$allocator@U?$pair@$$CBVName@Imf@@USlice@2@@std@@@5@$0A@@std@@@std@@@std@@_N@std@@QAE@XZ
	??0?$pair@V?$_Tree_iterator@V?$_Tree_val@V?$_Tmap_traits@PBDP6APAVAttribute@Imf@@XZUNameCompare@?A0x0779e1ad@2@V?$allocator@U?$pair@QBDP6APAVAttribute@Imf@@XZ@std@@@std@@$0A@@std@@@std@@@std@@_N@std@@QAE@$$QAV?$_Tree_iterator@V?$_Tree_val@V?$_Tmap_traits@PBDP6APAVAttribute@Imf@@XZUNameCompare@?A0x0779e1ad@2@V?$allocator@U?$pair@QBDP6APAVAttribute@Imf@@XZ@std@@@std@@$0A@@std@@@std@@@1@$$QA_N@Z
	?header@?A0xa29ce62f@@YAPBVHeader@Imf@@PBUImfHeader@@@Z
	??$forward@AAV?$_Tree_iterator@V?$_Tree_val@V?$_Tmap_traits@VName@Imf@@UChannel@2@U?$less@VName@Imf@@@std@@V?$allocator@U?$pair@$$CBVName@Imf@@UChannel@2@@std@@@5@$0A@@std@@@std@@@std@@@std@@YAAAV?$_Tree_iterator@V?$_Tree_val@V?$_Tmap_traits@VName@Imf@@UChannel@2@U?$less@VName@Imf@@@std@@V?$allocator@U?$pair@$$CBVName@Imf@@UChannel@2@@std@@@5@$0A@@std@@@std@@@0@AAV10@@Z
	?clear@?$vector@V?$basic_string@DU?$char_traits@D@std@@V?$allocator@D@2@@std@@V?$allocator@V?$basic_string@DU?$char_traits@D@std@@V?$allocator@D@2@@std@@@2@@std@@QAEXXZ
	?dataWindowForLevel@TiledOutputFile@Imf@@QBE?AV?$Box@V?$Vec2@H@Imath@@@Imath@@HH@Z
	??0?$Array@D@Imf@@QAE@J@Z
	?capacity@?$vector@PAULineBuffer@?A0xcbf8ace6@Imf@@V?$allocator@PAULineBuffer@?A0xcbf8ace6@Imf@@@std@@@std@@QBEIXZ
	?makeNewAttribute@?$TypedAttribute@UChromaticities@Imf@@@Imf@@SAPAVAttribute@2@XZ
	?fps_59_94@Imf@@YA?AVRational@1@XZ
	??$_Ptr_cat@PAUTileBuffer@?A0x39e5c904@Imf@@PAU123@@std@@YA?AU_Scalar_ptr_iterator_tag@0@PAPAUTileBuffer@?A0x39e5c904@Imf@@0@Z
	??1?$TypedAttribute@VChannelList@Imf@@@Imf@@UAE@XZ
	?makeNewAttribute@?$TypedAttribute@V?$vector@V?$basic_string@DU?$char_traits@D@std@@V?$allocator@D@2@@std@@V?$allocator@V?$basic_string@DU?$char_traits@D@std@@V?$allocator@D@2@@std@@@2@@std@@@Imf@@SAPAVAttribute@2@XZ
	?_Orphan_range@?$vector@PAULineBuffer@?A0xcbf8ace6@Imf@@V?$allocator@PAULineBuffer@?A0xcbf8ace6@Imf@@@std@@@std@@IBEXPAPAULineBuffer@?A0xcbf8ace6@Imf@@0@Z
	??$_Uninit_def_fill_n@PAV?$vector@V?$vector@_KV?$allocator@_K@std@@@std@@V?$allocator@V?$vector@_KV?$allocator@_K@std@@@std@@@2@@std@@IV12@V?$allocator@V?$vector@V?$vector@_KV?$allocator@_K@std@@@std@@V?$allocator@V?$vector@_KV?$allocator@_K@std@@@std@@@2@@std@@@2@V12@@std@@YAXPAV?$vector@V?$vector@_KV?$allocator@_K@std@@@std@@V?$allocator@V?$vector@_KV?$allocator@_K@std@@@std@@@2@@0@IPBV10@AAV?$allocator@V?$vector@V?$vector@_KV?$allocator@_K@std@@@std@@V?$allocator@V?$vector@_KV?$allocator@_K@std@@@std@@@2@@std@@@0@0U_Nonscalar_ptr_iterator_tag@0@@Z
	?writeValueTo@?$TypedAttribute@VKeyCode@Imf@@@Imf@@UBEXAAVOStream@2@H@Z
	??0?$TypedAttribute@V?$Matrix44@M@Imath@@@Imf@@QAE@XZ
	??$addressof@U?$pair@$$CBVName@Imf@@USlice@2@@std@@@std@@YAPAU?$pair@$$CBVName@Imf@@USlice@2@@0@AAU10@@Z
	??$forward@U?$pair@$$CBVName@Imf@@PAVAttribute@2@@std@@@std@@YA$$QAU?$pair@$$CBVName@Imf@@PAVAttribute@2@@0@AAU10@@Z
	??0?$TypedAttribute@V?$Box@V?$Vec2@H@Imath@@@Imath@@@Imf@@QAE@ABV?$Box@V?$Vec2@H@Imath@@@Imath@@@Z
	??$writeUnsignedChars@UCharPtrIO@Imf@@PAD@Xdr@Imf@@YAXAAPADQBEH@Z
	??D?$_Vector_const_iterator@V?$_Vector_val@_KV?$allocator@_K@std@@@std@@@std@@QBEAB_KXZ
	?typeName@?$TypedAttribute@V?$Box@V?$Vec2@M@Imath@@@Imath@@@Imf@@UBEPBDXZ
	?registerAttributeType@?$TypedAttribute@N@Imf@@SAXXZ
	??0?$_Vector_val@UInSliceInfo@?A0xcbf8ace6@Imf@@V?$allocator@UInSliceInfo@?A0xcbf8ace6@Imf@@@std@@@std@@QAE@V?$allocator@UInSliceInfo@?A0xcbf8ace6@Imf@@@1@@Z
	??$typedAttribute@V?$TypedAttribute@VRational@Imf@@@Imf@@@Header@Imf@@QBEABV?$TypedAttribute@VRational@Imf@@@1@QBD@Z
	??4?$_Tree_unchecked_const_iterator@V?$_Tree_val@V?$_Tmap_traits@VName@Imf@@UChannel@2@U?$less@VName@Imf@@@std@@V?$allocator@U?$pair@$$CBVName@Imf@@UChannel@2@@std@@@5@$0A@@std@@@std@@U_Iterator_base12@2@@std@@QAEAAV01@ABV01@@Z
	?value@?$TypedAttribute@VChannelList@Imf@@@Imf@@QAEAAVChannelList@2@XZ
	??$addressof@_K@std@@YAPA_KAA_K@Z
	??0?$basic_ifstream@DU?$char_traits@D@std@@@std@@QAE@PBDHH@Z
	?value@?$TypedAttribute@N@Imf@@QBEABNXZ
	??$_Debug_range2@PAPAUTileBuffer@?A0x39e5c904@Imf@@@std@@YAXPAPAUTileBuffer@?A0x39e5c904@Imf@@0PB_WIUrandom_access_iterator_tag@0@@Z
	?staticTypeName@?$TypedAttribute@V?$Box@V?$Vec2@M@Imath@@@Imath@@@Imf@@SAPBDXZ
	??$_Copy_impl@PAV?$vector@V?$vector@_KV?$allocator@_K@std@@@std@@V?$allocator@V?$vector@_KV?$allocator@_K@std@@@std@@@2@@std@@PAV12@@std@@YAPAV?$vector@V?$vector@_KV?$allocator@_K@std@@@std@@V?$allocator@V?$vector@_KV?$allocator@_K@std@@@std@@@2@@0@PAV10@00@Z
	??E?$_Vector_const_iterator@V?$_Vector_val@_KV?$allocator@_K@std@@@std@@@std@@QAEAAV01@XZ
	?compare@?$basic_string@DU?$char_traits@D@std@@V?$allocator@D@2@@std@@QBEHPBD@Z
	??$_Debug_lt_pred@UNameCompare@?A0x0779e1ad@Imf@@PBDPBD@std@@YA_NUNameCompare@?A0x0779e1ad@Imf@@ABQBDAAPBDPB_WI@Z
	??0?$Vec3@H@Imath@@QAE@ABV01@@Z
	?_Tidy@?$vector@IV?$allocator@I@std@@@std@@IAEXXZ
	?wenc14@?A0xfda0f276@Imf@@YAXGGAAG0@Z
	ImfHeaderSetM33fAttribute
	??Y?$_Vector_const_iterator@V?$_Vector_val@V?$vector@_KV?$allocator@_K@std@@@std@@V?$allocator@V?$vector@_KV?$allocator@_K@std@@@std@@@2@@std@@@std@@QAEAAV01@H@Z
	?begin@FrameBuffer@Imf@@QBE?AVConstIterator@12@XZ
	?max_size@?$vector@IV?$allocator@I@std@@@std@@QBEIXZ
	?_Linsert@?$_Tree@V?$_Tmap_traits@PBDP6APAVAttribute@Imf@@XZUNameCompare@?A0x0779e1ad@2@V?$allocator@U?$pair@QBDP6APAVAttribute@Imf@@XZ@std@@@std@@$0A@@std@@@std@@QAE?AU?$pair@V?$_Tree_iterator@V?$_Tree_val@V?$_Tmap_traits@PBDP6APAVAttribute@Imf@@XZUNameCompare@?A0x0779e1ad@2@V?$allocator@U?$pair@QBDP6APAVAttribute@Imf@@XZ@std@@@std@@$0A@@std@@@std@@@std@@_N@2@PAU_Node@?$_Tree_nod@V?$_Tmap_traits@PBDP6APAVAttribute@Imf@@XZUNameCompare@?A0x0779e1ad@2@V?$allocator@U?$pair@QBDP6APAVAttribute@Imf@@XZ@std@@@std@@$0A@@std@@@2@_N@Z
	??0?$Vec2@M@Imath@@QAE@MM@Z
	??$?8_K_K@std@@YA_NABV?$allocator@_K@0@0@Z
	?copy@?$TypedAttribute@V?$Vec2@H@Imath@@@Imf@@UBEPAVAttribute@2@XZ
	?find@FrameBuffer@Imf@@QBE?AVConstIterator@12@QBD@Z
	?max_size@?$allocator@PAULineBuffer@?A0xf57f9ec6@Imf@@@std@@QBEIXZ
	??0?$allocator@U?$pair@$$CBVName@Imf@@PAVAttribute@2@@std@@@std@@QAE@ABV01@@Z
	??0_Iterator_base12@std@@QAE@ABU01@@Z
	??H?$Vec2@H@Imath@@QBE?AV01@ABV01@@Z
	??$max@M@std@@YAABMABM0@Z
	?asin@@YAMM@Z
	?version@RgbaInputFile@Imf@@QBEHXZ
	?begin@?$_Tree@V?$_Tmap_traits@VName@Imf@@PAVAttribute@2@U?$less@VName@Imf@@@std@@V?$allocator@U?$pair@$$CBVName@Imf@@PAVAttribute@2@@std@@@5@$0A@@std@@@std@@QAE?AV?$_Tree_iterator@V?$_Tree_val@V?$_Tmap_traits@VName@Imf@@PAVAttribute@2@U?$less@VName@Imf@@@std@@V?$allocator@U?$pair@$$CBVName@Imf@@PAVAttribute@2@@std@@@5@$0A@@std@@@std@@@2@XZ
	?compare@?$basic_string@DU?$char_traits@D@std@@V?$allocator@D@2@@std@@QBEHABV12@@Z
	??0TiledOutputFile@Imf@@QAE@QBDABVHeader@1@H@Z
	?hasChromaticities@Imf@@YA_NABVHeader@1@@Z
	??$_Allocate@V?$basic_string@DU?$char_traits@D@std@@V?$allocator@D@2@@std@@@std@@YAPAV?$basic_string@DU?$char_traits@D@std@@V?$allocator@D@2@@0@IPAV10@@Z
	??0Channel@Imf@@QAE@W4PixelType@1@HH_N@Z
	?pixelAspectRatio@Header@Imf@@QBEABMXZ
	??$_Kfn@$$CBUTileCoord@?A0x39e5c904@Imf@@PAUBufferedTile@23@@?$_Tmap_traits@UTileCoord@?A0x39e5c904@Imf@@PAUBufferedTile@23@U?$less@UTileCoord@?A0x39e5c904@Imf@@@std@@V?$allocator@U?$pair@$$CBUTileCoord@?A0x39e5c904@Imf@@PAUBufferedTile@23@@std@@@6@$0A@@std@@SAABUTileCoord@?A0x39e5c904@Imf@@ABU?$pair@$$CBUTileCoord@?A0x39e5c904@Imf@@PAUBufferedTile@23@@1@@Z
	??$typedAttribute@V?$TypedAttribute@V?$Vec3@M@Imath@@@Imf@@@Header@Imf@@QAEAAV?$TypedAttribute@V?$Vec3@M@Imath@@@1@QBD@Z
	??$forward@AAQBD@std@@YAAAQBDAAQBD@Z
	?append@?$basic_string@DU?$char_traits@D@std@@V?$allocator@D@2@@std@@QAEAAV12@PBDI@Z
	?registerAttributeType@?$TypedAttribute@W4Compression@Imf@@@Imf@@SAXXZ
	??4?$vector@V?$basic_string@DU?$char_traits@D@std@@V?$allocator@D@2@@std@@V?$allocator@V?$basic_string@DU?$char_traits@D@std@@V?$allocator@D@2@@std@@@2@@std@@QAEAAV01@ABV01@@Z
	?adjustfield@?$_Iosb@H@std@@2W4_Fmtflags@12@B
	?allocate@?$allocator@UTOutSliceInfo@?A0x39e5c904@Imf@@@std@@QAEPAUTOutSliceInfo@?A0x39e5c904@Imf@@I@Z
	??8?$_Vector_const_iterator@V?$_Vector_val@PAUTileBuffer@?A0x39e5c904@Imf@@V?$allocator@PAUTileBuffer@?A0x39e5c904@Imf@@@std@@@std@@@std@@QBE_NABV01@@Z
	??0?$Matrix33@M@Imath@@QAE@QAY02$$CBM@Z
	__CTA7?AVOverflowExc@Iex@@
	??0ArgExc@Iex@@QAE@AAV?$basic_stringstream@DU?$char_traits@D@std@@V?$allocator@D@2@@std@@@Z
	??1OStream@Imf@@UAE@XZ
	??H?$_Vector_iterator@V?$_Vector_val@PAULineBuffer@?A0xf57f9ec6@Imf@@V?$allocator@PAULineBuffer@?A0xf57f9ec6@Imf@@@std@@@std@@@std@@QBE?AV01@H@Z
	??$_Dist_type@PAPA_K@std@@YAPAHPAPA_K@Z
	??E?$_Tree_unchecked_const_iterator@V?$_Tree_val@V?$_Tmap_traits@VName@Imf@@USlice@2@U?$less@VName@Imf@@@std@@V?$allocator@U?$pair@$$CBVName@Imf@@USlice@2@@std@@@5@$0A@@std@@@std@@U_Iterator_base12@2@@std@@QAEAAV01@XZ
	??1?$_Tree_unchecked_const_iterator@V?$_Tree_val@V?$_Tmap_traits@VName@Imf@@USlice@2@U?$less@VName@Imf@@@std@@V?$allocator@U?$pair@$$CBVName@Imf@@USlice@2@@std@@@5@$0A@@std@@@std@@U_Iterator_base12@2@@std@@QAE@XZ
	??0?$_Tree_const_iterator@V?$_Tree_val@V?$_Tmap_traits@VName@Imf@@UChannel@2@U?$less@VName@Imf@@@std@@V?$allocator@U?$pair@$$CBVName@Imf@@UChannel@2@@std@@@5@$0A@@std@@@std@@@std@@QAE@XZ
	?fileName@ScanLineInputFile@Imf@@QBEPBDXZ
	?header@OutputFile@Imf@@QBEABVHeader@2@XZ
	??0?$AutoArray@UHufDec@?A0xc87c6bb7@Imf@@$0EAAA@@Imf@@QAE@XZ
	?checkError@?A0xb3db3203@Imf@@YA_NAAV?$basic_istream@DU?$char_traits@D@std@@@std@@_J@Z
	?header@ScanLineInputFile@Imf@@QBEABVHeader@2@XZ
	?setBitField@?A0x304371a6@Imf@@YAXAAIHHI@Z
	?max_size@?$_Tree@V?$_Tmap_traits@VName@Imf@@PAVAttribute@2@U?$less@VName@Imf@@@std@@V?$allocator@U?$pair@$$CBVName@Imf@@PAVAttribute@2@@std@@@5@$0A@@std@@@std@@QBEIXZ
	?_Erase@?$_Tree@V?$_Tmap_traits@VName@Imf@@USlice@2@U?$less@VName@Imf@@@std@@V?$allocator@U?$pair@$$CBVName@Imf@@USlice@2@@std@@@5@$0A@@std@@@std@@IAEXPAU_Node@?$_Tree_nod@V?$_Tmap_traits@VName@Imf@@USlice@2@U?$less@VName@Imf@@@std@@V?$allocator@U?$pair@$$CBVName@Imf@@USlice@2@@std@@@5@$0A@@std@@@2@@Z
	?_Rank@?$_Arithmetic_traits@I@std@@2HB
	??$_Iter_cat@PAUTInSliceInfo@?A0xf6fcebb6@Imf@@@std@@YA?AUrandom_access_iterator_tag@0@ABQAUTInSliceInfo@?A0xf6fcebb6@Imf@@@Z
	?copy@?$TypedAttribute@W4LineOrder@Imf@@@Imf@@UBEPAVAttribute@2@XZ
	??$_Fill_n@PAPAULineBuffer@?A0xf57f9ec6@Imf@@IPAU123@@std@@YAXPAPAULineBuffer@?A0xf57f9ec6@Imf@@IABQAU123@@Z
	?begin@?$vector@PAUTileBuffer@?A0xf6fcebb6@Imf@@V?$allocator@PAUTileBuffer@?A0xf6fcebb6@Imf@@@std@@@std@@QAE?AV?$_Vector_iterator@V?$_Vector_val@PAUTileBuffer@?A0xf6fcebb6@Imf@@V?$allocator@PAUTileBuffer@?A0xf6fcebb6@Imf@@@std@@@std@@@2@XZ
	??0?$TypedAttribute@V?$Matrix44@M@Imath@@@Imf@@QAE@ABV?$Matrix44@M@Imath@@@Z
	?prefixFromLayerName@?A0x5c932b76@Imf@@YA?AV?$basic_string@DU?$char_traits@D@std@@V?$allocator@D@2@@std@@ABV34@ABVHeader@2@@Z
	ImfOpenTiledOutputFile
	?min@?$limits@H@Imath@@SAHXZ
	?hasComments@Imf@@YA_NABVHeader@1@@Z
	?clear@?$_Tree@V?$_Tmap_traits@VName@Imf@@PAVAttribute@2@U?$less@VName@Imf@@@std@@V?$allocator@U?$pair@$$CBVName@Imf@@PAVAttribute@2@@std@@@5@$0A@@std@@@std@@QAEXXZ
	?registerAttributeType@?$TypedAttribute@V?$Box@V?$Vec2@H@Imath@@@Imath@@@Imf@@SAXXZ
	??$_Debug_range2@PAV?$vector@V?$vector@_KV?$allocator@_K@std@@@std@@V?$allocator@V?$vector@_KV?$allocator@_K@std@@@std@@@2@@std@@@std@@YAXPAV?$vector@V?$vector@_KV?$allocator@_K@std@@@std@@V?$allocator@V?$vector@_KV?$allocator@_K@std@@@std@@@2@@0@0PB_WIUrandom_access_iterator_tag@0@@Z
	??0?$_Pair_base@QBDP6APAVAttribute@Imf@@XZ@std@@QAE@$$QBQBD$$QAP6APAVAttribute@Imf@@XZ@Z
	??1OutputFile@Imf@@UAE@XZ
	??$_Move@PAV?$vector@V?$vector@_KV?$allocator@_K@std@@@std@@V?$allocator@V?$vector@_KV?$allocator@_K@std@@@std@@@2@@std@@PAV12@@std@@YAPAV?$vector@V?$vector@_KV?$allocator@_K@std@@@std@@V?$allocator@V?$vector@_KV?$allocator@_K@std@@@std@@@2@@0@PAV10@00@Z
	??1TileBuffer@?A0xf6fcebb6@Imf@@QAE@XZ
	??$write@UStreamIO@Imf@@VOStream@2@@Xdr@Imf@@YAXAAVOStream@1@D@Z
	??1?$_Vector_val@UOutSliceInfo@?A0xf57f9ec6@Imf@@V?$allocator@UOutSliceInfo@?A0xf57f9ec6@Imf@@@std@@@std@@QAE@XZ
	??4?$Matrix44@M@Imath@@QAEABV01@ABV01@@Z
	??$?0AAV?$_Tree_iterator@V?$_Tree_val@V?$_Tmap_traits@PBDP6APAVAttribute@Imf@@XZUNameCompare@?A0x0779e1ad@2@V?$allocator@U?$pair@QBDP6APAVAttribute@Imf@@XZ@std@@@std@@$0A@@std@@@std@@@std@@AAV01@@?$pair@V?$_Tree_iterator@V?$_Tree_val@V?$_Tmap_traits@PBDP6APAVAttribute@Imf@@XZUNameCompare@?A0x0779e1ad@2@V?$allocator@U?$pair@QBDP6APAVAttribute@Imf@@XZ@std@@@std@@$0A@@std@@@std@@@std@@V12@@std@@QAE@AAV?$_Tree_iterator@V?$_Tree_val@V?$_Tmap_traits@PBDP6APAVAttribute@Imf@@XZUNameCompare@?A0x0779e1ad@2@V?$allocator@U?$pair@QBDP6APAVAttribute@Imf@@XZ@std@@@std@@$0A@@std@@@std@@@1@0@Z
	?atan2@@YAMMM@Z
	??$swap@H@std@@YAXAAH0@Z
	?readValueFrom@?$TypedAttribute@V?$Matrix44@M@Imath@@@Imf@@UAEXAAVIStream@2@HH@Z
	?_Make_iter@?$vector@V?$vector@_KV?$allocator@_K@std@@@std@@V?$allocator@V?$vector@_KV?$allocator@_K@std@@@std@@@2@@std@@QBE?AV?$_Vector_iterator@V?$_Vector_val@V?$vector@_KV?$allocator@_K@std@@@std@@V?$allocator@V?$vector@_KV?$allocator@_K@std@@@std@@@2@@std@@@2@V?$_Vector_const_iterator@V?$_Vector_val@V?$vector@_KV?$allocator@_K@std@@@std@@V?$allocator@V?$vector@_KV?$allocator@_K@std@@@std@@@2@@std@@@2@@Z
	??0?$_Tree_const_iterator@V?$_Tree_val@V?$_Tmap_traits@PBDP6APAVAttribute@Imf@@XZUNameCompare@?A0x0779e1ad@2@V?$allocator@U?$pair@QBDP6APAVAttribute@Imf@@XZ@std@@@std@@$0A@@std@@@std@@@std@@QAE@PAU_Node@?$_Tree_nod@V?$_Tmap_traits@PBDP6APAVAttribute@Imf@@XZUNameCompare@?A0x0779e1ad@2@V?$allocator@U?$pair@QBDP6APAVAttribute@Imf@@XZ@std@@@std@@$0A@@std@@@1@PBV?$_Tree_val@V?$_Tmap_traits@PBDP6APAVAttribute@Imf@@XZUNameCompare@?A0x0779e1ad@2@V?$allocator@U?$pair@QBDP6APAVAttribute@Imf@@XZ@std@@@std@@$0A@@std@@@1@@Z
	?writePixels@RgbaOutputFile@Imf@@QAEXH@Z
	??$typedAttribute@V?$TypedAttribute@M@Imf@@@Header@Imf@@QBEABV?$TypedAttribute@M@1@QBD@Z
	?compress@PizCompressor@Imf@@UAEHPBDHHAAPBD@Z
	??$_Unchecked@PAPA_K@std@@YAPAPA_KPAPA_K@Z
	?_Root@?$_Tree@V?$_Tmap_traits@VName@Imf@@USlice@2@U?$less@VName@Imf@@@std@@V?$allocator@U?$pair@$$CBVName@Imf@@USlice@2@@std@@@5@$0A@@std@@@std@@IBEAAPAU_Node@?$_Tree_nod@V?$_Tmap_traits@VName@Imf@@USlice@2@U?$less@VName@Imf@@@std@@V?$allocator@U?$pair@$$CBVName@Imf@@USlice@2@@std@@@5@$0A@@std@@@2@XZ
	??A?$vector@V?$vector@_KV?$allocator@_K@std@@@std@@V?$allocator@V?$vector@_KV?$allocator@_K@std@@@std@@@2@@std@@QAEAAV?$vector@_KV?$allocator@_K@std@@@1@I@Z
	?_Make_iter@?$vector@V?$basic_string@DU?$char_traits@D@std@@V?$allocator@D@2@@std@@V?$allocator@V?$basic_string@DU?$char_traits@D@std@@V?$allocator@D@2@@std@@@2@@std@@QBE?AV?$_Vector_iterator@V?$_Vector_val@V?$basic_string@DU?$char_traits@D@std@@V?$allocator@D@2@@std@@V?$allocator@V?$basic_string@DU?$char_traits@D@std@@V?$allocator@D@2@@std@@@2@@std@@@2@V?$_Vector_const_iterator@V?$_Vector_val@V?$basic_string@DU?$char_traits@D@std@@V?$allocator@D@2@@std@@V?$allocator@V?$basic_string@DU?$char_traits@D@std@@V?$allocator@D@2@@std@@@2@@std@@@2@@Z
	?copy@?$TypedAttribute@V?$Matrix44@M@Imath@@@Imf@@UBEPAVAttribute@2@XZ
	?dataWindow@Header@Imf@@QAEAAV?$Box@V?$Vec2@H@Imath@@@Imath@@XZ
	??0?$_Pair_base@V?$_Tree_iterator@V?$_Tree_val@V?$_Tmap_traits@UTileCoord@?A0x39e5c904@Imf@@PAUBufferedTile@23@U?$less@UTileCoord@?A0x39e5c904@Imf@@@std@@V?$allocator@U?$pair@$$CBUTileCoord@?A0x39e5c904@Imf@@PAUBufferedTile@23@@std@@@6@$0A@@std@@@std@@@std@@_N@std@@QAE@$$QAV?$_Tree_iterator@V?$_Tree_val@V?$_Tmap_traits@UTileCoord@?A0x39e5c904@Imf@@PAUBufferedTile@23@U?$less@UTileCoord@?A0x39e5c904@Imf@@@std@@V?$allocator@U?$pair@$$CBUTileCoord@?A0x39e5c904@Imf@@PAUBufferedTile@23@@std@@@6@$0A@@std@@@std@@@1@$$QA_N@Z
	??0?$pair@$$CBVName@Imf@@UChannel@2@@std@@QAE@ABVName@Imf@@$$QAUChannel@3@@Z
	?displayWindow@Header@Imf@@QAEAAV?$Box@V?$Vec2@H@Imath@@@Imath@@XZ
	?pbackfail@?$basic_filebuf@DU?$char_traits@D@std@@@std@@MAEHH@Z
	??$_Cons_val@V?$allocator@V?$vector@V?$vector@_KV?$allocator@_K@std@@@std@@V?$allocator@V?$vector@_KV?$allocator@_K@std@@@std@@@2@@std@@@std@@V?$vector@V?$vector@_KV?$allocator@_K@std@@@std@@V?$allocator@V?$vector@_KV?$allocator@_K@std@@@std@@@2@@2@AAV32@@std@@YAXAAV?$allocator@V?$vector@V?$vector@_KV?$allocator@_K@std@@@std@@V?$allocator@V?$vector@_KV?$allocator@_K@std@@@std@@@2@@std@@@0@PAV?$vector@V?$vector@_KV?$allocator@_K@std@@@std@@V?$allocator@V?$vector@_KV?$allocator@_K@std@@@std@@@2@@0@AAV20@@Z
	??0InputFile@Imf@@QAE@AAVIStream@1@H@Z
	??M?$_Vector_const_iterator@V?$_Vector_val@UInSliceInfo@?A0xcbf8ace6@Imf@@V?$allocator@UInSliceInfo@?A0xcbf8ace6@Imf@@@std@@@std@@@std@@QBE_NABV01@@Z
	??Y?$_Vector_const_iterator@V?$_Vector_val@PAUTileBuffer@?A0xf6fcebb6@Imf@@V?$allocator@PAUTileBuffer@?A0xf6fcebb6@Imf@@@std@@@std@@@std@@QAEAAV01@H@Z
	?_Myval@?$_Tree_val@V?$_Tmap_traits@VName@Imf@@UChannel@2@U?$less@VName@Imf@@@std@@V?$allocator@U?$pair@$$CBVName@Imf@@UChannel@2@@std@@@5@$0A@@std@@@std@@SAAAU?$pair@$$CBVName@Imf@@UChannel@2@@2@PAU_Node@?$_Tree_nod@V?$_Tmap_traits@VName@Imf@@UChannel@2@U?$less@VName@Imf@@@std@@V?$allocator@U?$pair@$$CBVName@Imf@@UChannel@2@@std@@@5@$0A@@std@@@2@@Z
	?_Xlen@?$vector@UTOutSliceInfo@?A0x39e5c904@Imf@@V?$allocator@UTOutSliceInfo@?A0x39e5c904@Imf@@@std@@@std@@IBEXXZ
	?execute@TileBufferTask@?A0x39e5c904@Imf@@UAEXXZ
	ImfHeaderSetDataWindow
	??0?$_Iterator012@Urandom_access_iterator_tag@std@@_KHPB_KAB_KU_Iterator_base12@2@@std@@QAE@ABU01@@Z
	??9?$_Vector_const_iterator@V?$_Vector_val@UInSliceInfo@?A0xcbf8ace6@Imf@@V?$allocator@UInSliceInfo@?A0xcbf8ace6@Imf@@@std@@@std@@@std@@QBE_NABV01@@Z
	?registerAttributeType@?$TypedAttribute@V?$Vec2@H@Imath@@@Imf@@SAXXZ
	??$readSignedChars@UCharPtrIO@Imf@@PBD@Xdr@Imf@@YAXAAPBDQACH@Z
	??0?$_Tree_const_iterator@V?$_Tree_val@V?$_Tset_traits@V?$basic_string@DU?$char_traits@D@std@@V?$allocator@D@2@@std@@U?$less@V?$basic_string@DU?$char_traits@D@std@@V?$allocator@D@2@@std@@@2@V?$allocator@V?$basic_string@DU?$char_traits@D@std@@V?$allocator@D@2@@std@@@2@$0A@@std@@@std@@@std@@QAE@PAU_Node@?$_Tree_nod@V?$_Tset_traits@V?$basic_string@DU?$char_traits@D@std@@V?$allocator@D@2@@std@@U?$less@V?$basic_string@DU?$char_traits@D@std@@V?$allocator@D@2@@std@@@2@V?$allocator@V?$basic_string@DU?$char_traits@D@std@@V?$allocator@D@2@@std@@@2@$0A@@std@@@1@PBV?$_Tree_val@V?$_Tset_traits@V?$basic_string@DU?$char_traits@D@std@@V?$allocator@D@2@@std@@U?$less@V?$basic_string@DU?$char_traits@D@std@@V?$allocator@D@2@@std@@@2@V?$allocator@V?$basic_string@DU?$char_traits@D@std@@V?$allocator@D@2@@std@@@2@$0A@@std@@@1@@Z
	?_Erase@?$_Tree@V?$_Tset_traits@V?$basic_string@DU?$char_traits@D@std@@V?$allocator@D@2@@std@@U?$less@V?$basic_string@DU?$char_traits@D@std@@V?$allocator@D@2@@std@@@2@V?$allocator@V?$basic_string@DU?$char_traits@D@std@@V?$allocator@D@2@@std@@@2@$0A@@std@@@std@@IAEXPAU_Node@?$_Tree_nod@V?$_Tset_traits@V?$basic_string@DU?$char_traits@D@std@@V?$allocator@D@2@@std@@U?$less@V?$basic_string@DU?$char_traits@D@std@@V?$allocator@D@2@@std@@@2@V?$allocator@V?$basic_string@DU?$char_traits@D@std@@V?$allocator@D@2@@std@@@2@$0A@@std@@@2@@Z
	??$_Kfn@$$CBVName@Imf@@PAVAttribute@2@@?$_Tmap_traits@VName@Imf@@PAVAttribute@2@U?$less@VName@Imf@@@std@@V?$allocator@U?$pair@$$CBVName@Imf@@PAVAttribute@2@@std@@@5@$0A@@std@@SAABVName@Imf@@ABU?$pair@$$CBVName@Imf@@PAVAttribute@2@@1@@Z
	?_Destroy@?$vector@PAULineBuffer@?A0xcbf8ace6@Imf@@V?$allocator@PAULineBuffer@?A0xcbf8ace6@Imf@@@std@@@std@@IAEXPAPAULineBuffer@?A0xcbf8ace6@Imf@@0@Z
	ImfHeaderSetScreenWindowWidth
	??0StdOFStream@Imf@@QAE@AAV?$basic_ofstream@DU?$char_traits@D@std@@@std@@QBD@Z
	?push_back@?$vector@V?$basic_string@DU?$char_traits@D@std@@V?$allocator@D@2@@std@@V?$allocator@V?$basic_string@DU?$char_traits@D@std@@V?$allocator@D@2@@std@@@2@@std@@QAEX$$QAV?$basic_string@DU?$char_traits@D@std@@V?$allocator@D@2@@2@@Z
	?value@?$TypedAttribute@V?$basic_string@DU?$char_traits@D@std@@V?$allocator@D@2@@std@@@Imf@@QAEAAV?$basic_string@DU?$char_traits@D@std@@V?$allocator@D@2@@std@@XZ
	?unRegisterAttributeType@?$TypedAttribute@M@Imf@@SAXXZ
	??4?$_Tree_unchecked_const_iterator@V?$_Tree_val@V?$_Tmap_traits@VName@Imf@@PAVAttribute@2@U?$less@VName@Imf@@@std@@V?$allocator@U?$pair@$$CBVName@Imf@@PAVAttribute@2@@std@@@5@$0A@@std@@@std@@U_Iterator_base12@2@@std@@QAEAAV01@ABV01@@Z
	?_Color@?$_Tree_val@V?$_Tmap_traits@UTileCoord@?A0x39e5c904@Imf@@PAUBufferedTile@23@U?$less@UTileCoord@?A0x39e5c904@Imf@@@std@@V?$allocator@U?$pair@$$CBUTileCoord@?A0x39e5c904@Imf@@PAUBufferedTile@23@@std@@@6@$0A@@std@@@std@@SAAADPAU_Node@?$_Tree_nod@V?$_Tmap_traits@UTileCoord@?A0x39e5c904@Imf@@PAUBufferedTile@23@U?$less@UTileCoord@?A0x39e5c904@Imf@@@std@@V?$allocator@U?$pair@$$CBUTileCoord@?A0x39e5c904@Imf@@PAUBufferedTile@23@@std@@@6@$0A@@std@@@2@@Z
	?registerAttributeType@?$TypedAttribute@VKeyCode@Imf@@@Imf@@SAXXZ
	??$forward@UOutSliceInfo@?A0xf57f9ec6@Imf@@@std@@YA$$QAUOutSliceInfo@?A0xf57f9ec6@Imf@@AAU123@@Z
	??1LineBuffer@?A0xf57f9ec6@Imf@@QAE@XZ
	?setFrameBuffer@ScanLineInputFile@Imf@@QAEXABVFrameBuffer@2@@Z
	?allocate@?$allocator@U_Node@?$_Tree_nod@V?$_Tmap_traits@VName@Imf@@USlice@2@U?$less@VName@Imf@@@std@@V?$allocator@U?$pair@$$CBVName@Imf@@USlice@2@@std@@@5@$0A@@std@@@std@@@std@@QAEPAU_Node@?$_Tree_nod@V?$_Tmap_traits@VName@Imf@@USlice@2@U?$less@VName@Imf@@@std@@V?$allocator@U?$pair@$$CBVName@Imf@@USlice@2@@std@@@5@$0A@@std@@@2@I@Z
	?end@?$vector@UOutSliceInfo@?A0xf57f9ec6@Imf@@V?$allocator@UOutSliceInfo@?A0xf57f9ec6@Imf@@@std@@@std@@QAE?AV?$_Vector_iterator@V?$_Vector_val@UOutSliceInfo@?A0xf57f9ec6@Imf@@V?$allocator@UOutSliceInfo@?A0xf57f9ec6@Imf@@@std@@@std@@@2@XZ
	??0?$_Tree_unchecked_const_iterator@V?$_Tree_val@V?$_Tmap_traits@VName@Imf@@PAVAttribute@2@U?$less@VName@Imf@@@std@@V?$allocator@U?$pair@$$CBVName@Imf@@PAVAttribute@2@@std@@@5@$0A@@std@@@std@@U_Iterator_base12@2@@std@@QAE@ABV01@@Z
	?copyValueFrom@?$TypedAttribute@W4Envmap@Imf@@@Imf@@UAEXABVAttribute@2@@Z
	?dataWindow@RgbaOutputFile@Imf@@QBEABV?$Box@V?$Vec2@H@Imath@@@Imath@@XZ
	?find@ChannelList@Imf@@QAE?AVIterator@12@QBD@Z
	?previewImage@Header@Imf@@QBEABVPreviewImage@2@XZ
	?reserve@?$vector@PAUTileBuffer@?A0xf6fcebb6@Imf@@V?$allocator@PAUTileBuffer@?A0xf6fcebb6@Imf@@@std@@@std@@QAEXI@Z
	??0?$_Tree_iterator@V?$_Tree_val@V?$_Tmap_traits@PBDP6APAVAttribute@Imf@@XZUNameCompare@?A0x0779e1ad@2@V?$allocator@U?$pair@QBDP6APAVAttribute@Imf@@XZ@std@@@std@@$0A@@std@@@std@@@std@@QAE@PAU_Node@?$_Tree_nod@V?$_Tmap_traits@PBDP6APAVAttribute@Imf@@XZUNameCompare@?A0x0779e1ad@2@V?$allocator@U?$pair@QBDP6APAVAttribute@Imf@@XZ@std@@@std@@$0A@@std@@@1@PBV?$_Tree_val@V?$_Tmap_traits@PBDP6APAVAttribute@Imf@@XZUNameCompare@?A0x0779e1ad@2@V?$allocator@U?$pair@QBDP6APAVAttribute@Imf@@XZ@std@@@std@@$0A@@std@@@1@@Z
	?_Root@?$_Tree@V?$_Tmap_traits@VName@Imf@@UChannel@2@U?$less@VName@Imf@@@std@@V?$allocator@U?$pair@$$CBVName@Imf@@UChannel@2@@std@@@5@$0A@@std@@@std@@IBEAAPAU_Node@?$_Tree_nod@V?$_Tmap_traits@VName@Imf@@UChannel@2@U?$less@VName@Imf@@@std@@V?$allocator@U?$pair@$$CBVName@Imf@@UChannel@2@@std@@@5@$0A@@std@@@2@XZ
	?apertureAttribute@Imf@@YAAAV?$TypedAttribute@M@1@AAVHeader@1@@Z
	??$_Iter_cat@PAUTOutSliceInfo@?A0x39e5c904@Imf@@@std@@YA?AUrandom_access_iterator_tag@0@ABQAUTOutSliceInfo@?A0x39e5c904@Imf@@@Z
	?right@?$_Iosb@H@std@@2W4_Fmtflags@12@B
	??$read@UStreamIO@Imf@@VIStream@2@@Xdr@Imf@@YAXAAVIStream@1@AAD@Z
	??$_Iter_cat@PAUOutSliceInfo@?A0xf57f9ec6@Imf@@@std@@YA?AUrandom_access_iterator_tag@0@ABQAUOutSliceInfo@?A0xf57f9ec6@Imf@@@Z
	?ctype@?$_Locbase@H@std@@2HB
	??B?$Array@D@Imf@@QAEPADXZ
	??0?$TypedAttribute@W4Compression@Imf@@@Imf@@QAE@ABW4Compression@1@@Z
	??$_Debug_pointer@I@std@@YAXPAIPB_WI@Z
	?hex@?$_Iosb@H@std@@2W4_Fmtflags@12@B
	?value@?$TypedAttribute@V?$Vec3@M@Imath@@@Imf@@QBEABV?$Vec3@M@Imath@@XZ
	?_Orphan_range@?$vector@UInSliceInfo@?A0xcbf8ace6@Imf@@V?$allocator@UInSliceInfo@?A0xcbf8ace6@Imf@@@std@@@std@@IBEXPAUInSliceInfo@?A0xcbf8ace6@Imf@@0@Z
	?size@?$vector@PAULineBuffer@?A0xf57f9ec6@Imf@@V?$allocator@PAULineBuffer@?A0xf57f9ec6@Imf@@@std@@@std@@QBEIXZ
	?copy@?$TypedAttribute@M@Imf@@UBEPAVAttribute@2@XZ
	??8?$_Tree_const_iterator@V?$_Tree_val@V?$_Tmap_traits@PBDP6APAVAttribute@Imf@@XZUNameCompare@?A0x0779e1ad@2@V?$allocator@U?$pair@QBDP6APAVAttribute@Imf@@XZ@std@@@std@@$0A@@std@@@std@@@std@@QBE_NABV01@@Z
	??$?0P6A?AVhalf@@V0@@Z@?$halfFunction@Vhalf@@@@QAE@P6A?AVhalf@@V1@@Z000000@Z
	??0?$_Iterator012@Ubidirectional_iterator_tag@std@@U?$pair@$$CBVName@Imf@@USlice@2@@2@HPBU32@ABU32@U_Iterator_base12@2@@std@@QAE@XZ
	??0TiledRgbaOutputFile@Imf@@QAE@QBDHHHHW4LevelMode@1@W4LevelRoundingMode@1@W4RgbaChannels@1@MV?$Vec2@M@Imath@@MW4LineOrder@1@W4Compression@1@H@Z
	?insert@Header@Imf@@QAEXQBDABVAttribute@2@@Z
	??$writeUnsignedChars@UStreamIO@Imf@@VOStream@2@@Xdr@Imf@@YAXAAVOStream@1@QBEH@Z
	?readTile@FromYa@TiledRgbaInputFile@Imf@@QAEXHHHH@Z
	?sendCode@?A0xc87c6bb7@Imf@@YAX_KH0AA_KAAHAAPAD@Z
	??$_Dest_val@V?$allocator@UTInSliceInfo@?A0xf6fcebb6@Imf@@@std@@UTInSliceInfo@?A0xf6fcebb6@Imf@@@std@@YAXAAV?$allocator@UTInSliceInfo@?A0xf6fcebb6@Imf@@@0@PAUTInSliceInfo@?A0xf6fcebb6@Imf@@@Z
	?copy@?$TypedAttribute@V?$Vec3@H@Imath@@@Imf@@UBEPAVAttribute@2@XZ
	??0?$TypedAttribute@N@Imf@@QAE@ABV01@@Z
	?bgf2@TimeCode@Imf@@QBE_NXZ
	?infile@?A0xa29ce62f@@YAPAVTiledRgbaInputFile@Imf@@PAUImfTiledInputFile@@@Z
	?compression@RgbaInputFile@Imf@@QBE?AW4Compression@2@XZ
	?acos@@YAMM@Z
	??1TileBufferTask@?A0x39e5c904@Imf@@UAE@XZ
	??$read@UStreamIO@Imf@@VIStream@2@@Xdr@Imf@@YAXAAVIStream@1@AAM@Z
	?setMaxImageSize@Header@Imf@@SAXHH@Z
	?_Reserve@?$vector@UOutSliceInfo@?A0xf57f9ec6@Imf@@V?$allocator@UOutSliceInfo@?A0xf57f9ec6@Imf@@@std@@@std@@IAEXI@Z
	?_Grow_to@?$vector@UInSliceInfo@?A0xcbf8ace6@Imf@@V?$allocator@UInSliceInfo@?A0xcbf8ace6@Imf@@@std@@@std@@IBEII@Z
	?isoSpeed@Imf@@YAAAMAAVHeader@1@@Z
	?allocate@?$allocator@V?$vector@V?$vector@_KV?$allocator@_K@std@@@std@@V?$allocator@V?$vector@_KV?$allocator@_K@std@@@std@@@2@@std@@@std@@QAEPAV?$vector@V?$vector@_KV?$allocator@_K@std@@@std@@V?$allocator@V?$vector@_KV?$allocator@_K@std@@@std@@@2@@2@I@Z
	?begin@?$_Tree@V?$_Tmap_traits@VName@Imf@@PAVAttribute@2@U?$less@VName@Imf@@@std@@V?$allocator@U?$pair@$$CBVName@Imf@@PAVAttribute@2@@std@@@5@$0A@@std@@@std@@QBE?AV?$_Tree_const_iterator@V?$_Tree_val@V?$_Tmap_traits@VName@Imf@@PAVAttribute@2@U?$less@VName@Imf@@@std@@V?$allocator@U?$pair@$$CBVName@Imf@@PAVAttribute@2@@std@@@5@$0A@@std@@@std@@@2@XZ
	?cast@?$TypedAttribute@N@Imf@@SAABV12@ABVAttribute@2@@Z
	?fileName@IStream@Imf@@QBEPBDXZ
	?newTileBufferTask@?A0xf6fcebb6@Imf@@YAPAVTileBufferTask@12@PAVTaskGroup@IlmThread@@PAUData@TiledInputFile@2@HHHHH@Z
	?timeAndFlags@TimeCode@Imf@@QBEIW4Packing@12@@Z
	??1?$TypedAttribute@VKeyCode@Imf@@@Imf@@UAE@XZ
	ImfOutputChannels
	?timeCodeAttribute@Imf@@YAABV?$TypedAttribute@VTimeCode@Imf@@@1@ABVHeader@1@@Z
	??$_Ptr_cat@II@std@@YA?AU_Scalar_ptr_iterator_tag@0@PAI0@Z
	??1?$_Vector_iterator@V?$_Vector_val@UInSliceInfo@?A0xcbf8ace6@Imf@@V?$allocator@UInSliceInfo@?A0xcbf8ace6@Imf@@@std@@@std@@@std@@QAE@XZ
	?cast@?$TypedAttribute@V?$Matrix33@N@Imath@@@Imf@@SAPBV12@PBVAttribute@2@@Z
	?cast@?$TypedAttribute@V?$Vec2@H@Imath@@@Imf@@SAABV12@ABVAttribute@2@@Z
	?copyValueFrom@?$TypedAttribute@V?$Box@V?$Vec2@M@Imath@@@Imath@@@Imf@@UAEXABVAttribute@2@@Z
	?makeNewAttribute@?$TypedAttribute@N@Imf@@SAPAVAttribute@2@XZ
	??1?$vector@V?$basic_string@DU?$char_traits@D@std@@V?$allocator@D@2@@std@@V?$allocator@V?$basic_string@DU?$char_traits@D@std@@V?$allocator@D@2@@std@@@2@@std@@QAE@XZ
	?numXLevels@TiledRgbaOutputFile@Imf@@QBEHXZ
	??$size@H@Xdr@Imf@@YAHXZ
	??0?$_Tree_iterator@V?$_Tree_val@V?$_Tmap_traits@PBDP6APAVAttribute@Imf@@XZUNameCompare@?A0x0779e1ad@2@V?$allocator@U?$pair@QBDP6APAVAttribute@Imf@@XZ@std@@@std@@$0A@@std@@@std@@@std@@QAE@ABV01@@Z
	??$_Ucopy@V?$_Vector_const_iterator@V?$_Vector_val@_KV?$allocator@_K@std@@@std@@@std@@@?$vector@_KV?$allocator@_K@std@@@std@@IAEPA_KV?$_Vector_const_iterator@V?$_Vector_val@_KV?$allocator@_K@std@@@std@@@1@0PA_K@Z
	??0ChannelList@Imf@@QAE@ABV01@@Z
	?staticInitialize@Imf@@YAXXZ
	?addWrapmodes@Imf@@YAXAAVHeader@1@ABV?$basic_string@DU?$char_traits@D@std@@V?$allocator@D@2@@std@@@Z
	?newTileCompressor@Imf@@YAPAVCompressor@1@W4Compression@1@IIABVHeader@1@@Z
	?writeChars@StreamIO@Imf@@SAXAAVOStream@2@QBDH@Z
	?pixelTypeSize@Imf@@YAHW4PixelType@1@@Z
	?clear@?$_Tree@V?$_Tmap_traits@VName@Imf@@USlice@2@U?$less@VName@Imf@@@std@@V?$allocator@U?$pair@$$CBVName@Imf@@USlice@2@@std@@@5@$0A@@std@@@std@@QAEXXZ
	?erase@?$_Tree@V?$_Tmap_traits@VName@Imf@@USlice@2@U?$less@VName@Imf@@@std@@V?$allocator@U?$pair@$$CBVName@Imf@@USlice@2@@std@@@5@$0A@@std@@@std@@QAE?AV?$_Tree_iterator@V?$_Tree_val@V?$_Tmap_traits@VName@Imf@@USlice@2@U?$less@VName@Imf@@@std@@V?$allocator@U?$pair@$$CBVName@Imf@@USlice@2@@std@@@5@$0A@@std@@@std@@@2@V?$_Tree_const_iterator@V?$_Tree_val@V?$_Tmap_traits@VName@Imf@@USlice@2@U?$less@VName@Imf@@@std@@V?$allocator@U?$pair@$$CBVName@Imf@@USlice@2@@std@@@5@$0A@@std@@@std@@@2@0@Z
	??1?$_Tmap_traits@PBDP6APAVAttribute@Imf@@XZUNameCompare@?A0x0779e1ad@2@V?$allocator@U?$pair@QBDP6APAVAttribute@Imf@@XZ@std@@@std@@$0A@@std@@QAE@XZ
	??A?$vector@IV?$allocator@I@std@@@std@@QAEAAII@Z
	??0ArgExc@Iex@@QAE@ABV01@@Z
	?findSlice@FrameBuffer@Imf@@QBEPBUSlice@2@QBD@Z
	?addLookModTransform@Imf@@YAXAAVHeader@1@ABV?$basic_string@DU?$char_traits@D@std@@V?$allocator@D@2@@std@@@Z
	?seekoff@?$basic_stringbuf@DU?$char_traits@D@std@@V?$allocator@D@2@@std@@MAE?AV?$fpos@H@2@_JHH@Z
	??4?$Box@V?$Vec2@M@Imath@@@Imath@@QAEAAV01@ABV01@@Z
	?dataWindowForLevel@TiledInputFile@Imf@@QBE?AV?$Box@V?$Vec2@H@Imath@@@Imath@@H@Z
	??$_Uninit_move@PAUInSliceInfo@?A0xcbf8ace6@Imf@@PAU123@V?$allocator@UInSliceInfo@?A0xcbf8ace6@Imf@@@std@@U123@@std@@YAPAUInSliceInfo@?A0xcbf8ace6@Imf@@PAU123@00AAV?$allocator@UInSliceInfo@?A0xcbf8ace6@Imf@@@0@0U_Nonscalar_ptr_iterator_tag@0@@Z
	??0?$AutoArray@H$0BAAAB@@Imf@@QAE@XZ
	?resize@?$vector@PAULineBuffer@?A0xcbf8ace6@Imf@@V?$allocator@PAULineBuffer@?A0xcbf8ace6@Imf@@@std@@@std@@QAEXI@Z
	?currentScanLine@OutputFile@Imf@@QBEHXZ
	ImfTiledOutputTileYSize
	?defaultViewName@Imf@@YA?AV?$basic_string@DU?$char_traits@D@std@@V?$allocator@D@2@@std@@ABV?$vector@V?$basic_string@DU?$char_traits@D@std@@V?$allocator@D@2@@std@@V?$allocator@V?$basic_string@DU?$char_traits@D@std@@V?$allocator@D@2@@std@@@2@@3@@Z
	?anyOffsetsAreInvalid@TileOffsets@Imf@@ABE_NXZ
	?writeLineOffsets@?A0xf57f9ec6@Imf@@YA_KAAVOStream@2@ABV?$vector@_KV?$allocator@_K@std@@@std@@@Z
	__CTA5?AVBaseExc@Iex@@
	?underflow@?$basic_stringbuf@DU?$char_traits@D@std@@V?$allocator@D@2@@std@@MAEHXZ
	??$_Copy_impl@PAUTInSliceInfo@?A0xf6fcebb6@Imf@@PAU123@@std@@YAPAUTInSliceInfo@?A0xf6fcebb6@Imf@@PAU123@00U_Nonscalar_ptr_iterator_tag@0@@Z
	??Y?$_Vector_const_iterator@V?$_Vector_val@PAULineBuffer@?A0xf57f9ec6@Imf@@V?$allocator@PAULineBuffer@?A0xf57f9ec6@Imf@@@std@@@std@@@std@@QAEAAV01@H@Z
	?_Grow_to@?$vector@PAULineBuffer@?A0xf57f9ec6@Imf@@V?$allocator@PAULineBuffer@?A0xf57f9ec6@Imf@@@std@@@std@@IBEII@Z
	??$_Debug_pointer@PA_K@std@@YAXPAPA_KPB_WI@Z
	?sanityCheck@Header@Imf@@QBEX_N@Z
	?_Lrotate@?$_Tree@V?$_Tmap_traits@VName@Imf@@USlice@2@U?$less@VName@Imf@@@std@@V?$allocator@U?$pair@$$CBVName@Imf@@USlice@2@@std@@@5@$0A@@std@@@std@@IAEXPAU_Node@?$_Tree_nod@V?$_Tmap_traits@VName@Imf@@USlice@2@U?$less@VName@Imf@@@std@@V?$allocator@U?$pair@$$CBVName@Imf@@USlice@2@@std@@@5@$0A@@std@@@2@@Z
	?keyCodeAttribute@Imf@@YAAAV?$TypedAttribute@VKeyCode@Imf@@@1@AAVHeader@1@@Z
	??0Name@Imf@@QAE@QBD@Z
	??$typedAttribute@V?$TypedAttribute@V?$vector@V?$basic_string@DU?$char_traits@D@std@@V?$allocator@D@2@@std@@V?$allocator@V?$basic_string@DU?$char_traits@D@std@@V?$allocator@D@2@@std@@@2@@std@@@Imf@@@Header@Imf@@QAEAAV?$TypedAttribute@V?$vector@V?$basic_string@DU?$char_traits@D@std@@V?$allocator@D@2@@std@@V?$allocator@V?$basic_string@DU?$char_traits@D@std@@V?$allocator@D@2@@std@@@2@@std@@@1@QBD@Z
	??D?$_Tree_const_iterator@V?$_Tree_val@V?$_Tmap_traits@UTileCoord@?A0x39e5c904@Imf@@PAUBufferedTile@23@U?$less@UTileCoord@?A0x39e5c904@Imf@@@std@@V?$allocator@U?$pair@$$CBUTileCoord@?A0x39e5c904@Imf@@PAUBufferedTile@23@@std@@@6@$0A@@std@@@std@@@std@@QBEABU?$pair@$$CBUTileCoord@?A0x39e5c904@Imf@@PAUBufferedTile@23@@1@XZ
	?staticTypeName@?$TypedAttribute@N@Imf@@SAPBDXZ
	?levelHeight@TiledRgbaOutputFile@Imf@@QBEHH@Z
	?uncompress@B44Compressor@Imf@@AAEHPBDHV?$Box@V?$Vec2@H@Imath@@@Imath@@AAPBD@Z
	?wenc16@?A0xfda0f276@Imf@@YAXGGAAG0@Z
	??$_Destroy@U?$pair@$$CBUTileCoord@?A0x39e5c904@Imf@@PAUBufferedTile@23@@std@@@std@@YAXPAU?$pair@$$CBUTileCoord@?A0x39e5c904@Imf@@PAUBufferedTile@23@@0@@Z
	?fileName@RgbaInputFile@Imf@@QBEPBDXZ
	ImfInputSetFrameBuffer
	??$_Uninit_copy@PAV?$vector@_KV?$allocator@_K@std@@@std@@PAV12@V?$allocator@V?$vector@_KV?$allocator@_K@std@@@std@@@2@@std@@YAPAV?$vector@_KV?$allocator@_K@std@@@0@PAV10@00AAV?$allocator@V?$vector@_KV?$allocator@_K@std@@@std@@@0@U_Nonscalar_ptr_iterator_tag@0@@Z
	?_Rmost@?$_Tree@V?$_Tmap_traits@VName@Imf@@PAVAttribute@2@U?$less@VName@Imf@@@std@@V?$allocator@U?$pair@$$CBVName@Imf@@PAVAttribute@2@@std@@@5@$0A@@std@@@std@@IBEAAPAU_Node@?$_Tree_nod@V?$_Tmap_traits@VName@Imf@@PAVAttribute@2@U?$less@VName@Imf@@@std@@V?$allocator@U?$pair@$$CBVName@Imf@@PAVAttribute@2@@std@@@5@$0A@@std@@@2@XZ
	?setColorFrame@TimeCode@Imf@@QAEX_N@Z
	?clear@?$vector@V?$vector@_KV?$allocator@_K@std@@@std@@V?$allocator@V?$vector@_KV?$allocator@_K@std@@@std@@@2@@std@@QAEXXZ
	?max_size@?$allocator@UOutSliceInfo@?A0xf57f9ec6@Imf@@@std@@QBEIXZ
	?allocate@?$allocator@U_Node@?$_Tree_nod@V?$_Tmap_traits@PBDP6APAVAttribute@Imf@@XZUNameCompare@?A0x0779e1ad@2@V?$allocator@U?$pair@QBDP6APAVAttribute@Imf@@XZ@std@@@std@@$0A@@std@@@std@@@std@@QAEPAU_Node@?$_Tree_nod@V?$_Tmap_traits@PBDP6APAVAttribute@Imf@@XZUNameCompare@?A0x0779e1ad@2@V?$allocator@U?$pair@QBDP6APAVAttribute@Imf@@XZ@std@@@std@@$0A@@std@@@2@I@Z
	?deallocate@?$allocator@U_Node@?$_Tree_nod@V?$_Tmap_traits@VName@Imf@@USlice@2@U?$less@VName@Imf@@@std@@V?$allocator@U?$pair@$$CBVName@Imf@@USlice@2@@std@@@5@$0A@@std@@@std@@@std@@QAEXPAU_Node@?$_Tree_nod@V?$_Tmap_traits@VName@Imf@@USlice@2@U?$less@VName@Imf@@@std@@V?$allocator@U?$pair@$$CBVName@Imf@@USlice@2@@std@@@5@$0A@@std@@@2@I@Z
	?uncompress@RleCompressor@Imf@@UAEHPBDHHAAPBD@Z
	??0?$Box@V?$Vec2@H@Imath@@@Imath@@QAE@ABV01@@Z
	?dec@?$_Iosb@H@std@@2W4_Fmtflags@12@B
	?max_size@?$allocator@I@std@@QBEIXZ
	??0ZipCompressor@Imf@@QAE@ABVHeader@1@II@Z
	?worldToCameraAttribute@Imf@@YAAAV?$TypedAttribute@V?$Matrix44@M@Imath@@@1@AAVHeader@1@@Z
	?tileYSize@TiledRgbaInputFile@Imf@@QBEIXZ
	?_Destroy@?$vector@PAULineBuffer@?A0xf57f9ec6@Imf@@V?$allocator@PAULineBuffer@?A0xf57f9ec6@Imf@@@std@@@std@@IAEXPAPAULineBuffer@?A0xf57f9ec6@Imf@@0@Z
	?_Rank@?$_Arithmetic_traits@D@std@@2HB
	?_Root@?$_Tree@V?$_Tmap_traits@PBDP6APAVAttribute@Imf@@XZUNameCompare@?A0x0779e1ad@2@V?$allocator@U?$pair@QBDP6APAVAttribute@Imf@@XZ@std@@@std@@$0A@@std@@@std@@IBEAAPAU_Node@?$_Tree_nod@V?$_Tmap_traits@PBDP6APAVAttribute@Imf@@XZUNameCompare@?A0x0779e1ad@2@V?$allocator@U?$pair@QBDP6APAVAttribute@Imf@@XZ@std@@@std@@$0A@@std@@@2@XZ
	?length@?$char_traits@D@std@@SAIPBD@Z
	?addLatitude@Imf@@YAXAAVHeader@1@ABM@Z
	??0?$_Tree_nod@V?$_Tmap_traits@PBDP6APAVAttribute@Imf@@XZUNameCompare@?A0x0779e1ad@2@V?$allocator@U?$pair@QBDP6APAVAttribute@Imf@@XZ@std@@@std@@$0A@@std@@@std@@QAE@ABUNameCompare@?A0x0779e1ad@Imf@@V?$allocator@U?$pair@QBDP6APAVAttribute@Imf@@XZ@std@@@1@@Z
	??8?$_Vector_const_iterator@V?$_Vector_val@_KV?$allocator@_K@std@@@std@@@std@@QBE_NABV01@@Z
	??$_Ungetc@D@std@@YA_NABDPAU_iobuf@@@Z
	?setFrameBuffer@InputFile@Imf@@QAEXABVFrameBuffer@2@@Z
	?guessExactFps@Imf@@YA?AVRational@1@N@Z
	?screenWindowCenter@TiledRgbaOutputFile@Imf@@QBE?BV?$Vec2@M@Imath@@XZ
	??F?$_Tree_const_iterator@V?$_Tree_val@V?$_Tmap_traits@VName@Imf@@USlice@2@U?$less@VName@Imf@@@std@@V?$allocator@U?$pair@$$CBVName@Imf@@USlice@2@@std@@@5@$0A@@std@@@std@@@std@@QAEAAV01@XZ
	?showbase@?$_Iosb@H@std@@2W4_Fmtflags@12@B
	??0?$Vec2@M@Imath@@QAE@XZ
	?fileName@TiledRgbaInputFile@Imf@@QBEPBDXZ
	??$read@UCharPtrIO@Imf@@PBD@Xdr@Imf@@YAXAAPBDAAM@Z
	?insert@ChannelList@Imf@@QAEXQBDABUChannel@2@@Z
	??$_Debug_range2@PA_K@std@@YAXPA_K0PB_WIUrandom_access_iterator_tag@0@@Z
	??A?$vector@IV?$allocator@I@std@@@std@@QBEABII@Z
	?_Xlen@?$vector@UTInSliceInfo@?A0xf6fcebb6@Imf@@V?$allocator@UTInSliceInfo@?A0xf6fcebb6@Imf@@@std@@@std@@IBEXXZ
	??0ConstIterator@ChannelList@Imf@@QAE@ABVIterator@12@@Z
	?longitudeAttribute@Imf@@YAAAV?$TypedAttribute@M@1@AAVHeader@1@@Z
	?checkError@?A0xb3db3203@Imf@@YAXAAV?$basic_ostream@DU?$char_traits@D@std@@@std@@@Z
	?_Grow_to@?$vector@V?$vector@V?$vector@_KV?$allocator@_K@std@@@std@@V?$allocator@V?$vector@_KV?$allocator@_K@std@@@std@@@2@@std@@V?$allocator@V?$vector@V?$vector@_KV?$allocator@_K@std@@@std@@V?$allocator@V?$vector@_KV?$allocator@_K@std@@@std@@@2@@std@@@2@@std@@IBEII@Z
	??0?$TypedAttribute@V?$Matrix44@N@Imath@@@Imf@@QAE@XZ
	?_Compat@?$_Vector_const_iterator@V?$_Vector_val@V?$vector@V?$vector@_KV?$allocator@_K@std@@@std@@V?$allocator@V?$vector@_KV?$allocator@_K@std@@@std@@@2@@std@@V?$allocator@V?$vector@V?$vector@_KV?$allocator@_K@std@@@std@@V?$allocator@V?$vector@_KV?$allocator@_K@std@@@std@@@2@@std@@@2@@std@@@std@@QBEXABV12@@Z
	?_Left@?$_Tree_val@V?$_Tmap_traits@VName@Imf@@UChannel@2@U?$less@VName@Imf@@@std@@V?$allocator@U?$pair@$$CBVName@Imf@@UChannel@2@@std@@@5@$0A@@std@@@std@@SAAAPAU_Node@?$_Tree_nod@V?$_Tmap_traits@VName@Imf@@UChannel@2@U?$less@VName@Imf@@@std@@V?$allocator@U?$pair@$$CBVName@Imf@@UChannel@2@@std@@@5@$0A@@std@@@2@PAU342@@Z
	?worldToNDC@Imf@@YAAAV?$Matrix44@M@Imath@@AAVHeader@1@@Z
	?_Xlen@?$vector@UInSliceInfo@?A0xcbf8ace6@Imf@@V?$allocator@UInSliceInfo@?A0xcbf8ace6@Imf@@@std@@@std@@IBEXXZ
	?hasTimeCode@Imf@@YA_NABVHeader@1@@Z
	??H?$_Vector_iterator@V?$_Vector_val@V?$vector@V?$vector@_KV?$allocator@_K@std@@@std@@V?$allocator@V?$vector@_KV?$allocator@_K@std@@@std@@@2@@std@@V?$allocator@V?$vector@V?$vector@_KV?$allocator@_K@std@@@std@@V?$allocator@V?$vector@_KV?$allocator@_K@std@@@std@@@2@@std@@@2@@std@@@std@@QBE?AV01@H@Z
	?resize@?$vector@PAUTileBuffer@?A0x39e5c904@Imf@@V?$allocator@PAUTileBuffer@?A0x39e5c904@Imf@@@std@@@std@@QAEXI@Z
	?cast@?$TypedAttribute@M@Imf@@SAPAV12@PAVAttribute@2@@Z
	??$write@UCharPtrIO@Imf@@PAD@Xdr@Imf@@YAXAAPADM@Z
	?hasLookModTransform@Imf@@YA_NABVHeader@1@@Z
	??$_Umove@PAV?$basic_string@DU?$char_traits@D@std@@V?$allocator@D@2@@std@@@?$vector@V?$basic_string@DU?$char_traits@D@std@@V?$allocator@D@2@@std@@V?$allocator@V?$basic_string@DU?$char_traits@D@std@@V?$allocator@D@2@@std@@@2@@std@@IAEPAV?$basic_string@DU?$char_traits@D@std@@V?$allocator@D@2@@1@PAV21@00@Z
	??A?$map@VName@Imf@@UChannel@2@U?$less@VName@Imf@@@std@@V?$allocator@U?$pair@$$CBVName@Imf@@UChannel@2@@std@@@5@@std@@QAEAAUChannel@Imf@@ABVName@3@@Z
	?_Right@?$_Tree_val@V?$_Tmap_traits@PBDP6APAVAttribute@Imf@@XZUNameCompare@?A0x0779e1ad@2@V?$allocator@U?$pair@QBDP6APAVAttribute@Imf@@XZ@std@@@std@@$0A@@std@@@std@@SAAAPAU_Node@?$_Tree_nod@V?$_Tmap_traits@PBDP6APAVAttribute@Imf@@XZUNameCompare@?A0x0779e1ad@2@V?$allocator@U?$pair@QBDP6APAVAttribute@Imf@@XZ@std@@@std@@$0A@@std@@@2@PAU342@@Z
	?_Stdio@?$_Iosb@H@std@@2W4_Fmtflags@12@B
	?lower_bound@?$_Tree@V?$_Tmap_traits@PBDP6APAVAttribute@Imf@@XZUNameCompare@?A0x0779e1ad@2@V?$allocator@U?$pair@QBDP6APAVAttribute@Imf@@XZ@std@@@std@@$0A@@std@@@std@@QAE?AV?$_Tree_iterator@V?$_Tree_val@V?$_Tmap_traits@PBDP6APAVAttribute@Imf@@XZUNameCompare@?A0x0779e1ad@2@V?$allocator@U?$pair@QBDP6APAVAttribute@Imf@@XZ@std@@@std@@$0A@@std@@@std@@@2@ABQBD@Z
	??$_Allocate@U_Node@?$_Tree_nod@V?$_Tmap_traits@PBDP6APAVAttribute@Imf@@XZUNameCompare@?A0x0779e1ad@2@V?$allocator@U?$pair@QBDP6APAVAttribute@Imf@@XZ@std@@@std@@$0A@@std@@@std@@@std@@YAPAU_Node@?$_Tree_nod@V?$_Tmap_traits@PBDP6APAVAttribute@Imf@@XZUNameCompare@?A0x0779e1ad@2@V?$allocator@U?$pair@QBDP6APAVAttribute@Imf@@XZ@std@@@std@@$0A@@std@@@0@IPAU120@@Z
	?hasOwner@Imf@@YA_NABVHeader@1@@Z
	??0?$_Tree_iterator@V?$_Tree_val@V?$_Tmap_traits@UTileCoord@?A0x39e5c904@Imf@@PAUBufferedTile@23@U?$less@UTileCoord@?A0x39e5c904@Imf@@@std@@V?$allocator@U?$pair@$$CBUTileCoord@?A0x39e5c904@Imf@@PAUBufferedTile@23@@std@@@6@$0A@@std@@@std@@@std@@QAE@PAU_Node@?$_Tree_nod@V?$_Tmap_traits@UTileCoord@?A0x39e5c904@Imf@@PAUBufferedTile@23@U?$less@UTileCoord@?A0x39e5c904@Imf@@@std@@V?$allocator@U?$pair@$$CBUTileCoord@?A0x39e5c904@Imf@@PAUBufferedTile@23@@std@@@6@$0A@@std@@@1@PBV?$_Tree_val@V?$_Tmap_traits@UTileCoord@?A0x39e5c904@Imf@@PAUBufferedTile@23@U?$less@UTileCoord@?A0x39e5c904@Imf@@@std@@V?$allocator@U?$pair@$$CBUTileCoord@?A0x39e5c904@Imf@@PAUBufferedTile@23@@std@@@6@$0A@@std@@@1@@Z
	?messages@?$_Locbase@H@std@@2HB
	??A?$Matrix44@M@Imath@@QBEPBMH@Z
	?levelSize@Imf@@YAHHHHW4LevelRoundingMode@1@@Z
	?push_back@?$vector@UTOutSliceInfo@?A0x39e5c904@Imf@@V?$allocator@UTOutSliceInfo@?A0x39e5c904@Imf@@@std@@@std@@QAEX$$QAUTOutSliceInfo@?A0x39e5c904@Imf@@@Z
	?tooMuchData@?A0xb36f0740@Imf@@YAXXZ
	ImfHeaderV2fAttribute
	?cast@?$TypedAttribute@VPreviewImage@Imf@@@Imf@@SAABV12@ABVAttribute@2@@Z
	?makeNewAttribute@?$TypedAttribute@W4Compression@Imf@@@Imf@@SAPAVAttribute@2@XZ
	??$_Uninit_def_fill_n@IIII@std@@YAXPAIIPBIAAV?$allocator@I@0@0U_Scalar_ptr_iterator_tag@0@@Z
	?tooMuchData@?A0x2158812f@Imf@@YAXXZ
	??$?0PAULineBuffer@?A0xf57f9ec6@Imf@@@?$allocator@U_Container_proxy@std@@@std@@QAE@ABV?$allocator@PAULineBuffer@?A0xf57f9ec6@Imf@@@1@@Z
	??$?0UroundNBit@Imf@@@?$halfFunction@Vhalf@@@@QAE@UroundNBit@Imf@@Vhalf@@11111@Z
	?copyValueFrom@?$TypedAttribute@V?$Vec2@N@Imath@@@Imf@@UAEXABVAttribute@2@@Z
	?setFrameBuffer@TiledRgbaOutputFile@Imf@@QAEXPBURgba@2@II@Z
	?_Buynode@?$_Tree_val@V?$_Tmap_traits@VName@Imf@@UChannel@2@U?$less@VName@Imf@@@std@@V?$allocator@U?$pair@$$CBVName@Imf@@UChannel@2@@std@@@5@$0A@@std@@@std@@QAEPAU_Node@?$_Tree_nod@V?$_Tmap_traits@VName@Imf@@UChannel@2@U?$less@VName@Imf@@@std@@V?$allocator@U?$pair@$$CBVName@Imf@@UChannel@2@@std@@@5@$0A@@std@@@2@XZ
	?longitude@Imf@@YAABMABVHeader@1@@Z
	??B?$fpos@H@std@@QBE_JXZ
	?begin@?$_Tree@V?$_Tmap_traits@VName@Imf@@UChannel@2@U?$less@VName@Imf@@@std@@V?$allocator@U?$pair@$$CBVName@Imf@@UChannel@2@@std@@@5@$0A@@std@@@std@@QBE?AV?$_Tree_const_iterator@V?$_Tree_val@V?$_Tmap_traits@VName@Imf@@UChannel@2@U?$less@VName@Imf@@@std@@V?$allocator@U?$pair@$$CBVName@Imf@@UChannel@2@@std@@@5@$0A@@std@@@std@@@2@XZ
	??M?$_Vector_const_iterator@V?$_Vector_val@PAUTileBuffer@?A0xf6fcebb6@Imf@@V?$allocator@PAUTileBuffer@?A0xf6fcebb6@Imf@@@std@@@std@@@std@@QBE_NABV01@@Z
	?_Rmost@?$_Tree@V?$_Tmap_traits@VName@Imf@@UChannel@2@U?$less@VName@Imf@@@std@@V?$allocator@U?$pair@$$CBVName@Imf@@UChannel@2@@std@@@5@$0A@@std@@@std@@IBEAAPAU_Node@?$_Tree_nod@V?$_Tmap_traits@VName@Imf@@UChannel@2@U?$less@VName@Imf@@@std@@V?$allocator@U?$pair@$$CBVName@Imf@@UChannel@2@@std@@@5@$0A@@std@@@2@XZ
	?setFrameBuffer@ToYa@TiledRgbaOutputFile@Imf@@QAEXPBURgba@3@II@Z
	?levelMode@TiledOutputFile@Imf@@QBE?AW4LevelMode@2@XZ
	?value@?$TypedAttribute@N@Imf@@QAEAANXZ
	??$typedAttribute@V?$TypedAttribute@M@Imf@@@Header@Imf@@QAEAAV?$TypedAttribute@M@1@QBD@Z
	??$?8V?$basic_string@DU?$char_traits@D@std@@V?$allocator@D@2@@std@@V01@@std@@YA_NABV?$allocator@V?$basic_string@DU?$char_traits@D@std@@V?$allocator@D@2@@std@@@0@0@Z
	??$addressof@U?$pair@$$CBVName@Imf@@PAVAttribute@2@@std@@@std@@YAPAU?$pair@$$CBVName@Imf@@PAVAttribute@2@@0@AAU10@@Z
	??$move@AAUTInSliceInfo@?A0xf6fcebb6@Imf@@@std@@YA$$QAUTInSliceInfo@?A0xf6fcebb6@Imf@@AAU123@@Z
	??0TypeExc@Iex@@QAE@AAV?$basic_stringstream@DU?$char_traits@D@std@@V?$allocator@D@2@@std@@@Z
	?allocate@?$allocator@PAULineBuffer@?A0xf57f9ec6@Imf@@@std@@QAEPAPAULineBuffer@?A0xf57f9ec6@Imf@@I@Z
	?wrapmodesAttribute@Imf@@YAABV?$TypedAttribute@V?$basic_string@DU?$char_traits@D@std@@V?$allocator@D@2@@std@@@1@ABVHeader@1@@Z
	??1Data@TiledOutputFile@Imf@@UAE@XZ
	?_Xlen@?$vector@IV?$allocator@I@std@@@std@@IBEXXZ
	?applyLut@?A0xce4d6f11@Imf@@YAXQBGQAGH@Z
	?updatePreviewImage@TiledRgbaOutputFile@Imf@@QAEXQBUPreviewRgba@2@@Z
	??$_Fill_n@PAPAUTileBuffer@?A0x39e5c904@Imf@@IPAU123@@std@@YAXPAPAUTileBuffer@?A0x39e5c904@Imf@@IABQAU123@@Z
	?_Compat@?$_Vector_const_iterator@V?$_Vector_val@V?$vector@_KV?$allocator@_K@std@@@std@@V?$allocator@V?$vector@_KV?$allocator@_K@std@@@std@@@2@@std@@@std@@QBEXABV12@@Z
	??$?0D@?$allocator@U_Container_proxy@std@@@std@@QAE@ABV?$allocator@D@1@@Z
	??$use_facet@V?$codecvt@DDH@std@@@std@@YAABV?$codecvt@DDH@0@ABVlocale@0@@Z
	?setMaxTileSize@Header@Imf@@SAXHH@Z
	?resize@?$vector@PAULineBuffer@?A0xf57f9ec6@Imf@@V?$allocator@PAULineBuffer@?A0xf57f9ec6@Imf@@@std@@@std@@QAEXI@Z
	??$_Move@PAPAULineBuffer@?A0xcbf8ace6@Imf@@PAPAU123@@std@@YAPAPAULineBuffer@?A0xcbf8ace6@Imf@@PAPAU123@00@Z
	?cast@?$TypedAttribute@V?$Vec2@N@Imath@@@Imf@@SAABV12@ABVAttribute@2@@Z
	?end@?$_Tree@V?$_Tmap_traits@VName@Imf@@PAVAttribute@2@U?$less@VName@Imf@@@std@@V?$allocator@U?$pair@$$CBVName@Imf@@PAVAttribute@2@@std@@@5@$0A@@std@@@std@@QAE?AV?$_Tree_iterator@V?$_Tree_val@V?$_Tmap_traits@VName@Imf@@PAVAttribute@2@U?$less@VName@Imf@@@std@@V?$allocator@U?$pair@$$CBVName@Imf@@PAVAttribute@2@@std@@@5@$0A@@std@@@std@@@2@XZ
	??$?0AAV?$_Tree_iterator@V?$_Tree_val@V?$_Tmap_traits@PBDP6APAVAttribute@Imf@@XZUNameCompare@?A0x0779e1ad@2@V?$allocator@U?$pair@QBDP6APAVAttribute@Imf@@XZ@std@@@std@@$0A@@std@@@std@@@std@@AAV01@@?$_Pair_base@V?$_Tree_iterator@V?$_Tree_val@V?$_Tmap_traits@PBDP6APAVAttribute@Imf@@XZUNameCompare@?A0x0779e1ad@2@V?$allocator@U?$pair@QBDP6APAVAttribute@Imf@@XZ@std@@@std@@$0A@@std@@@std@@@std@@V12@@std@@QAE@AAV?$_Tree_iterator@V?$_Tree_val@V?$_Tmap_traits@PBDP6APAVAttribute@Imf@@XZUNameCompare@?A0x0779e1ad@2@V?$allocator@U?$pair@QBDP6APAVAttribute@Imf@@XZ@std@@@std@@$0A@@std@@@std@@@1@0@Z
	?slice@ConstIterator@FrameBuffer@Imf@@QBEABUSlice@3@XZ
	?construct@?$allocator@U?$pair@$$CBUTileCoord@?A0x39e5c904@Imf@@PAUBufferedTile@23@@std@@@std@@QAEXPAU?$pair@$$CBUTileCoord@?A0x39e5c904@Imf@@PAUBufferedTile@23@@2@$$QAU32@@Z
	?_Destroy@?$vector@PAUTileBuffer@?A0xf6fcebb6@Imf@@V?$allocator@PAUTileBuffer@?A0xf6fcebb6@Imf@@@std@@@std@@IAEXPAPAUTileBuffer@?A0xf6fcebb6@Imf@@0@Z
	?_Key@?$_Tree_val@V?$_Tmap_traits@VName@Imf@@USlice@2@U?$less@VName@Imf@@@std@@V?$allocator@U?$pair@$$CBVName@Imf@@USlice@2@@std@@@5@$0A@@std@@@std@@SAAAVName@Imf@@PAU_Node@?$_Tree_nod@V?$_Tmap_traits@VName@Imf@@USlice@2@U?$less@VName@Imf@@@std@@V?$allocator@U?$pair@$$CBVName@Imf@@USlice@2@@std@@@5@$0A@@std@@@2@@Z
	??$?MDU?$char_traits@D@std@@V?$allocator@D@1@@std@@YA_NABV?$basic_string@DU?$char_traits@D@std@@V?$allocator@D@2@@0@0@Z
	?_Myval@?$_Tree_val@V?$_Tset_traits@V?$basic_string@DU?$char_traits@D@std@@V?$allocator@D@2@@std@@U?$less@V?$basic_string@DU?$char_traits@D@std@@V?$allocator@D@2@@std@@@2@V?$allocator@V?$basic_string@DU?$char_traits@D@std@@V?$allocator@D@2@@std@@@2@$0A@@std@@@std@@SAAAV?$basic_string@DU?$char_traits@D@std@@V?$allocator@D@2@@2@PAU_Node@?$_Tree_nod@V?$_Tset_traits@V?$basic_string@DU?$char_traits@D@std@@V?$allocator@D@2@@std@@U?$less@V?$basic_string@DU?$char_traits@D@std@@V?$allocator@D@2@@std@@@2@V?$allocator@V?$basic_string@DU?$char_traits@D@std@@V?$allocator@D@2@@std@@@2@$0A@@std@@@2@@Z
	??0?$_Tree_const_iterator@V?$_Tree_val@V?$_Tmap_traits@UTileCoord@?A0x39e5c904@Imf@@PAUBufferedTile@23@U?$less@UTileCoord@?A0x39e5c904@Imf@@@std@@V?$allocator@U?$pair@$$CBUTileCoord@?A0x39e5c904@Imf@@PAUBufferedTile@23@@std@@@6@$0A@@std@@@std@@@std@@QAE@PAU_Node@?$_Tree_nod@V?$_Tmap_traits@UTileCoord@?A0x39e5c904@Imf@@PAUBufferedTile@23@U?$less@UTileCoord@?A0x39e5c904@Imf@@@std@@V?$allocator@U?$pair@$$CBUTileCoord@?A0x39e5c904@Imf@@PAUBufferedTile@23@@std@@@6@$0A@@std@@@1@PBV?$_Tree_val@V?$_Tmap_traits@UTileCoord@?A0x39e5c904@Imf@@PAUBufferedTile@23@U?$less@UTileCoord@?A0x39e5c904@Imf@@@std@@V?$allocator@U?$pair@$$CBUTileCoord@?A0x39e5c904@Imf@@PAUBufferedTile@23@@std@@@6@$0A@@std@@@1@@Z
	?_Make_iter@?$vector@PAUTileBuffer@?A0x39e5c904@Imf@@V?$allocator@PAUTileBuffer@?A0x39e5c904@Imf@@@std@@@std@@QBE?AV?$_Vector_iterator@V?$_Vector_val@PAUTileBuffer@?A0x39e5c904@Imf@@V?$allocator@PAUTileBuffer@?A0x39e5c904@Imf@@@std@@@std@@@2@V?$_Vector_const_iterator@V?$_Vector_val@PAUTileBuffer@?A0x39e5c904@Imf@@V?$allocator@PAUTileBuffer@?A0x39e5c904@Imf@@@std@@@std@@@2@@Z
	?max_size@?$allocator@UTInSliceInfo@?A0xf6fcebb6@Imf@@@std@@QBEIXZ
	??$_Debug_lt@HH@std@@YA_NABH0PB_WI@Z
	??9?$_Vector_const_iterator@V?$_Vector_val@V?$basic_string@DU?$char_traits@D@std@@V?$allocator@D@2@@std@@V?$allocator@V?$basic_string@DU?$char_traits@D@std@@V?$allocator@D@2@@std@@@2@@std@@@std@@QBE_NABV01@@Z
	?numYTiles@TiledInputFile@Imf@@QBEHH@Z
	?addWorldToNDC@Imf@@YAXAAVHeader@1@ABV?$Matrix44@M@Imath@@@Z
	??$_Cons_val@V?$allocator@V?$vector@_KV?$allocator@_K@std@@@std@@@std@@V?$vector@_KV?$allocator@_K@std@@@2@ABV32@@std@@YAXAAV?$allocator@V?$vector@_KV?$allocator@_K@std@@@std@@@0@PAV?$vector@_KV?$allocator@_K@std@@@0@ABV20@@Z
	??$findTypedAttribute@V?$TypedAttribute@VTileDescription@Imf@@@Imf@@@Header@Imf@@QBEPBV?$TypedAttribute@VTileDescription@Imf@@@1@QBD@Z
	??$_Allocate@V?$vector@_KV?$allocator@_K@std@@@std@@@std@@YAPAV?$vector@_KV?$allocator@_K@std@@@0@IPAV10@@Z
	??0?$_Tree_const_iterator@V?$_Tree_val@V?$_Tmap_traits@UTileCoord@?A0x39e5c904@Imf@@PAUBufferedTile@23@U?$less@UTileCoord@?A0x39e5c904@Imf@@@std@@V?$allocator@U?$pair@$$CBUTileCoord@?A0x39e5c904@Imf@@PAUBufferedTile@23@@std@@@6@$0A@@std@@@std@@@std@@QAE@ABV01@@Z
	??$_Uninitialized_move@PAUTOutSliceInfo@?A0x39e5c904@Imf@@PAU123@V?$allocator@UTOutSliceInfo@?A0x39e5c904@Imf@@@std@@@std@@YAPAUTOutSliceInfo@?A0x39e5c904@Imf@@PAU123@00AAV?$allocator@UTOutSliceInfo@?A0x39e5c904@Imf@@@0@@Z
	??$writeSignedChars@UCharPtrIO@Imf@@PAD@Xdr@Imf@@YAXAAPADQBCH@Z
	??0?$allocator@UTOutSliceInfo@?A0x39e5c904@Imf@@@std@@QAE@XZ
	?_Right@?$_Tree_val@V?$_Tmap_traits@VName@Imf@@USlice@2@U?$less@VName@Imf@@@std@@V?$allocator@U?$pair@$$CBVName@Imf@@USlice@2@@std@@@5@$0A@@std@@@std@@SAAAPAU_Node@?$_Tree_nod@V?$_Tmap_traits@VName@Imf@@USlice@2@U?$less@VName@Imf@@@std@@V?$allocator@U?$pair@$$CBVName@Imf@@USlice@2@@std@@@5@$0A@@std@@@2@PAU342@@Z
	??1PreviewImage@Imf@@QAE@XZ
	??C?$_Tree_iterator@V?$_Tree_val@V?$_Tmap_traits@VName@Imf@@USlice@2@U?$less@VName@Imf@@@std@@V?$allocator@U?$pair@$$CBVName@Imf@@USlice@2@@std@@@5@$0A@@std@@@std@@@std@@QBEPAU?$pair@$$CBVName@Imf@@USlice@2@@1@XZ
	??$?0AAV?$_Tree_const_iterator@V?$_Tree_val@V?$_Tset_traits@V?$basic_string@DU?$char_traits@D@std@@V?$allocator@D@2@@std@@U?$less@V?$basic_string@DU?$char_traits@D@std@@V?$allocator@D@2@@std@@@2@V?$allocator@V?$basic_string@DU?$char_traits@D@std@@V?$allocator@D@2@@std@@@2@$0A@@std@@@std@@@std@@_N@?$pair@V?$_Tree_const_iterator@V?$_Tree_val@V?$_Tset_traits@V?$basic_string@DU?$char_traits@D@std@@V?$allocator@D@2@@std@@U?$less@V?$basic_string@DU?$char_traits@D@std@@V?$allocator@D@2@@std@@@2@V?$allocator@V?$basic_string@DU?$char_traits@D@std@@V?$allocator@D@2@@std@@@2@$0A@@std@@@std@@@std@@_N@std@@QAE@AAV?$_Tree_const_iterator@V?$_Tree_val@V?$_Tset_traits@V?$basic_string@DU?$char_traits@D@std@@V?$allocator@D@2@@std@@U?$less@V?$basic_string@DU?$char_traits@D@std@@V?$allocator@D@2@@std@@@2@V?$allocator@V?$basic_string@DU?$char_traits@D@std@@V?$allocator@D@2@@std@@@2@$0A@@std@@@std@@@1@$$QA_N@Z
	??$typedAttribute@V?$TypedAttribute@V?$Box@V?$Vec2@H@Imath@@@Imath@@@Imf@@@Header@Imf@@QAEAAV?$TypedAttribute@V?$Box@V?$Vec2@H@Imath@@@Imath@@@1@QBD@Z
	?allocate@?$allocator@PAUTileBuffer@?A0x39e5c904@Imf@@@std@@QAEPAPAUTileBuffer@?A0x39e5c904@Imf@@I@Z
	?copyValueFrom@?$TypedAttribute@V?$Box@V?$Vec2@H@Imath@@@Imath@@@Imf@@UAEXABVAttribute@2@@Z
	?addWhiteLuminance@Imf@@YAXAAVHeader@1@ABM@Z
	?RGBAtoYCA@RgbaYca@Imf@@YAXABV?$Vec3@M@Imath@@H_NQBURgba@2@QAU52@@Z
	??4?$_Tree_iterator@V?$_Tree_val@V?$_Tmap_traits@VName@Imf@@USlice@2@U?$less@VName@Imf@@@std@@V?$allocator@U?$pair@$$CBVName@Imf@@USlice@2@@std@@@5@$0A@@std@@@std@@@std@@QAEAAV01@ABV01@@Z
	?erase@?$vector@PAUTileBuffer@?A0x39e5c904@Imf@@V?$allocator@PAUTileBuffer@?A0x39e5c904@Imf@@@std@@@std@@QAE?AV?$_Vector_iterator@V?$_Vector_val@PAUTileBuffer@?A0x39e5c904@Imf@@V?$allocator@PAUTileBuffer@?A0x39e5c904@Imf@@@std@@@std@@@2@V?$_Vector_const_iterator@V?$_Vector_val@PAUTileBuffer@?A0x39e5c904@Imf@@V?$allocator@PAUTileBuffer@?A0x39e5c904@Imf@@@std@@@std@@@2@0@Z
	ImfDeleteHeader
	?gjInverse@?$Matrix44@M@Imath@@QBE?AV12@_N@Z
	?size@?$vector@PAUTileBuffer@?A0x39e5c904@Imf@@V?$allocator@PAUTileBuffer@?A0x39e5c904@Imf@@@std@@@std@@QBEIXZ
	??0?$Box@V?$Vec2@M@Imath@@@Imath@@QAE@ABV?$Vec2@M@1@0@Z
	??D?$_Tree_unchecked_const_iterator@V?$_Tree_val@V?$_Tmap_traits@VName@Imf@@PAVAttribute@2@U?$less@VName@Imf@@@std@@V?$allocator@U?$pair@$$CBVName@Imf@@PAVAttribute@2@@std@@@5@$0A@@std@@@std@@U_Iterator_base12@2@@std@@QBEABU?$pair@$$CBVName@Imf@@PAVAttribute@2@@1@XZ
	?_Right@?$_Tree_val@V?$_Tmap_traits@VName@Imf@@UChannel@2@U?$less@VName@Imf@@@std@@V?$allocator@U?$pair@$$CBVName@Imf@@UChannel@2@@std@@@5@$0A@@std@@@std@@SAAAPAU_Node@?$_Tree_nod@V?$_Tmap_traits@VName@Imf@@UChannel@2@U?$less@VName@Imf@@@std@@V?$allocator@U?$pair@$$CBVName@Imf@@UChannel@2@@std@@@5@$0A@@std@@@2@PAU342@@Z
	?copy@?$TypedAttribute@N@Imf@@UBEPAVAttribute@2@XZ
	?insert@Header@Imf@@QAEXABV?$basic_string@DU?$char_traits@D@std@@V?$allocator@D@2@@std@@ABVAttribute@2@@Z
	??0roundNBit@Imf@@QAE@H@Z
	?begin@?$vector@IV?$allocator@I@std@@@std@@QAE?AV?$_Vector_iterator@V?$_Vector_val@IV?$allocator@I@std@@@std@@@2@XZ
	??1?$_Iterator012@Urandom_access_iterator_tag@std@@UOutSliceInfo@?A0xf57f9ec6@Imf@@HPBU345@ABU345@U_Iterator_base12@2@@std@@QAE@XZ
	??$_Uninit_copy@PAUInSliceInfo@?A0xcbf8ace6@Imf@@PAU123@V?$allocator@UInSliceInfo@?A0xcbf8ace6@Imf@@@std@@@std@@YAPAUInSliceInfo@?A0xcbf8ace6@Imf@@PAU123@00AAV?$allocator@UInSliceInfo@?A0xcbf8ace6@Imf@@@0@U_Nonscalar_ptr_iterator_tag@0@@Z
	??$addressof@$$CBV?$basic_string@DU?$char_traits@D@std@@V?$allocator@D@2@@std@@@std@@YAPBV?$basic_string@DU?$char_traits@D@std@@V?$allocator@D@2@@0@ABV10@@Z
	??0?$_Tree_unchecked_const_iterator@V?$_Tree_val@V?$_Tmap_traits@VName@Imf@@USlice@2@U?$less@VName@Imf@@@std@@V?$allocator@U?$pair@$$CBVName@Imf@@USlice@2@@std@@@5@$0A@@std@@@std@@U_Iterator_base12@2@@std@@QAE@PAU_Node@?$_Tree_nod@V?$_Tmap_traits@VName@Imf@@USlice@2@U?$less@VName@Imf@@@std@@V?$allocator@U?$pair@$$CBVName@Imf@@USlice@2@@std@@@5@$0A@@std@@@1@PBV?$_Tree_val@V?$_Tmap_traits@VName@Imf@@USlice@2@U?$less@VName@Imf@@@std@@V?$allocator@U?$pair@$$CBVName@Imf@@USlice@2@@std@@@5@$0A@@std@@@1@@Z
	??0TileBuffer@?A0x39e5c904@Imf@@QAE@PAVCompressor@2@@Z
	?_Clrcont@_Iterator_base12@std@@QAEXXZ
	?cast@?$TypedAttribute@V?$Vec3@H@Imath@@@Imf@@SAPBV12@PBVAttribute@2@@Z
	??0LineBuffer@?A0xf57f9ec6@Imf@@QAE@PAVCompressor@2@@Z
	??$forward@U?$pair@$$CBUTileCoord@?A0x39e5c904@Imf@@PAUBufferedTile@23@@std@@@std@@YA$$QAU?$pair@$$CBUTileCoord@?A0x39e5c904@Imf@@PAUBufferedTile@23@@0@AAU10@@Z
	??AFrameBuffer@Imf@@QAEAAUSlice@1@QBD@Z
	?_Orphan_range@?$vector@PAULineBuffer@?A0xf57f9ec6@Imf@@V?$allocator@PAULineBuffer@?A0xf57f9ec6@Imf@@@std@@@std@@IBEXPAPAULineBuffer@?A0xf57f9ec6@Imf@@0@Z
	?addFramesPerSecond@Imf@@YAXAAVHeader@1@ABVRational@1@@Z
	??0?$_Iterator012@Urandom_access_iterator_tag@std@@IHPBIABIU_Iterator_base12@2@@std@@QAE@XZ
	?nextTileCoord@Data@TiledOutputFile@Imf@@QAE?AUTileCoord@?A0x39e5c904@3@ABU453@@Z
	??8?$Box@V?$Vec2@H@Imath@@@Imath@@QBE_NABV01@@Z
	?insert@FrameBuffer@Imf@@QAEXABV?$basic_string@DU?$char_traits@D@std@@V?$allocator@D@2@@std@@ABUSlice@2@@Z
	?isEmpty@?$Box@V?$Vec2@H@Imath@@@Imath@@QBE_NXZ
	??A?$basic_string@DU?$char_traits@D@std@@V?$allocator@D@2@@std@@QAEAADI@Z
	?setPerfOffset@KeyCode@Imf@@QAEXH@Z
	??0?$_String_iterator@DU?$char_traits@D@std@@V?$allocator@D@2@@std@@QAE@PADPBU_Container_base12@1@@Z
	??0?$map@VName@Imf@@UChannel@2@U?$less@VName@Imf@@@std@@V?$allocator@U?$pair@$$CBVName@Imf@@UChannel@2@@std@@@5@@std@@QAE@XZ
	?makeNewAttribute@?$TypedAttribute@VChannelList@Imf@@@Imf@@SAPAVAttribute@2@XZ
	??$?0U_Node@?$_Tree_nod@V?$_Tmap_traits@PBDP6APAVAttribute@Imf@@XZUNameCompare@?A0x0779e1ad@2@V?$allocator@U?$pair@QBDP6APAVAttribute@Imf@@XZ@std@@@std@@$0A@@std@@@std@@@?$allocator@U_Container_proxy@std@@@std@@QAE@ABV?$allocator@U_Node@?$_Tree_nod@V?$_Tmap_traits@PBDP6APAVAttribute@Imf@@XZUNameCompare@?A0x0779e1ad@2@V?$allocator@U?$pair@QBDP6APAVAttribute@Imf@@XZ@std@@@std@@$0A@@std@@@std@@@1@@Z
	?cast@?$TypedAttribute@V?$Matrix44@N@Imath@@@Imf@@SAABV12@ABVAttribute@2@@Z
	??F?$_Tree_unchecked_const_iterator@V?$_Tree_val@V?$_Tset_traits@V?$basic_string@DU?$char_traits@D@std@@V?$allocator@D@2@@std@@U?$less@V?$basic_string@DU?$char_traits@D@std@@V?$allocator@D@2@@std@@@2@V?$allocator@V?$basic_string@DU?$char_traits@D@std@@V?$allocator@D@2@@std@@@2@$0A@@std@@@std@@U_Iterator_base12@2@@std@@QAEAAV01@XZ
	ImfInputChannels
	??1?$AutoArray@PA_K$0BAAAB@@Imf@@QAE@XZ
	??0?$Vec3@M@Imath@@QAE@MMM@Z
	??1?$_Iterator012@Urandom_access_iterator_tag@std@@PAUTileBuffer@?A0xf6fcebb6@Imf@@HPBQAU345@ABQAU345@U_Iterator_base12@2@@std@@QAE@XZ
	??D?$_Vector_iterator@V?$_Vector_val@V?$vector@_KV?$allocator@_K@std@@@std@@V?$allocator@V?$vector@_KV?$allocator@_K@std@@@std@@@2@@std@@@std@@QBEAAV?$vector@_KV?$allocator@_K@std@@@1@XZ
	??$_Iter_cat@PAPA_K@std@@YA?AUrandom_access_iterator_tag@0@ABQAPA_K@Z
	acosf
	??$_Uninit_copy@V?$_Vector_const_iterator@V?$_Vector_val@_KV?$allocator@_K@std@@@std@@@std@@PA_KV?$allocator@_K@2@@std@@YAPA_KV?$_Vector_const_iterator@V?$_Vector_val@_KV?$allocator@_K@std@@@std@@@0@0PA_KAAV?$allocator@_K@0@U_Nonscalar_ptr_iterator_tag@0@@Z
	?_Rank@?$_Arithmetic_traits@G@std@@2HB
	?width@PreviewImage@Imf@@QBEIXZ
	?rawTileData@InputFile@Imf@@QAEXAAH000AAPBD0@Z
	??$typedAttribute@V?$TypedAttribute@VKeyCode@Imf@@@Imf@@@Header@Imf@@QAEAAV?$TypedAttribute@VKeyCode@Imf@@@1@QBD@Z
	?registerAttributeType@?$TypedAttribute@W4Envmap@Imf@@@Imf@@SAXXZ
	??Y?$_Vector_iterator@V?$_Vector_val@V?$vector@_KV?$allocator@_K@std@@@std@@V?$allocator@V?$vector@_KV?$allocator@_K@std@@@std@@@2@@std@@@std@@QAEAAV01@H@Z
	??$?0QBDP6APAVAttribute@Imf@@XZ@?$pair@QBDP6APAVAttribute@Imf@@XZ@std@@QAE@$$QAU01@@Z
	?setUserData@TimeCode@Imf@@QAEXI@Z
	??0?$allocator@PAULineBuffer@?A0xcbf8ace6@Imf@@@std@@QAE@ABV01@@Z
	??1?$TypedAttribute@V?$Vec3@M@Imath@@@Imf@@UAE@XZ
	??0?$TypedAttribute@V?$Matrix33@M@Imath@@@Imf@@QAE@ABV?$Matrix33@M@Imath@@@Z
	??0?$Vec2@H@Imath@@QAE@HH@Z
	?registerAttributeType@?$TypedAttribute@V?$Vec2@M@Imath@@@Imf@@SAXXZ
	?outfile@?A0xa29ce62f@@YAPAVRgbaOutputFile@Imf@@PAUImfOutputFile@@@Z
	?readValueFrom@?$TypedAttribute@VTileDescription@Imf@@@Imf@@UAEXAAVIStream@2@HH@Z
	ImfHeaderSetStringAttribute
	?_Isnil@?$_Tree_val@V?$_Tmap_traits@VName@Imf@@UChannel@2@U?$less@VName@Imf@@@std@@V?$allocator@U?$pair@$$CBVName@Imf@@UChannel@2@@std@@@5@$0A@@std@@@std@@SAAADPAU_Node@?$_Tree_nod@V?$_Tmap_traits@VName@Imf@@UChannel@2@U?$less@VName@Imf@@@std@@V?$allocator@U?$pair@$$CBVName@Imf@@UChannel@2@@std@@@5@$0A@@std@@@2@@Z
	?erase@?$vector@_KV?$allocator@_K@std@@@std@@QAE?AV?$_Vector_iterator@V?$_Vector_val@_KV?$allocator@_K@std@@@std@@@2@V?$_Vector_const_iterator@V?$_Vector_val@_KV?$allocator@_K@std@@@std@@@2@0@Z
	??D?$_Tree_const_iterator@V?$_Tree_val@V?$_Tmap_traits@VName@Imf@@USlice@2@U?$less@VName@Imf@@@std@@V?$allocator@U?$pair@$$CBVName@Imf@@USlice@2@@std@@@5@$0A@@std@@@std@@@std@@QBEABU?$pair@$$CBVName@Imf@@USlice@2@@1@XZ
	?addMultiView@Imf@@YAXAAVHeader@1@ABV?$vector@V?$basic_string@DU?$char_traits@D@std@@V?$allocator@D@2@@std@@V?$allocator@V?$basic_string@DU?$char_traits@D@std@@V?$allocator@D@2@@std@@@2@@std@@@Z
	ImfOutputCurrentScanLine
	?denom@?A0x06844fa0@Imf@@YANNN@Z
	??Y?$_Vector_iterator@V?$_Vector_val@PAUTileBuffer@?A0x39e5c904@Imf@@V?$allocator@PAUTileBuffer@?A0x39e5c904@Imf@@@std@@@std@@@std@@QAEAAV01@H@Z
	?header@TiledRgbaInputFile@Imf@@QBEABVHeader@2@XZ
	?begin@?$_Tree@V?$_Tmap_traits@VName@Imf@@USlice@2@U?$less@VName@Imf@@@std@@V?$allocator@U?$pair@$$CBVName@Imf@@USlice@2@@std@@@5@$0A@@std@@@std@@QBE?AV?$_Tree_const_iterator@V?$_Tree_val@V?$_Tmap_traits@VName@Imf@@USlice@2@U?$less@VName@Imf@@@std@@V?$allocator@U?$pair@$$CBVName@Imf@@USlice@2@@std@@@5@$0A@@std@@@std@@@2@XZ
	?max_size@?$allocator@V?$vector@V?$vector@_KV?$allocator@_K@std@@@std@@V?$allocator@V?$vector@_KV?$allocator@_K@std@@@std@@@2@@std@@@std@@QBEIXZ
	??$_Destroy_range@V?$allocator@I@std@@@std@@YAXPAI0AAV?$allocator@I@0@U_Scalar_ptr_iterator_tag@0@@Z
	??0?$TypedAttribute@V?$Vec3@H@Imath@@@Imf@@QAE@ABV?$Vec3@H@Imath@@@Z
	??0?$allocator@_K@std@@QAE@ABV01@@Z
	?frameBuffer@TiledInputFile@Imf@@QBEABVFrameBuffer@2@XZ
	??4?$_Iterator012@Ubidirectional_iterator_tag@std@@U?$pair@$$CBUTileCoord@?A0x39e5c904@Imf@@PAUBufferedTile@23@@2@HPBU32@ABU32@U_Iterator_base12@2@@std@@QAEAAU01@ABU01@@Z
	??0SingMatrixExc@Imath@@QAE@ABV01@@Z
	??$_Copy_impl@PAV?$vector@_KV?$allocator@_K@std@@@std@@PAV12@@std@@YAPAV?$vector@_KV?$allocator@_K@std@@@0@PAV10@00@Z
	??$_Uninitialized_move@PAV?$vector@V?$vector@_KV?$allocator@_K@std@@@std@@V?$allocator@V?$vector@_KV?$allocator@_K@std@@@std@@@2@@std@@PAV12@V?$allocator@V?$vector@V?$vector@_KV?$allocator@_K@std@@@std@@V?$allocator@V?$vector@_KV?$allocator@_K@std@@@std@@@2@@std@@@2@@std@@YAPAV?$vector@V?$vector@_KV?$allocator@_K@std@@@std@@V?$allocator@V?$vector@_KV?$allocator@_K@std@@@std@@@2@@0@PAV10@00AAV?$allocator@V?$vector@V?$vector@_KV?$allocator@_K@std@@@std@@V?$allocator@V?$vector@_KV?$allocator@_K@std@@@std@@@2@@std@@@0@@Z
	?makeNewAttribute@?$TypedAttribute@VRational@Imf@@@Imf@@SAPAVAttribute@2@XZ
	?writeValueTo@?$TypedAttribute@H@Imf@@UBEXAAVOStream@2@H@Z
	__CTA2?AVbad_alloc@std@@
	??0?$_Iterator012@Ubidirectional_iterator_tag@std@@U?$pair@$$CBVName@Imf@@UChannel@2@@2@HPBU32@ABU32@U_Iterator_base12@2@@std@@QAE@ABU01@@Z
	??E?$_Tree_const_iterator@V?$_Tree_val@V?$_Tmap_traits@VName@Imf@@UChannel@2@U?$less@VName@Imf@@@std@@V?$allocator@U?$pair@$$CBVName@Imf@@UChannel@2@@std@@@5@$0A@@std@@@std@@@std@@QAE?AV01@H@Z
	??0?$TypedAttribute@V?$Vec3@N@Imath@@@Imf@@QAE@XZ
	?_Orphan_range@?$vector@UTInSliceInfo@?A0xf6fcebb6@Imf@@V?$allocator@UTInSliceInfo@?A0xf6fcebb6@Imf@@@std@@@std@@IBEXPAUTInSliceInfo@?A0xf6fcebb6@Imf@@0@Z
	ImfFloatToHalfArray
	?cast@?$TypedAttribute@V?$Vec2@M@Imath@@@Imf@@SAPBV12@PBVAttribute@2@@Z
	??$_Destroy_range@V?$allocator@V?$vector@V?$vector@_KV?$allocator@_K@std@@@std@@V?$allocator@V?$vector@_KV?$allocator@_K@std@@@std@@@2@@std@@@std@@@std@@YAXPAV?$vector@V?$vector@_KV?$allocator@_K@std@@@std@@V?$allocator@V?$vector@_KV?$allocator@_K@std@@@std@@@2@@0@0AAV?$allocator@V?$vector@V?$vector@_KV?$allocator@_K@std@@@std@@V?$allocator@V?$vector@_KV?$allocator@_K@std@@@std@@@2@@std@@@0@U_Nonscalar_ptr_iterator_tag@0@@Z
	??0TypeExc@Iex@@QAE@ABV01@@Z
	?pixelAspectRatio@RgbaInputFile@Imf@@QBEMXZ
	?worldToCamera@Imf@@YAABV?$Matrix44@M@Imath@@ABVHeader@1@@Z
	__CTA2?AVbad_cast@std@@
	??4?$Vec3@H@Imath@@QAEABV01@ABV01@@Z
	??$_Ptr_cat@UInSliceInfo@?A0xcbf8ace6@Imf@@U123@@std@@YA?AU_Nonscalar_ptr_iterator_tag@0@PAUInSliceInfo@?A0xcbf8ace6@Imf@@0@Z
	??$_Uninit_copy@V?$_Vector_const_iterator@V?$_Vector_val@V?$vector@_KV?$allocator@_K@std@@@std@@V?$allocator@V?$vector@_KV?$allocator@_K@std@@@std@@@2@@std@@@std@@PAV?$vector@_KV?$allocator@_K@std@@@2@V?$allocator@V?$vector@_KV?$allocator@_K@std@@@std@@@2@@std@@YAPAV?$vector@_KV?$allocator@_K@std@@@0@V?$_Vector_const_iterator@V?$_Vector_val@V?$vector@_KV?$allocator@_K@std@@@std@@V?$allocator@V?$vector@_KV?$allocator@_K@std@@@std@@@2@@std@@@0@0PAV10@AAV?$allocator@V?$vector@_KV?$allocator@_K@std@@@std@@@0@U_Nonscalar_ptr_iterator_tag@0@@Z
	??$_Iter_cat@PAV?$basic_string@DU?$char_traits@D@std@@V?$allocator@D@2@@std@@@std@@YA?AUrandom_access_iterator_tag@0@ABQAV?$basic_string@DU?$char_traits@D@std@@V?$allocator@D@2@@0@@Z
	??1?$_Iterator012@Urandom_access_iterator_tag@std@@IHPBIABIU_Iterator_base12@2@@std@@QAE@XZ
	?copy@?$TypedAttribute@VRational@Imf@@@Imf@@UBEPAVAttribute@2@XZ
	?focus@Imf@@YAABMABVHeader@1@@Z
	?size@?$vector@PAULineBuffer@?A0xcbf8ace6@Imf@@V?$allocator@PAULineBuffer@?A0xcbf8ace6@Imf@@@std@@@std@@QBEIXZ
	??$?0M@?$Vec2@H@Imath@@QAE@ABV?$Vec2@M@1@@Z
	??$typedAttribute@V?$TypedAttribute@VTimeCode@Imf@@@Imf@@@Header@Imf@@QBEABV?$TypedAttribute@VTimeCode@Imf@@@1@QBD@Z
	?cachePadding@?A0x5c932b76@Imf@@YAHH@Z
	??0?$TypedAttribute@VPreviewImage@Imf@@@Imf@@QAE@XZ
	?deallocate@?$allocator@_K@std@@QAEXPA_KI@Z
	?staticTypeName@?$TypedAttribute@W4LineOrder@Imf@@@Imf@@SAPBDXZ
	__TI2?AVbad_alloc@std@@
	?_Buy@?$vector@_KV?$allocator@_K@std@@@std@@IAE_NI@Z
	??$move@AAV?$_Tree_iterator@V?$_Tree_val@V?$_Tmap_traits@VName@Imf@@UChannel@2@U?$less@VName@Imf@@@std@@V?$allocator@U?$pair@$$CBVName@Imf@@UChannel@2@@std@@@5@$0A@@std@@@std@@@std@@@std@@YA$$QAV?$_Tree_iterator@V?$_Tree_val@V?$_Tmap_traits@VName@Imf@@UChannel@2@U?$less@VName@Imf@@@std@@V?$allocator@U?$pair@$$CBVName@Imf@@UChannel@2@@std@@@5@$0A@@std@@@std@@@0@AAV10@@Z
	??1TiledRgbaOutputFile@Imf@@UAE@XZ
	?utcOffsetAttribute@Imf@@YAABV?$TypedAttribute@M@1@ABVHeader@1@@Z
	?xDensityAttribute@Imf@@YAABV?$TypedAttribute@M@1@ABVHeader@1@@Z
	??$insert@U?$pair@$$CBVName@Imf@@UChannel@2@@std@@@?$_Tree@V?$_Tmap_traits@VName@Imf@@UChannel@2@U?$less@VName@Imf@@@std@@V?$allocator@U?$pair@$$CBVName@Imf@@UChannel@2@@std@@@5@$0A@@std@@@std@@QAE?AV?$_Tree_iterator@V?$_Tree_val@V?$_Tmap_traits@VName@Imf@@UChannel@2@U?$less@VName@Imf@@@std@@V?$allocator@U?$pair@$$CBVName@Imf@@UChannel@2@@std@@@5@$0A@@std@@@std@@@1@V?$_Tree_const_iterator@V?$_Tree_val@V?$_Tmap_traits@VName@Imf@@UChannel@2@U?$less@VName@Imf@@@std@@V?$allocator@U?$pair@$$CBVName@Imf@@UChannel@2@@std@@@5@$0A@@std@@@std@@@1@$$QAU?$pair@$$CBVName@Imf@@UChannel@2@@1@@Z
	??M?$_Vector_const_iterator@V?$_Vector_val@PAULineBuffer@?A0xcbf8ace6@Imf@@V?$allocator@PAULineBuffer@?A0xcbf8ace6@Imf@@@std@@@std@@@std@@QBE_NABV01@@Z
	?currentScanLine@RgbaOutputFile@Imf@@QBEHXZ
	?makeNewAttribute@?$TypedAttribute@V?$basic_string@DU?$char_traits@D@std@@V?$allocator@D@2@@std@@@Imf@@SAPAVAttribute@2@XZ
	??$typedAttribute@V?$TypedAttribute@VRational@Imf@@@Imf@@@Header@Imf@@QAEAAV?$TypedAttribute@VRational@Imf@@@1@QBD@Z
	?reserve@?$vector@V?$vector@_KV?$allocator@_K@std@@@std@@V?$allocator@V?$vector@_KV?$allocator@_K@std@@@std@@@2@@std@@QAEXI@Z
	?size@?$_Tree@V?$_Tmap_traits@VName@Imf@@UChannel@2@U?$less@VName@Imf@@@std@@V?$allocator@U?$pair@$$CBVName@Imf@@UChannel@2@@std@@@5@$0A@@std@@@std@@QBEIXZ
	??0?$_Iterator012@Urandom_access_iterator_tag@std@@PAULineBuffer@?A0xf57f9ec6@Imf@@HPBQAU345@ABQAU345@U_Iterator_base12@2@@std@@QAE@XZ
	??4?$basic_string@DU?$char_traits@D@std@@V?$allocator@D@2@@std@@QAEAAV01@ABV01@@Z
	?log@@YAMM@Z
	?cast@?$TypedAttribute@V?$Vec2@N@Imath@@@Imf@@SAPBV12@PBVAttribute@2@@Z
	??0?$TypedAttribute@V?$Vec2@N@Imath@@@Imf@@QAE@XZ
	??$?8DU?$char_traits@D@std@@V?$allocator@D@1@@std@@YA_NABV?$basic_string@DU?$char_traits@D@std@@V?$allocator@D@2@@0@0@Z
	?end@?$vector@V?$vector@V?$vector@_KV?$allocator@_K@std@@@std@@V?$allocator@V?$vector@_KV?$allocator@_K@std@@@std@@@2@@std@@V?$allocator@V?$vector@V?$vector@_KV?$allocator@_K@std@@@std@@V?$allocator@V?$vector@_KV?$allocator@_K@std@@@std@@@2@@std@@@2@@std@@QAE?AV?$_Vector_iterator@V?$_Vector_val@V?$vector@V?$vector@_KV?$allocator@_K@std@@@std@@V?$allocator@V?$vector@_KV?$allocator@_K@std@@@std@@@2@@std@@V?$allocator@V?$vector@V?$vector@_KV?$allocator@_K@std@@@std@@V?$allocator@V?$vector@_KV?$allocator@_K@std@@@std@@@2@@std@@@2@@std@@@2@XZ
	?skipChannel@Imf@@YAXAAPBDW4PixelType@1@I@Z
	??$_Dest_val@V?$allocator@UInSliceInfo@?A0xcbf8ace6@Imf@@@std@@UInSliceInfo@?A0xcbf8ace6@Imf@@@std@@YAXAAV?$allocator@UInSliceInfo@?A0xcbf8ace6@Imf@@@0@PAUInSliceInfo@?A0xcbf8ace6@Imf@@@Z
	??0?$_Pair_base@$$CBVName@Imf@@PAVAttribute@2@@std@@QAE@$$QBVName@Imf@@$$QAPAVAttribute@3@@Z
	??0Chromaticities@Imf@@QAE@ABV?$Vec2@M@Imath@@000@Z
	??$_Uninit_copy@PAUTOutSliceInfo@?A0x39e5c904@Imf@@PAU123@V?$allocator@UTOutSliceInfo@?A0x39e5c904@Imf@@@std@@@std@@YAPAUTOutSliceInfo@?A0x39e5c904@Imf@@PAU123@00AAV?$allocator@UTOutSliceInfo@?A0x39e5c904@Imf@@@0@U_Nonscalar_ptr_iterator_tag@0@@Z
	??$_Uninitialized_default_fill_n@PAPAULineBuffer@?A0xcbf8ace6@Imf@@IPAU123@V?$allocator@PAULineBuffer@?A0xcbf8ace6@Imf@@@std@@@std@@YAXPAPAULineBuffer@?A0xcbf8ace6@Imf@@IPBQAU123@AAV?$allocator@PAULineBuffer@?A0xcbf8ace6@Imf@@@0@@Z
	??$_Debug_lt_pred@U?$less@VName@Imf@@@std@@VName@Imf@@V34@@std@@YA_NU?$less@VName@Imf@@@0@AAVName@Imf@@ABV23@PB_WI@Z
	?size@?$vector@V?$vector@V?$vector@_KV?$allocator@_K@std@@@std@@V?$allocator@V?$vector@_KV?$allocator@_K@std@@@std@@@2@@std@@V?$allocator@V?$vector@V?$vector@_KV?$allocator@_K@std@@@std@@V?$allocator@V?$vector@_KV?$allocator@_K@std@@@std@@@2@@std@@@2@@std@@QBEIXZ
	??$_Destroy_range@V?$allocator@I@std@@@std@@YAXPAI0AAV?$allocator@I@0@@Z
	?cast@?$TypedAttribute@VPreviewImage@Imf@@@Imf@@SAPBV12@PBVAttribute@2@@Z
	?copy@?$TypedAttribute@V?$Box@V?$Vec2@H@Imath@@@Imath@@@Imf@@UBEPAVAttribute@2@XZ
	?close@?$basic_filebuf@DU?$char_traits@D@std@@@std@@QAEPAV12@XZ
	?max_size@?$vector@PAUTileBuffer@?A0x39e5c904@Imf@@V?$allocator@PAUTileBuffer@?A0x39e5c904@Imf@@@std@@@std@@QBEIXZ
	??1?$_Vector_val@PAULineBuffer@?A0xcbf8ace6@Imf@@V?$allocator@PAULineBuffer@?A0xcbf8ace6@Imf@@@std@@@std@@QAE@XZ
	??A?$vector@UInSliceInfo@?A0xcbf8ace6@Imf@@V?$allocator@UInSliceInfo@?A0xcbf8ace6@Imf@@@std@@@std@@QAEAAUInSliceInfo@?A0xcbf8ace6@Imf@@I@Z
	??$_Uninit_copy@_K_K@std@@YAPA_KPA_K00AAV?$allocator@_K@0@U_Scalar_ptr_iterator_tag@0@@Z
	??8Channel@Imf@@QBE_NABU01@@Z
	??$_Debug_range@V?$_Vector_const_iterator@V?$_Vector_val@V?$basic_string@DU?$char_traits@D@std@@V?$allocator@D@2@@std@@V?$allocator@V?$basic_string@DU?$char_traits@D@std@@V?$allocator@D@2@@std@@@2@@std@@@std@@@std@@YAXV?$_Vector_const_iterator@V?$_Vector_val@V?$basic_string@DU?$char_traits@D@std@@V?$allocator@D@2@@std@@V?$allocator@V?$basic_string@DU?$char_traits@D@std@@V?$allocator@D@2@@std@@@2@@std@@@0@0PB_WI@Z
	??9?$_Vector_const_iterator@V?$_Vector_val@V?$vector@_KV?$allocator@_K@std@@@std@@V?$allocator@V?$vector@_KV?$allocator@_K@std@@@std@@@2@@std@@@std@@QBE_NABV01@@Z
	??8?$_Vector_const_iterator@V?$_Vector_val@V?$basic_string@DU?$char_traits@D@std@@V?$allocator@D@2@@std@@V?$allocator@V?$basic_string@DU?$char_traits@D@std@@V?$allocator@D@2@@std@@@2@@std@@@std@@QBE_NABV01@@Z
	??AFrameBuffer@Imf@@QBEABUSlice@1@QBD@Z
	?globalThreadCount@Imf@@YAHXZ
	??0?$_Tmap_traits@UTileCoord@?A0x39e5c904@Imf@@PAUBufferedTile@23@U?$less@UTileCoord@?A0x39e5c904@Imf@@@std@@V?$allocator@U?$pair@$$CBUTileCoord@?A0x39e5c904@Imf@@PAUBufferedTile@23@@std@@@6@$0A@@std@@QAE@U?$less@UTileCoord@?A0x39e5c904@Imf@@@1@@Z
	??0sentry@?$basic_ostream@DU?$char_traits@D@std@@@std@@QAE@AAV12@@Z
	?resize@?$vector@V?$vector@_KV?$allocator@_K@std@@@std@@V?$allocator@V?$vector@_KV?$allocator@_K@std@@@std@@@2@@std@@QAEXI@Z
	??$_Debug_pointer@PAULineBuffer@?A0xf57f9ec6@Imf@@@std@@YAXPAPAULineBuffer@?A0xf57f9ec6@Imf@@PB_WI@Z
	??0_Sentry_base@?$basic_ostream@DU?$char_traits@D@std@@@std@@QAE@AAV12@@Z
	?screenWindowWidth@TiledRgbaOutputFile@Imf@@QBEMXZ
	??F?$_Tree_const_iterator@V?$_Tree_val@V?$_Tmap_traits@PBDP6APAVAttribute@Imf@@XZUNameCompare@?A0x0779e1ad@2@V?$allocator@U?$pair@QBDP6APAVAttribute@Imf@@XZ@std@@@std@@$0A@@std@@@std@@@std@@QAEAAV01@XZ
	?areCounterparts@Imf@@YA_NABV?$basic_string@DU?$char_traits@D@std@@V?$allocator@D@2@@std@@0ABV?$vector@V?$basic_string@DU?$char_traits@D@std@@V?$allocator@D@2@@std@@V?$allocator@V?$basic_string@DU?$char_traits@D@std@@V?$allocator@D@2@@std@@@2@@3@@Z
	?format@Compressor@Imf@@UBE?AW4Format@12@XZ
	?isComplete@RgbaInputFile@Imf@@QBE_NXZ
	ImfHeaderSetFloatAttribute
	?ownerAttribute@Imf@@YAABV?$TypedAttribute@V?$basic_string@DU?$char_traits@D@std@@V?$allocator@D@2@@std@@@1@ABVHeader@1@@Z
	?invalidTableSize@?A0xc87c6bb7@Imf@@YAXXZ
	?_Lrotate@?$_Tree@V?$_Tmap_traits@VName@Imf@@PAVAttribute@2@U?$less@VName@Imf@@@std@@V?$allocator@U?$pair@$$CBVName@Imf@@PAVAttribute@2@@std@@@5@$0A@@std@@@std@@IAEXPAU_Node@?$_Tree_nod@V?$_Tmap_traits@VName@Imf@@PAVAttribute@2@U?$less@VName@Imf@@@std@@V?$allocator@U?$pair@$$CBVName@Imf@@PAVAttribute@2@@std@@@5@$0A@@std@@@2@@Z
	??$_Uninitialized_copy@PA_KPA_KV?$allocator@_K@std@@@std@@YAPA_KPA_K00AAV?$allocator@_K@0@@Z
	?isValidLevel@TiledOutputFile@Imf@@QBE_NHH@Z
	?isValidLevel@TiledInputFile@Imf@@QBE_NHH@Z
	?_Getcont@_Iterator_base12@std@@QBEPBU_Container_base12@2@XZ
	?cast@?$TypedAttribute@VTileDescription@Imf@@@Imf@@SAABV12@ABVAttribute@2@@Z
	?registerAttributeType@?$TypedAttribute@V?$Matrix33@M@Imath@@@Imf@@SAXXZ
	?setFrameBuffer@TiledRgbaInputFile@Imf@@QAEXPAURgba@2@II@Z
	?xDensity@Imf@@YAABMABVHeader@1@@Z
	??$_Uninitialized_copy@PAUTOutSliceInfo@?A0x39e5c904@Imf@@PAU123@V?$allocator@UTOutSliceInfo@?A0x39e5c904@Imf@@@std@@@std@@YAPAUTOutSliceInfo@?A0x39e5c904@Imf@@PAU123@00AAV?$allocator@UTOutSliceInfo@?A0x39e5c904@Imf@@@0@@Z
	??0?$TypedAttribute@VTileDescription@Imf@@@Imf@@QAE@ABVTileDescription@1@@Z
	??0ConstIterator@Header@Imf@@QAE@ABVIterator@12@@Z
	??1?$_Tree_iterator@V?$_Tree_val@V?$_Tmap_traits@VName@Imf@@PAVAttribute@2@U?$less@VName@Imf@@@std@@V?$allocator@U?$pair@$$CBVName@Imf@@PAVAttribute@2@@std@@@5@$0A@@std@@@std@@@std@@QAE@XZ
	?find@?$_Tree@V?$_Tmap_traits@UTileCoord@?A0x39e5c904@Imf@@PAUBufferedTile@23@U?$less@UTileCoord@?A0x39e5c904@Imf@@@std@@V?$allocator@U?$pair@$$CBUTileCoord@?A0x39e5c904@Imf@@PAUBufferedTile@23@@std@@@6@$0A@@std@@@std@@QAE?AV?$_Tree_iterator@V?$_Tree_val@V?$_Tmap_traits@UTileCoord@?A0x39e5c904@Imf@@PAUBufferedTile@23@U?$less@UTileCoord@?A0x39e5c904@Imf@@@std@@V?$allocator@U?$pair@$$CBUTileCoord@?A0x39e5c904@Imf@@PAUBufferedTile@23@@std@@@6@$0A@@std@@@std@@@2@ABUTileCoord@?A0x39e5c904@Imf@@@Z
	??$_Debug_lt_pred@U?$less@V?$basic_string@DU?$char_traits@D@std@@V?$allocator@D@2@@std@@@std@@V?$basic_string@DU?$char_traits@D@std@@V?$allocator@D@2@@2@V32@@std@@YA_NU?$less@V?$basic_string@DU?$char_traits@D@std@@V?$allocator@D@2@@std@@@0@ABV?$basic_string@DU?$char_traits@D@std@@V?$allocator@D@2@@0@AAV20@PB_WI@Z
	??$_Debug_range@PAPAULineBuffer@?A0xf57f9ec6@Imf@@@std@@YAXPAPAULineBuffer@?A0xf57f9ec6@Imf@@0PB_WI@Z
	?erase@?$vector@PAULineBuffer@?A0xcbf8ace6@Imf@@V?$allocator@PAULineBuffer@?A0xcbf8ace6@Imf@@@std@@@std@@QAE?AV?$_Vector_iterator@V?$_Vector_val@PAULineBuffer@?A0xcbf8ace6@Imf@@V?$allocator@PAULineBuffer@?A0xcbf8ace6@Imf@@@std@@@std@@@2@V?$_Vector_const_iterator@V?$_Vector_val@PAULineBuffer@?A0xcbf8ace6@Imf@@V?$allocator@PAULineBuffer@?A0xcbf8ace6@Imf@@@std@@@std@@@2@0@Z
	??0OverflowExc@Iex@@QAE@ABV01@@Z
	??0?$Array@D@Imf@@QAE@XZ
	?whiteLuminance@Imf@@YAABMABVHeader@1@@Z
	??0?$_Pair_base@$$CBUTileCoord@?A0x39e5c904@Imf@@PAUBufferedTile@23@@std@@QAE@ABUTileCoord@?A0x39e5c904@Imf@@$$QAPAUBufferedTile@34@@Z
	?_Linsert@?$_Tree@V?$_Tmap_traits@VName@Imf@@USlice@2@U?$less@VName@Imf@@@std@@V?$allocator@U?$pair@$$CBVName@Imf@@USlice@2@@std@@@5@$0A@@std@@@std@@QAE?AU?$pair@V?$_Tree_iterator@V?$_Tree_val@V?$_Tmap_traits@VName@Imf@@USlice@2@U?$less@VName@Imf@@@std@@V?$allocator@U?$pair@$$CBVName@Imf@@USlice@2@@std@@@5@$0A@@std@@@std@@@std@@_N@2@PAU_Node@?$_Tree_nod@V?$_Tmap_traits@VName@Imf@@USlice@2@U?$less@VName@Imf@@@std@@V?$allocator@U?$pair@$$CBVName@Imf@@USlice@2@@std@@@5@$0A@@std@@@2@_N@Z
	??1?$TypedAttribute@V?$Matrix44@M@Imath@@@Imf@@UAE@XZ
	?numLevels@TiledRgbaOutputFile@Imf@@QBEHXZ
	??0?$map@VName@Imf@@UChannel@2@U?$less@VName@Imf@@@std@@V?$allocator@U?$pair@$$CBVName@Imf@@UChannel@2@@std@@@5@@std@@QAE@ABV01@@Z
	??1ChannelList@Imf@@QAE@XZ
	?channelsWithPrefix@ChannelList@Imf@@QAEXQBDAAVIterator@12@1@Z
	??0LockedTypeMap@?A0x0779e1ad@Imf@@QAE@XZ
	?dropFrame@TimeCode@Imf@@QBE_NXZ
	?get_allocator@?$basic_string@DU?$char_traits@D@std@@V?$allocator@D@2@@std@@QBE?AV?$allocator@D@2@XZ
	?_Color@?$_Tree_val@V?$_Tmap_traits@VName@Imf@@UChannel@2@U?$less@VName@Imf@@@std@@V?$allocator@U?$pair@$$CBVName@Imf@@UChannel@2@@std@@@5@$0A@@std@@@std@@SAAADPAU_Node@?$_Tree_nod@V?$_Tmap_traits@VName@Imf@@UChannel@2@U?$less@VName@Imf@@@std@@V?$allocator@U?$pair@$$CBVName@Imf@@UChannel@2@@std@@@5@$0A@@std@@@2@@Z
	??F?$_Tree_iterator@V?$_Tree_val@V?$_Tmap_traits@UTileCoord@?A0x39e5c904@Imf@@PAUBufferedTile@23@U?$less@UTileCoord@?A0x39e5c904@Imf@@@std@@V?$allocator@U?$pair@$$CBUTileCoord@?A0x39e5c904@Imf@@PAUBufferedTile@23@@std@@@6@$0A@@std@@@std@@@std@@QAEAAV01@XZ
	??9?$_Vector_const_iterator@V?$_Vector_val@UTInSliceInfo@?A0xf6fcebb6@Imf@@V?$allocator@UTInSliceInfo@?A0xf6fcebb6@Imf@@@std@@@std@@@std@@QBE_NABV01@@Z
	??$pop_heap@PAPA_KUFHeapCompare@?A0xc87c6bb7@Imf@@@std@@YAXPAPA_K0UFHeapCompare@?A0xc87c6bb7@Imf@@@Z
	??1?$_Vector_iterator@V?$_Vector_val@V?$vector@_KV?$allocator@_K@std@@@std@@V?$allocator@V?$vector@_KV?$allocator@_K@std@@@std@@@2@@std@@@std@@QAE@XZ
	??D?$_Vector_iterator@V?$_Vector_val@_KV?$allocator@_K@std@@@std@@@std@@QBEAA_KXZ
	?allocate@?$allocator@D@std@@QAEPADI@Z
	?staticTypeName@?$TypedAttribute@V?$Matrix33@M@Imath@@@Imf@@SAPBDXZ
	??$?0AAV?$_Tree_iterator@V?$_Tree_val@V?$_Tmap_traits@VName@Imf@@USlice@2@U?$less@VName@Imf@@@std@@V?$allocator@U?$pair@$$CBVName@Imf@@USlice@2@@std@@@5@$0A@@std@@@std@@@std@@_N@?$pair@V?$_Tree_iterator@V?$_Tree_val@V?$_Tmap_traits@VName@Imf@@USlice@2@U?$less@VName@Imf@@@std@@V?$allocator@U?$pair@$$CBVName@Imf@@USlice@2@@std@@@5@$0A@@std@@@std@@@std@@_N@std@@QAE@AAV?$_Tree_iterator@V?$_Tree_val@V?$_Tmap_traits@VName@Imf@@USlice@2@U?$less@VName@Imf@@@std@@V?$allocator@U?$pair@$$CBVName@Imf@@USlice@2@@std@@@5@$0A@@std@@@std@@@1@$$QA_N@Z
	??1RleCompressor@Imf@@UAE@XZ
	?_Max@?$_Tree_val@V?$_Tmap_traits@VName@Imf@@PAVAttribute@2@U?$less@VName@Imf@@@std@@V?$allocator@U?$pair@$$CBVName@Imf@@PAVAttribute@2@@std@@@5@$0A@@std@@@std@@SAPAU_Node@?$_Tree_nod@V?$_Tmap_traits@VName@Imf@@PAVAttribute@2@U?$less@VName@Imf@@@std@@V?$allocator@U?$pair@$$CBVName@Imf@@PAVAttribute@2@@std@@@5@$0A@@std@@@2@PAU342@@Z
	??$forward@ABV?$basic_string@DU?$char_traits@D@std@@V?$allocator@D@2@@std@@@std@@YAABV?$basic_string@DU?$char_traits@D@std@@V?$allocator@D@2@@0@ABV10@@Z
	??1PizCompressor@Imf@@UAE@XZ
	?perfsPerCount@KeyCode@Imf@@QBEHXZ
	ImfHeaderCompression
	??$_Uninitialized_copy@PAUTInSliceInfo@?A0xf6fcebb6@Imf@@PAU123@V?$allocator@UTInSliceInfo@?A0xf6fcebb6@Imf@@@std@@@std@@YAPAUTInSliceInfo@?A0xf6fcebb6@Imf@@PAU123@00AAV?$allocator@UTInSliceInfo@?A0xf6fcebb6@Imf@@@0@@Z
	??1?$basic_stringstream@DU?$char_traits@D@std@@V?$allocator@D@2@@std@@UAE@XZ
	??8TileCoord@?A0x39e5c904@Imf@@QBE_NABU012@@Z
	?makeNewAttribute@?$TypedAttribute@V?$Box@V?$Vec2@M@Imath@@@Imath@@@Imf@@SAPAVAttribute@2@XZ
	?tileYSize@TiledRgbaOutputFile@Imf@@QBEIXZ
	?_Rmost@?$_Tree@V?$_Tmap_traits@VName@Imf@@USlice@2@U?$less@VName@Imf@@@std@@V?$allocator@U?$pair@$$CBVName@Imf@@USlice@2@@std@@@5@$0A@@std@@@std@@IBEAAPAU_Node@?$_Tree_nod@V?$_Tmap_traits@VName@Imf@@USlice@2@U?$less@VName@Imf@@@std@@V?$allocator@U?$pair@$$CBVName@Imf@@USlice@2@@std@@@5@$0A@@std@@@2@XZ
	?cast@?$TypedAttribute@W4Compression@Imf@@@Imf@@SAPBV12@PBVAttribute@2@@Z
	??$_Debug_range2@PAPA_K@std@@YAXPAPA_K0PB_WIUrandom_access_iterator_tag@0@@Z
	?clear@?$_Tree@V?$_Tmap_traits@PBDP6APAVAttribute@Imf@@XZUNameCompare@?A0x0779e1ad@2@V?$allocator@U?$pair@QBDP6APAVAttribute@Imf@@XZ@std@@@std@@$0A@@std@@@std@@QAEXXZ
	ImfHeaderM44fAttribute
	??$_Uninitialized_move@PAV?$vector@_KV?$allocator@_K@std@@@std@@PAV12@V?$allocator@V?$vector@_KV?$allocator@_K@std@@@std@@@2@@std@@YAPAV?$vector@_KV?$allocator@_K@std@@@0@PAV10@00AAV?$allocator@V?$vector@_KV?$allocator@_K@std@@@std@@@0@@Z
	??$move@AAUInSliceInfo@?A0xcbf8ace6@Imf@@@std@@YA$$QAUInSliceInfo@?A0xcbf8ace6@Imf@@AAU123@@Z
	?_Orphan_range@?$vector@V?$vector@_KV?$allocator@_K@std@@@std@@V?$allocator@V?$vector@_KV?$allocator@_K@std@@@std@@@2@@std@@IBEXPAV?$vector@_KV?$allocator@_K@std@@@2@0@Z
	?deallocate@?$allocator@I@std@@QAEXPAII@Z
	?prefix@KeyCode@Imf@@QBEHXZ
	??0?$_Tree_unchecked_const_iterator@V?$_Tree_val@V?$_Tset_traits@V?$basic_string@DU?$char_traits@D@std@@V?$allocator@D@2@@std@@U?$less@V?$basic_string@DU?$char_traits@D@std@@V?$allocator@D@2@@std@@@2@V?$allocator@V?$basic_string@DU?$char_traits@D@std@@V?$allocator@D@2@@std@@@2@$0A@@std@@@std@@U_Iterator_base12@2@@std@@QAE@ABV01@@Z
	?_Copy@?$_Tree@V?$_Tmap_traits@VName@Imf@@USlice@2@U?$less@VName@Imf@@@std@@V?$allocator@U?$pair@$$CBVName@Imf@@USlice@2@@std@@@5@$0A@@std@@@std@@IAEXABV12@@Z
	?baseTypeMin@?$Vec2@H@Imath@@SAHXZ
	??1?$vector@UTOutSliceInfo@?A0x39e5c904@Imf@@V?$allocator@UTOutSliceInfo@?A0x39e5c904@Imf@@@std@@@std@@QAE@XZ
	?writeValueTo@?$TypedAttribute@V?$Box@V?$Vec2@M@Imath@@@Imath@@@Imf@@UBEXAAVOStream@2@H@Z
	?_Linsert@?$_Tree@V?$_Tmap_traits@VName@Imf@@UChannel@2@U?$less@VName@Imf@@@std@@V?$allocator@U?$pair@$$CBVName@Imf@@UChannel@2@@std@@@5@$0A@@std@@@std@@QAE?AU?$pair@V?$_Tree_iterator@V?$_Tree_val@V?$_Tmap_traits@VName@Imf@@UChannel@2@U?$less@VName@Imf@@@std@@V?$allocator@U?$pair@$$CBVName@Imf@@UChannel@2@@std@@@5@$0A@@std@@@std@@@std@@_N@2@PAU_Node@?$_Tree_nod@V?$_Tmap_traits@VName@Imf@@UChannel@2@U?$less@VName@Imf@@@std@@V?$allocator@U?$pair@$$CBVName@Imf@@UChannel@2@@std@@@5@$0A@@std@@@2@_N@Z
	?setYCRounding@ToYca@RgbaOutputFile@Imf@@QAEXII@Z
	??1?$vector@_KV?$allocator@_K@std@@@std@@QAE@XZ
	??9Imf@@YA_NABVConstIterator@FrameBuffer@0@0@Z
	??0?$_Tree@V?$_Tmap_traits@PBDP6APAVAttribute@Imf@@XZUNameCompare@?A0x0779e1ad@2@V?$allocator@U?$pair@QBDP6APAVAttribute@Imf@@XZ@std@@@std@@$0A@@std@@@std@@QAE@ABUNameCompare@?A0x0779e1ad@Imf@@ABV?$allocator@U?$pair@QBDP6APAVAttribute@Imf@@XZ@std@@@1@@Z
	??0OutputFile@Imf@@QAE@AAVOStream@1@ABVHeader@1@H@Z
	?execute@LineBufferTask@?A0xcbf8ace6@Imf@@UAEXXZ
	?rawPixelData@InputFile@Imf@@QAEXHAAPBDAAH@Z
	??0?$TypedAttribute@V?$Vec2@M@Imath@@@Imf@@QAE@XZ
	?latitude@Imf@@YAAAMAAVHeader@1@@Z
	ImfTiledInputLevelRoundingMode
	?_Key@?$_Tree_val@V?$_Tmap_traits@PBDP6APAVAttribute@Imf@@XZUNameCompare@?A0x0779e1ad@2@V?$allocator@U?$pair@QBDP6APAVAttribute@Imf@@XZ@std@@@std@@$0A@@std@@@std@@SAAAPBDPAU_Node@?$_Tree_nod@V?$_Tmap_traits@PBDP6APAVAttribute@Imf@@XZUNameCompare@?A0x0779e1ad@2@V?$allocator@U?$pair@QBDP6APAVAttribute@Imf@@XZ@std@@@std@@$0A@@std@@@2@@Z
	??$_Allocate@U_Node@?$_Tree_nod@V?$_Tmap_traits@VName@Imf@@USlice@2@U?$less@VName@Imf@@@std@@V?$allocator@U?$pair@$$CBVName@Imf@@USlice@2@@std@@@5@$0A@@std@@@std@@@std@@YAPAU_Node@?$_Tree_nod@V?$_Tmap_traits@VName@Imf@@USlice@2@U?$less@VName@Imf@@@std@@V?$allocator@U?$pair@$$CBVName@Imf@@USlice@2@@std@@@5@$0A@@std@@@0@IPAU120@@Z
	?hufUnpackEncTable@?A0xc87c6bb7@Imf@@YAXPAPBDHHHPA_K@Z
	??0Rational@Imf@@QAE@N@Z
	??1?$_Vector_const_iterator@V?$_Vector_val@UTOutSliceInfo@?A0x39e5c904@Imf@@V?$allocator@UTOutSliceInfo@?A0x39e5c904@Imf@@@std@@@std@@@std@@QAE@XZ
	?_Lbound@?$_Tree@V?$_Tmap_traits@VName@Imf@@UChannel@2@U?$less@VName@Imf@@@std@@V?$allocator@U?$pair@$$CBVName@Imf@@UChannel@2@@std@@@5@$0A@@std@@@std@@IAEPAU_Node@?$_Tree_nod@V?$_Tmap_traits@VName@Imf@@UChannel@2@U?$less@VName@Imf@@@std@@V?$allocator@U?$pair@$$CBVName@Imf@@UChannel@2@@std@@@5@$0A@@std@@@2@ABVName@Imf@@@Z
	?reverseLutFromBitmap@?A0xce4d6f11@Imf@@YAGQBEQAG@Z
	ImfHeaderSetCompression
	ImfOutputHeader
	?compress@Pxr24Compressor@Imf@@AAEHPBDHV?$Box@V?$Vec2@H@Imath@@@Imath@@AAPBD@Z
	??$_Destroy_range@V?$allocator@V?$vector@V?$vector@_KV?$allocator@_K@std@@@std@@V?$allocator@V?$vector@_KV?$allocator@_K@std@@@std@@@2@@std@@@std@@@std@@YAXPAV?$vector@V?$vector@_KV?$allocator@_K@std@@@std@@V?$allocator@V?$vector@_KV?$allocator@_K@std@@@std@@@2@@0@0AAV?$allocator@V?$vector@V?$vector@_KV?$allocator@_K@std@@@std@@V?$allocator@V?$vector@_KV?$allocator@_K@std@@@std@@@2@@std@@@0@@Z
	?_Parent@?$_Tree_val@V?$_Tset_traits@V?$basic_string@DU?$char_traits@D@std@@V?$allocator@D@2@@std@@U?$less@V?$basic_string@DU?$char_traits@D@std@@V?$allocator@D@2@@std@@@2@V?$allocator@V?$basic_string@DU?$char_traits@D@std@@V?$allocator@D@2@@std@@@2@$0A@@std@@@std@@SAAAPAU_Node@?$_Tree_nod@V?$_Tset_traits@V?$basic_string@DU?$char_traits@D@std@@V?$allocator@D@2@@std@@U?$less@V?$basic_string@DU?$char_traits@D@std@@V?$allocator@D@2@@std@@@2@V?$allocator@V?$basic_string@DU?$char_traits@D@std@@V?$allocator@D@2@@std@@@2@$0A@@std@@@2@PAU342@@Z
	?begin@ChannelList@Imf@@QBE?AVConstIterator@12@XZ
	?screenWindowWidth@Header@Imf@@QAEAAMXZ
	??$insert@U?$pair@$$CBVName@Imf@@USlice@2@@std@@@?$_Tree@V?$_Tmap_traits@VName@Imf@@USlice@2@U?$less@VName@Imf@@@std@@V?$allocator@U?$pair@$$CBVName@Imf@@USlice@2@@std@@@5@$0A@@std@@@std@@QAE?AV?$_Tree_iterator@V?$_Tree_val@V?$_Tmap_traits@VName@Imf@@USlice@2@U?$less@VName@Imf@@@std@@V?$allocator@U?$pair@$$CBVName@Imf@@USlice@2@@std@@@5@$0A@@std@@@std@@@1@V?$_Tree_const_iterator@V?$_Tree_val@V?$_Tmap_traits@VName@Imf@@USlice@2@U?$less@VName@Imf@@@std@@V?$allocator@U?$pair@$$CBVName@Imf@@USlice@2@@std@@@5@$0A@@std@@@std@@@1@$$QAU?$pair@$$CBVName@Imf@@USlice@2@@1@@Z
	??$_Debug_range@PA_K@std@@YAXPA_K0PB_WI@Z
	??0?$allocator@PAUTileBuffer@?A0xf6fcebb6@Imf@@@std@@QAE@ABV01@@Z
	??4?$_Iterator012@Ubidirectional_iterator_tag@std@@U?$pair@$$CBVName@Imf@@PAVAttribute@2@@2@HPBU32@ABU32@U_Iterator_base12@2@@std@@QAEAAU01@ABU01@@Z
	?_Max@?$_Tree_val@V?$_Tmap_traits@UTileCoord@?A0x39e5c904@Imf@@PAUBufferedTile@23@U?$less@UTileCoord@?A0x39e5c904@Imf@@@std@@V?$allocator@U?$pair@$$CBUTileCoord@?A0x39e5c904@Imf@@PAUBufferedTile@23@@std@@@6@$0A@@std@@@std@@SAPAU_Node@?$_Tree_nod@V?$_Tmap_traits@UTileCoord@?A0x39e5c904@Imf@@PAUBufferedTile@23@U?$less@UTileCoord@?A0x39e5c904@Imf@@@std@@V?$allocator@U?$pair@$$CBUTileCoord@?A0x39e5c904@Imf@@PAUBufferedTile@23@@std@@@6@$0A@@std@@@2@PAU342@@Z
	?staticTypeName@?$TypedAttribute@VPreviewImage@Imf@@@Imf@@SAPBDXZ
	?cast@?$TypedAttribute@V?$vector@V?$basic_string@DU?$char_traits@D@std@@V?$allocator@D@2@@std@@V?$allocator@V?$basic_string@DU?$char_traits@D@std@@V?$allocator@D@2@@std@@@2@@std@@@Imf@@SAPBV12@PBVAttribute@2@@Z
	?dataWindowForTile@Imf@@YA?AV?$Box@V?$Vec2@H@Imath@@@Imath@@ABVTileDescription@1@HHHHHHHH@Z
	ImfHeaderSetScreenWindowCenter
	??4KeyCode@Imf@@QAEAAV01@ABV01@@Z
	?_Mynode@?$_Tree_unchecked_const_iterator@V?$_Tree_val@V?$_Tmap_traits@PBDP6APAVAttribute@Imf@@XZUNameCompare@?A0x0779e1ad@2@V?$allocator@U?$pair@QBDP6APAVAttribute@Imf@@XZ@std@@@std@@$0A@@std@@@std@@U_Iterator_base12@2@@std@@QBEPAU_Node@?$_Tree_nod@V?$_Tmap_traits@PBDP6APAVAttribute@Imf@@XZUNameCompare@?A0x0779e1ad@2@V?$allocator@U?$pair@QBDP6APAVAttribute@Imf@@XZ@std@@@std@@$0A@@std@@@2@XZ
	?focusAttribute@Imf@@YAABV?$TypedAttribute@M@1@ABVHeader@1@@Z
	?_Lmost@?$_Tree@V?$_Tmap_traits@VName@Imf@@USlice@2@U?$less@VName@Imf@@@std@@V?$allocator@U?$pair@$$CBVName@Imf@@USlice@2@@std@@@5@$0A@@std@@@std@@IBEAAPAU_Node@?$_Tree_nod@V?$_Tmap_traits@VName@Imf@@USlice@2@U?$less@VName@Imf@@@std@@V?$allocator@U?$pair@$$CBVName@Imf@@USlice@2@@std@@@5@$0A@@std@@@2@XZ
	??1?$_Tree_nod@V?$_Tmap_traits@PBDP6APAVAttribute@Imf@@XZUNameCompare@?A0x0779e1ad@2@V?$allocator@U?$pair@QBDP6APAVAttribute@Imf@@XZ@std@@@std@@$0A@@std@@@std@@QAE@XZ
	??$_Debug_pointer@V?$_Vector_const_iterator@V?$_Vector_val@V?$vector@_KV?$allocator@_K@std@@@std@@V?$allocator@V?$vector@_KV?$allocator@_K@std@@@std@@@2@@std@@@std@@@std@@YAXAAV?$_Vector_const_iterator@V?$_Vector_val@V?$vector@_KV?$allocator@_K@std@@@std@@V?$allocator@V?$vector@_KV?$allocator@_K@std@@@std@@@2@@std@@@0@PB_WI@Z
	??1?$_Iterator012@Urandom_access_iterator_tag@std@@V?$basic_string@DU?$char_traits@D@std@@V?$allocator@D@2@@2@HPBV32@ABV32@U_Iterator_base12@2@@std@@QAE@XZ
	??0?$_Tree_iterator@V?$_Tree_val@V?$_Tmap_traits@VName@Imf@@UChannel@2@U?$less@VName@Imf@@@std@@V?$allocator@U?$pair@$$CBVName@Imf@@UChannel@2@@std@@@5@$0A@@std@@@std@@@std@@QAE@ABV01@@Z
	??1?$TypedAttribute@V?$Vec2@N@Imath@@@Imf@@UAE@XZ
	??1?$_Tree_unchecked_const_iterator@V?$_Tree_val@V?$_Tset_traits@V?$basic_string@DU?$char_traits@D@std@@V?$allocator@D@2@@std@@U?$less@V?$basic_string@DU?$char_traits@D@std@@V?$allocator@D@2@@std@@@2@V?$allocator@V?$basic_string@DU?$char_traits@D@std@@V?$allocator@D@2@@std@@@2@$0A@@std@@@std@@U_Iterator_base12@2@@std@@QAE@XZ
	?cast@?$TypedAttribute@N@Imf@@SAPAV12@PAVAttribute@2@@Z
	?findSlice@FrameBuffer@Imf@@QBEPBUSlice@2@ABV?$basic_string@DU?$char_traits@D@std@@V?$allocator@D@2@@std@@@Z
	?value@?$TypedAttribute@VTileDescription@Imf@@@Imf@@QAEAAVTileDescription@2@XZ
	??$_Destroy_range@V?$allocator@PAUTileBuffer@?A0xf6fcebb6@Imf@@@std@@@std@@YAXPAPAUTileBuffer@?A0xf6fcebb6@Imf@@0AAV?$allocator@PAUTileBuffer@?A0xf6fcebb6@Imf@@@0@@Z
	??0?$TypedAttribute@V?$Matrix33@M@Imath@@@Imf@@QAE@XZ
	??$_Cons_val@V?$allocator@V?$vector@_KV?$allocator@_K@std@@@std@@@std@@V?$vector@_KV?$allocator@_K@std@@@2@V32@@std@@YAXAAV?$allocator@V?$vector@_KV?$allocator@_K@std@@@std@@@0@PAV?$vector@_KV?$allocator@_K@std@@@0@$$QAV20@@Z
	ImfTiledOutputSetFrameBuffer
	?tileXSize@TiledOutputFile@Imf@@QBEIXZ
	??1?$_Tree_val@V?$_Tmap_traits@UTileCoord@?A0x39e5c904@Imf@@PAUBufferedTile@23@U?$less@UTileCoord@?A0x39e5c904@Imf@@@std@@V?$allocator@U?$pair@$$CBUTileCoord@?A0x39e5c904@Imf@@PAUBufferedTile@23@@std@@@6@$0A@@std@@@std@@QAE@XZ
	??$?0AAV?$_Tree_iterator@V?$_Tree_val@V?$_Tmap_traits@VName@Imf@@USlice@2@U?$less@VName@Imf@@@std@@V?$allocator@U?$pair@$$CBVName@Imf@@USlice@2@@std@@@5@$0A@@std@@@std@@@std@@_N@?$_Pair_base@V?$_Tree_iterator@V?$_Tree_val@V?$_Tmap_traits@VName@Imf@@USlice@2@U?$less@VName@Imf@@@std@@V?$allocator@U?$pair@$$CBVName@Imf@@USlice@2@@std@@@5@$0A@@std@@@std@@@std@@_N@std@@QAE@AAV?$_Tree_iterator@V?$_Tree_val@V?$_Tmap_traits@VName@Imf@@USlice@2@U?$less@VName@Imf@@@std@@V?$allocator@U?$pair@$$CBVName@Imf@@USlice@2@@std@@@5@$0A@@std@@@std@@@1@$$QA_N@Z
	??4Chromaticities@Imf@@QAEAAU01@ABU01@@Z
	?channelsInLayer@ChannelList@Imf@@QAEXABV?$basic_string@DU?$char_traits@D@std@@V?$allocator@D@2@@std@@AAVIterator@12@1@Z
	?begin@?$_Tree@V?$_Tmap_traits@PBDP6APAVAttribute@Imf@@XZUNameCompare@?A0x0779e1ad@2@V?$allocator@U?$pair@QBDP6APAVAttribute@Imf@@XZ@std@@@std@@$0A@@std@@@std@@QAE?AV?$_Tree_iterator@V?$_Tree_val@V?$_Tmap_traits@PBDP6APAVAttribute@Imf@@XZUNameCompare@?A0x0779e1ad@2@V?$allocator@U?$pair@QBDP6APAVAttribute@Imf@@XZ@std@@@std@@$0A@@std@@@std@@@2@XZ
	?erase@?$_Tree@V?$_Tmap_traits@PBDP6APAVAttribute@Imf@@XZUNameCompare@?A0x0779e1ad@2@V?$allocator@U?$pair@QBDP6APAVAttribute@Imf@@XZ@std@@@std@@$0A@@std@@@std@@QAE?AV?$_Tree_iterator@V?$_Tree_val@V?$_Tmap_traits@PBDP6APAVAttribute@Imf@@XZUNameCompare@?A0x0779e1ad@2@V?$allocator@U?$pair@QBDP6APAVAttribute@Imf@@XZ@std@@@std@@$0A@@std@@@std@@@2@V?$_Tree_const_iterator@V?$_Tree_val@V?$_Tmap_traits@PBDP6APAVAttribute@Imf@@XZUNameCompare@?A0x0779e1ad@2@V?$allocator@U?$pair@QBDP6APAVAttribute@Imf@@XZ@std@@@std@@$0A@@std@@@std@@@2@0@Z
	??$_Move@PAPAUTileBuffer@?A0x39e5c904@Imf@@PAPAU123@@std@@YAPAPAUTileBuffer@?A0x39e5c904@Imf@@PAPAU123@00@Z
	??$checkIsNullTerminated@$0BAA@@?A0xac196fcb@Imf@@YAXAAY0BAA@$$CBDPBD@Z
	??$_Fill_n@PAIII@std@@YAXPAIIABI@Z
	??$findTypedAttribute@V?$TypedAttribute@W4Envmap@Imf@@@Imf@@@Header@Imf@@QBEPBV?$TypedAttribute@W4Envmap@Imf@@@1@QBD@Z
	??$?0$$CBVName@Imf@@PAVAttribute@1@@?$pair@$$CBVName@Imf@@PAVAttribute@2@@std@@QAE@$$QAU01@@Z
	??$?0AAV?$_Tree_iterator@V?$_Tree_val@V?$_Tmap_traits@VName@Imf@@PAVAttribute@2@U?$less@VName@Imf@@@std@@V?$allocator@U?$pair@$$CBVName@Imf@@PAVAttribute@2@@std@@@5@$0A@@std@@@std@@@std@@_N@?$pair@V?$_Tree_iterator@V?$_Tree_val@V?$_Tmap_traits@VName@Imf@@PAVAttribute@2@U?$less@VName@Imf@@@std@@V?$allocator@U?$pair@$$CBVName@Imf@@PAVAttribute@2@@std@@@5@$0A@@std@@@std@@@std@@_N@std@@QAE@AAV?$_Tree_iterator@V?$_Tree_val@V?$_Tmap_traits@VName@Imf@@PAVAttribute@2@U?$less@VName@Imf@@@std@@V?$allocator@U?$pair@$$CBVName@Imf@@PAVAttribute@2@@std@@@5@$0A@@std@@@std@@@1@$$QA_N@Z
	?_Right@?$_Tree_val@V?$_Tmap_traits@UTileCoord@?A0x39e5c904@Imf@@PAUBufferedTile@23@U?$less@UTileCoord@?A0x39e5c904@Imf@@@std@@V?$allocator@U?$pair@$$CBUTileCoord@?A0x39e5c904@Imf@@PAUBufferedTile@23@@std@@@6@$0A@@std@@@std@@SAAAPAU_Node@?$_Tree_nod@V?$_Tmap_traits@UTileCoord@?A0x39e5c904@Imf@@PAUBufferedTile@23@U?$less@UTileCoord@?A0x39e5c904@Imf@@@std@@V?$allocator@U?$pair@$$CBUTileCoord@?A0x39e5c904@Imf@@PAUBufferedTile@23@@std@@@6@$0A@@std@@@2@PAU342@@Z
	?push_back@?$vector@UInSliceInfo@?A0xcbf8ace6@Imf@@V?$allocator@UInSliceInfo@?A0xcbf8ace6@Imf@@@std@@@std@@QAEX$$QAUInSliceInfo@?A0xcbf8ace6@Imf@@@Z
	?max_size@?$allocator@U?$pair@$$CBVName@Imf@@PAVAttribute@2@@std@@@std@@QBEIXZ
	??$_Iter_cat@PAV?$vector@V?$vector@_KV?$allocator@_K@std@@@std@@V?$allocator@V?$vector@_KV?$allocator@_K@std@@@std@@@2@@std@@@std@@YA?AUrandom_access_iterator_tag@0@ABQAV?$vector@V?$vector@_KV?$allocator@_K@std@@@std@@V?$allocator@V?$vector@_KV?$allocator@_K@std@@@std@@@2@@0@@Z
	??$_Umove@PAPAULineBuffer@?A0xf57f9ec6@Imf@@@?$vector@PAULineBuffer@?A0xf57f9ec6@Imf@@V?$allocator@PAULineBuffer@?A0xf57f9ec6@Imf@@@std@@@std@@IAEPAPAULineBuffer@?A0xf57f9ec6@Imf@@PAPAU234@00@Z
	??$_Uninitialized_default_fill_n@PA_KI_KV?$allocator@_K@std@@@std@@YAXPA_KIPB_KAAV?$allocator@_K@0@@Z
	?makeEmpty@?$Box@V?$Vec2@M@Imath@@@Imath@@QAEXXZ
	??$construct@AAU?$pair@$$CBVName@Imf@@USlice@2@@std@@@?$allocator@U?$pair@$$CBVName@Imf@@USlice@2@@std@@@std@@QAEXPAU?$pair@$$CBVName@Imf@@USlice@2@@1@AAU21@@Z
	??$_Debug_range2@PAPAULineBuffer@?A0xf57f9ec6@Imf@@@std@@YAXPAPAULineBuffer@?A0xf57f9ec6@Imf@@0PB_WIUrandom_access_iterator_tag@0@@Z
	??0?$_Iterator012@Urandom_access_iterator_tag@std@@UOutSliceInfo@?A0xf57f9ec6@Imf@@HPBU345@ABU345@U_Iterator_base12@2@@std@@QAE@ABU01@@Z
	?_Set_back@?$basic_filebuf@DU?$char_traits@D@std@@@std@@AAEXXZ
	?_Tidy@?$_Tree@V?$_Tmap_traits@VName@Imf@@USlice@2@U?$less@VName@Imf@@@std@@V?$allocator@U?$pair@$$CBVName@Imf@@USlice@2@@std@@@5@$0A@@std@@@std@@IAEXXZ
	??Y?$_Vector_const_iterator@V?$_Vector_val@_KV?$allocator@_K@std@@@std@@@std@@QAEAAV01@H@Z
	?end@?$vector@V?$vector@_KV?$allocator@_K@std@@@std@@V?$allocator@V?$vector@_KV?$allocator@_K@std@@@std@@@2@@std@@QBE?AV?$_Vector_const_iterator@V?$_Vector_val@V?$vector@_KV?$allocator@_K@std@@@std@@V?$allocator@V?$vector@_KV?$allocator@_K@std@@@std@@@2@@std@@@2@XZ
	?_Compat@?$_Vector_const_iterator@V?$_Vector_val@UTOutSliceInfo@?A0x39e5c904@Imf@@V?$allocator@UTOutSliceInfo@?A0x39e5c904@Imf@@@std@@@std@@@std@@QBEXABV12@@Z
	??9?$_Vector_const_iterator@V?$_Vector_val@IV?$allocator@I@std@@@std@@@std@@QBE_NABV01@@Z
	??$_Debug_pointer@_K@std@@YAXPA_KPB_WI@Z
	?_Mynode@?$_Tree_unchecked_const_iterator@V?$_Tree_val@V?$_Tmap_traits@VName@Imf@@PAVAttribute@2@U?$less@VName@Imf@@@std@@V?$allocator@U?$pair@$$CBVName@Imf@@PAVAttribute@2@@std@@@5@$0A@@std@@@std@@U_Iterator_base12@2@@std@@QBEPAU_Node@?$_Tree_nod@V?$_Tmap_traits@VName@Imf@@PAVAttribute@2@U?$less@VName@Imf@@@std@@V?$allocator@U?$pair@$$CBVName@Imf@@PAVAttribute@2@@std@@@5@$0A@@std@@@2@XZ
	?typeName@?$TypedAttribute@M@Imf@@UBEPBDXZ
	??$_Destroy_range@V?$allocator@_K@std@@@std@@YAXPA_K0AAV?$allocator@_K@0@@Z
	?registerAttributeType@?$TypedAttribute@V?$Vec3@H@Imath@@@Imf@@SAXXZ
	?pixelAspectRatio@RgbaOutputFile@Imf@@QBEMXZ
	?__LINE__Var@?1??hufBuildEncTable@?A0xc87c6bb7@Imf@@YAXPA_KPAH1@Z@4JA
	??1?$_Tree_const_iterator@V?$_Tree_val@V?$_Tmap_traits@VName@Imf@@PAVAttribute@2@U?$less@VName@Imf@@@std@@V?$allocator@U?$pair@$$CBVName@Imf@@PAVAttribute@2@@std@@@5@$0A@@std@@@std@@@std@@QAE@XZ
	?copyValueFrom@?$TypedAttribute@V?$Vec2@H@Imath@@@Imf@@UAEXABVAttribute@2@@Z
	??$_Destroy_range@V?$allocator@UTOutSliceInfo@?A0x39e5c904@Imf@@@std@@@std@@YAXPAUTOutSliceInfo@?A0x39e5c904@Imf@@0AAV?$allocator@UTOutSliceInfo@?A0x39e5c904@Imf@@@0@@Z
	?isNan@?A0xd34937d7@Imf@@YA_NM@Z
	?get_allocator@?$vector@V?$vector@_KV?$allocator@_K@std@@@std@@V?$allocator@V?$vector@_KV?$allocator@_K@std@@@std@@@2@@std@@QBE?AV?$allocator@V?$vector@_KV?$allocator@_K@std@@@std@@@2@XZ
	??0?$_Iterator012@Ubidirectional_iterator_tag@std@@V?$basic_string@DU?$char_traits@D@std@@V?$allocator@D@2@@2@HPBV32@ABV32@U_Iterator_base12@2@@std@@QAE@XZ
	??$?0PAUTileBuffer@?A0x39e5c904@Imf@@@?$allocator@U_Container_proxy@std@@@std@@QAE@ABV?$allocator@PAUTileBuffer@?A0x39e5c904@Imf@@@1@@Z
	?readFrom@TileOffsets@Imf@@QAEXAAVIStream@2@AA_N@Z
	ImfNewRoundNBitLut
	??F?$_Tree_const_iterator@V?$_Tree_val@V?$_Tmap_traits@VName@Imf@@UChannel@2@U?$less@VName@Imf@@@std@@V?$allocator@U?$pair@$$CBVName@Imf@@UChannel@2@@std@@@5@$0A@@std@@@std@@@std@@QAEAAV01@XZ
	?_Root@?$_Tree@V?$_Tmap_traits@UTileCoord@?A0x39e5c904@Imf@@PAUBufferedTile@23@U?$less@UTileCoord@?A0x39e5c904@Imf@@@std@@V?$allocator@U?$pair@$$CBUTileCoord@?A0x39e5c904@Imf@@PAUBufferedTile@23@@std@@@6@$0A@@std@@@std@@IBEAAPAU_Node@?$_Tree_nod@V?$_Tmap_traits@UTileCoord@?A0x39e5c904@Imf@@PAUBufferedTile@23@U?$less@UTileCoord@?A0x39e5c904@Imf@@@std@@V?$allocator@U?$pair@$$CBUTileCoord@?A0x39e5c904@Imf@@PAUBufferedTile@23@@std@@@6@$0A@@std@@@2@XZ
	?__LINE__Var@?1???0PizCompressor@Imf@@QAE@ABVHeader@2@II@Z@4JA
	?erase@?$vector@UTInSliceInfo@?A0xf6fcebb6@Imf@@V?$allocator@UTInSliceInfo@?A0xf6fcebb6@Imf@@@std@@@std@@QAE?AV?$_Vector_iterator@V?$_Vector_val@UTInSliceInfo@?A0xf6fcebb6@Imf@@V?$allocator@UTInSliceInfo@?A0xf6fcebb6@Imf@@@std@@@std@@@2@V?$_Vector_const_iterator@V?$_Vector_val@UTInSliceInfo@?A0xf6fcebb6@Imf@@V?$allocator@UTInSliceInfo@?A0xf6fcebb6@Imf@@@std@@@std@@@2@0@Z
	?round12log@Imf@@YA?AVhalf@@V2@@Z
	??$_Copy_impl@PAUInSliceInfo@?A0xcbf8ace6@Imf@@PAU123@@std@@YAPAUInSliceInfo@?A0xcbf8ace6@Imf@@PAU123@00U_Nonscalar_ptr_iterator_tag@0@@Z
	??AFrameBuffer@Imf@@QBEABUSlice@1@ABV?$basic_string@DU?$char_traits@D@std@@V?$allocator@D@2@@std@@@Z
	??$_Debug_pointer@UTInSliceInfo@?A0xf6fcebb6@Imf@@@std@@YAXPAUTInSliceInfo@?A0xf6fcebb6@Imf@@PB_WI@Z
	??0?$allocator@I@std@@QAE@XZ
	??$_Val_type@PAUTOutSliceInfo@?A0x39e5c904@Imf@@@std@@YAPAUTOutSliceInfo@?A0x39e5c904@Imf@@PAU123@@Z
	?cast@?$TypedAttribute@V?$vector@V?$basic_string@DU?$char_traits@D@std@@V?$allocator@D@2@@std@@V?$allocator@V?$basic_string@DU?$char_traits@D@std@@V?$allocator@D@2@@std@@@2@@std@@@Imf@@SAABV12@ABVAttribute@2@@Z
	?writeTile@TiledRgbaOutputFile@Imf@@QAEXHHH@Z
	?_Compat@?$_Vector_const_iterator@V?$_Vector_val@V?$basic_string@DU?$char_traits@D@std@@V?$allocator@D@2@@std@@V?$allocator@V?$basic_string@DU?$char_traits@D@std@@V?$allocator@D@2@@std@@@2@@std@@@std@@QBEXABV12@@Z
	atan2f
	??$_Ptr_cat@PAUTileBuffer@?A0xf6fcebb6@Imf@@PAU123@@std@@YA?AU_Scalar_ptr_iterator_tag@0@PAPAUTileBuffer@?A0xf6fcebb6@Imf@@0@Z
	?lineOrder@TiledRgbaOutputFile@Imf@@QBE?AW4LineOrder@2@XZ
	?value@?$integral_constant@_N$0A@@tr1@std@@2_NB
	ImfTiledInputTileYSize
	??1?$basic_string@DU?$char_traits@D@std@@V?$allocator@D@2@@std@@QAE@XZ
	?MAX_LENGTH@Name@Imf@@2HB
	?compressTile@Pxr24Compressor@Imf@@UAEHPBDHV?$Box@V?$Vec2@H@Imath@@@Imath@@AAPBD@Z
	??0?$vector@V?$vector@_KV?$allocator@_K@std@@@std@@V?$allocator@V?$vector@_KV?$allocator@_K@std@@@std@@@2@@std@@QAE@XZ
	??8?$_Vector_const_iterator@V?$_Vector_val@V?$vector@_KV?$allocator@_K@std@@@std@@V?$allocator@V?$vector@_KV?$allocator@_K@std@@@std@@@2@@std@@@std@@QBE_NABV01@@Z
	?deallocate@?$allocator@PAULineBuffer@?A0xf57f9ec6@Imf@@@std@@QAEXPAPAULineBuffer@?A0xf57f9ec6@Imf@@I@Z
	??$_Uninit_move@PAULineBuffer@?A0xf57f9ec6@Imf@@PAU123@PAU123@@std@@YAPAPAULineBuffer@?A0xf57f9ec6@Imf@@PAPAU123@00AAV?$allocator@PAULineBuffer@?A0xf57f9ec6@Imf@@@0@0U_Scalar_ptr_iterator_tag@0@@Z
	??4?$Matrix33@N@Imath@@QAEABV01@ABV01@@Z
	?open@?$basic_filebuf@DU?$char_traits@D@std@@@std@@QAEPAV12@PBDHH@Z
	??4?$_Tree_unchecked_const_iterator@V?$_Tree_val@V?$_Tmap_traits@VName@Imf@@USlice@2@U?$less@VName@Imf@@@std@@V?$allocator@U?$pair@$$CBVName@Imf@@USlice@2@@std@@@5@$0A@@std@@@std@@U_Iterator_base12@2@@std@@QAEAAV01@ABV01@@Z
	?hasWhiteLuminance@Imf@@YA_NABVHeader@1@@Z
	??$_Dest_val@V?$allocator@V?$basic_string@DU?$char_traits@D@std@@V?$allocator@D@2@@std@@@std@@V?$basic_string@DU?$char_traits@D@std@@V?$allocator@D@2@@2@@std@@YAXAAV?$allocator@V?$basic_string@DU?$char_traits@D@std@@V?$allocator@D@2@@std@@@0@PAV?$basic_string@DU?$char_traits@D@std@@V?$allocator@D@2@@0@@Z
	??4?$basic_string@DU?$char_traits@D@std@@V?$allocator@D@2@@std@@QAEAAV01@PBD@Z
	?_Grow_to@?$vector@PAUTileBuffer@?A0x39e5c904@Imf@@V?$allocator@PAUTileBuffer@?A0x39e5c904@Imf@@@std@@@std@@IBEII@Z
	?writeTileData@?A0x39e5c904@Imf@@YAXPAUData@TiledOutputFile@2@HHHHQBDH@Z
	??0?$_Vector_val@V?$basic_string@DU?$char_traits@D@std@@V?$allocator@D@2@@std@@V?$allocator@V?$basic_string@DU?$char_traits@D@std@@V?$allocator@D@2@@std@@@2@@std@@QAE@V?$allocator@V?$basic_string@DU?$char_traits@D@std@@V?$allocator@D@2@@std@@@1@@Z
	??0?$vector@PAUTileBuffer@?A0xf6fcebb6@Imf@@V?$allocator@PAUTileBuffer@?A0xf6fcebb6@Imf@@@std@@@std@@QAE@XZ
	?decimateChromaHoriz@RgbaYca@Imf@@YAXHQBURgba@2@QAU32@@Z
	??0?$TypedAttribute@W4Envmap@Imf@@@Imf@@QAE@XZ
	?cast@?$TypedAttribute@W4LineOrder@Imf@@@Imf@@SAABV12@ABVAttribute@2@@Z
	?decimateChromaVert@RgbaYca@Imf@@YAXHQBQBURgba@2@QAU32@@Z
	?destroy@?$allocator@UOutSliceInfo@?A0xf57f9ec6@Imf@@@std@@QAEXPAUOutSliceInfo@?A0xf57f9ec6@Imf@@@Z
	?append@?$basic_string@DU?$char_traits@D@std@@V?$allocator@D@2@@std@@QAEAAV12@ABV12@II@Z
	??0RleCompressor@Imf@@QAE@ABVHeader@1@I@Z
	?getLineBuffer@Data@ScanLineInputFile@Imf@@QAEPAULineBuffer@?A0xcbf8ace6@3@H@Z
	?pixelAspectRatio@TiledRgbaInputFile@Imf@@QBEMXZ
	??$?0AAV?$_Tree_iterator@V?$_Tree_val@V?$_Tmap_traits@PBDP6APAVAttribute@Imf@@XZUNameCompare@?A0x0779e1ad@2@V?$allocator@U?$pair@QBDP6APAVAttribute@Imf@@XZ@std@@@std@@$0A@@std@@@std@@@std@@_N@?$_Pair_base@V?$_Tree_iterator@V?$_Tree_val@V?$_Tmap_traits@PBDP6APAVAttribute@Imf@@XZUNameCompare@?A0x0779e1ad@2@V?$allocator@U?$pair@QBDP6APAVAttribute@Imf@@XZ@std@@@std@@$0A@@std@@@std@@@std@@_N@std@@QAE@AAV?$_Tree_iterator@V?$_Tree_val@V?$_Tmap_traits@PBDP6APAVAttribute@Imf@@XZUNameCompare@?A0x0779e1ad@2@V?$allocator@U?$pair@QBDP6APAVAttribute@Imf@@XZ@std@@@std@@$0A@@std@@@std@@@1@$$QA_N@Z
	??$_Cons_val@V?$allocator@U?$pair@$$CBUTileCoord@?A0x39e5c904@Imf@@PAUBufferedTile@23@@std@@@std@@U?$pair@$$CBUTileCoord@?A0x39e5c904@Imf@@PAUBufferedTile@23@@2@U32@@std@@YAXAAV?$allocator@U?$pair@$$CBUTileCoord@?A0x39e5c904@Imf@@PAUBufferedTile@23@@std@@@0@PAU?$pair@$$CBUTileCoord@?A0x39e5c904@Imf@@PAUBufferedTile@23@@0@$$QAU20@@Z
	??$_Uninit_move@PAUTileBuffer@?A0xf6fcebb6@Imf@@PAU123@PAU123@@std@@YAPAPAUTileBuffer@?A0xf6fcebb6@Imf@@PAPAU123@00AAV?$allocator@PAUTileBuffer@?A0xf6fcebb6@Imf@@@0@0U_Scalar_ptr_iterator_tag@0@@Z
	??1?$map@PBDP6APAVAttribute@Imf@@XZUNameCompare@?A0x0779e1ad@2@V?$allocator@U?$pair@QBDP6APAVAttribute@Imf@@XZ@std@@@std@@@std@@QAE@XZ
	?lower_bound@?$_Tree@V?$_Tmap_traits@VName@Imf@@PAVAttribute@2@U?$less@VName@Imf@@@std@@V?$allocator@U?$pair@$$CBVName@Imf@@PAVAttribute@2@@std@@@5@$0A@@std@@@std@@QAE?AV?$_Tree_iterator@V?$_Tree_val@V?$_Tmap_traits@VName@Imf@@PAVAttribute@2@U?$less@VName@Imf@@@std@@V?$allocator@U?$pair@$$CBVName@Imf@@PAVAttribute@2@@std@@@5@$0A@@std@@@std@@@2@ABVName@Imf@@@Z
	??0?$_Tree_val@V?$_Tmap_traits@VName@Imf@@UChannel@2@U?$less@VName@Imf@@@std@@V?$allocator@U?$pair@$$CBVName@Imf@@UChannel@2@@std@@@5@$0A@@std@@@std@@QAE@ABU?$less@VName@Imf@@@1@V?$allocator@U?$pair@$$CBVName@Imf@@UChannel@2@@std@@@1@@Z
	??1?$AutoArray@G$0BAAAA@@Imf@@QAE@XZ
	?value@?$TypedAttribute@V?$Vec2@M@Imath@@@Imf@@QAEAAV?$Vec2@M@Imath@@XZ
	?_Isnil@?$_Tree_val@V?$_Tmap_traits@VName@Imf@@USlice@2@U?$less@VName@Imf@@@std@@V?$allocator@U?$pair@$$CBVName@Imf@@USlice@2@@std@@@5@$0A@@std@@@std@@SAAADPAU_Node@?$_Tree_nod@V?$_Tmap_traits@VName@Imf@@USlice@2@U?$less@VName@Imf@@@std@@V?$allocator@U?$pair@$$CBVName@Imf@@USlice@2@@std@@@5@$0A@@std@@@2@@Z
	??F?$_Tree_unchecked_const_iterator@V?$_Tree_val@V?$_Tmap_traits@VName@Imf@@UChannel@2@U?$less@VName@Imf@@@std@@V?$allocator@U?$pair@$$CBVName@Imf@@UChannel@2@@std@@@5@$0A@@std@@@std@@U_Iterator_base12@2@@std@@QAEAAV01@XZ
	?numXTiles@TiledInputFile@Imf@@QBEHH@Z
	?writeValueTo@?$TypedAttribute@V?$vector@V?$basic_string@DU?$char_traits@D@std@@V?$allocator@D@2@@std@@V?$allocator@V?$basic_string@DU?$char_traits@D@std@@V?$allocator@D@2@@std@@@2@@std@@@Imf@@UBEXAAVOStream@2@H@Z
	??$_Debug_range2@PAUOutSliceInfo@?A0xf57f9ec6@Imf@@@std@@YAXPAUOutSliceInfo@?A0xf57f9ec6@Imf@@0PB_WIUrandom_access_iterator_tag@0@@Z
	??B?$AutoArray@PA_K$0BAAAB@@Imf@@QAEPAPA_KXZ
	?pbackfail@?$basic_stringbuf@DU?$char_traits@D@std@@V?$allocator@D@2@@std@@MAEHH@Z
	??$forward@AB_K@std@@YAAB_KAB_K@Z
	??1FrameBuffer@Imf@@QAE@XZ
	?isTiledOpenExrFile@Imf@@YA_NAAVIStream@1@@Z
	?_Copy@?$_Tree@V?$_Tmap_traits@VName@Imf@@UChannel@2@U?$less@VName@Imf@@@std@@V?$allocator@U?$pair@$$CBVName@Imf@@UChannel@2@@std@@@5@$0A@@std@@@std@@IAEXABV12@@Z
	??$_Debug_range@PAI@std@@YAXPAI0PB_WI@Z
	??1?$_Vector_iterator@V?$_Vector_val@UTInSliceInfo@?A0xf6fcebb6@Imf@@V?$allocator@UTInSliceInfo@?A0xf6fcebb6@Imf@@@std@@@std@@@std@@QAE@XZ
	?numYLevels@TiledInputFile@Imf@@QBEHXZ
	??0TileOffsets@Imf@@QAE@W4LevelMode@1@HHPBH1@Z
	?hasLongitude@Imf@@YA_NABVHeader@1@@Z
	??$_Ucopy@PAV?$vector@_KV?$allocator@_K@std@@@std@@@?$vector@V?$vector@_KV?$allocator@_K@std@@@std@@V?$allocator@V?$vector@_KV?$allocator@_K@std@@@std@@@2@@std@@IAEPAV?$vector@_KV?$allocator@_K@std@@@1@PAV21@00@Z
	??R?$less@VName@Imf@@@std@@QBE_NABVName@Imf@@0@Z
	??$_Uninitialized_default_fill_n@PAIIIV?$allocator@I@std@@@std@@YAXPAIIPBIAAV?$allocator@I@0@@Z
	?max_size@?$vector@UInSliceInfo@?A0xcbf8ace6@Imf@@V?$allocator@UInSliceInfo@?A0xcbf8ace6@Imf@@@std@@@std@@QBEIXZ
	ImfHeaderScreenWindowWidth
	?max_size@?$vector@_KV?$allocator@_K@std@@@std@@QBEIXZ
	??1?$_Vector_val@IV?$allocator@I@std@@@std@@QAE@XZ
	?_Parent@?$_Tree_val@V?$_Tmap_traits@UTileCoord@?A0x39e5c904@Imf@@PAUBufferedTile@23@U?$less@UTileCoord@?A0x39e5c904@Imf@@@std@@V?$allocator@U?$pair@$$CBUTileCoord@?A0x39e5c904@Imf@@PAUBufferedTile@23@@std@@@6@$0A@@std@@@std@@SAAAPAU_Node@?$_Tree_nod@V?$_Tmap_traits@UTileCoord@?A0x39e5c904@Imf@@PAUBufferedTile@23@U?$less@UTileCoord@?A0x39e5c904@Imf@@@std@@V?$allocator@U?$pair@$$CBUTileCoord@?A0x39e5c904@Imf@@PAUBufferedTile@23@@std@@@6@$0A@@std@@@2@PAU342@@Z
	??1?$_Tree_val@V?$_Tmap_traits@VName@Imf@@USlice@2@U?$less@VName@Imf@@@std@@V?$allocator@U?$pair@$$CBVName@Imf@@USlice@2@@std@@@5@$0A@@std@@@std@@QAE@XZ
	?writeValueTo@?$TypedAttribute@V?$Vec2@H@Imath@@@Imf@@UBEXAAVOStream@2@H@Z
	?basefield@?$_Iosb@H@std@@2W4_Fmtflags@12@B
	??0Header@Imf@@QAE@ABV01@@Z
	??0?$map@VName@Imf@@USlice@2@U?$less@VName@Imf@@@std@@V?$allocator@U?$pair@$$CBVName@Imf@@USlice@2@@std@@@5@@std@@QAE@XZ
	??$_Dest_val@V?$allocator@V?$vector@_KV?$allocator@_K@std@@@std@@@std@@V?$vector@_KV?$allocator@_K@std@@@2@@std@@YAXAAV?$allocator@V?$vector@_KV?$allocator@_K@std@@@std@@@0@PAV?$vector@_KV?$allocator@_K@std@@@0@@Z
	??$_Destroy_range@V?$allocator@PAULineBuffer@?A0xcbf8ace6@Imf@@@std@@@std@@YAXPAPAULineBuffer@?A0xcbf8ace6@Imf@@0AAV?$allocator@PAULineBuffer@?A0xcbf8ace6@Imf@@@0@@Z
	?copy@?$TypedAttribute@VTileDescription@Imf@@@Imf@@UBEPAVAttribute@2@XZ
	?header@TiledInputFile@Imf@@QBEABVHeader@2@XZ
	??$checkIsNullTerminated@$0BAA@@?A0x1f5ff9f2@Imf@@YAXAAY0BAA@$$CBDPBD@Z
	??D?$_Vector_iterator@V?$_Vector_val@V?$basic_string@DU?$char_traits@D@std@@V?$allocator@D@2@@std@@V?$allocator@V?$basic_string@DU?$char_traits@D@std@@V?$allocator@D@2@@std@@@2@@std@@@std@@QBEAAV?$basic_string@DU?$char_traits@D@std@@V?$allocator@D@2@@1@XZ
	??1?$vector@V?$vector@_KV?$allocator@_K@std@@@std@@V?$allocator@V?$vector@_KV?$allocator@_K@std@@@std@@@2@@std@@QAE@XZ
	??$_Uninitialized_copy@V?$_Vector_const_iterator@V?$_Vector_val@V?$vector@_KV?$allocator@_K@std@@@std@@V?$allocator@V?$vector@_KV?$allocator@_K@std@@@std@@@2@@std@@@std@@PAV?$vector@_KV?$allocator@_K@std@@@2@V?$allocator@V?$vector@_KV?$allocator@_K@std@@@std@@@2@@std@@YAPAV?$vector@_KV?$allocator@_K@std@@@0@V?$_Vector_const_iterator@V?$_Vector_val@V?$vector@_KV?$allocator@_K@std@@@std@@V?$allocator@V?$vector@_KV?$allocator@_K@std@@@std@@@2@@std@@@0@0PAV10@AAV?$allocator@V?$vector@_KV?$allocator@_K@std@@@std@@@0@@Z
	??1?$basic_stringbuf@DU?$char_traits@D@std@@V?$allocator@D@2@@std@@UAE@XZ
	?_Orphan_range@?$vector@PAUTileBuffer@?A0x39e5c904@Imf@@V?$allocator@PAUTileBuffer@?A0x39e5c904@Imf@@@std@@@std@@IBEXPAPAUTileBuffer@?A0x39e5c904@Imf@@0@Z
	?end@?$vector@UTInSliceInfo@?A0xf6fcebb6@Imf@@V?$allocator@UTInSliceInfo@?A0xf6fcebb6@Imf@@@std@@@std@@QAE?AV?$_Vector_iterator@V?$_Vector_val@UTInSliceInfo@?A0xf6fcebb6@Imf@@V?$allocator@UTInSliceInfo@?A0xf6fcebb6@Imf@@@std@@@std@@@2@XZ
	?copy@?$TypedAttribute@H@Imf@@UBEPAVAttribute@2@XZ
	??$move@ABUTileCoord@?A0x39e5c904@Imf@@@std@@YA$$QBUTileCoord@?A0x39e5c904@Imf@@ABU123@@Z
	?max_size@?$vector@UOutSliceInfo@?A0xf57f9ec6@Imf@@V?$allocator@UOutSliceInfo@?A0xf57f9ec6@Imf@@@std@@@std@@QBEIXZ
	??0?$_Iterator012@Ubidirectional_iterator_tag@std@@U?$pair@$$CBUTileCoord@?A0x39e5c904@Imf@@PAUBufferedTile@23@@2@HPBU32@ABU32@U_Iterator_base12@2@@std@@QAE@XZ
	??8?$_Vector_const_iterator@V?$_Vector_val@UTOutSliceInfo@?A0x39e5c904@Imf@@V?$allocator@UTOutSliceInfo@?A0x39e5c904@Imf@@@std@@@std@@@std@@QBE_NABV01@@Z
	?_Orphan_range@?$vector@V?$basic_string@DU?$char_traits@D@std@@V?$allocator@D@2@@std@@V?$allocator@V?$basic_string@DU?$char_traits@D@std@@V?$allocator@D@2@@std@@@2@@std@@IBEXPAV?$basic_string@DU?$char_traits@D@std@@V?$allocator@D@2@@2@0@Z
	?header@Compressor@Imf@@QBEABVHeader@2@XZ
	?compression@Header@Imf@@QAEAAW4Compression@2@XZ
	??0?$_Tree_unchecked_const_iterator@V?$_Tree_val@V?$_Tmap_traits@PBDP6APAVAttribute@Imf@@XZUNameCompare@?A0x0779e1ad@2@V?$allocator@U?$pair@QBDP6APAVAttribute@Imf@@XZ@std@@@std@@$0A@@std@@@std@@U_Iterator_base12@2@@std@@QAE@PAU_Node@?$_Tree_nod@V?$_Tmap_traits@PBDP6APAVAttribute@Imf@@XZUNameCompare@?A0x0779e1ad@2@V?$allocator@U?$pair@QBDP6APAVAttribute@Imf@@XZ@std@@@std@@$0A@@std@@@1@PBV?$_Tree_val@V?$_Tmap_traits@PBDP6APAVAttribute@Imf@@XZUNameCompare@?A0x0779e1ad@2@V?$allocator@U?$pair@QBDP6APAVAttribute@Imf@@XZ@std@@@std@@$0A@@std@@@1@@Z
	?dataWindowForTile@TiledInputFile@Imf@@QBE?AV?$Box@V?$Vec2@H@Imath@@@Imath@@HHHH@Z
	?reconstructChromaVert@RgbaYca@Imf@@YAXHQBQBURgba@2@QAU32@@Z
	?uncompress@Pxr24Compressor@Imf@@UAEHPBDHHAAPBD@Z
	?wait@LineBuffer@?A0xcbf8ace6@Imf@@QAEXXZ
	??1?$TypedAttribute@VTileDescription@Imf@@@Imf@@UAE@XZ
	?writePixelData@?A0xf57f9ec6@Imf@@YAXPAUData@OutputFile@2@PBULineBuffer@12@@Z
	??0TiledRgbaOutputFile@Imf@@QAE@QBDHHW4LevelMode@1@W4LevelRoundingMode@1@ABV?$Box@V?$Vec2@H@Imath@@@Imath@@3W4RgbaChannels@1@MV?$Vec2@M@5@MW4LineOrder@1@W4Compression@1@H@Z
	?_Reserve@?$vector@UTInSliceInfo@?A0xf6fcebb6@Imf@@V?$allocator@UTInSliceInfo@?A0xf6fcebb6@Imf@@@std@@@std@@IAEXI@Z
	?dataWindowForLevel@TiledOutputFile@Imf@@QBE?AV?$Box@V?$Vec2@H@Imath@@@Imath@@H@Z
	?breakTile@TiledRgbaOutputFile@Imf@@QAEXHHHHHHD@Z
	?longitude@Imf@@YAAAMAAVHeader@1@@Z
	?pixelPosition@CubeMap@Imf@@YA?AV?$Vec2@M@Imath@@W4CubeMapFace@2@ABV?$Box@V?$Vec2@H@Imath@@@4@V34@@Z
	??$_Ucopy@PAUInSliceInfo@?A0xcbf8ace6@Imf@@@?$vector@UInSliceInfo@?A0xcbf8ace6@Imf@@V?$allocator@UInSliceInfo@?A0xcbf8ace6@Imf@@@std@@@std@@IAEPAUInSliceInfo@?A0xcbf8ace6@Imf@@PAU234@00@Z
	??$insert@AAV?$basic_string@DU?$char_traits@D@std@@V?$allocator@D@2@@std@@@?$_Tree@V?$_Tset_traits@V?$basic_string@DU?$char_traits@D@std@@V?$allocator@D@2@@std@@U?$less@V?$basic_string@DU?$char_traits@D@std@@V?$allocator@D@2@@std@@@2@V?$allocator@V?$basic_string@DU?$char_traits@D@std@@V?$allocator@D@2@@std@@@2@$0A@@std@@@std@@QAE?AU?$pair@V?$_Tree_const_iterator@V?$_Tree_val@V?$_Tset_traits@V?$basic_string@DU?$char_traits@D@std@@V?$allocator@D@2@@std@@U?$less@V?$basic_string@DU?$char_traits@D@std@@V?$allocator@D@2@@std@@@2@V?$allocator@V?$basic_string@DU?$char_traits@D@std@@V?$allocator@D@2@@std@@@2@$0A@@std@@@std@@@std@@_N@1@AAV?$basic_string@DU?$char_traits@D@std@@V?$allocator@D@2@@1@@Z
	??1?$_Tree_val@V?$_Tmap_traits@VName@Imf@@UChannel@2@U?$less@VName@Imf@@@std@@V?$allocator@U?$pair@$$CBVName@Imf@@UChannel@2@@std@@@5@$0A@@std@@@std@@QAE@XZ
	cosf
	?floatfield@?$_Iosb@H@std@@2W4_Fmtflags@12@B
	??1Data@OutputFile@Imf@@UAE@XZ
	??F?$_Tree_const_iterator@V?$_Tree_val@V?$_Tmap_traits@UTileCoord@?A0x39e5c904@Imf@@PAUBufferedTile@23@U?$less@UTileCoord@?A0x39e5c904@Imf@@@std@@V?$allocator@U?$pair@$$CBUTileCoord@?A0x39e5c904@Imf@@PAUBufferedTile@23@@std@@@6@$0A@@std@@@std@@@std@@QAEAAV01@XZ
	??0TiledInputFile@Imf@@AAE@ABVHeader@1@PAVIStream@1@HH@Z
	??E?$_Tree_iterator@V?$_Tree_val@V?$_Tmap_traits@VName@Imf@@UChannel@2@U?$less@VName@Imf@@@std@@V?$allocator@U?$pair@$$CBVName@Imf@@UChannel@2@@std@@@5@$0A@@std@@@std@@@std@@QAEAAV01@XZ
	?compressTile@B44Compressor@Imf@@UAEHPBDHV?$Box@V?$Vec2@H@Imath@@@Imath@@AAPBD@Z
	?_Buynode@?$_Tree_val@V?$_Tmap_traits@PBDP6APAVAttribute@Imf@@XZUNameCompare@?A0x0779e1ad@2@V?$allocator@U?$pair@QBDP6APAVAttribute@Imf@@XZ@std@@@std@@$0A@@std@@@std@@QAEPAU_Node@?$_Tree_nod@V?$_Tmap_traits@PBDP6APAVAttribute@Imf@@XZUNameCompare@?A0x0779e1ad@2@V?$allocator@U?$pair@QBDP6APAVAttribute@Imf@@XZ@std@@@std@@$0A@@std@@@2@XZ
	??E?$_Tree_const_iterator@V?$_Tree_val@V?$_Tmap_traits@VName@Imf@@USlice@2@U?$less@VName@Imf@@@std@@V?$allocator@U?$pair@$$CBVName@Imf@@USlice@2@@std@@@5@$0A@@std@@@std@@@std@@QAE?AV01@H@Z
	?cur@?$_Iosb@H@std@@2W4_Seekdir@12@B
	ImfHeaderM33fAttribute
	?header@RgbaInputFile@Imf@@QBEABVHeader@2@XZ
	??AChannelList@Imf@@QAEAAUChannel@1@ABV?$basic_string@DU?$char_traits@D@std@@V?$allocator@D@2@@std@@@Z
	??0?$allocator@U?$pair@QBDP6APAVAttribute@Imf@@XZ@std@@@std@@QAE@ABV01@@Z
	?slice@Iterator@FrameBuffer@Imf@@QBEAAUSlice@3@XZ
	?deallocate@?$allocator@V?$vector@_KV?$allocator@_K@std@@@std@@@std@@QAEXPAV?$vector@_KV?$allocator@_K@std@@@2@I@Z
	??$_Ucopy@PAUTOutSliceInfo@?A0x39e5c904@Imf@@@?$vector@UTOutSliceInfo@?A0x39e5c904@Imf@@V?$allocator@UTOutSliceInfo@?A0x39e5c904@Imf@@@std@@@std@@IAEPAUTOutSliceInfo@?A0x39e5c904@Imf@@PAU234@00@Z
	?copyValueFrom@?$TypedAttribute@UChromaticities@Imf@@@Imf@@UAEXABVAttribute@2@@Z
	??0TimeCode@Imf@@QAE@IIW4Packing@01@@Z
	?find@Header@Imf@@QAE?AVIterator@12@QBD@Z
	asinf
	ImfTiledInputHeader
	?rgbaChannels@?A0x756c113c@Imf@@YA?AW4RgbaChannels@2@ABVChannelList@2@ABV?$basic_string@DU?$char_traits@D@std@@V?$allocator@D@2@@std@@@Z
	??$findTypedAttribute@V?$TypedAttribute@VPreviewImage@Imf@@@Imf@@@Header@Imf@@QBEPBV?$TypedAttribute@VPreviewImage@Imf@@@1@QBD@Z
	??$_Allocate@U_Node@?$_Tree_nod@V?$_Tmap_traits@VName@Imf@@PAVAttribute@2@U?$less@VName@Imf@@@std@@V?$allocator@U?$pair@$$CBVName@Imf@@PAVAttribute@2@@std@@@5@$0A@@std@@@std@@@std@@YAPAU_Node@?$_Tree_nod@V?$_Tmap_traits@VName@Imf@@PAVAttribute@2@U?$less@VName@Imf@@@std@@V?$allocator@U?$pair@$$CBVName@Imf@@PAVAttribute@2@@std@@@5@$0A@@std@@@0@IPAU120@@Z
	??$addressof@UTInSliceInfo@?A0xf6fcebb6@Imf@@@std@@YAPAUTInSliceInfo@?A0xf6fcebb6@Imf@@AAU123@@Z
	??0?$Matrix44@M@Imath@@QAE@ABV01@@Z
	?name@ConstIterator@ChannelList@Imf@@QBEPBDXZ
	?cast@?$TypedAttribute@V?$Matrix33@N@Imath@@@Imf@@SAABV12@ABVAttribute@2@@Z
	??A?$vector@UTInSliceInfo@?A0xf6fcebb6@Imf@@V?$allocator@UTInSliceInfo@?A0xf6fcebb6@Imf@@@std@@@std@@QAEAAUTInSliceInfo@?A0xf6fcebb6@Imf@@I@Z
	??0?$_Iterator012@Urandom_access_iterator_tag@std@@V?$vector@V?$vector@_KV?$allocator@_K@std@@@std@@V?$allocator@V?$vector@_KV?$allocator@_K@std@@@std@@@2@@2@HPBV32@ABV32@U_Iterator_base12@2@@std@@QAE@ABU01@@Z
	??$read@UStreamIO@Imf@@VStdIFStream@2@@Xdr@Imf@@YAXAAVStdIFStream@1@AAH@Z
	?_Isnil@?$_Tree_val@V?$_Tmap_traits@UTileCoord@?A0x39e5c904@Imf@@PAUBufferedTile@23@U?$less@UTileCoord@?A0x39e5c904@Imf@@@std@@V?$allocator@U?$pair@$$CBUTileCoord@?A0x39e5c904@Imf@@PAUBufferedTile@23@@std@@@6@$0A@@std@@@std@@SAAADPAU_Node@?$_Tree_nod@V?$_Tmap_traits@UTileCoord@?A0x39e5c904@Imf@@PAUBufferedTile@23@U?$less@UTileCoord@?A0x39e5c904@Imf@@@std@@V?$allocator@U?$pair@$$CBUTileCoord@?A0x39e5c904@Imf@@PAUBufferedTile@23@@std@@@6@$0A@@std@@@2@@Z
	??0?$_Iterator012@Ubidirectional_iterator_tag@std@@U?$pair@$$CBUTileCoord@?A0x39e5c904@Imf@@PAUBufferedTile@23@@2@HPBU32@ABU32@U_Iterator_base12@2@@std@@QAE@ABU01@@Z
	??0Attribute@Imf@@QAE@ABV01@@Z
	??0ChannelList@Imf@@QAE@XZ
	??2@YAPAXIPAX@Z
	?readValueFrom@?$TypedAttribute@V?$Vec2@H@Imath@@@Imf@@UAEXAAVIStream@2@HH@Z
	??$findTypedAttribute@V?$TypedAttribute@VRational@Imf@@@Imf@@@Header@Imf@@QBEPBV?$TypedAttribute@VRational@Imf@@@1@QBD@Z
	??0RgbaOutputFile@Imf@@QAE@QBDABV?$Box@V?$Vec2@H@Imath@@@Imath@@1W4RgbaChannels@1@MV?$Vec2@M@3@MW4LineOrder@1@W4Compression@1@H@Z
	?screenWindowWidth@TiledRgbaInputFile@Imf@@QBEMXZ
	?value@?$integral_constant@I$0A@@tr1@std@@2IB
	??$_Uninit_copy@PAUOutSliceInfo@?A0xf57f9ec6@Imf@@PAU123@V?$allocator@UOutSliceInfo@?A0xf57f9ec6@Imf@@@std@@@std@@YAPAUOutSliceInfo@?A0xf57f9ec6@Imf@@PAU123@00AAV?$allocator@UOutSliceInfo@?A0xf57f9ec6@Imf@@@0@U_Nonscalar_ptr_iterator_tag@0@@Z
	??0TInSliceInfo@?A0xf6fcebb6@Imf@@QAE@W4PixelType@2@0PADII_N2NHH@Z
	?_Orphan_range@?$vector@UTOutSliceInfo@?A0x39e5c904@Imf@@V?$allocator@UTOutSliceInfo@?A0x39e5c904@Imf@@@std@@@std@@IBEXPAUTOutSliceInfo@?A0x39e5c904@Imf@@0@Z
	??1OpaqueAttribute@Imf@@UAE@XZ
	?latLong@LatLongMap@Imf@@YA?AV?$Vec2@M@Imath@@ABV?$Box@V?$Vec2@H@Imath@@@4@ABV34@@Z
	??1?$TypedAttribute@V?$Vec3@N@Imath@@@Imf@@UAE@XZ
	?initialize@TiledInputFile@Imf@@AAEXXZ
	?push_back@?$vector@UOutSliceInfo@?A0xf57f9ec6@Imf@@V?$allocator@UOutSliceInfo@?A0xf57f9ec6@Imf@@@std@@@std@@QAEX$$QAUOutSliceInfo@?A0xf57f9ec6@Imf@@@Z
	?floatToHalf@Imf@@YA?AVhalf@@M@Z
	__CTA6?AVTypeExc@Iex@@
	??Y?$_Vector_iterator@V?$_Vector_val@_KV?$allocator@_K@std@@@std@@@std@@QAEAAV01@H@Z
	?tooMuchData@?A0xc87c6bb7@Imf@@YAXXZ
	?deallocate@?$allocator@PAUTileBuffer@?A0x39e5c904@Imf@@@std@@QAEXPAPAUTileBuffer@?A0x39e5c904@Imf@@I@Z
	ImfInputReadPixels
	?worldToNDCAttribute@Imf@@YAAAV?$TypedAttribute@V?$Matrix44@M@Imath@@@1@AAVHeader@1@@Z
	?_Min@?$_Tree_val@V?$_Tmap_traits@VName@Imf@@USlice@2@U?$less@VName@Imf@@@std@@V?$allocator@U?$pair@$$CBVName@Imf@@USlice@2@@std@@@5@$0A@@std@@@std@@SAPAU_Node@?$_Tree_nod@V?$_Tmap_traits@VName@Imf@@USlice@2@U?$less@VName@Imf@@@std@@V?$allocator@U?$pair@$$CBVName@Imf@@USlice@2@@std@@@5@$0A@@std@@@2@PAU342@@Z
	??$_Cons_val@V?$allocator@V?$basic_string@DU?$char_traits@D@std@@V?$allocator@D@2@@std@@@std@@V?$basic_string@DU?$char_traits@D@std@@V?$allocator@D@2@@2@AAV32@@std@@YAXAAV?$allocator@V?$basic_string@DU?$char_traits@D@std@@V?$allocator@D@2@@std@@@0@PAV?$basic_string@DU?$char_traits@D@std@@V?$allocator@D@2@@0@AAV20@@Z
	?end@?$_Tree@V?$_Tmap_traits@VName@Imf@@UChannel@2@U?$less@VName@Imf@@@std@@V?$allocator@U?$pair@$$CBVName@Imf@@UChannel@2@@std@@@5@$0A@@std@@@std@@QBE?AV?$_Tree_const_iterator@V?$_Tree_val@V?$_Tmap_traits@VName@Imf@@UChannel@2@U?$less@VName@Imf@@@std@@V?$allocator@U?$pair@$$CBVName@Imf@@UChannel@2@@std@@@5@$0A@@std@@@std@@@2@XZ
	??$?9_K_K@std@@YA_NABV?$allocator@_K@0@0@Z
	?hufBuildDecTable@?A0xc87c6bb7@Imf@@YAXPB_KHHPAUHufDec@12@@Z
	__mask@@NegFloat@
	?_Compat@?$_Vector_const_iterator@V?$_Vector_val@UInSliceInfo@?A0xcbf8ace6@Imf@@V?$allocator@UInSliceInfo@?A0xcbf8ace6@Imf@@@std@@@std@@@std@@QBEXABV12@@Z
	?apply@RgbaLut@Imf@@QBEXPAURgba@2@HHABV?$Box@V?$Vec2@H@Imath@@@Imath@@@Z
	??0?$_Tree_iterator@V?$_Tree_val@V?$_Tmap_traits@VName@Imf@@USlice@2@U?$less@VName@Imf@@@std@@V?$allocator@U?$pair@$$CBVName@Imf@@USlice@2@@std@@@5@$0A@@std@@@std@@@std@@QAE@PAU_Node@?$_Tree_nod@V?$_Tmap_traits@VName@Imf@@USlice@2@U?$less@VName@Imf@@@std@@V?$allocator@U?$pair@$$CBVName@Imf@@USlice@2@@std@@@5@$0A@@std@@@1@PBV?$_Tree_val@V?$_Tmap_traits@VName@Imf@@USlice@2@U?$less@VName@Imf@@@std@@V?$allocator@U?$pair@$$CBVName@Imf@@USlice@2@@std@@@5@$0A@@std@@@1@@Z
	??B?$AutoArray@G$0BAAAA@@Imf@@QAEPAGXZ
	??$_Uninitialized_copy@PAUOutSliceInfo@?A0xf57f9ec6@Imf@@PAU123@V?$allocator@UOutSliceInfo@?A0xf57f9ec6@Imf@@@std@@@std@@YAPAUOutSliceInfo@?A0xf57f9ec6@Imf@@PAU123@00AAV?$allocator@UOutSliceInfo@?A0xf57f9ec6@Imf@@@0@@Z
	?value@?$TypedAttribute@V?$Vec3@H@Imath@@@Imf@@QBEABV?$Vec3@H@Imath@@XZ
	?numScanLines@RleCompressor@Imf@@UBEHXZ
	??$size@Vhalf@@@Xdr@Imf@@YAHXZ
	??D?$_String_const_iterator@DU?$char_traits@D@std@@V?$allocator@D@2@@std@@QBEABDXZ
	?numYTiles@TiledRgbaOutputFile@Imf@@QBEHH@Z
	ImfOpenTiledInputFile
	?findSlice@FrameBuffer@Imf@@QAEPAUSlice@2@ABV?$basic_string@DU?$char_traits@D@std@@V?$allocator@D@2@@std@@@Z
	??$_Move@PAUTOutSliceInfo@?A0x39e5c904@Imf@@PAU123@@std@@YAPAUTOutSliceInfo@?A0x39e5c904@Imf@@PAU123@00@Z
	??0?$_Tree_nod@V?$_Tmap_traits@VName@Imf@@UChannel@2@U?$less@VName@Imf@@@std@@V?$allocator@U?$pair@$$CBVName@Imf@@UChannel@2@@std@@@5@$0A@@std@@@std@@QAE@ABU?$less@VName@Imf@@@1@V?$allocator@U?$pair@$$CBVName@Imf@@UChannel@2@@std@@@1@@Z
	??A?$Vec2@H@Imath@@QBEABHH@Z
	?seekp@StdOFStream@Imf@@UAEX_K@Z
	??$_Allocate@PAUTileBuffer@?A0xf6fcebb6@Imf@@@std@@YAPAPAUTileBuffer@?A0xf6fcebb6@Imf@@IPAPAU123@@Z
	??0?$_Vector_val@PAULineBuffer@?A0xcbf8ace6@Imf@@V?$allocator@PAULineBuffer@?A0xcbf8ace6@Imf@@@std@@@std@@QAE@V?$allocator@PAULineBuffer@?A0xcbf8ace6@Imf@@@1@@Z
	??0?$allocator@PAUTileBuffer@?A0x39e5c904@Imf@@@std@@QAE@ABV01@@Z
	??1FromYa@TiledRgbaInputFile@Imf@@UAE@XZ
	??0InputExc@Iex@@QAE@ABV01@@Z
	?channels@RgbaInputFile@Imf@@QBE?AW4RgbaChannels@2@XZ
	??$_Uninit_def_fill_n@PAULineBuffer@?A0xf57f9ec6@Imf@@IPAU123@PAU123@@std@@YAXPAPAULineBuffer@?A0xf57f9ec6@Imf@@IPBQAU123@AAV?$allocator@PAULineBuffer@?A0xf57f9ec6@Imf@@@0@0U_Scalar_ptr_iterator_tag@0@@Z
	??$_Uninit_move@III@std@@YAPAIPAI00AAV?$allocator@I@0@0U_Scalar_ptr_iterator_tag@0@@Z
	?deallocate@?$allocator@PAULineBuffer@?A0xcbf8ace6@Imf@@@std@@QAEXPAPAULineBuffer@?A0xcbf8ace6@Imf@@I@Z
	?direction@CubeMap@Imf@@YA?AV?$Vec3@M@Imath@@W4CubeMapFace@2@ABV?$Box@V?$Vec2@H@Imath@@@4@ABV?$Vec2@M@4@@Z
	?size@?$vector@V?$basic_string@DU?$char_traits@D@std@@V?$allocator@D@2@@std@@V?$allocator@V?$basic_string@DU?$char_traits@D@std@@V?$allocator@D@2@@std@@@2@@std@@QBEIXZ
	??0?$map@VName@Imf@@PAVAttribute@2@U?$less@VName@Imf@@@std@@V?$allocator@U?$pair@$$CBVName@Imf@@PAVAttribute@2@@std@@@5@@std@@QAE@XZ
	?frameBuffer@TiledOutputFile@Imf@@QBEABVFrameBuffer@2@XZ
	??$?0UTInSliceInfo@?A0xf6fcebb6@Imf@@@?$allocator@U_Container_proxy@std@@@std@@QAE@ABV?$allocator@UTInSliceInfo@?A0xf6fcebb6@Imf@@@1@@Z
	??$_Umove@PAUInSliceInfo@?A0xcbf8ace6@Imf@@@?$vector@UInSliceInfo@?A0xcbf8ace6@Imf@@V?$allocator@UInSliceInfo@?A0xcbf8ace6@Imf@@@std@@@std@@IAEPAUInSliceInfo@?A0xcbf8ace6@Imf@@PAU234@00@Z
	?cast@?$TypedAttribute@VKeyCode@Imf@@@Imf@@SAABV12@ABVAttribute@2@@Z
	??$_Cons_val@V?$allocator@UInSliceInfo@?A0xcbf8ace6@Imf@@@std@@UInSliceInfo@?A0xcbf8ace6@Imf@@U345@@std@@YAXAAV?$allocator@UInSliceInfo@?A0xcbf8ace6@Imf@@@0@PAUInSliceInfo@?A0xcbf8ace6@Imf@@$$QAU234@@Z
	??$typedAttribute@V?$TypedAttribute@V?$Matrix44@M@Imath@@@Imf@@@Header@Imf@@QBEABV?$TypedAttribute@V?$Matrix44@M@Imath@@@1@QBD@Z
	?registerAttributeType@?$TypedAttribute@M@Imf@@SAXXZ
	?_Isnil@?$_Tree_val@V?$_Tset_traits@V?$basic_string@DU?$char_traits@D@std@@V?$allocator@D@2@@std@@U?$less@V?$basic_string@DU?$char_traits@D@std@@V?$allocator@D@2@@std@@@2@V?$allocator@V?$basic_string@DU?$char_traits@D@std@@V?$allocator@D@2@@std@@@2@$0A@@std@@@std@@SAAADPAU_Node@?$_Tree_nod@V?$_Tset_traits@V?$basic_string@DU?$char_traits@D@std@@V?$allocator@D@2@@std@@U?$less@V?$basic_string@DU?$char_traits@D@std@@V?$allocator@D@2@@std@@@2@V?$allocator@V?$basic_string@DU?$char_traits@D@std@@V?$allocator@D@2@@std@@@2@$0A@@std@@@2@@Z
	?insertChannels@?A0x756c113c@Imf@@YAXAAVHeader@2@W4RgbaChannels@2@QBD@Z
	?numLevels@TiledRgbaInputFile@Imf@@QBEHXZ
	?copyValueFrom@OpaqueAttribute@Imf@@UAEXABVAttribute@2@@Z
	ImfNewHeader
	??$_Destroy@U?$pair@$$CBVName@Imf@@UChannel@2@@std@@@std@@YAXPAU?$pair@$$CBVName@Imf@@UChannel@2@@0@@Z
	??4ChannelList@Imf@@QAEAAV01@ABV01@@Z
	?construct@?$allocator@U?$pair@$$CBVName@Imf@@USlice@2@@std@@@std@@QAEXPAU?$pair@$$CBVName@Imf@@USlice@2@@2@$$QAU32@@Z
	??$typedAttribute@V?$TypedAttribute@VTileDescription@Imf@@@Imf@@@Header@Imf@@QBEABV?$TypedAttribute@VTileDescription@Imf@@@1@QBD@Z
	??1?$_Tree@V?$_Tmap_traits@VName@Imf@@PAVAttribute@2@U?$less@VName@Imf@@@std@@V?$allocator@U?$pair@$$CBVName@Imf@@PAVAttribute@2@@std@@@5@$0A@@std@@@std@@QAE@XZ
	?cast@?$TypedAttribute@M@Imf@@SAABV12@ABVAttribute@2@@Z
	?cast@?$TypedAttribute@V?$Box@V?$Vec2@M@Imath@@@Imath@@@Imf@@SAPBV12@PBVAttribute@2@@Z
	??$_Move@PAUOutSliceInfo@?A0xf57f9ec6@Imf@@PAU123@@std@@YAPAUOutSliceInfo@?A0xf57f9ec6@Imf@@PAU123@00U_Nonscalar_ptr_iterator_tag@0@@Z
	?addFocus@Imf@@YAXAAVHeader@1@ABM@Z
	?empty@?$basic_string@DU?$char_traits@D@std@@V?$allocator@D@2@@std@@QBE_NXZ
	??$_Uninit_copy@PAV?$vector@V?$vector@_KV?$allocator@_K@std@@@std@@V?$allocator@V?$vector@_KV?$allocator@_K@std@@@std@@@2@@std@@PAV12@V?$allocator@V?$vector@V?$vector@_KV?$allocator@_K@std@@@std@@V?$allocator@V?$vector@_KV?$allocator@_K@std@@@std@@@2@@std@@@2@@std@@YAPAV?$vector@V?$vector@_KV?$allocator@_K@std@@@std@@V?$allocator@V?$vector@_KV?$allocator@_K@std@@@std@@@2@@0@PAV10@00AAV?$allocator@V?$vector@V?$vector@_KV?$allocator@_K@std@@@std@@V?$allocator@V?$vector@_KV?$allocator@_K@std@@@std@@@2@@std@@@0@U_Nonscalar_ptr_iterator_tag@0@@Z
	??$_Uninit_def_fill_n@PAULineBuffer@?A0xcbf8ace6@Imf@@IPAU123@PAU123@@std@@YAXPAPAULineBuffer@?A0xcbf8ace6@Imf@@IPBQAU123@AAV?$allocator@PAULineBuffer@?A0xcbf8ace6@Imf@@@0@0U_Scalar_ptr_iterator_tag@0@@Z
	??$_Ptr_cat@V?$_Vector_const_iterator@V?$_Vector_val@_KV?$allocator@_K@std@@@std@@@std@@PA_K@std@@YA?AU_Nonscalar_ptr_iterator_tag@0@AAV?$_Vector_const_iterator@V?$_Vector_val@_KV?$allocator@_K@std@@@std@@@0@AAPA_K@Z
	?reserve@?$vector@IV?$allocator@I@std@@@std@@QAEXI@Z
	??$read@UStreamIO@Imf@@VIStream@2@@Xdr@Imf@@YAXAAVIStream@1@AAI@Z
	?typeName@?$TypedAttribute@V?$Matrix33@M@Imath@@@Imf@@UBEPBDXZ
	??$move@AAUOutSliceInfo@?A0xf57f9ec6@Imf@@@std@@YA$$QAUOutSliceInfo@?A0xf57f9ec6@Imf@@AAU123@@Z
	?destroy@?$allocator@UTOutSliceInfo@?A0x39e5c904@Imf@@@std@@QAEXPAUTOutSliceInfo@?A0x39e5c904@Imf@@@Z
	??$_Val_type@PAI@std@@YAPAIPAI@Z
	??$read@UStreamIO@Imf@@VIStream@2@@Xdr@Imf@@YAXAAVIStream@1@AAH@Z
	??1?$_Iterator012@Urandom_access_iterator_tag@std@@UTOutSliceInfo@?A0x39e5c904@Imf@@HPBU345@ABU345@U_Iterator_base12@2@@std@@QAE@XZ
	?_Make_iter@?$vector@PAULineBuffer@?A0xf57f9ec6@Imf@@V?$allocator@PAULineBuffer@?A0xf57f9ec6@Imf@@@std@@@std@@QBE?AV?$_Vector_iterator@V?$_Vector_val@PAULineBuffer@?A0xf57f9ec6@Imf@@V?$allocator@PAULineBuffer@?A0xf57f9ec6@Imf@@@std@@@std@@@2@V?$_Vector_const_iterator@V?$_Vector_val@PAULineBuffer@?A0xf57f9ec6@Imf@@V?$allocator@PAULineBuffer@?A0xf57f9ec6@Imf@@@std@@@std@@@2@@Z
	?copyValueFrom@?$TypedAttribute@W4LineOrder@Imf@@@Imf@@UAEXABVAttribute@2@@Z
	??1InputFile@Imf@@UAE@XZ
	?rleCompress@?A0x57fab1ba@Imf@@YAHHQBDQAC@Z
	??0?$_Iterator012@Urandom_access_iterator_tag@std@@V?$vector@V?$vector@_KV?$allocator@_K@std@@@std@@V?$allocator@V?$vector@_KV?$allocator@_K@std@@@std@@@2@@2@HPBV32@ABV32@U_Iterator_base12@2@@std@@QAE@XZ
	??0?$vector@V?$basic_string@DU?$char_traits@D@std@@V?$allocator@D@2@@std@@V?$allocator@V?$basic_string@DU?$char_traits@D@std@@V?$allocator@D@2@@std@@@2@@std@@QAE@$$QAV01@@Z
	??$_Move@AAD@std@@YA$$QADAAD@Z
	??1?$_Vector_const_iterator@V?$_Vector_val@IV?$allocator@I@std@@@std@@@std@@QAE@XZ
	??1TiledInputFile@Imf@@UAE@XZ
	?readValueFrom@?$TypedAttribute@V?$basic_string@DU?$char_traits@D@std@@V?$allocator@D@2@@std@@@Imf@@UAEXAAVIStream@2@HH@Z
	?pixels@PreviewImage@Imf@@QAEPAUPreviewRgba@2@XZ
	??0Data@TiledInputFile@Imf@@QAE@_NH@Z
	??$_Cons_val@V?$allocator@V?$basic_string@DU?$char_traits@D@std@@V?$allocator@D@2@@std@@@std@@V?$basic_string@DU?$char_traits@D@std@@V?$allocator@D@2@@2@V32@@std@@YAXAAV?$allocator@V?$basic_string@DU?$char_traits@D@std@@V?$allocator@D@2@@std@@@0@PAV?$basic_string@DU?$char_traits@D@std@@V?$allocator@D@2@@0@$$QAV20@@Z
	?_Kfn@?$_Tset_traits@V?$basic_string@DU?$char_traits@D@std@@V?$allocator@D@2@@std@@U?$less@V?$basic_string@DU?$char_traits@D@std@@V?$allocator@D@2@@std@@@2@V?$allocator@V?$basic_string@DU?$char_traits@D@std@@V?$allocator@D@2@@std@@@2@$0A@@std@@SAABV?$basic_string@DU?$char_traits@D@std@@V?$allocator@D@2@@2@ABV32@@Z
	?uintToHalf@Imf@@YA?AVhalf@@I@Z
	??E?$_Vector_iterator@V?$_Vector_val@V?$basic_string@DU?$char_traits@D@std@@V?$allocator@D@2@@std@@V?$allocator@V?$basic_string@DU?$char_traits@D@std@@V?$allocator@D@2@@std@@@2@@std@@@std@@QAEAAV01@XZ
	??0?$vector@_KV?$allocator@_K@std@@@std@@QAE@XZ
	?_Rank@?$_Arithmetic_traits@C@std@@2HB
	?_Register@facet@locale@std@@QAEXXZ
	?max_size@?$allocator@V?$vector@_KV?$allocator@_K@std@@@std@@@std@@QBEIXZ
	?end@?$vector@UInSliceInfo@?A0xcbf8ace6@Imf@@V?$allocator@UInSliceInfo@?A0xcbf8ace6@Imf@@@std@@@std@@QAE?AV?$_Vector_iterator@V?$_Vector_val@UInSliceInfo@?A0xcbf8ace6@Imf@@V?$allocator@UInSliceInfo@?A0xcbf8ace6@Imf@@@std@@@std@@@2@XZ
	?reserve@?$vector@UTInSliceInfo@?A0xf6fcebb6@Imf@@V?$allocator@UTInSliceInfo@?A0xf6fcebb6@Imf@@@std@@@std@@QAEXI@Z
	?construct@?$allocator@V?$vector@V?$vector@_KV?$allocator@_K@std@@@std@@V?$allocator@V?$vector@_KV?$allocator@_K@std@@@std@@@2@@std@@@std@@QAEXPAV?$vector@V?$vector@_KV?$allocator@_K@std@@@std@@V?$allocator@V?$vector@_KV?$allocator@_K@std@@@std@@@2@@2@$$QAV32@@Z
	?hufUncompress@Imf@@YAXQBDHQAGH@Z
	?dot@?$Vec3@M@Imath@@QBEMABV12@@Z
	??$_Move@AAH@std@@YA$$QAHAAH@Z
	??4?$Vec2@H@Imath@@QAEABV01@ABV01@@Z
	??1StdIFStream@Imf@@UAE@XZ
	?find@?$basic_string@DU?$char_traits@D@std@@V?$allocator@D@2@@std@@QBEIDI@Z
	?copy@?$TypedAttribute@W4Compression@Imf@@@Imf@@UBEPAVAttribute@2@XZ
	ImfHeaderScreenWindowCenter
	??$typedAttribute@V?$TypedAttribute@VTileDescription@Imf@@@Imf@@@Header@Imf@@QAEAAV?$TypedAttribute@VTileDescription@Imf@@@1@QBD@Z
	??$forward@U_Container_proxy@std@@@std@@YA$$QAU_Container_proxy@0@AAU10@@Z
	?currentScanLine@ToYca@RgbaOutputFile@Imf@@QBEHXZ
	?clear@?$_Tree@V?$_Tset_traits@V?$basic_string@DU?$char_traits@D@std@@V?$allocator@D@2@@std@@U?$less@V?$basic_string@DU?$char_traits@D@std@@V?$allocator@D@2@@std@@@2@V?$allocator@V?$basic_string@DU?$char_traits@D@std@@V?$allocator@D@2@@std@@@2@$0A@@std@@@std@@QAEXXZ
	?capDateAttribute@Imf@@YAAAV?$TypedAttribute@V?$basic_string@DU?$char_traits@D@std@@V?$allocator@D@2@@std@@@1@AAVHeader@1@@Z
	?tellp@StdOSStream@Imf@@UAE_KXZ
	??$forward@AAUTInSliceInfo@?A0xf6fcebb6@Imf@@@std@@YAAAUTInSliceInfo@?A0xf6fcebb6@Imf@@AAU123@@Z
	?typeName@?$TypedAttribute@UChromaticities@Imf@@@Imf@@UBEPBDXZ
	?staticTypeName@?$TypedAttribute@VTileDescription@Imf@@@Imf@@SAPBDXZ
	??1?$vector@PAUTileBuffer@?A0x39e5c904@Imf@@V?$allocator@PAUTileBuffer@?A0x39e5c904@Imf@@@std@@@std@@QAE@XZ
	?_Parent@?$_Tree_val@V?$_Tmap_traits@PBDP6APAVAttribute@Imf@@XZUNameCompare@?A0x0779e1ad@2@V?$allocator@U?$pair@QBDP6APAVAttribute@Imf@@XZ@std@@@std@@$0A@@std@@@std@@SAAAPAU_Node@?$_Tree_nod@V?$_Tmap_traits@PBDP6APAVAttribute@Imf@@XZUNameCompare@?A0x0779e1ad@2@V?$allocator@U?$pair@QBDP6APAVAttribute@Imf@@XZ@std@@@std@@$0A@@std@@@2@PAU342@@Z
	??Y?$_Vector_const_iterator@V?$_Vector_val@IV?$allocator@I@std@@@std@@@std@@QAEAAV01@H@Z
	??$_Debug_range2@PAUInSliceInfo@?A0xcbf8ace6@Imf@@@std@@YAXPAUInSliceInfo@?A0xcbf8ace6@Imf@@0PB_WIUrandom_access_iterator_tag@0@@Z
	??$_Uninitialized_default_fill_n@PAPAUTileBuffer@?A0x39e5c904@Imf@@IPAU123@V?$allocator@PAUTileBuffer@?A0x39e5c904@Imf@@@std@@@std@@YAXPAPAUTileBuffer@?A0x39e5c904@Imf@@IPBQAU123@AAV?$allocator@PAUTileBuffer@?A0x39e5c904@Imf@@@0@@Z
	?roundLog2@?A0x893782d4@Imf@@YAHHW4LevelRoundingMode@2@@Z
	??$typedAttribute@V?$TypedAttribute@UChromaticities@Imf@@@Imf@@@Header@Imf@@QAEAAV?$TypedAttribute@UChromaticities@Imf@@@1@QBD@Z
	__TI7?AVOverflowExc@Iex@@
	?max_size@?$allocator@U?$pair@QBDP6APAVAttribute@Imf@@XZ@std@@@std@@QBEIXZ
	??0IoExc@Iex@@QAE@ABV?$basic_string@DU?$char_traits@D@std@@V?$allocator@D@2@@std@@@Z
	?badbit@?$_Iosb@H@std@@2W4_Iostate@12@B
	?writePixels@OutputFile@Imf@@QAEXH@Z
	?capacity@?$vector@PAUTileBuffer@?A0xf6fcebb6@Imf@@V?$allocator@PAUTileBuffer@?A0xf6fcebb6@Imf@@@std@@@std@@QBEIXZ
	??$_Debug_pointer@PAUTileBuffer@?A0xf6fcebb6@Imf@@@std@@YAXPAPAUTileBuffer@?A0xf6fcebb6@Imf@@PB_WI@Z
	??8?$_Tree_const_iterator@V?$_Tree_val@V?$_Tmap_traits@VName@Imf@@PAVAttribute@2@U?$less@VName@Imf@@@std@@V?$allocator@U?$pair@$$CBVName@Imf@@PAVAttribute@2@@std@@@5@$0A@@std@@@std@@@std@@QBE_NABV01@@Z
	??0StdOSStream@Imf@@QAE@XZ
	??A?$Matrix33@M@Imath@@QAEPAMH@Z
	??EIterator@FrameBuffer@Imf@@QAEAAV012@XZ
	?value@?$TypedAttribute@V?$Box@V?$Vec2@M@Imath@@@Imath@@@Imf@@QAEAAV?$Box@V?$Vec2@M@Imath@@@Imath@@XZ
	?framesPerSecond@Imf@@YAAAVRational@1@AAVHeader@1@@Z
	?push_back@?$vector@UTInSliceInfo@?A0xf6fcebb6@Imf@@V?$allocator@UTInSliceInfo@?A0xf6fcebb6@Imf@@@std@@@std@@QAEX$$QAUTInSliceInfo@?A0xf6fcebb6@Imf@@@Z
	??$swap@D@std@@YAXAAD0@Z
	??0?$Vec2@H@Imath@@QAE@XZ
	??$construct@AAU?$pair@$$CBVName@Imf@@UChannel@2@@std@@@?$allocator@U?$pair@$$CBVName@Imf@@UChannel@2@@std@@@std@@QAEXPAU?$pair@$$CBVName@Imf@@UChannel@2@@1@AAU21@@Z
	??4PreviewImage@Imf@@QAEAAV01@ABV01@@Z
	??1?$basic_ofstream@DU?$char_traits@D@std@@@std@@UAE@XZ
	?_Buy@?$vector@UInSliceInfo@?A0xcbf8ace6@Imf@@V?$allocator@UInSliceInfo@?A0xcbf8ace6@Imf@@@std@@@std@@IAE_NI@Z
	?hasExpTime@Imf@@YA_NABVHeader@1@@Z
	??$_Allocate@U_Node@?$_Tree_nod@V?$_Tset_traits@V?$basic_string@DU?$char_traits@D@std@@V?$allocator@D@2@@std@@U?$less@V?$basic_string@DU?$char_traits@D@std@@V?$allocator@D@2@@std@@@2@V?$allocator@V?$basic_string@DU?$char_traits@D@std@@V?$allocator@D@2@@std@@@2@$0A@@std@@@std@@@std@@YAPAU_Node@?$_Tree_nod@V?$_Tset_traits@V?$basic_string@DU?$char_traits@D@std@@V?$allocator@D@2@@std@@U?$less@V?$basic_string@DU?$char_traits@D@std@@V?$allocator@D@2@@std@@@2@V?$allocator@V?$basic_string@DU?$char_traits@D@std@@V?$allocator@D@2@@std@@@2@$0A@@std@@@0@IPAU120@@Z
	??$_Debug_pointer@D@std@@YAXPBDPB_WI@Z
	??$_Uninit_move@PAV?$vector@V?$vector@_KV?$allocator@_K@std@@@std@@V?$allocator@V?$vector@_KV?$allocator@_K@std@@@std@@@2@@std@@PAV12@V?$allocator@V?$vector@V?$vector@_KV?$allocator@_K@std@@@std@@V?$allocator@V?$vector@_KV?$allocator@_K@std@@@std@@@2@@std@@@2@V12@@std@@YAPAV?$vector@V?$vector@_KV?$allocator@_K@std@@@std@@V?$allocator@V?$vector@_KV?$allocator@_K@std@@@std@@@2@@0@PAV10@00AAV?$allocator@V?$vector@V?$vector@_KV?$allocator@_K@std@@@std@@V?$allocator@V?$vector@_KV?$allocator@_K@std@@@std@@@2@@std@@@0@0U_Nonscalar_ptr_iterator_tag@0@@Z
	??B?$AutoArray@H$0BAAAB@@Imf@@QAEPAHXZ
	?copy@?$TypedAttribute@V?$Matrix33@M@Imath@@@Imf@@UBEPAVAttribute@2@XZ
	??0?$TypedAttribute@H@Imf@@QAE@ABH@Z
	?version@TiledInputFile@Imf@@QBEHXZ
	??$_Iter_cat@V?$_Vector_const_iterator@V?$_Vector_val@_KV?$allocator@_K@std@@@std@@@std@@@std@@YA?AUrandom_access_iterator_tag@0@ABV?$_Vector_const_iterator@V?$_Vector_val@_KV?$allocator@_K@std@@@std@@@0@@Z
	??0?$allocator@UTInSliceInfo@?A0xf6fcebb6@Imf@@@std@@QAE@ABV01@@Z
	?aperture@Imf@@YAAAMAAVHeader@1@@Z
	??0?$_Tree_nod@V?$_Tmap_traits@VName@Imf@@USlice@2@U?$less@VName@Imf@@@std@@V?$allocator@U?$pair@$$CBVName@Imf@@USlice@2@@std@@@5@$0A@@std@@@std@@QAE@ABU?$less@VName@Imf@@@1@V?$allocator@U?$pair@$$CBVName@Imf@@USlice@2@@std@@@1@@Z
	??0?$_Tree_const_iterator@V?$_Tree_val@V?$_Tmap_traits@VName@Imf@@UChannel@2@U?$less@VName@Imf@@@std@@V?$allocator@U?$pair@$$CBVName@Imf@@UChannel@2@@std@@@5@$0A@@std@@@std@@@std@@QAE@ABV01@@Z
	??$?0U_Node@?$_Tree_nod@V?$_Tmap_traits@VName@Imf@@UChannel@2@U?$less@VName@Imf@@@std@@V?$allocator@U?$pair@$$CBVName@Imf@@UChannel@2@@std@@@5@$0A@@std@@@std@@@?$allocator@U_Container_proxy@std@@@std@@QAE@ABV?$allocator@U_Node@?$_Tree_nod@V?$_Tmap_traits@VName@Imf@@UChannel@2@U?$less@VName@Imf@@@std@@V?$allocator@U?$pair@$$CBVName@Imf@@UChannel@2@@std@@@5@$0A@@std@@@std@@@1@@Z
	?_Lrotate@?$_Tree@V?$_Tmap_traits@UTileCoord@?A0x39e5c904@Imf@@PAUBufferedTile@23@U?$less@UTileCoord@?A0x39e5c904@Imf@@@std@@V?$allocator@U?$pair@$$CBUTileCoord@?A0x39e5c904@Imf@@PAUBufferedTile@23@@std@@@6@$0A@@std@@@std@@IAEXPAU_Node@?$_Tree_nod@V?$_Tmap_traits@UTileCoord@?A0x39e5c904@Imf@@PAUBufferedTile@23@U?$less@UTileCoord@?A0x39e5c904@Imf@@@std@@V?$allocator@U?$pair@$$CBUTileCoord@?A0x39e5c904@Imf@@PAUBufferedTile@23@@std@@@6@$0A@@std@@@2@@Z
	?hasLatitude@Imf@@YA_NABVHeader@1@@Z
	??M?$_Vector_const_iterator@V?$_Vector_val@PAULineBuffer@?A0xf57f9ec6@Imf@@V?$allocator@PAULineBuffer@?A0xf57f9ec6@Imf@@@std@@@std@@@std@@QBE_NABV01@@Z
	?find@FrameBuffer@Imf@@QAE?AVIterator@12@ABV?$basic_string@DU?$char_traits@D@std@@V?$allocator@D@2@@std@@@Z
	??1?$_Tree_unchecked_const_iterator@V?$_Tree_val@V?$_Tmap_traits@VName@Imf@@PAVAttribute@2@U?$less@VName@Imf@@@std@@V?$allocator@U?$pair@$$CBVName@Imf@@PAVAttribute@2@@std@@@5@$0A@@std@@@std@@U_Iterator_base12@2@@std@@QAE@XZ
	??MImf@@YA_NABVName@0@0@Z
	?resizeErase@?$Array2D@URgba@Imf@@@Imf@@QAEXJJ@Z
	?deallocate@?$allocator@D@std@@QAEXPADI@Z
	?readPixelData@?A0xcbf8ace6@Imf@@YAXPAUData@ScanLineInputFile@2@HAAPADAAH@Z
	??$_Uninit_move@PAUTileBuffer@?A0x39e5c904@Imf@@PAU123@PAU123@@std@@YAPAPAUTileBuffer@?A0x39e5c904@Imf@@PAPAU123@00AAV?$allocator@PAUTileBuffer@?A0x39e5c904@Imf@@@0@0U_Scalar_ptr_iterator_tag@0@@Z
	?end@?$vector@UTOutSliceInfo@?A0x39e5c904@Imf@@V?$allocator@UTOutSliceInfo@?A0x39e5c904@Imf@@@std@@@std@@QAE?AV?$_Vector_iterator@V?$_Vector_val@UTOutSliceInfo@?A0x39e5c904@Imf@@V?$allocator@UTOutSliceInfo@?A0x39e5c904@Imf@@@std@@@std@@@2@XZ
	?_Lrotate@?$_Tree@V?$_Tset_traits@V?$basic_string@DU?$char_traits@D@std@@V?$allocator@D@2@@std@@U?$less@V?$basic_string@DU?$char_traits@D@std@@V?$allocator@D@2@@std@@@2@V?$allocator@V?$basic_string@DU?$char_traits@D@std@@V?$allocator@D@2@@std@@@2@$0A@@std@@@std@@IAEXPAU_Node@?$_Tree_nod@V?$_Tset_traits@V?$basic_string@DU?$char_traits@D@std@@V?$allocator@D@2@@std@@U?$less@V?$basic_string@DU?$char_traits@D@std@@V?$allocator@D@2@@std@@@2@V?$allocator@V?$basic_string@DU?$char_traits@D@std@@V?$allocator@D@2@@std@@@2@$0A@@std@@@2@@Z
	??$_Cons_val@V?$allocator@V?$basic_string@DU?$char_traits@D@std@@V?$allocator@D@2@@std@@@std@@V?$basic_string@DU?$char_traits@D@std@@V?$allocator@D@2@@2@ABV32@@std@@YAXAAV?$allocator@V?$basic_string@DU?$char_traits@D@std@@V?$allocator@D@2@@std@@@0@PAV?$basic_string@DU?$char_traits@D@std@@V?$allocator@D@2@@0@ABV20@@Z
	??$_Allocate@PAULineBuffer@?A0xf57f9ec6@Imf@@@std@@YAPAPAULineBuffer@?A0xf57f9ec6@Imf@@IPAPAU123@@Z
	??0RgbaInputFile@Imf@@QAE@AAVIStream@1@H@Z
	?copyValueFrom@?$TypedAttribute@V?$Matrix44@M@Imath@@@Imf@@UAEXABVAttribute@2@@Z
	?setSeconds@TimeCode@Imf@@QAEXH@Z
	??C?$_Tree_iterator@V?$_Tree_val@V?$_Tmap_traits@UTileCoord@?A0x39e5c904@Imf@@PAUBufferedTile@23@U?$less@UTileCoord@?A0x39e5c904@Imf@@@std@@V?$allocator@U?$pair@$$CBUTileCoord@?A0x39e5c904@Imf@@PAUBufferedTile@23@@std@@@6@$0A@@std@@@std@@@std@@QBEPAU?$pair@$$CBUTileCoord@?A0x39e5c904@Imf@@PAUBufferedTile@23@@1@XZ
	?_Key@?$_Tree_val@V?$_Tmap_traits@VName@Imf@@PAVAttribute@2@U?$less@VName@Imf@@@std@@V?$allocator@U?$pair@$$CBVName@Imf@@PAVAttribute@2@@std@@@5@$0A@@std@@@std@@SAAAVName@Imf@@PAU_Node@?$_Tree_nod@V?$_Tmap_traits@VName@Imf@@PAVAttribute@2@U?$less@VName@Imf@@@std@@V?$allocator@U?$pair@$$CBVName@Imf@@PAVAttribute@2@@std@@@5@$0A@@std@@@2@@Z
	?begin@?$vector@V?$vector@_KV?$allocator@_K@std@@@std@@V?$allocator@V?$vector@_KV?$allocator@_K@std@@@std@@@2@@std@@QBE?AV?$_Vector_const_iterator@V?$_Vector_val@V?$vector@_KV?$allocator@_K@std@@@std@@V?$allocator@V?$vector@_KV?$allocator@_K@std@@@std@@@2@@std@@@2@XZ
	??$_Destroy_range@V?$allocator@UOutSliceInfo@?A0xf57f9ec6@Imf@@@std@@@std@@YAXPAUOutSliceInfo@?A0xf57f9ec6@Imf@@0AAV?$allocator@UOutSliceInfo@?A0xf57f9ec6@Imf@@@0@U_Nonscalar_ptr_iterator_tag@0@@Z
	??$_Destroy@UInSliceInfo@?A0xcbf8ace6@Imf@@@std@@YAXPAUInSliceInfo@?A0xcbf8ace6@Imf@@@Z
	?max_size@?$vector@V?$vector@V?$vector@_KV?$allocator@_K@std@@@std@@V?$allocator@V?$vector@_KV?$allocator@_K@std@@@std@@@2@@std@@V?$allocator@V?$vector@V?$vector@_KV?$allocator@_K@std@@@std@@V?$allocator@V?$vector@_KV?$allocator@_K@std@@@std@@@2@@std@@@2@@std@@QBEIXZ
	?rotateBuf1@FromYca@RgbaInputFile@Imf@@AAEXH@Z
	??0TiledRgbaOutputFile@Imf@@QAE@AAVOStream@1@ABVHeader@1@W4RgbaChannels@1@HHW4LevelMode@1@W4LevelRoundingMode@1@H@Z
	??1MathExc@Iex@@UAE@XZ
	??A?$vector@V?$basic_string@DU?$char_traits@D@std@@V?$allocator@D@2@@std@@V?$allocator@V?$basic_string@DU?$char_traits@D@std@@V?$allocator@D@2@@std@@@2@@std@@QAEAAV?$basic_string@DU?$char_traits@D@std@@V?$allocator@D@2@@1@I@Z
	??M?$_Vector_const_iterator@V?$_Vector_val@IV?$allocator@I@std@@@std@@@std@@QBE_NABV01@@Z
	?_Adopt@_Iterator_base12@std@@QAEXPBU_Container_base12@2@@Z
	?addRenderingTransform@Imf@@YAXAAVHeader@1@ABV?$basic_string@DU?$char_traits@D@std@@V?$allocator@D@2@@std@@@Z
	?app@?$_Iosb@H@std@@2W4_Openmode@12@B
	?readPixels@ScanLineInputFile@Imf@@QAEXH@Z
	??0bad_alloc@std@@QAE@PBD@Z
	?append@?$basic_string@DU?$char_traits@D@std@@V?$allocator@D@2@@std@@QAEAAV12@ID@Z
	ImfTiledOutputHeader
	?compression@RgbaOutputFile@Imf@@QBE?AW4Compression@2@XZ
	ImfHeaderSetV3iAttribute
	??F?$_Tree_unchecked_const_iterator@V?$_Tree_val@V?$_Tmap_traits@VName@Imf@@PAVAttribute@2@U?$less@VName@Imf@@@std@@V?$allocator@U?$pair@$$CBVName@Imf@@PAVAttribute@2@@std@@@5@$0A@@std@@@std@@U_Iterator_base12@2@@std@@QAEAAV01@XZ
	?find@?$_Tree@V?$_Tmap_traits@VName@Imf@@UChannel@2@U?$less@VName@Imf@@@std@@V?$allocator@U?$pair@$$CBVName@Imf@@UChannel@2@@std@@@5@$0A@@std@@@std@@QBE?AV?$_Tree_const_iterator@V?$_Tree_val@V?$_Tmap_traits@VName@Imf@@UChannel@2@U?$less@VName@Imf@@@std@@V?$allocator@U?$pair@$$CBVName@Imf@@UChannel@2@@std@@@5@$0A@@std@@@std@@@2@ABVName@Imf@@@Z
	?uppercase@?$_Iosb@H@std@@2W4_Fmtflags@12@B
	??0?$_Tree_const_iterator@V?$_Tree_val@V?$_Tmap_traits@VName@Imf@@UChannel@2@U?$less@VName@Imf@@@std@@V?$allocator@U?$pair@$$CBVName@Imf@@UChannel@2@@std@@@5@$0A@@std@@@std@@@std@@QAE@PAU_Node@?$_Tree_nod@V?$_Tmap_traits@VName@Imf@@UChannel@2@U?$less@VName@Imf@@@std@@V?$allocator@U?$pair@$$CBVName@Imf@@UChannel@2@@std@@@5@$0A@@std@@@1@PBV?$_Tree_val@V?$_Tmap_traits@VName@Imf@@UChannel@2@U?$less@VName@Imf@@@std@@V?$allocator@U?$pair@$$CBVName@Imf@@UChannel@2@@std@@@5@$0A@@std@@@1@@Z
	??$_Uninit_copy@PAV?$basic_string@DU?$char_traits@D@std@@V?$allocator@D@2@@std@@PAV12@V?$allocator@V?$basic_string@DU?$char_traits@D@std@@V?$allocator@D@2@@std@@@2@@std@@YAPAV?$basic_string@DU?$char_traits@D@std@@V?$allocator@D@2@@0@PAV10@00AAV?$allocator@V?$basic_string@DU?$char_traits@D@std@@V?$allocator@D@2@@std@@@0@U_Nonscalar_ptr_iterator_tag@0@@Z
	?getVersion@Imf@@YAHH@Z
	?typeName@?$TypedAttribute@VPreviewImage@Imf@@@Imf@@UBEPBDXZ
	?bgf0@TimeCode@Imf@@QBE_NXZ
	??$_Allocate@_K@std@@YAPA_KIPA_K@Z
	??0?$allocator@U?$pair@QBDP6APAVAttribute@Imf@@XZ@std@@@std@@QAE@XZ
	?construct@?$allocator@V?$basic_string@DU?$char_traits@D@std@@V?$allocator@D@2@@std@@@std@@QAEXPAV?$basic_string@DU?$char_traits@D@std@@V?$allocator@D@2@@2@$$QAV32@@Z
	??$_Cons_val@V?$allocator@UTInSliceInfo@?A0xf6fcebb6@Imf@@@std@@UTInSliceInfo@?A0xf6fcebb6@Imf@@U345@@std@@YAXAAV?$allocator@UTInSliceInfo@?A0xf6fcebb6@Imf@@@0@PAUTInSliceInfo@?A0xf6fcebb6@Imf@@$$QAU234@@Z
	??1TiledRgbaInputFile@Imf@@UAE@XZ
	?construct@?$allocator@_K@std@@QAEXPA_KAB_K@Z
	?writeValueTo@?$TypedAttribute@VPreviewImage@Imf@@@Imf@@UBEXAAVOStream@2@H@Z
	??$push_heap@PAPA_KUFHeapCompare@?A0xc87c6bb7@Imf@@@std@@YAXPAPA_K0UFHeapCompare@?A0xc87c6bb7@Imf@@@Z
	?erase@?$vector@UOutSliceInfo@?A0xf57f9ec6@Imf@@V?$allocator@UOutSliceInfo@?A0xf57f9ec6@Imf@@@std@@@std@@QAE?AV?$_Vector_iterator@V?$_Vector_val@UOutSliceInfo@?A0xf57f9ec6@Imf@@V?$allocator@UOutSliceInfo@?A0xf57f9ec6@Imf@@@std@@@std@@@2@V?$_Vector_const_iterator@V?$_Vector_val@UOutSliceInfo@?A0xf57f9ec6@Imf@@V?$allocator@UOutSliceInfo@?A0xf57f9ec6@Imf@@@std@@@std@@@2@0@Z
	??0?$TypedAttribute@V?$vector@V?$basic_string@DU?$char_traits@D@std@@V?$allocator@D@2@@std@@V?$allocator@V?$basic_string@DU?$char_traits@D@std@@V?$allocator@D@2@@std@@@2@@std@@@Imf@@QAE@ABV?$vector@V?$basic_string@DU?$char_traits@D@std@@V?$allocator@D@2@@std@@V?$allocator@V?$basic_string@DU?$char_traits@D@std@@V?$allocator@D@2@@std@@@2@@std@@@Z
	??0?$_Pair_base@V?$_Tree_const_iterator@V?$_Tree_val@V?$_Tset_traits@V?$basic_string@DU?$char_traits@D@std@@V?$allocator@D@2@@std@@U?$less@V?$basic_string@DU?$char_traits@D@std@@V?$allocator@D@2@@std@@@2@V?$allocator@V?$basic_string@DU?$char_traits@D@std@@V?$allocator@D@2@@std@@@2@$0A@@std@@@std@@@std@@_N@std@@QAE@$$QAV?$_Tree_const_iterator@V?$_Tree_val@V?$_Tset_traits@V?$basic_string@DU?$char_traits@D@std@@V?$allocator@D@2@@std@@U?$less@V?$basic_string@DU?$char_traits@D@std@@V?$allocator@D@2@@std@@@2@V?$allocator@V?$basic_string@DU?$char_traits@D@std@@V?$allocator@D@2@@std@@@2@$0A@@std@@@std@@@1@$$QA_N@Z
	?duplicateLastBuffer@ToYca@RgbaOutputFile@Imf@@AAEXXZ
	??0?$TypedAttribute@UChromaticities@Imf@@@Imf@@QAE@ABUChromaticities@1@@Z
	?writeTiles@TiledRgbaOutputFile@Imf@@QAEXHHHHHH@Z
	?setFrameBuffer@RgbaOutputFile@Imf@@QAEXPBURgba@2@II@Z
	??0?$allocator@UTInSliceInfo@?A0xf6fcebb6@Imf@@@std@@QAE@XZ
	?format@PizCompressor@Imf@@UBE?AW4Format@Compressor@2@XZ
	??$findTypedAttribute@V?$TypedAttribute@UChromaticities@Imf@@@Imf@@@Header@Imf@@QBEPBV?$TypedAttribute@UChromaticities@Imf@@@1@QBD@Z
	?displayWindow@Header@Imf@@QBEABV?$Box@V?$Vec2@H@Imath@@@Imath@@XZ
	??$_Copy_impl@PAUTInSliceInfo@?A0xf6fcebb6@Imf@@PAU123@@std@@YAPAUTInSliceInfo@?A0xf6fcebb6@Imf@@PAU123@00@Z
	??0?$TypedAttribute@VChannelList@Imf@@@Imf@@QAE@XZ
	?cast@?$TypedAttribute@W4LineOrder@Imf@@@Imf@@SAPBV12@PBVAttribute@2@@Z
	?fileName@OStream@Imf@@QBEPBDXZ
	??$move@AAP6APAVAttribute@Imf@@XZ@std@@YA$$QAP6APAVAttribute@Imf@@XZAAP6APAV12@XZ@Z
	?compressTile@PizCompressor@Imf@@UAEHPBDHV?$Box@V?$Vec2@H@Imath@@@Imath@@AAPBD@Z
	??$_Debug_pointer@V?$vector@_KV?$allocator@_K@std@@@std@@@std@@YAXPAV?$vector@_KV?$allocator@_K@std@@@0@PB_WI@Z
	?insert@ChannelList@Imf@@QAEXABV?$basic_string@DU?$char_traits@D@std@@V?$allocator@D@2@@std@@ABUChannel@2@@Z
	?deallocate@?$allocator@U_Node@?$_Tree_nod@V?$_Tmap_traits@VName@Imf@@UChannel@2@U?$less@VName@Imf@@@std@@V?$allocator@U?$pair@$$CBVName@Imf@@UChannel@2@@std@@@5@$0A@@std@@@std@@@std@@QAEXPAU_Node@?$_Tree_nod@V?$_Tmap_traits@VName@Imf@@UChannel@2@U?$less@VName@Imf@@@std@@V?$allocator@U?$pair@$$CBVName@Imf@@UChannel@2@@std@@@5@$0A@@std@@@2@I@Z
	??$write@UStreamIO@Imf@@VOStream@2@@Xdr@Imf@@YAXAAVOStream@1@_K@Z
	??0TileDescription@Imf@@QAE@IIW4LevelMode@1@W4LevelRoundingMode@1@@Z
	?addEnvmap@Imf@@YAXAAVHeader@1@ABW4Envmap@1@@Z
	?erase@?$vector@UInSliceInfo@?A0xcbf8ace6@Imf@@V?$allocator@UInSliceInfo@?A0xcbf8ace6@Imf@@@std@@@std@@QAE?AV?$_Vector_iterator@V?$_Vector_val@UInSliceInfo@?A0xcbf8ace6@Imf@@V?$allocator@UInSliceInfo@?A0xcbf8ace6@Imf@@@std@@@std@@@2@V?$_Vector_const_iterator@V?$_Vector_val@UInSliceInfo@?A0xcbf8ace6@Imf@@V?$allocator@UInSliceInfo@?A0xcbf8ace6@Imf@@@std@@@std@@@2@0@Z
	?hufClearDecTable@?A0xc87c6bb7@Imf@@YAXPAUHufDec@12@@Z
	??1?$AutoArray@UHufDec@?A0xc87c6bb7@Imf@@$0EAAA@@Imf@@QAE@XZ
	?channelsWithPrefix@ChannelList@Imf@@QBEXQBDAAVConstIterator@12@1@Z
	??$move@AAPAUBufferedTile@?A0x39e5c904@Imf@@@std@@YA$$QAPAUBufferedTile@?A0x39e5c904@Imf@@AAPAU123@@Z
	??$forward@UChannel@Imf@@@std@@YA$$QAUChannel@Imf@@AAU12@@Z
	?_Linsert@?$_Tree@V?$_Tmap_traits@UTileCoord@?A0x39e5c904@Imf@@PAUBufferedTile@23@U?$less@UTileCoord@?A0x39e5c904@Imf@@@std@@V?$allocator@U?$pair@$$CBUTileCoord@?A0x39e5c904@Imf@@PAUBufferedTile@23@@std@@@6@$0A@@std@@@std@@QAE?AU?$pair@V?$_Tree_iterator@V?$_Tree_val@V?$_Tmap_traits@UTileCoord@?A0x39e5c904@Imf@@PAUBufferedTile@23@U?$less@UTileCoord@?A0x39e5c904@Imf@@@std@@V?$allocator@U?$pair@$$CBUTileCoord@?A0x39e5c904@Imf@@PAUBufferedTile@23@@std@@@6@$0A@@std@@@std@@@std@@_N@2@PAU_Node@?$_Tree_nod@V?$_Tmap_traits@UTileCoord@?A0x39e5c904@Imf@@PAUBufferedTile@23@U?$less@UTileCoord@?A0x39e5c904@Imf@@@std@@V?$allocator@U?$pair@$$CBUTileCoord@?A0x39e5c904@Imf@@PAUBufferedTile@23@@std@@@6@$0A@@std@@@2@_N@Z
	?cast@?$TypedAttribute@VTileDescription@Imf@@@Imf@@SAPBV12@PBVAttribute@2@@Z
	??$_Pop_heap@PAPA_KHPA_KUFHeapCompare@?A0xc87c6bb7@Imf@@@std@@YAXPAPA_K00$$QAPA_KUFHeapCompare@?A0xc87c6bb7@Imf@@PAH@Z
	?setPerfsPerCount@KeyCode@Imf@@QAEXH@Z
	?assign@?$basic_string@DU?$char_traits@D@std@@V?$allocator@D@2@@std@@QAEAAV12@PBDI@Z
	??Bsentry@?$basic_ostream@DU?$char_traits@D@std@@@std@@QBEPQ_Bool_struct@2@HXZ
	?value@?$TypedAttribute@VKeyCode@Imf@@@Imf@@QBEABVKeyCode@2@XZ
	??1?$pair@V?$_Tree_iterator@V?$_Tree_val@V?$_Tmap_traits@VName@Imf@@USlice@2@U?$less@VName@Imf@@@std@@V?$allocator@U?$pair@$$CBVName@Imf@@USlice@2@@std@@@5@$0A@@std@@@std@@@std@@_N@std@@QAE@XZ
	?hasPreviewImage@Header@Imf@@QBE_NXZ
	?copyValueFrom@?$TypedAttribute@VRational@Imf@@@Imf@@UAEXABVAttribute@2@@Z
	ImfHeaderDoubleAttribute
	??8ChannelList@Imf@@QBE_NABV01@@Z
	?begin@?$vector@UInSliceInfo@?A0xcbf8ace6@Imf@@V?$allocator@UInSliceInfo@?A0xcbf8ace6@Imf@@@std@@@std@@QAE?AV?$_Vector_iterator@V?$_Vector_val@UInSliceInfo@?A0xcbf8ace6@Imf@@V?$allocator@UInSliceInfo@?A0xcbf8ace6@Imf@@@std@@@std@@@2@XZ
	?uncompressTile@Compressor@Imf@@UAEHPBDHV?$Box@V?$Vec2@H@Imath@@@Imath@@AAPBD@Z
	ImfHeaderBox2fAttribute
	??$_Uninitialized_default_fill_n@PAPAULineBuffer@?A0xf57f9ec6@Imf@@IPAU123@V?$allocator@PAULineBuffer@?A0xf57f9ec6@Imf@@@std@@@std@@YAXPAPAULineBuffer@?A0xf57f9ec6@Imf@@IPBQAU123@AAV?$allocator@PAULineBuffer@?A0xf57f9ec6@Imf@@@0@@Z
	??0?$_Iterator012@Urandom_access_iterator_tag@std@@V?$basic_string@DU?$char_traits@D@std@@V?$allocator@D@2@@2@HPBV32@ABV32@U_Iterator_base12@2@@std@@QAE@ABU01@@Z
	??1?$_Iterator012@Urandom_access_iterator_tag@std@@V?$vector@_KV?$allocator@_K@std@@@2@HPBV32@ABV32@U_Iterator_base12@2@@std@@QAE@XZ
	__TI6?AVLogicExc@Iex@@
	??$_Debug_lt_pred@U?$less@UTileCoord@?A0x39e5c904@Imf@@@std@@UTileCoord@?A0x39e5c904@Imf@@U345@@std@@YA_NU?$less@UTileCoord@?A0x39e5c904@Imf@@@0@ABUTileCoord@?A0x39e5c904@Imf@@AAU234@PB_WI@Z
	?dataWindowForLevel@TiledInputFile@Imf@@QBE?AV?$Box@V?$Vec2@H@Imath@@@Imath@@HH@Z
	?fileName@OutputFile@Imf@@QBEPBDXZ
	??0TiledInputFile@Imf@@QAE@QBDH@Z
	??$_Uninitialized_copy@PAUInSliceInfo@?A0xcbf8ace6@Imf@@PAU123@V?$allocator@UInSliceInfo@?A0xcbf8ace6@Imf@@@std@@@std@@YAPAUInSliceInfo@?A0xcbf8ace6@Imf@@PAU123@00AAV?$allocator@UInSliceInfo@?A0xcbf8ace6@Imf@@@0@@Z
	?dataWindowForLevel@TiledRgbaInputFile@Imf@@QBE?AV?$Box@V?$Vec2@H@Imath@@@Imath@@HH@Z
	?makeNewAttribute@?$TypedAttribute@V?$Vec3@N@Imath@@@Imf@@SAPAVAttribute@2@XZ
	??$addressof@UInSliceInfo@?A0xcbf8ace6@Imf@@@std@@YAPAUInSliceInfo@?A0xcbf8ace6@Imf@@AAU123@@Z
	??$forward@V?$vector@V?$vector@_KV?$allocator@_K@std@@@std@@V?$allocator@V?$vector@_KV?$allocator@_K@std@@@std@@@2@@std@@@std@@YA$$QAV?$vector@V?$vector@_KV?$allocator@_K@std@@@std@@V?$allocator@V?$vector@_KV?$allocator@_K@std@@@std@@@2@@0@AAV10@@Z
	?bufferedReadPixels@?A0x60dcbc02@Imf@@YAXPAUData@InputFile@2@HH@Z
	?post@TileBuffer@?A0xf6fcebb6@Imf@@QAEXXZ
	?reserve@?$vector@PAULineBuffer@?A0xcbf8ace6@Imf@@V?$allocator@PAULineBuffer@?A0xcbf8ace6@Imf@@@std@@@std@@QAEXI@Z
	?channelsWithPrefix@ChannelList@Imf@@QBEXABV?$basic_string@DU?$char_traits@D@std@@V?$allocator@D@2@@std@@AAVConstIterator@12@1@Z
	??$read@UCharPtrIO@Imf@@PBD@Xdr@Imf@@YAXAAPBDAAH@Z
	?_Rank@?$_Arithmetic_traits@O@std@@2HB
	?reserve@?$vector@UInSliceInfo@?A0xcbf8ace6@Imf@@V?$allocator@UInSliceInfo@?A0xcbf8ace6@Imf@@@std@@@std@@QAEXI@Z
	??1?$_Iterator012@Ubidirectional_iterator_tag@std@@U?$pair@$$CBVName@Imf@@UChannel@2@@2@HPBU32@ABU32@U_Iterator_base12@2@@std@@QAE@XZ
	??0?$_Iterator012@Ubidirectional_iterator_tag@std@@U?$pair@$$CBVName@Imf@@UChannel@2@@2@HPBU32@ABU32@U_Iterator_base12@2@@std@@QAE@XZ
	??0TOutSliceInfo@?A0x39e5c904@Imf@@QAE@W4PixelType@2@PBDII_NHH@Z
	?levelMode@TiledInputFile@Imf@@QBE?AW4LevelMode@2@XZ
	??9?$_Vector_const_iterator@V?$_Vector_val@PAUTileBuffer@?A0xf6fcebb6@Imf@@V?$allocator@PAUTileBuffer@?A0xf6fcebb6@Imf@@@std@@@std@@@std@@QBE_NABV01@@Z
	?_Compat@?$_Vector_const_iterator@V?$_Vector_val@PAULineBuffer@?A0xcbf8ace6@Imf@@V?$allocator@PAULineBuffer@?A0xcbf8ace6@Imf@@@std@@@std@@@std@@QBEXABV12@@Z
	??$forward@UInSliceInfo@?A0xcbf8ace6@Imf@@@std@@YA$$QAUInSliceInfo@?A0xcbf8ace6@Imf@@AAU123@@Z
	??$_Debug_range@PAUTInSliceInfo@?A0xf6fcebb6@Imf@@@std@@YAXPAUTInSliceInfo@?A0xf6fcebb6@Imf@@0PB_WI@Z
	??1TypeExc@Iex@@UAE@XZ
	??$findTypedAttribute@V?$TypedAttribute@V?$basic_string@DU?$char_traits@D@std@@V?$allocator@D@2@@std@@@Imf@@@Header@Imf@@QBEPBV?$TypedAttribute@V?$basic_string@DU?$char_traits@D@std@@V?$allocator@D@2@@std@@@1@QBD@Z
	??0?$TypedAttribute@VTimeCode@Imf@@@Imf@@QAE@ABVTimeCode@1@@Z
	??4TileOffsets@Imf@@QAEAAV01@ABV01@@Z
	??$_Fill_n@PAPAULineBuffer@?A0xcbf8ace6@Imf@@IPAU123@@std@@YAXPAPAULineBuffer@?A0xcbf8ace6@Imf@@IABQAU123@@Z
	??$_Debug_range@PAV?$vector@_KV?$allocator@_K@std@@@std@@@std@@YAXPAV?$vector@_KV?$allocator@_K@std@@@0@0PB_WI@Z
	?_Inside@?$vector@UTOutSliceInfo@?A0x39e5c904@Imf@@V?$allocator@UTOutSliceInfo@?A0x39e5c904@Imf@@@std@@@std@@IBE_NPBUTOutSliceInfo@?A0x39e5c904@Imf@@@Z
	??0?$_Tree_val@V?$_Tmap_traits@PBDP6APAVAttribute@Imf@@XZUNameCompare@?A0x0779e1ad@2@V?$allocator@U?$pair@QBDP6APAVAttribute@Imf@@XZ@std@@@std@@$0A@@std@@@std@@QAE@ABUNameCompare@?A0x0779e1ad@Imf@@V?$allocator@U?$pair@QBDP6APAVAttribute@Imf@@XZ@std@@@1@@Z
	??A?$vector@PAUTileBuffer@?A0xf6fcebb6@Imf@@V?$allocator@PAUTileBuffer@?A0xf6fcebb6@Imf@@@std@@@std@@QAEAAPAUTileBuffer@?A0xf6fcebb6@Imf@@I@Z
	?_Root@?$_Tree@V?$_Tset_traits@V?$basic_string@DU?$char_traits@D@std@@V?$allocator@D@2@@std@@U?$less@V?$basic_string@DU?$char_traits@D@std@@V?$allocator@D@2@@std@@@2@V?$allocator@V?$basic_string@DU?$char_traits@D@std@@V?$allocator@D@2@@std@@@2@$0A@@std@@@std@@IBEAAPAU_Node@?$_Tree_nod@V?$_Tset_traits@V?$basic_string@DU?$char_traits@D@std@@V?$allocator@D@2@@std@@U?$less@V?$basic_string@DU?$char_traits@D@std@@V?$allocator@D@2@@std@@@2@V?$allocator@V?$basic_string@DU?$char_traits@D@std@@V?$allocator@D@2@@std@@@2@$0A@@std@@@2@XZ
	??1?$_Tree_unchecked_const_iterator@V?$_Tree_val@V?$_Tmap_traits@PBDP6APAVAttribute@Imf@@XZUNameCompare@?A0x0779e1ad@2@V?$allocator@U?$pair@QBDP6APAVAttribute@Imf@@XZ@std@@@std@@$0A@@std@@@std@@U_Iterator_base12@2@@std@@QAE@XZ
	??$write@UCharPtrIO@Imf@@PAD@Xdr@Imf@@YAXAAPADG@Z
	?focus@Imf@@YAAAMAAVHeader@1@@Z
	?setFrameBuffer@TiledInputFile@Imf@@QAEXABVFrameBuffer@2@@Z
	??0?$vector@V?$vector@_KV?$allocator@_K@std@@@std@@V?$allocator@V?$vector@_KV?$allocator@_K@std@@@std@@@2@@std@@QAE@$$QAV01@@Z
	?addCapDate@Imf@@YAXAAVHeader@1@ABV?$basic_string@DU?$char_traits@D@std@@V?$allocator@D@2@@std@@@Z
	??0?$Matrix33@N@Imath@@QAE@XZ
	?begin@Header@Imf@@QAE?AVIterator@12@XZ
	?cast@?$TypedAttribute@UChromaticities@Imf@@@Imf@@SAPBV12@PBVAttribute@2@@Z
	??0?$allocator@V?$vector@V?$vector@_KV?$allocator@_K@std@@@std@@V?$allocator@V?$vector@_KV?$allocator@_K@std@@@std@@@2@@std@@@std@@QAE@XZ
	??0?$_Iterator012@Urandom_access_iterator_tag@std@@PAULineBuffer@?A0xf57f9ec6@Imf@@HPBQAU345@ABQAU345@U_Iterator_base12@2@@std@@QAE@ABU01@@Z
	??0OpaqueAttribute@Imf@@QAE@QBD@Z
	??0?$_Tree_unchecked_const_iterator@V?$_Tree_val@V?$_Tmap_traits@UTileCoord@?A0x39e5c904@Imf@@PAUBufferedTile@23@U?$less@UTileCoord@?A0x39e5c904@Imf@@@std@@V?$allocator@U?$pair@$$CBUTileCoord@?A0x39e5c904@Imf@@PAUBufferedTile@23@@std@@@6@$0A@@std@@@std@@U_Iterator_base12@2@@std@@QAE@XZ
	?tellp@StdOFStream@Imf@@UAE_KXZ
	??$_Buynode@AAV?$basic_string@DU?$char_traits@D@std@@V?$allocator@D@2@@std@@@?$_Tree_val@V?$_Tset_traits@V?$basic_string@DU?$char_traits@D@std@@V?$allocator@D@2@@std@@U?$less@V?$basic_string@DU?$char_traits@D@std@@V?$allocator@D@2@@std@@@2@V?$allocator@V?$basic_string@DU?$char_traits@D@std@@V?$allocator@D@2@@std@@@2@$0A@@std@@@std@@QAEPAU_Node@?$_Tree_nod@V?$_Tset_traits@V?$basic_string@DU?$char_traits@D@std@@V?$allocator@D@2@@std@@U?$less@V?$basic_string@DU?$char_traits@D@std@@V?$allocator@D@2@@std@@@2@V?$allocator@V?$basic_string@DU?$char_traits@D@std@@V?$allocator@D@2@@std@@@2@$0A@@std@@@1@AAV?$basic_string@DU?$char_traits@D@std@@V?$allocator@D@2@@1@@Z
	??$_Move@AAPA_K@std@@YA$$QAPA_KAAPA_K@Z
	??$_Val_type@PAPA_K@std@@YAPAPA_KPAPA_K@Z
	?format@B44Compressor@Imf@@UBE?AW4Format@Compressor@2@XZ
	??1?$_Tree_const_iterator@V?$_Tree_val@V?$_Tmap_traits@PBDP6APAVAttribute@Imf@@XZUNameCompare@?A0x0779e1ad@2@V?$allocator@U?$pair@QBDP6APAVAttribute@Imf@@XZ@std@@@std@@$0A@@std@@@std@@@std@@QAE@XZ
	?_Key@?$_Tree_val@V?$_Tmap_traits@VName@Imf@@UChannel@2@U?$less@VName@Imf@@@std@@V?$allocator@U?$pair@$$CBVName@Imf@@UChannel@2@@std@@@5@$0A@@std@@@std@@SAAAVName@Imf@@PAU_Node@?$_Tree_nod@V?$_Tmap_traits@VName@Imf@@UChannel@2@U?$less@VName@Imf@@@std@@V?$allocator@U?$pair@$$CBVName@Imf@@UChannel@2@@std@@@5@$0A@@std@@@2@@Z
	?npos@?$basic_string@DU?$char_traits@D@std@@V?$allocator@D@2@@std@@2IB
	??$_Uninitialized_default_fill_n@PAPAUTileBuffer@?A0xf6fcebb6@Imf@@IPAU123@V?$allocator@PAUTileBuffer@?A0xf6fcebb6@Imf@@@std@@@std@@YAXPAPAUTileBuffer@?A0xf6fcebb6@Imf@@IPBQAU123@AAV?$allocator@PAUTileBuffer@?A0xf6fcebb6@Imf@@@0@@Z
	??$typedAttribute@V?$TypedAttribute@V?$basic_string@DU?$char_traits@D@std@@V?$allocator@D@2@@std@@@Imf@@@Header@Imf@@QBEABV?$TypedAttribute@V?$basic_string@DU?$char_traits@D@std@@V?$allocator@D@2@@std@@@1@QBD@Z
	??1Iterator@FrameBuffer@Imf@@QAE@XZ
	?_Orphan_ptr@?$_Tree@V?$_Tmap_traits@PBDP6APAVAttribute@Imf@@XZUNameCompare@?A0x0779e1ad@2@V?$allocator@U?$pair@QBDP6APAVAttribute@Imf@@XZ@std@@@std@@$0A@@std@@@std@@IBEXAAV12@PAU_Node@?$_Tree_nod@V?$_Tmap_traits@PBDP6APAVAttribute@Imf@@XZUNameCompare@?A0x0779e1ad@2@V?$allocator@U?$pair@QBDP6APAVAttribute@Imf@@XZ@std@@@std@@$0A@@std@@@2@@Z
	?clearError@?A0xb3db3203@Imf@@YAXXZ
	??$forward@AAV?$_Tree_iterator@V?$_Tree_val@V?$_Tmap_traits@UTileCoord@?A0x39e5c904@Imf@@PAUBufferedTile@23@U?$less@UTileCoord@?A0x39e5c904@Imf@@@std@@V?$allocator@U?$pair@$$CBUTileCoord@?A0x39e5c904@Imf@@PAUBufferedTile@23@@std@@@6@$0A@@std@@@std@@@std@@@std@@YAAAV?$_Tree_iterator@V?$_Tree_val@V?$_Tmap_traits@UTileCoord@?A0x39e5c904@Imf@@PAUBufferedTile@23@U?$less@UTileCoord@?A0x39e5c904@Imf@@@std@@V?$allocator@U?$pair@$$CBUTileCoord@?A0x39e5c904@Imf@@PAUBufferedTile@23@@std@@@6@$0A@@std@@@std@@@0@AAV10@@Z
	??1?$_Vector_iterator@V?$_Vector_val@UTOutSliceInfo@?A0x39e5c904@Imf@@V?$allocator@UTOutSliceInfo@?A0x39e5c904@Imf@@@std@@@std@@@std@@QAE@XZ
	??0FromYa@TiledRgbaInputFile@Imf@@QAE@AAVTiledInputFile@2@@Z
	?addKeyCode@Imf@@YAXAAVHeader@1@ABVKeyCode@1@@Z
	??0Data@TiledOutputFile@Imf@@QAE@_NH@Z
	?addTimeCode@Imf@@YAXAAVHeader@1@ABVTimeCode@1@@Z
	??0?$_Tree_unchecked_const_iterator@V?$_Tree_val@V?$_Tmap_traits@UTileCoord@?A0x39e5c904@Imf@@PAUBufferedTile@23@U?$less@UTileCoord@?A0x39e5c904@Imf@@@std@@V?$allocator@U?$pair@$$CBUTileCoord@?A0x39e5c904@Imf@@PAUBufferedTile@23@@std@@@6@$0A@@std@@@std@@U_Iterator_base12@2@@std@@QAE@PAU_Node@?$_Tree_nod@V?$_Tmap_traits@UTileCoord@?A0x39e5c904@Imf@@PAUBufferedTile@23@U?$less@UTileCoord@?A0x39e5c904@Imf@@@std@@V?$allocator@U?$pair@$$CBUTileCoord@?A0x39e5c904@Imf@@PAUBufferedTile@23@@std@@@6@$0A@@std@@@1@PBV?$_Tree_val@V?$_Tmap_traits@UTileCoord@?A0x39e5c904@Imf@@PAUBufferedTile@23@U?$less@UTileCoord@?A0x39e5c904@Imf@@@std@@V?$allocator@U?$pair@$$CBUTileCoord@?A0x39e5c904@Imf@@PAUBufferedTile@23@@std@@@6@$0A@@std@@@1@@Z
	?copyValueFrom@?$TypedAttribute@V?$Matrix33@N@Imath@@@Imf@@UAEXABVAttribute@2@@Z
	?setBgf2@TimeCode@Imf@@QAEX_N@Z
	?allocate@?$allocator@I@std@@QAEPAII@Z
	??0Data@OutputFile@Imf@@QAE@_NH@Z
	?_Left@?$_Tree_val@V?$_Tmap_traits@PBDP6APAVAttribute@Imf@@XZUNameCompare@?A0x0779e1ad@2@V?$allocator@U?$pair@QBDP6APAVAttribute@Imf@@XZ@std@@@std@@$0A@@std@@@std@@SAAAPAU_Node@?$_Tree_nod@V?$_Tmap_traits@PBDP6APAVAttribute@Imf@@XZUNameCompare@?A0x0779e1ad@2@V?$allocator@U?$pair@QBDP6APAVAttribute@Imf@@XZ@std@@@std@@$0A@@std@@@2@PAU342@@Z
	?makeNewAttribute@?$TypedAttribute@V?$Vec2@N@Imath@@@Imf@@SAPAVAttribute@2@XZ
	??Y?$_Vector_const_iterator@V?$_Vector_val@PAULineBuffer@?A0xcbf8ace6@Imf@@V?$allocator@PAULineBuffer@?A0xcbf8ace6@Imf@@@std@@@std@@@std@@QAEAAV01@H@Z
	??0?$TypedAttribute@VKeyCode@Imf@@@Imf@@QAE@XZ
	??$?0V?$basic_string@DU?$char_traits@D@std@@V?$allocator@D@2@@std@@@?$allocator@U_Container_proxy@std@@@std@@QAE@ABV?$allocator@V?$basic_string@DU?$char_traits@D@std@@V?$allocator@D@2@@std@@@1@@Z
	??$typedAttribute@V?$TypedAttribute@VPreviewImage@Imf@@@Imf@@@Header@Imf@@QAEAAV?$TypedAttribute@VPreviewImage@Imf@@@1@QBD@Z
	?copyValueFrom@?$TypedAttribute@V?$basic_string@DU?$char_traits@D@std@@V?$allocator@D@2@@std@@@Imf@@UAEXABVAttribute@2@@Z
	?outfile@?A0xa29ce62f@@YAPBVRgbaOutputFile@Imf@@PBUImfOutputFile@@@Z
	?viewFromChannelName@Imf@@YA?AV?$basic_string@DU?$char_traits@D@std@@V?$allocator@D@2@@std@@ABV23@ABV?$vector@V?$basic_string@DU?$char_traits@D@std@@V?$allocator@D@2@@std@@V?$allocator@V?$basic_string@DU?$char_traits@D@std@@V?$allocator@D@2@@std@@@2@@3@@Z
	??E?$_Vector_const_iterator@V?$_Vector_val@V?$basic_string@DU?$char_traits@D@std@@V?$allocator@D@2@@std@@V?$allocator@V?$basic_string@DU?$char_traits@D@std@@V?$allocator@D@2@@std@@@2@@std@@@std@@QAEAAV01@XZ
	?allocate@?$allocator@U_Node@?$_Tree_nod@V?$_Tmap_traits@VName@Imf@@PAVAttribute@2@U?$less@VName@Imf@@@std@@V?$allocator@U?$pair@$$CBVName@Imf@@PAVAttribute@2@@std@@@5@$0A@@std@@@std@@@std@@QAEPAU_Node@?$_Tree_nod@V?$_Tmap_traits@VName@Imf@@PAVAttribute@2@U?$less@VName@Imf@@@std@@V?$allocator@U?$pair@$$CBVName@Imf@@PAVAttribute@2@@std@@@5@$0A@@std@@@2@I@Z
	??1?$_Tmap_traits@UTileCoord@?A0x39e5c904@Imf@@PAUBufferedTile@23@U?$less@UTileCoord@?A0x39e5c904@Imf@@@std@@V?$allocator@U?$pair@$$CBUTileCoord@?A0x39e5c904@Imf@@PAUBufferedTile@23@@std@@@6@$0A@@std@@QAE@XZ
	??$_Cons_val@V?$allocator@U?$pair@$$CBVName@Imf@@PAVAttribute@2@@std@@@std@@U?$pair@$$CBVName@Imf@@PAVAttribute@2@@2@U32@@std@@YAXAAV?$allocator@U?$pair@$$CBVName@Imf@@PAVAttribute@2@@std@@@0@PAU?$pair@$$CBVName@Imf@@PAVAttribute@2@@0@$$QAU20@@Z
	??0?$_Tree_const_iterator@V?$_Tree_val@V?$_Tmap_traits@PBDP6APAVAttribute@Imf@@XZUNameCompare@?A0x0779e1ad@2@V?$allocator@U?$pair@QBDP6APAVAttribute@Imf@@XZ@std@@@std@@$0A@@std@@@std@@@std@@QAE@ABV01@@Z
	?_Grow_to@?$vector@UTOutSliceInfo@?A0x39e5c904@Imf@@V?$allocator@UTOutSliceInfo@?A0x39e5c904@Imf@@@std@@@std@@IBEII@Z
	?_Grow_to@?$vector@PAUTileBuffer@?A0xf6fcebb6@Imf@@V?$allocator@PAUTileBuffer@?A0xf6fcebb6@Imf@@@std@@@std@@IBEII@Z
	?cast@?$TypedAttribute@M@Imf@@SAPBV12@PBVAttribute@2@@Z
	??$_Destroy_range@V?$allocator@UTInSliceInfo@?A0xf6fcebb6@Imf@@@std@@@std@@YAXPAUTInSliceInfo@?A0xf6fcebb6@Imf@@0AAV?$allocator@UTInSliceInfo@?A0xf6fcebb6@Imf@@@0@@Z
	??1TileOffsets@Imf@@QAE@XZ
	?assign@?$char_traits@D@std@@SAPADPADID@Z
	??4?$vector@UOutSliceInfo@?A0xf57f9ec6@Imf@@V?$allocator@UOutSliceInfo@?A0xf57f9ec6@Imf@@@std@@@std@@QAEAAV01@ABV01@@Z
	??1?$_Iterator012@Urandom_access_iterator_tag@std@@_KHPB_KAB_KU_Iterator_base12@2@@std@@QAE@XZ
	??0?$vector@UInSliceInfo@?A0xcbf8ace6@Imf@@V?$allocator@UInSliceInfo@?A0xcbf8ace6@Imf@@@std@@@std@@QAE@XZ
	??1?$_Vector_const_iterator@V?$_Vector_val@PAUTileBuffer@?A0xf6fcebb6@Imf@@V?$allocator@PAUTileBuffer@?A0xf6fcebb6@Imf@@@std@@@std@@@std@@QAE@XZ
	?ceilLog2@?A0x893782d4@Imf@@YAHH@Z
	??$_Copy_impl@PAV?$vector@_KV?$allocator@_K@std@@@std@@PAV12@@std@@YAPAV?$vector@_KV?$allocator@_K@std@@@0@PAV10@00U_Nonscalar_ptr_iterator_tag@0@@Z
	??$forward@P6APAVAttribute@Imf@@XZ@std@@YA$$QAP6APAVAttribute@Imf@@XZAAP6APAV12@XZ@Z
	??$_Buynode@U?$pair@$$CBVName@Imf@@USlice@2@@std@@@?$_Tree_val@V?$_Tmap_traits@VName@Imf@@USlice@2@U?$less@VName@Imf@@@std@@V?$allocator@U?$pair@$$CBVName@Imf@@USlice@2@@std@@@5@$0A@@std@@@std@@QAEPAU_Node@?$_Tree_nod@V?$_Tmap_traits@VName@Imf@@USlice@2@U?$less@VName@Imf@@@std@@V?$allocator@U?$pair@$$CBVName@Imf@@USlice@2@@std@@@5@$0A@@std@@@1@$$QAU?$pair@$$CBVName@Imf@@USlice@2@@1@@Z
	?value@?$TypedAttribute@W4Envmap@Imf@@@Imf@@QBEABW4Envmap@2@XZ
	?value@?$TypedAttribute@VRational@Imf@@@Imf@@QBEABVRational@2@XZ
	?end@FrameBuffer@Imf@@QBE?AVConstIterator@12@XZ
	??1?$_Iterator012@Ubidirectional_iterator_tag@std@@U?$pair@$$CBUTileCoord@?A0x39e5c904@Imf@@PAUBufferedTile@23@@2@HPBU32@ABU32@U_Iterator_base12@2@@std@@QAE@XZ
	??$_Uninitialized_move@PAUOutSliceInfo@?A0xf57f9ec6@Imf@@PAU123@V?$allocator@UOutSliceInfo@?A0xf57f9ec6@Imf@@@std@@@std@@YAPAUOutSliceInfo@?A0xf57f9ec6@Imf@@PAU123@00AAV?$allocator@UOutSliceInfo@?A0xf57f9ec6@Imf@@@0@@Z
	??1Data@ScanLineInputFile@Imf@@UAE@XZ
	?_Rank@?$_Arithmetic_traits@_J@std@@2HB
	?makeNewAttribute@?$TypedAttribute@W4LineOrder@Imf@@@Imf@@SAPAVAttribute@2@XZ
	?registerAttributeType@?$TypedAttribute@V?$Vec2@N@Imath@@@Imf@@SAXXZ
	?max_size@?$allocator@_K@std@@QBEIXZ
	?readValueFrom@?$TypedAttribute@V?$Box@V?$Vec2@M@Imath@@@Imath@@@Imf@@UAEXAAVIStream@2@HH@Z
	??0?$_Iterator012@Urandom_access_iterator_tag@std@@UInSliceInfo@?A0xcbf8ace6@Imf@@HPBU345@ABU345@U_Iterator_base12@2@@std@@QAE@ABU01@@Z
	??C?$_Tree_unchecked_const_iterator@V?$_Tree_val@V?$_Tmap_traits@VName@Imf@@UChannel@2@U?$less@VName@Imf@@@std@@V?$allocator@U?$pair@$$CBVName@Imf@@UChannel@2@@std@@@5@$0A@@std@@@std@@U_Iterator_base12@2@@std@@QBEPBU?$pair@$$CBVName@Imf@@UChannel@2@@1@XZ
	?_Reserve@?$vector@IV?$allocator@I@std@@@std@@IAEXI@Z
	?destroy@?$allocator@UInSliceInfo@?A0xcbf8ace6@Imf@@@std@@QAEXPAUInSliceInfo@?A0xcbf8ace6@Imf@@@Z
	??0?$allocator@U?$pair@$$CBUTileCoord@?A0x39e5c904@Imf@@PAUBufferedTile@23@@std@@@std@@QAE@ABV01@@Z
	??0?$allocator@U?$pair@$$CBVName@Imf@@UChannel@2@@std@@@std@@QAE@ABV01@@Z
	?destroy@?$allocator@U?$pair@$$CBVName@Imf@@PAVAttribute@2@@std@@@std@@QAEXPAU?$pair@$$CBVName@Imf@@PAVAttribute@2@@2@@Z
	??1_Iterator_base12@std@@QAE@XZ
	?_Make_iter@?$vector@UTInSliceInfo@?A0xf6fcebb6@Imf@@V?$allocator@UTInSliceInfo@?A0xf6fcebb6@Imf@@@std@@@std@@QBE?AV?$_Vector_iterator@V?$_Vector_val@UTInSliceInfo@?A0xf6fcebb6@Imf@@V?$allocator@UTInSliceInfo@?A0xf6fcebb6@Imf@@@std@@@std@@@2@V?$_Vector_const_iterator@V?$_Vector_val@UTInSliceInfo@?A0xf6fcebb6@Imf@@V?$allocator@UTInSliceInfo@?A0xf6fcebb6@Imf@@@std@@@std@@@2@@Z
	ImfTiledInputTileXSize
	?__LINE__Var@?1??compress@Pxr24Compressor@Imf@@AAEHPBDHV?$Box@V?$Vec2@H@Imath@@@Imath@@AAPBD@Z@4JA
	??$_Cons_val@V?$allocator@U?$pair@$$CBVName@Imf@@UChannel@2@@std@@@std@@U?$pair@$$CBVName@Imf@@UChannel@2@@2@U32@@std@@YAXAAV?$allocator@U?$pair@$$CBVName@Imf@@UChannel@2@@std@@@0@PAU?$pair@$$CBVName@Imf@@UChannel@2@@0@$$QAU20@@Z
	??$_Uninitialized_move@PAUTInSliceInfo@?A0xf6fcebb6@Imf@@PAU123@V?$allocator@UTInSliceInfo@?A0xf6fcebb6@Imf@@@std@@@std@@YAPAUTInSliceInfo@?A0xf6fcebb6@Imf@@PAU123@00AAV?$allocator@UTInSliceInfo@?A0xf6fcebb6@Imf@@@0@@Z
	?wdec14@?A0xfda0f276@Imf@@YAXGGAAG0@Z
	?worldToCameraAttribute@Imf@@YAABV?$TypedAttribute@V?$Matrix44@M@Imath@@@1@ABVHeader@1@@Z
	?_Grow_to@?$vector@V?$basic_string@DU?$char_traits@D@std@@V?$allocator@D@2@@std@@V?$allocator@V?$basic_string@DU?$char_traits@D@std@@V?$allocator@D@2@@std@@@2@@std@@IBEII@Z
	?frameBuffer@TiledRgbaInputFile@Imf@@QBEABVFrameBuffer@2@XZ
	?apertureAttribute@Imf@@YAABV?$TypedAttribute@M@1@ABVHeader@1@@Z
	?writeValueTo@?$TypedAttribute@V?$Matrix33@N@Imath@@@Imf@@UBEXAAVOStream@2@H@Z
	?convertInPlace@Imf@@YAXAAPADAAPBDW4PixelType@1@I@Z
	??$?9DD@std@@YA_NABV?$allocator@D@0@0@Z
	?destroy@?$allocator@U?$pair@$$CBVName@Imf@@UChannel@2@@std@@@std@@QAEXPAU?$pair@$$CBVName@Imf@@UChannel@2@@2@@Z
	??$_Destroy_range@V?$allocator@PAUTileBuffer@?A0x39e5c904@Imf@@@std@@@std@@YAXPAPAUTileBuffer@?A0x39e5c904@Imf@@0AAV?$allocator@PAUTileBuffer@?A0x39e5c904@Imf@@@0@U_Scalar_ptr_iterator_tag@0@@Z
	?none@?$_Locbase@H@std@@2HB
	??$_Kfn@$$CBVName@Imf@@UChannel@2@@?$_Tmap_traits@VName@Imf@@UChannel@2@U?$less@VName@Imf@@@std@@V?$allocator@U?$pair@$$CBVName@Imf@@UChannel@2@@std@@@5@$0A@@std@@SAABVName@Imf@@ABU?$pair@$$CBVName@Imf@@UChannel@2@@1@@Z
	??$write@UStreamIO@Imf@@VOStream@2@@Xdr@Imf@@YAXAAVOStream@1@QBD@Z
	??A?$Matrix44@N@Imath@@QBEPBNH@Z
	??0RgbaInputFile@Imf@@QAE@QBDH@Z
	?uncompress@Pxr24Compressor@Imf@@AAEHPBDHV?$Box@V?$Vec2@H@Imath@@@Imath@@AAPBD@Z
	?smallest@?$limits@M@Imath@@SAMXZ
	?bytesPerLineTable@Imf@@YAIABVHeader@1@AAV?$vector@IV?$allocator@I@std@@@std@@@Z
	??$_Destroy@_K@std@@YAXPA_K@Z
	??$pad@UStreamIO@Imf@@VOStream@2@@Xdr@Imf@@YAXAAVOStream@1@H@Z
	??0_Iterator_base12@std@@QAE@XZ
	?_Endwrite@?$basic_filebuf@DU?$char_traits@D@std@@@std@@IAE_NXZ
	?tileDescription@Header@Imf@@QBEABVTileDescription@2@XZ
	??E?$_Tree_unchecked_const_iterator@V?$_Tree_val@V?$_Tmap_traits@PBDP6APAVAttribute@Imf@@XZUNameCompare@?A0x0779e1ad@2@V?$allocator@U?$pair@QBDP6APAVAttribute@Imf@@XZ@std@@@std@@$0A@@std@@@std@@U_Iterator_base12@2@@std@@QAEAAV01@XZ
	?value@?$TypedAttribute@W4Compression@Imf@@@Imf@@QBEABW4Compression@2@XZ
	??AHeader@Imf@@QAEAAVAttribute@1@ABV?$basic_string@DU?$char_traits@D@std@@V?$allocator@D@2@@std@@@Z
	?notEnoughData@?A0xb36f0740@Imf@@YAXXZ
	??1ConstIterator@Header@Imf@@QAE@XZ
	??0ConstIterator@ChannelList@Imf@@QAE@ABV?$_Tree_const_iterator@V?$_Tree_val@V?$_Tmap_traits@VName@Imf@@UChannel@2@U?$less@VName@Imf@@@std@@V?$allocator@U?$pair@$$CBVName@Imf@@UChannel@2@@std@@@5@$0A@@std@@@std@@@std@@@Z
	??1LineBufferTask@?A0xcbf8ace6@Imf@@UAE@XZ
	??$_Dest_val@V?$allocator@UTOutSliceInfo@?A0x39e5c904@Imf@@@std@@UTOutSliceInfo@?A0x39e5c904@Imf@@@std@@YAXAAV?$allocator@UTOutSliceInfo@?A0x39e5c904@Imf@@@0@PAUTOutSliceInfo@?A0x39e5c904@Imf@@@Z
	?begin@?$vector@PAULineBuffer@?A0xf57f9ec6@Imf@@V?$allocator@PAULineBuffer@?A0xf57f9ec6@Imf@@@std@@@std@@QAE?AV?$_Vector_iterator@V?$_Vector_val@PAULineBuffer@?A0xf57f9ec6@Imf@@V?$allocator@PAULineBuffer@?A0xf57f9ec6@Imf@@@std@@@std@@@2@XZ
	?fps_29_97@Imf@@YA?AVRational@1@XZ
	?max_size@?$allocator@PAUTileBuffer@?A0x39e5c904@Imf@@@std@@QBEIXZ
	?staticTypeName@?$TypedAttribute@W4Envmap@Imf@@@Imf@@SAPBDXZ
	?_Rrotate@?$_Tree@V?$_Tmap_traits@VName@Imf@@PAVAttribute@2@U?$less@VName@Imf@@@std@@V?$allocator@U?$pair@$$CBVName@Imf@@PAVAttribute@2@@std@@@5@$0A@@std@@@std@@IAEXPAU_Node@?$_Tree_nod@V?$_Tmap_traits@VName@Imf@@PAVAttribute@2@U?$less@VName@Imf@@@std@@V?$allocator@U?$pair@$$CBVName@Imf@@PAVAttribute@2@@std@@@5@$0A@@std@@@2@@Z
	??$construct@AAUTOutSliceInfo@?A0x39e5c904@Imf@@@?$allocator@UTOutSliceInfo@?A0x39e5c904@Imf@@@std@@QAEXPAUTOutSliceInfo@?A0x39e5c904@Imf@@AAU234@@Z
	??0?$basic_filebuf@DU?$char_traits@D@std@@@std@@QAE@PAU_iobuf@@@Z
	??1?$TypedAttribute@V?$Box@V?$Vec2@H@Imath@@@Imath@@@Imf@@UAE@XZ
	?count@KeyCode@Imf@@QBEHXZ
	??0?$_Iterator012@Urandom_access_iterator_tag@std@@V?$vector@_KV?$allocator@_K@std@@@2@HPBV32@ABV32@U_Iterator_base12@2@@std@@QAE@XZ
	??0LineBufferTask@?A0xcbf8ace6@Imf@@QAE@PAVTaskGroup@IlmThread@@PAUData@ScanLineInputFile@2@PAULineBuffer@12@HH@Z
	?resize@?$vector@V?$vector@V?$vector@_KV?$allocator@_K@std@@@std@@V?$allocator@V?$vector@_KV?$allocator@_K@std@@@std@@@2@@std@@V?$allocator@V?$vector@V?$vector@_KV?$allocator@_K@std@@@std@@V?$allocator@V?$vector@_KV?$allocator@_K@std@@@std@@@2@@std@@@2@@std@@QAEXI@Z
	?_Erase@?$_Tree@V?$_Tmap_traits@PBDP6APAVAttribute@Imf@@XZUNameCompare@?A0x0779e1ad@2@V?$allocator@U?$pair@QBDP6APAVAttribute@Imf@@XZ@std@@@std@@$0A@@std@@@std@@IAEXPAU_Node@?$_Tree_nod@V?$_Tmap_traits@PBDP6APAVAttribute@Imf@@XZUNameCompare@?A0x0779e1ad@2@V?$allocator@U?$pair@QBDP6APAVAttribute@Imf@@XZ@std@@@std@@$0A@@std@@@2@@Z
	?begin@?$vector@PAULineBuffer@?A0xcbf8ace6@Imf@@V?$allocator@PAULineBuffer@?A0xcbf8ace6@Imf@@@std@@@std@@QAE?AV?$_Vector_iterator@V?$_Vector_val@PAULineBuffer@?A0xcbf8ace6@Imf@@V?$allocator@PAULineBuffer@?A0xcbf8ace6@Imf@@@std@@@std@@@2@XZ
	?staticTypeName@?$TypedAttribute@V?$basic_string@DU?$char_traits@D@std@@V?$allocator@D@2@@std@@@Imf@@SAPBDXZ
	?staticTypeName@?$TypedAttribute@VChannelList@Imf@@@Imf@@SAPBDXZ
	?setLayerName@TiledRgbaInputFile@Imf@@QAEXABV?$basic_string@DU?$char_traits@D@std@@V?$allocator@D@2@@std@@@Z
	??$forward@$$CBVName@Imf@@@std@@YA$$QBVName@Imf@@ABV12@@Z
	??$forward@AAV?$_Tree_iterator@V?$_Tree_val@V?$_Tmap_traits@VName@Imf@@PAVAttribute@2@U?$less@VName@Imf@@@std@@V?$allocator@U?$pair@$$CBVName@Imf@@PAVAttribute@2@@std@@@5@$0A@@std@@@std@@@std@@@std@@YAAAV?$_Tree_iterator@V?$_Tree_val@V?$_Tmap_traits@VName@Imf@@PAVAttribute@2@U?$less@VName@Imf@@@std@@V?$allocator@U?$pair@$$CBVName@Imf@@PAVAttribute@2@@std@@@5@$0A@@std@@@std@@@0@AAV10@@Z
	??$_Cons_val@V?$allocator@UTInSliceInfo@?A0xf6fcebb6@Imf@@@std@@UTInSliceInfo@?A0xf6fcebb6@Imf@@AAU345@@std@@YAXAAV?$allocator@UTInSliceInfo@?A0xf6fcebb6@Imf@@@0@PAUTInSliceInfo@?A0xf6fcebb6@Imf@@AAU234@@Z
	?seekp@StdOSStream@Imf@@UAEX_K@Z
	??$move@ABVName@Imf@@@std@@YA$$QBVName@Imf@@ABV12@@Z
	?xDensity@Imf@@YAAAMAAVHeader@1@@Z
	??$move@AAV?$_Tree_iterator@V?$_Tree_val@V?$_Tmap_traits@VName@Imf@@USlice@2@U?$less@VName@Imf@@@std@@V?$allocator@U?$pair@$$CBVName@Imf@@USlice@2@@std@@@5@$0A@@std@@@std@@@std@@@std@@YA$$QAV?$_Tree_iterator@V?$_Tree_val@V?$_Tmap_traits@VName@Imf@@USlice@2@U?$less@VName@Imf@@@std@@V?$allocator@U?$pair@$$CBVName@Imf@@USlice@2@@std@@@5@$0A@@std@@@std@@@0@AAV10@@Z
	?readValueFrom@?$TypedAttribute@V?$Vec3@H@Imath@@@Imf@@UAEXAAVIStream@2@HH@Z
	?renderingTransformAttribute@Imf@@YAABV?$TypedAttribute@V?$basic_string@DU?$char_traits@D@std@@V?$allocator@D@2@@std@@@1@ABVHeader@1@@Z
	?_Tidy@?$vector@PAULineBuffer@?A0xf57f9ec6@Imf@@V?$allocator@PAULineBuffer@?A0xf57f9ec6@Imf@@@std@@@std@@IAEXXZ
	?find@?$_Tree@V?$_Tmap_traits@VName@Imf@@PAVAttribute@2@U?$less@VName@Imf@@@std@@V?$allocator@U?$pair@$$CBVName@Imf@@PAVAttribute@2@@std@@@5@$0A@@std@@@std@@QBE?AV?$_Tree_const_iterator@V?$_Tree_val@V?$_Tmap_traits@VName@Imf@@PAVAttribute@2@U?$less@VName@Imf@@@std@@V?$allocator@U?$pair@$$CBVName@Imf@@PAVAttribute@2@@std@@@5@$0A@@std@@@std@@@2@ABVName@Imf@@@Z
	?assign@?$char_traits@D@std@@SAXAADABD@Z
	?makeNewAttribute@?$TypedAttribute@V?$Vec2@M@Imath@@@Imf@@SAPAVAttribute@2@XZ
	??$move@AAUChannel@Imf@@@std@@YA$$QAUChannel@Imf@@AAU12@@Z
	?isComplete@ScanLineInputFile@Imf@@QBE_NXZ
	ImfOutputSetFrameBuffer
	?_Reserve@?$vector@PAUTileBuffer@?A0xf6fcebb6@Imf@@V?$allocator@PAUTileBuffer@?A0xf6fcebb6@Imf@@@std@@@std@@IAEXI@Z
	??$typedAttribute@V?$TypedAttribute@V?$basic_string@DU?$char_traits@D@std@@V?$allocator@D@2@@std@@@Imf@@@Header@Imf@@QAEAAV?$TypedAttribute@V?$basic_string@DU?$char_traits@D@std@@V?$allocator@D@2@@std@@@1@QBD@Z
	__TI2?AVbad_cast@std@@
	??$?HDU?$char_traits@D@std@@V?$allocator@D@1@@std@@YA?AV?$basic_string@DU?$char_traits@D@std@@V?$allocator@D@2@@0@ABV10@PBD@Z
	?_Rrotate@?$_Tree@V?$_Tmap_traits@PBDP6APAVAttribute@Imf@@XZUNameCompare@?A0x0779e1ad@2@V?$allocator@U?$pair@QBDP6APAVAttribute@Imf@@XZ@std@@@std@@$0A@@std@@@std@@IAEXPAU_Node@?$_Tree_nod@V?$_Tmap_traits@PBDP6APAVAttribute@Imf@@XZUNameCompare@?A0x0779e1ad@2@V?$allocator@U?$pair@QBDP6APAVAttribute@Imf@@XZ@std@@@std@@$0A@@std@@@2@@Z
	??A?$map@VName@Imf@@USlice@2@U?$less@VName@Imf@@@std@@V?$allocator@U?$pair@$$CBVName@Imf@@USlice@2@@std@@@5@@std@@QAEAAUSlice@Imf@@ABVName@3@@Z
	?readPixels@RgbaInputFile@Imf@@QAEXH@Z
	??$?8V?$vector@_KV?$allocator@_K@std@@@std@@V01@@std@@YA_NABV?$allocator@V?$vector@_KV?$allocator@_K@std@@@std@@@0@0@Z
	?copy@?$TypedAttribute@V?$Vec3@N@Imath@@@Imf@@UBEPAVAttribute@2@XZ
	?_Tidy@?$vector@UOutSliceInfo@?A0xf57f9ec6@Imf@@V?$allocator@UOutSliceInfo@?A0xf57f9ec6@Imf@@@std@@@std@@IAEXXZ
	?copyValueFrom@?$TypedAttribute@VChannelList@Imf@@@Imf@@UAEXABVAttribute@2@@Z
	??$_Destroy_range@V?$allocator@V?$basic_string@DU?$char_traits@D@std@@V?$allocator@D@2@@std@@@std@@@std@@YAXPAV?$basic_string@DU?$char_traits@D@std@@V?$allocator@D@2@@0@0AAV?$allocator@V?$basic_string@DU?$char_traits@D@std@@V?$allocator@D@2@@std@@@0@U_Nonscalar_ptr_iterator_tag@0@@Z
	??0?$TypedAttribute@V?$Vec3@H@Imath@@@Imf@@QAE@XZ
	?_Tidy@?$basic_stringbuf@DU?$char_traits@D@std@@V?$allocator@D@2@@std@@IAEXXZ
	??4?$map@VName@Imf@@UChannel@2@U?$less@VName@Imf@@@std@@V?$allocator@U?$pair@$$CBVName@Imf@@UChannel@2@@std@@@5@@std@@QAEAAV01@ABV01@@Z
	ImfHeaderSetBox2fAttribute
	??0FromYca@RgbaInputFile@Imf@@QAE@AAVInputFile@2@W4RgbaChannels@2@@Z
	?copyPixels@TiledOutputFile@Imf@@QAEXAAVInputFile@2@@Z
	??$_Copy_impl@PAUOutSliceInfo@?A0xf57f9ec6@Imf@@PAU123@@std@@YAPAUOutSliceInfo@?A0xf57f9ec6@Imf@@PAU123@00@Z
	??0?$allocator@PAULineBuffer@?A0xf57f9ec6@Imf@@@std@@QAE@XZ
	??0?$_Tmap_traits@VName@Imf@@USlice@2@U?$less@VName@Imf@@@std@@V?$allocator@U?$pair@$$CBVName@Imf@@USlice@2@@std@@@5@$0A@@std@@QAE@U?$less@VName@Imf@@@1@@Z
	??1Pxr24Compressor@Imf@@UAE@XZ
	?setLayerName@RgbaInputFile@Imf@@QAEXABV?$basic_string@DU?$char_traits@D@std@@V?$allocator@D@2@@std@@@Z
	??9?$_Vector_const_iterator@V?$_Vector_val@PAUTileBuffer@?A0x39e5c904@Imf@@V?$allocator@PAUTileBuffer@?A0x39e5c904@Imf@@@std@@@std@@@std@@QBE_NABV01@@Z
	??1RgbaInputFile@Imf@@UAE@XZ
	ImfInputFileName
	?begin@?$vector@V?$basic_string@DU?$char_traits@D@std@@V?$allocator@D@2@@std@@V?$allocator@V?$basic_string@DU?$char_traits@D@std@@V?$allocator@D@2@@std@@@2@@std@@QBE?AV?$_Vector_const_iterator@V?$_Vector_val@V?$basic_string@DU?$char_traits@D@std@@V?$allocator@D@2@@std@@V?$allocator@V?$basic_string@DU?$char_traits@D@std@@V?$allocator@D@2@@std@@@2@@std@@@2@XZ
	?calculateNumTiles@?A0x893782d4@Imf@@YAXPAHHHHHW4LevelRoundingMode@2@@Z
	??4?$vector@V?$vector@_KV?$allocator@_K@std@@@std@@V?$allocator@V?$vector@_KV?$allocator@_K@std@@@std@@@2@@std@@QAEAAV01@ABV01@@Z
	??$_Fill_n@PA_KI_K@std@@YAXPA_KIAB_K@Z
	?writePixels@ToYca@RgbaOutputFile@Imf@@QAEXH@Z
	??$_Umove@PAPAUTileBuffer@?A0xf6fcebb6@Imf@@@?$vector@PAUTileBuffer@?A0xf6fcebb6@Imf@@V?$allocator@PAUTileBuffer@?A0xf6fcebb6@Imf@@@std@@@std@@IAEPAPAUTileBuffer@?A0xf6fcebb6@Imf@@PAPAU234@00@Z
	?updatePreviewImage@OutputFile@Imf@@QAEXQBUPreviewRgba@2@@Z
	??$forward@ABVName@Imf@@@std@@YAABVName@Imf@@ABV12@@Z
	??0?$vector@V?$vector@V?$vector@_KV?$allocator@_K@std@@@std@@V?$allocator@V?$vector@_KV?$allocator@_K@std@@@std@@@2@@std@@V?$allocator@V?$vector@V?$vector@_KV?$allocator@_K@std@@@std@@V?$allocator@V?$vector@_KV?$allocator@_K@std@@@std@@@2@@std@@@2@@std@@QAE@XZ
	??1?$TypedAttribute@V?$Vec2@M@Imath@@@Imf@@UAE@XZ
	?readTile@TiledInputFile@Imf@@QAEXHHH@Z
	?value@?$TypedAttribute@V?$Vec2@H@Imath@@@Imf@@QBEABV?$Vec2@H@Imath@@XZ
	??0ScanLineInputFile@Imf@@QAE@ABVHeader@1@PAVIStream@1@H@Z
	??1ArgExc@Iex@@UAE@XZ
	?cast@?$TypedAttribute@V?$basic_string@DU?$char_traits@D@std@@V?$allocator@D@2@@std@@@Imf@@SAPBV12@PBVAttribute@2@@Z
	?left@?$_Iosb@H@std@@2W4_Fmtflags@12@B
	??0?$fpos@H@std@@QAE@H_J@Z
	?parseString@?A0x4734fbb7@Imf@@YA?AV?$vector@V?$basic_string@DU?$char_traits@D@std@@V?$allocator@D@2@@std@@V?$allocator@V?$basic_string@DU?$char_traits@D@std@@V?$allocator@D@2@@std@@@2@@std@@V?$basic_string@DU?$char_traits@D@std@@V?$allocator@D@2@@4@D@Z
	??$_Debug_pointer@UTOutSliceInfo@?A0x39e5c904@Imf@@@std@@YAXPAUTOutSliceInfo@?A0x39e5c904@Imf@@PB_WI@Z
	??$_Iter_cat@PAPAULineBuffer@?A0xf57f9ec6@Imf@@@std@@YA?AUrandom_access_iterator_tag@0@ABQAPAULineBuffer@?A0xf57f9ec6@Imf@@@Z
	??$_Pop_heap@PAPA_KUFHeapCompare@?A0xc87c6bb7@Imf@@@std@@YAXPAPA_K0UFHeapCompare@?A0xc87c6bb7@Imf@@@Z
	??A?$vector@V?$vector@V?$vector@_KV?$allocator@_K@std@@@std@@V?$allocator@V?$vector@_KV?$allocator@_K@std@@@std@@@2@@std@@V?$allocator@V?$vector@V?$vector@_KV?$allocator@_K@std@@@std@@V?$allocator@V?$vector@_KV?$allocator@_K@std@@@std@@@2@@std@@@2@@std@@QBEABV?$vector@V?$vector@_KV?$allocator@_K@std@@@std@@V?$allocator@V?$vector@_KV?$allocator@_K@std@@@std@@@2@@1@I@Z
	?numeric@?$_Locbase@H@std@@2HB
	?staticTypeName@?$TypedAttribute@VTimeCode@Imf@@@Imf@@SAPBDXZ
	?numLevels@TiledInputFile@Imf@@QBEHXZ
	??$_Debug_range2@PAUTOutSliceInfo@?A0x39e5c904@Imf@@@std@@YAXPAUTOutSliceInfo@?A0x39e5c904@Imf@@0PB_WIUrandom_access_iterator_tag@0@@Z
	?_Reserve@?$vector@UTOutSliceInfo@?A0x39e5c904@Imf@@V?$allocator@UTOutSliceInfo@?A0x39e5c904@Imf@@@std@@@std@@IAEXI@Z
	?isInfinity@?A0xd34937d7@Imf@@YA_NM@Z
	??A?$vector@PAULineBuffer@?A0xf57f9ec6@Imf@@V?$allocator@PAULineBuffer@?A0xf57f9ec6@Imf@@@std@@@std@@QAEAAPAULineBuffer@?A0xf57f9ec6@Imf@@I@Z
	?_Rank@?$_Arithmetic_traits@N@std@@2HB
	?dataWindowForTile@TiledRgbaOutputFile@Imf@@QBE?AV?$Box@V?$Vec2@H@Imath@@@Imath@@HHHH@Z
	?frameBuffer@ScanLineInputFile@Imf@@QBEABVFrameBuffer@2@XZ
	??0?$_Iterator012@Ubidirectional_iterator_tag@std@@U?$pair@$$CBVName@Imf@@USlice@2@@2@HPBU32@ABU32@U_Iterator_base12@2@@std@@QAE@ABU01@@Z
	??1?$_Tree@V?$_Tmap_traits@VName@Imf@@UChannel@2@U?$less@VName@Imf@@@std@@V?$allocator@U?$pair@$$CBVName@Imf@@UChannel@2@@std@@@5@$0A@@std@@@std@@QAE@XZ
	??1?$vector@UTInSliceInfo@?A0xf6fcebb6@Imf@@V?$allocator@UTInSliceInfo@?A0xf6fcebb6@Imf@@@std@@@std@@QAE@XZ
	?fileName@InputFile@Imf@@QBEPBDXZ
	??AHeader@Imf@@QBEABVAttribute@1@QBD@Z
	??$_Fgetc@D@std@@YA_NAADPAU_iobuf@@@Z
	??$readUnsignedChars@UCharPtrIO@Imf@@PBD@Xdr@Imf@@YAXAAPBDQAEH@Z
	?lineBufferMaxY@Imf@@YAHHHH@Z
	??$_Val_type@PAUTInSliceInfo@?A0xf6fcebb6@Imf@@@std@@YAPAUTInSliceInfo@?A0xf6fcebb6@Imf@@PAU123@@Z
	?size@?$basic_string@DU?$char_traits@D@std@@V?$allocator@D@2@@std@@QBEIXZ
	?_Reserve@?$vector@UInSliceInfo@?A0xcbf8ace6@Imf@@V?$allocator@UInSliceInfo@?A0xcbf8ace6@Imf@@@std@@@std@@IAEXI@Z
	?end@?$vector@V?$basic_string@DU?$char_traits@D@std@@V?$allocator@D@2@@std@@V?$allocator@V?$basic_string@DU?$char_traits@D@std@@V?$allocator@D@2@@std@@@2@@std@@QBE?AV?$_Vector_const_iterator@V?$_Vector_val@V?$basic_string@DU?$char_traits@D@std@@V?$allocator@D@2@@std@@V?$allocator@V?$basic_string@DU?$char_traits@D@std@@V?$allocator@D@2@@std@@@2@@std@@@2@XZ
	??0TileBuffer@?A0xf6fcebb6@Imf@@QAE@QAVCompressor@2@@Z
	?findChannel@ChannelList@Imf@@QAEPAUChannel@2@QBD@Z
	??$?0U?$pair@QBDP6APAVAttribute@Imf@@XZ@std@@@?$allocator@U_Node@?$_Tree_nod@V?$_Tmap_traits@PBDP6APAVAttribute@Imf@@XZUNameCompare@?A0x0779e1ad@2@V?$allocator@U?$pair@QBDP6APAVAttribute@Imf@@XZ@std@@@std@@$0A@@std@@@std@@@std@@QAE@ABV?$allocator@U?$pair@QBDP6APAVAttribute@Imf@@XZ@std@@@1@@Z
	??Y?$basic_string@DU?$char_traits@D@std@@V?$allocator@D@2@@std@@QAEAAV01@PBD@Z
	??AChannelList@Imf@@QAEAAUChannel@1@QBD@Z
	??0?$allocator@PAULineBuffer@?A0xcbf8ace6@Imf@@@std@@QAE@XZ
	??1?$TypedAttribute@V?$Matrix44@N@Imath@@@Imf@@UAE@XZ
	?copy@?$TypedAttribute@V?$Vec3@M@Imath@@@Imf@@UBEPAVAttribute@2@XZ
	?construct@?$allocator@U_Container_proxy@std@@@std@@QAEXPAU_Container_proxy@2@$$QAU32@@Z
	?readChars@StreamIO@Imf@@SA_NAAVIStream@2@QADH@Z
	??0?$_Tree_nod@V?$_Tmap_traits@VName@Imf@@PAVAttribute@2@U?$less@VName@Imf@@@std@@V?$allocator@U?$pair@$$CBVName@Imf@@PAVAttribute@2@@std@@@5@$0A@@std@@@std@@QAE@ABU?$less@VName@Imf@@@1@V?$allocator@U?$pair@$$CBVName@Imf@@PAVAttribute@2@@std@@@1@@Z
	??0?$allocator@U?$pair@$$CBUTileCoord@?A0x39e5c904@Imf@@PAUBufferedTile@23@@std@@@std@@QAE@XZ
	?copy@?$TypedAttribute@V?$Vec2@N@Imath@@@Imf@@UBEPAVAttribute@2@XZ
	??1?$_Tree_val@V?$_Tmap_traits@VName@Imf@@PAVAttribute@2@U?$less@VName@Imf@@@std@@V?$allocator@U?$pair@$$CBVName@Imf@@PAVAttribute@2@@std@@@5@$0A@@std@@@std@@QAE@XZ
	?erase@?$vector@PAUTileBuffer@?A0xf6fcebb6@Imf@@V?$allocator@PAUTileBuffer@?A0xf6fcebb6@Imf@@@std@@@std@@QAE?AV?$_Vector_iterator@V?$_Vector_val@PAUTileBuffer@?A0xf6fcebb6@Imf@@V?$allocator@PAUTileBuffer@?A0xf6fcebb6@Imf@@@std@@@std@@@2@V?$_Vector_const_iterator@V?$_Vector_val@PAUTileBuffer@?A0xf6fcebb6@Imf@@V?$allocator@PAUTileBuffer@?A0xf6fcebb6@Imf@@@std@@@std@@@2@0@Z
	?fillChannelWithZeroes@Imf@@YAXAAPADW4Format@Compressor@1@W4PixelType@1@I@Z
	?copyValueFrom@?$TypedAttribute@VTimeCode@Imf@@@Imf@@UAEXABVAttribute@2@@Z
	?copyPixels@OutputFile@Imf@@QAEXAAVInputFile@2@@Z
	ImfHeaderV3iAttribute
	??8?$_Vector_const_iterator@V?$_Vector_val@IV?$allocator@I@std@@@std@@@std@@QBE_NABV01@@Z
	?staticTypeName@?$TypedAttribute@M@Imf@@SAPBDXZ
	?cast@?$TypedAttribute@H@Imf@@SAPBV12@PBVAttribute@2@@Z
	?erase@?$_Tree@V?$_Tmap_traits@UTileCoord@?A0x39e5c904@Imf@@PAUBufferedTile@23@U?$less@UTileCoord@?A0x39e5c904@Imf@@@std@@V?$allocator@U?$pair@$$CBUTileCoord@?A0x39e5c904@Imf@@PAUBufferedTile@23@@std@@@6@$0A@@std@@@std@@QAE?AV?$_Tree_iterator@V?$_Tree_val@V?$_Tmap_traits@UTileCoord@?A0x39e5c904@Imf@@PAUBufferedTile@23@U?$less@UTileCoord@?A0x39e5c904@Imf@@@std@@V?$allocator@U?$pair@$$CBUTileCoord@?A0x39e5c904@Imf@@PAUBufferedTile@23@@std@@@6@$0A@@std@@@std@@@2@V?$_Tree_const_iterator@V?$_Tree_val@V?$_Tmap_traits@UTileCoord@?A0x39e5c904@Imf@@PAUBufferedTile@23@U?$less@UTileCoord@?A0x39e5c904@Imf@@@std@@V?$allocator@U?$pair@$$CBUTileCoord@?A0x39e5c904@Imf@@PAUBufferedTile@23@@std@@@6@$0A@@std@@@std@@@2@0@Z
	?knownType@Attribute@Imf@@SA_NQBD@Z
	?_Reserve@?$vector@_KV?$allocator@_K@std@@@std@@IAEXI@Z
	??$typedAttribute@V?$TypedAttribute@V?$vector@V?$basic_string@DU?$char_traits@D@std@@V?$allocator@D@2@@std@@V?$allocator@V?$basic_string@DU?$char_traits@D@std@@V?$allocator@D@2@@std@@@2@@std@@@Imf@@@Header@Imf@@QBEABV?$TypedAttribute@V?$vector@V?$basic_string@DU?$char_traits@D@std@@V?$allocator@D@2@@std@@V?$allocator@V?$basic_string@DU?$char_traits@D@std@@V?$allocator@D@2@@std@@@2@@std@@@1@QBD@Z
	??$addressof@V?$vector@_KV?$allocator@_K@std@@@std@@@std@@YAPAV?$vector@_KV?$allocator@_K@std@@@0@AAV10@@Z
	?keyCode@Imf@@YAAAVKeyCode@1@AAVHeader@1@@Z
	??$_Debug_range2@PAI@std@@YAXPAI0PB_WIUrandom_access_iterator_tag@0@@Z
	??$_Destroy_range@V?$allocator@PAULineBuffer@?A0xf57f9ec6@Imf@@@std@@@std@@YAXPAPAULineBuffer@?A0xf57f9ec6@Imf@@0AAV?$allocator@PAULineBuffer@?A0xf57f9ec6@Imf@@@0@@Z
	??$_Move@PAUTInSliceInfo@?A0xf6fcebb6@Imf@@PAU123@@std@@YAPAUTInSliceInfo@?A0xf6fcebb6@Imf@@PAU123@00@Z
	?_Getstate@?$basic_stringbuf@DU?$char_traits@D@std@@V?$allocator@D@2@@std@@AAEHH@Z
	??0?$_Vector_val@UTOutSliceInfo@?A0x39e5c904@Imf@@V?$allocator@UTOutSliceInfo@?A0x39e5c904@Imf@@@std@@@std@@QAE@V?$allocator@UTOutSliceInfo@?A0x39e5c904@Imf@@@1@@Z
	?_Destroy@?$vector@UTInSliceInfo@?A0xf6fcebb6@Imf@@V?$allocator@UTInSliceInfo@?A0xf6fcebb6@Imf@@@std@@@std@@IAEXPAUTInSliceInfo@?A0xf6fcebb6@Imf@@0@Z
	__CTA6?AVLogicExc@Iex@@
	?not_eof@?$char_traits@D@std@@SAHABH@Z
	?version@TiledRgbaInputFile@Imf@@QBEHXZ
	??A?$vector@V?$vector@_KV?$allocator@_K@std@@@std@@V?$allocator@V?$vector@_KV?$allocator@_K@std@@@std@@@2@@std@@QBEABV?$vector@_KV?$allocator@_K@std@@@1@I@Z
	?initialize@?A0x1f5ff9f2@Imf@@YAXAAVHeader@2@ABV?$Box@V?$Vec2@H@Imath@@@Imath@@1MABV?$Vec2@M@5@MW4LineOrder@2@W4Compression@2@@Z
	??8?$_Vector_const_iterator@V?$_Vector_val@UOutSliceInfo@?A0xf57f9ec6@Imf@@V?$allocator@UOutSliceInfo@?A0xf57f9ec6@Imf@@@std@@@std@@@std@@QBE_NABV01@@Z
	?_Compat@?$_Vector_const_iterator@V?$_Vector_val@IV?$allocator@I@std@@@std@@@std@@QBEXABV12@@Z
	?_Rrotate@?$_Tree@V?$_Tmap_traits@VName@Imf@@UChannel@2@U?$less@VName@Imf@@@std@@V?$allocator@U?$pair@$$CBVName@Imf@@UChannel@2@@std@@@5@$0A@@std@@@std@@IAEXPAU_Node@?$_Tree_nod@V?$_Tmap_traits@VName@Imf@@UChannel@2@U?$less@VName@Imf@@@std@@V?$allocator@U?$pair@$$CBVName@Imf@@UChannel@2@@std@@@5@$0A@@std@@@2@@Z
	?worldToNDC@Imf@@YAABV?$Matrix44@M@Imath@@ABVHeader@1@@Z
	??0?$basic_string@DU?$char_traits@D@std@@V?$allocator@D@2@@std@@QAE@ABV01@IIABV?$allocator@D@1@@Z
	?max_size@?$basic_string@DU?$char_traits@D@std@@V?$allocator@D@2@@std@@QBEIXZ
	?framesPerSecond@Imf@@YAABVRational@1@ABVHeader@1@@Z
	?max_size@?$allocator@UInSliceInfo@?A0xcbf8ace6@Imf@@@std@@QBEIXZ
	?channels@RgbaOutputFile@Imf@@QBE?AW4RgbaChannels@2@XZ
	?copy@?$TypedAttribute@V?$vector@V?$basic_string@DU?$char_traits@D@std@@V?$allocator@D@2@@std@@V?$allocator@V?$basic_string@DU?$char_traits@D@std@@V?$allocator@D@2@@std@@@2@@std@@@Imf@@UBEPAVAttribute@2@XZ
	??$forward@AAU?$pair@$$CBVName@Imf@@USlice@2@@std@@@std@@YAAAU?$pair@$$CBVName@Imf@@USlice@2@@0@AAU10@@Z
	??0?$Box@V?$Vec2@M@Imath@@@Imath@@QAE@XZ
	??0?$vector@_KV?$allocator@_K@std@@@std@@QAE@$$QAV01@@Z
	??1?$map@UTileCoord@?A0x39e5c904@Imf@@PAUBufferedTile@23@U?$less@UTileCoord@?A0x39e5c904@Imf@@@std@@V?$allocator@U?$pair@$$CBUTileCoord@?A0x39e5c904@Imf@@PAUBufferedTile@23@@std@@@6@@std@@QAE@XZ
	?writeValueTo@?$TypedAttribute@V?$Matrix44@N@Imath@@@Imf@@UBEXAAVOStream@2@H@Z
	??0TypeExc@Iex@@QAE@PBD@Z
	ImfTiledInputReadTile
	??M?$_Vector_const_iterator@V?$_Vector_val@V?$vector@V?$vector@_KV?$allocator@_K@std@@@std@@V?$allocator@V?$vector@_KV?$allocator@_K@std@@@std@@@2@@std@@V?$allocator@V?$vector@V?$vector@_KV?$allocator@_K@std@@@std@@V?$allocator@V?$vector@_KV?$allocator@_K@std@@@std@@@2@@std@@@2@@std@@@std@@QBE_NABV01@@Z
	?chromaticitiesAttribute@Imf@@YAABV?$TypedAttribute@UChromaticities@Imf@@@1@ABVHeader@1@@Z
	?displayWindow@TiledRgbaInputFile@Imf@@QBEABV?$Box@V?$Vec2@H@Imath@@@Imath@@XZ
	?fps_47_952@Imf@@YA?AVRational@1@XZ
	?writeValueTo@?$TypedAttribute@UChromaticities@Imf@@@Imf@@UBEXAAVOStream@2@H@Z
	??0?$_Tree_val@V?$_Tmap_traits@UTileCoord@?A0x39e5c904@Imf@@PAUBufferedTile@23@U?$less@UTileCoord@?A0x39e5c904@Imf@@@std@@V?$allocator@U?$pair@$$CBUTileCoord@?A0x39e5c904@Imf@@PAUBufferedTile@23@@std@@@6@$0A@@std@@@std@@QAE@ABU?$less@UTileCoord@?A0x39e5c904@Imf@@@1@V?$allocator@U?$pair@$$CBUTileCoord@?A0x39e5c904@Imf@@PAUBufferedTile@23@@std@@@1@@Z
	__TI6?AVIoExc@Iex@@
	?previewImage@Header@Imf@@QAEAAVPreviewImage@2@XZ
	?value@?$TypedAttribute@V?$Vec2@H@Imath@@@Imf@@QAEAAV?$Vec2@H@Imath@@XZ
	ImfCloseOutputFile
	??$_Uninit_move@PAULineBuffer@?A0xcbf8ace6@Imf@@PAU123@PAU123@@std@@YAPAPAULineBuffer@?A0xcbf8ace6@Imf@@PAPAU123@00AAV?$allocator@PAULineBuffer@?A0xcbf8ace6@Imf@@@0@0U_Scalar_ptr_iterator_tag@0@@Z
	??$_Buynode@U?$pair@$$CBVName@Imf@@UChannel@2@@std@@@?$_Tree_val@V?$_Tmap_traits@VName@Imf@@UChannel@2@U?$less@VName@Imf@@@std@@V?$allocator@U?$pair@$$CBVName@Imf@@UChannel@2@@std@@@5@$0A@@std@@@std@@QAEPAU_Node@?$_Tree_nod@V?$_Tmap_traits@VName@Imf@@UChannel@2@U?$less@VName@Imf@@@std@@V?$allocator@U?$pair@$$CBVName@Imf@@UChannel@2@@std@@@5@$0A@@std@@@1@$$QAU?$pair@$$CBVName@Imf@@UChannel@2@@1@@Z
	?rfind@?$basic_string@DU?$char_traits@D@std@@V?$allocator@D@2@@std@@QBEIPBDII@Z
	??$?6DU?$char_traits@D@std@@V?$allocator@D@1@@std@@YAAAV?$basic_ostream@DU?$char_traits@D@std@@@0@AAV10@ABV?$basic_string@DU?$char_traits@D@std@@V?$allocator@D@2@@0@@Z
	?bcdToBinary@?A0x304371a6@Imf@@YAHI@Z
	?levelRoundingMode@TiledInputFile@Imf@@QBE?AW4LevelRoundingMode@2@XZ
	??1?$AutoArray@E$0CAAA@@Imf@@QAE@XZ
	??R?$halfFunction@Vhalf@@@@QBE?AVhalf@@V1@@Z
	??0?$_Tree_nod@V?$_Tmap_traits@UTileCoord@?A0x39e5c904@Imf@@PAUBufferedTile@23@U?$less@UTileCoord@?A0x39e5c904@Imf@@@std@@V?$allocator@U?$pair@$$CBUTileCoord@?A0x39e5c904@Imf@@PAUBufferedTile@23@@std@@@6@$0A@@std@@@std@@QAE@ABU?$less@UTileCoord@?A0x39e5c904@Imf@@@1@V?$allocator@U?$pair@$$CBUTileCoord@?A0x39e5c904@Imf@@PAUBufferedTile@23@@std@@@1@@Z
	??1?$Array@D@Imf@@QAE@XZ
	?_Left@?$_Tree_val@V?$_Tmap_traits@UTileCoord@?A0x39e5c904@Imf@@PAUBufferedTile@23@U?$less@UTileCoord@?A0x39e5c904@Imf@@@std@@V?$allocator@U?$pair@$$CBUTileCoord@?A0x39e5c904@Imf@@PAUBufferedTile@23@@std@@@6@$0A@@std@@@std@@SAAAPAU_Node@?$_Tree_nod@V?$_Tmap_traits@UTileCoord@?A0x39e5c904@Imf@@PAUBufferedTile@23@U?$less@UTileCoord@?A0x39e5c904@Imf@@@std@@V?$allocator@U?$pair@$$CBUTileCoord@?A0x39e5c904@Imf@@PAUBufferedTile@23@@std@@@6@$0A@@std@@@2@PAU342@@Z
	?clear@?$_Tree@V?$_Tmap_traits@UTileCoord@?A0x39e5c904@Imf@@PAUBufferedTile@23@U?$less@UTileCoord@?A0x39e5c904@Imf@@@std@@V?$allocator@U?$pair@$$CBUTileCoord@?A0x39e5c904@Imf@@PAUBufferedTile@23@@std@@@6@$0A@@std@@@std@@QAEXXZ
	ImfTiledInputSetFrameBuffer
	??$?0AAV?$_Tree_iterator@V?$_Tree_val@V?$_Tmap_traits@PBDP6APAVAttribute@Imf@@XZUNameCompare@?A0x0779e1ad@2@V?$allocator@U?$pair@QBDP6APAVAttribute@Imf@@XZ@std@@@std@@$0A@@std@@@std@@@std@@_N@?$pair@V?$_Tree_iterator@V?$_Tree_val@V?$_Tmap_traits@PBDP6APAVAttribute@Imf@@XZUNameCompare@?A0x0779e1ad@2@V?$allocator@U?$pair@QBDP6APAVAttribute@Imf@@XZ@std@@@std@@$0A@@std@@@std@@@std@@_N@std@@QAE@AAV?$_Tree_iterator@V?$_Tree_val@V?$_Tmap_traits@PBDP6APAVAttribute@Imf@@XZUNameCompare@?A0x0779e1ad@2@V?$allocator@U?$pair@QBDP6APAVAttribute@Imf@@XZ@std@@@std@@$0A@@std@@@std@@@1@$$QA_N@Z
	??0OStream@Imf@@IAE@QBD@Z
	??$_Destroy@UOutSliceInfo@?A0xf57f9ec6@Imf@@@std@@YAXPAUOutSliceInfo@?A0xf57f9ec6@Imf@@@Z
	?rgbaChannels@?A0x5c932b76@Imf@@YA?AW4RgbaChannels@2@ABVChannelList@2@ABV?$basic_string@DU?$char_traits@D@std@@V?$allocator@D@2@@std@@@Z
	__TI5?AVBaseExc@Iex@@
	??0StdOFStream@Imf@@QAE@QBD@Z
	?lower_bound@?$_Tree@V?$_Tmap_traits@VName@Imf@@UChannel@2@U?$less@VName@Imf@@@std@@V?$allocator@U?$pair@$$CBVName@Imf@@UChannel@2@@std@@@5@$0A@@std@@@std@@QAE?AV?$_Tree_iterator@V?$_Tree_val@V?$_Tmap_traits@VName@Imf@@UChannel@2@U?$less@VName@Imf@@@std@@V?$allocator@U?$pair@$$CBVName@Imf@@UChannel@2@@std@@@5@$0A@@std@@@std@@@2@ABVName@Imf@@@Z
	?hufFreeDecTable@?A0xc87c6bb7@Imf@@YAXPAUHufDec@12@@Z
	?_Lbound@?$_Tree@V?$_Tmap_traits@VName@Imf@@PAVAttribute@2@U?$less@VName@Imf@@@std@@V?$allocator@U?$pair@$$CBVName@Imf@@PAVAttribute@2@@std@@@5@$0A@@std@@@std@@IAEPAU_Node@?$_Tree_nod@V?$_Tmap_traits@VName@Imf@@PAVAttribute@2@U?$less@VName@Imf@@@std@@V?$allocator@U?$pair@$$CBVName@Imf@@PAVAttribute@2@@std@@@5@$0A@@std@@@2@ABVName@Imf@@@Z
	?writeTile@TiledRgbaOutputFile@Imf@@QAEXHHHH@Z
	?_Myval@?$_Tree_val@V?$_Tmap_traits@UTileCoord@?A0x39e5c904@Imf@@PAUBufferedTile@23@U?$less@UTileCoord@?A0x39e5c904@Imf@@@std@@V?$allocator@U?$pair@$$CBUTileCoord@?A0x39e5c904@Imf@@PAUBufferedTile@23@@std@@@6@$0A@@std@@@std@@SAAAU?$pair@$$CBUTileCoord@?A0x39e5c904@Imf@@PAUBufferedTile@23@@2@PAU_Node@?$_Tree_nod@V?$_Tmap_traits@UTileCoord@?A0x39e5c904@Imf@@PAUBufferedTile@23@U?$less@UTileCoord@?A0x39e5c904@Imf@@@std@@V?$allocator@U?$pair@$$CBUTileCoord@?A0x39e5c904@Imf@@PAUBufferedTile@23@@std@@@6@$0A@@std@@@2@@Z
	?makeNewAttribute@?$TypedAttribute@VTileDescription@Imf@@@Imf@@SAPAVAttribute@2@XZ
	?makeNewAttribute@?$TypedAttribute@V?$Matrix44@M@Imath@@@Imf@@SAPAVAttribute@2@XZ
	??$_Copy_impl@PAV?$basic_string@DU?$char_traits@D@std@@V?$allocator@D@2@@std@@PAV12@@std@@YAPAV?$basic_string@DU?$char_traits@D@std@@V?$allocator@D@2@@0@PAV10@00U_Nonscalar_ptr_iterator_tag@0@@Z
	??0?$_String_val@DV?$allocator@D@std@@@std@@QAE@ABV01@@Z
	?oct@?$_Iosb@H@std@@2W4_Fmtflags@12@B
	?YCAtoRGBA@RgbaYca@Imf@@YAXABV?$Vec3@M@Imath@@HQBURgba@2@QAU52@@Z
	??$?9V?$basic_string@DU?$char_traits@D@std@@V?$allocator@D@2@@std@@V01@@std@@YA_NABV?$allocator@V?$basic_string@DU?$char_traits@D@std@@V?$allocator@D@2@@std@@@0@0@Z
	??0InputFile@Imf@@QAE@QBDH@Z
	??0TimeCode@Imf@@QAE@ABV01@@Z
	ImfHeaderV2iAttribute
	??0?$TypedAttribute@VTimeCode@Imf@@@Imf@@QAE@XZ
	?erase@?$vector@PAULineBuffer@?A0xf57f9ec6@Imf@@V?$allocator@PAULineBuffer@?A0xf57f9ec6@Imf@@@std@@@std@@QAE?AV?$_Vector_iterator@V?$_Vector_val@PAULineBuffer@?A0xf57f9ec6@Imf@@V?$allocator@PAULineBuffer@?A0xf57f9ec6@Imf@@@std@@@std@@@2@V?$_Vector_const_iterator@V?$_Vector_val@PAULineBuffer@?A0xf57f9ec6@Imf@@V?$allocator@PAULineBuffer@?A0xf57f9ec6@Imf@@@std@@@std@@@2@0@Z
	??$_Val_type@PAPAULineBuffer@?A0xf57f9ec6@Imf@@@std@@YAPAPAULineBuffer@?A0xf57f9ec6@Imf@@PAPAU123@@Z
	?_Reset_back@?$basic_filebuf@DU?$char_traits@D@std@@@std@@AAEXXZ
	?rleUncompress@?A0x57fab1ba@Imf@@YAHHHQBCQAD@Z
	?_Compat@?$_Vector_const_iterator@V?$_Vector_val@PAUTileBuffer@?A0xf6fcebb6@Imf@@V?$allocator@PAUTileBuffer@?A0xf6fcebb6@Imf@@@std@@@std@@@std@@QBEXABV12@@Z
	??$_Cons_val@V?$allocator@V?$vector@V?$vector@_KV?$allocator@_K@std@@@std@@V?$allocator@V?$vector@_KV?$allocator@_K@std@@@std@@@2@@std@@@std@@V?$vector@V?$vector@_KV?$allocator@_K@std@@@std@@V?$allocator@V?$vector@_KV?$allocator@_K@std@@@std@@@2@@2@V32@@std@@YAXAAV?$allocator@V?$vector@V?$vector@_KV?$allocator@_K@std@@@std@@V?$allocator@V?$vector@_KV?$allocator@_K@std@@@std@@@2@@std@@@0@PAV?$vector@V?$vector@_KV?$allocator@_K@std@@@std@@V?$allocator@V?$vector@_KV?$allocator@_K@std@@@std@@@2@@0@$$QAV20@@Z
	?cast@?$TypedAttribute@M@Imf@@SAAAV12@AAVAttribute@2@@Z
	?typeName@?$TypedAttribute@V?$Matrix44@M@Imath@@@Imf@@UBEPBDXZ
	??0OutputFile@Imf@@QAE@QBDABVHeader@1@H@Z
	??$?8DD@std@@YA_NABV?$allocator@D@0@0@Z
	??0?$pair@V?$_Tree_iterator@V?$_Tree_val@V?$_Tmap_traits@UTileCoord@?A0x39e5c904@Imf@@PAUBufferedTile@23@U?$less@UTileCoord@?A0x39e5c904@Imf@@@std@@V?$allocator@U?$pair@$$CBUTileCoord@?A0x39e5c904@Imf@@PAUBufferedTile@23@@std@@@6@$0A@@std@@@std@@@std@@_N@std@@QAE@$$QAV?$_Tree_iterator@V?$_Tree_val@V?$_Tmap_traits@UTileCoord@?A0x39e5c904@Imf@@PAUBufferedTile@23@U?$less@UTileCoord@?A0x39e5c904@Imf@@@std@@V?$allocator@U?$pair@$$CBUTileCoord@?A0x39e5c904@Imf@@PAUBufferedTile@23@@std@@@6@$0A@@std@@@std@@@1@$$QA_N@Z
	??$findTypedAttribute@V?$TypedAttribute@V?$vector@V?$basic_string@DU?$char_traits@D@std@@V?$allocator@D@2@@std@@V?$allocator@V?$basic_string@DU?$char_traits@D@std@@V?$allocator@D@2@@std@@@2@@std@@@Imf@@@Header@Imf@@QBEPBV?$TypedAttribute@V?$vector@V?$basic_string@DU?$char_traits@D@std@@V?$allocator@D@2@@std@@V?$allocator@V?$basic_string@DU?$char_traits@D@std@@V?$allocator@D@2@@std@@@2@@std@@@1@QBD@Z
	??0?$TypedAttribute@VRational@Imf@@@Imf@@QAE@XZ
	?end@?$vector@PAUTileBuffer@?A0x39e5c904@Imf@@V?$allocator@PAUTileBuffer@?A0x39e5c904@Imf@@@std@@@std@@QAE?AV?$_Vector_iterator@V?$_Vector_val@PAUTileBuffer@?A0x39e5c904@Imf@@V?$allocator@PAUTileBuffer@?A0x39e5c904@Imf@@@std@@@std@@@2@XZ
	??1?$pair@V?$_Tree_iterator@V?$_Tree_val@V?$_Tmap_traits@PBDP6APAVAttribute@Imf@@XZUNameCompare@?A0x0779e1ad@2@V?$allocator@U?$pair@QBDP6APAVAttribute@Imf@@XZ@std@@@std@@$0A@@std@@@std@@@std@@V12@@std@@QAE@XZ
	?calculateBytesPerPixel@Imf@@YAIABVHeader@1@@Z
	??0?$_Iterator012@Urandom_access_iterator_tag@std@@V?$basic_string@DU?$char_traits@D@std@@V?$allocator@D@2@@2@HPBV32@ABV32@U_Iterator_base12@2@@std@@QAE@XZ
	??D?$_Tree_unchecked_const_iterator@V?$_Tree_val@V?$_Tmap_traits@VName@Imf@@UChannel@2@U?$less@VName@Imf@@@std@@V?$allocator@U?$pair@$$CBVName@Imf@@UChannel@2@@std@@@5@$0A@@std@@@std@@U_Iterator_base12@2@@std@@QBEABU?$pair@$$CBVName@Imf@@UChannel@2@@1@XZ
	??$_Ucopy@V?$_Vector_const_iterator@V?$_Vector_val@V?$basic_string@DU?$char_traits@D@std@@V?$allocator@D@2@@std@@V?$allocator@V?$basic_string@DU?$char_traits@D@std@@V?$allocator@D@2@@std@@@2@@std@@@std@@@?$vector@V?$basic_string@DU?$char_traits@D@std@@V?$allocator@D@2@@std@@V?$allocator@V?$basic_string@DU?$char_traits@D@std@@V?$allocator@D@2@@std@@@2@@std@@IAEPAV?$basic_string@DU?$char_traits@D@std@@V?$allocator@D@2@@1@V?$_Vector_const_iterator@V?$_Vector_val@V?$basic_string@DU?$char_traits@D@std@@V?$allocator@D@2@@std@@V?$allocator@V?$basic_string@DU?$char_traits@D@std@@V?$allocator@D@2@@std@@@2@@std@@@1@0PAV21@@Z
	?saturation@?A0x950c9801@RgbaYca@Imf@@YAMABURgba@3@@Z
	??$_Val_type@PAUOutSliceInfo@?A0xf57f9ec6@Imf@@@std@@YAPAUOutSliceInfo@?A0xf57f9ec6@Imf@@PAU123@@Z
	?setFrameBuffer@FromYca@RgbaInputFile@Imf@@QAEXPAURgba@3@IIABV?$basic_string@DU?$char_traits@D@std@@V?$allocator@D@2@@std@@@Z
	?setPrefix@KeyCode@Imf@@QAEXH@Z
	?_Make_iter@?$vector@UOutSliceInfo@?A0xf57f9ec6@Imf@@V?$allocator@UOutSliceInfo@?A0xf57f9ec6@Imf@@@std@@@std@@QBE?AV?$_Vector_iterator@V?$_Vector_val@UOutSliceInfo@?A0xf57f9ec6@Imf@@V?$allocator@UOutSliceInfo@?A0xf57f9ec6@Imf@@@std@@@std@@@2@V?$_Vector_const_iterator@V?$_Vector_val@UOutSliceInfo@?A0xf57f9ec6@Imf@@V?$allocator@UOutSliceInfo@?A0xf57f9ec6@Imf@@@std@@@std@@@2@@Z
	?typeName@?$TypedAttribute@V?$Vec3@H@Imath@@@Imf@@UBEPBDXZ
	??0?$map@UTileCoord@?A0x39e5c904@Imf@@PAUBufferedTile@23@U?$less@UTileCoord@?A0x39e5c904@Imf@@@std@@V?$allocator@U?$pair@$$CBUTileCoord@?A0x39e5c904@Imf@@PAUBufferedTile@23@@std@@@6@@std@@QAE@XZ
	?cast@?$TypedAttribute@V?$Box@V?$Vec2@M@Imath@@@Imath@@@Imf@@SAABV12@ABVAttribute@2@@Z
	?_Getpnext@_Iterator_base12@std@@QAEPAPAU12@XZ
	?_Parent@?$_Tree_val@V?$_Tmap_traits@VName@Imf@@USlice@2@U?$less@VName@Imf@@@std@@V?$allocator@U?$pair@$$CBVName@Imf@@USlice@2@@std@@@5@$0A@@std@@@std@@SAAAPAU_Node@?$_Tree_nod@V?$_Tmap_traits@VName@Imf@@USlice@2@U?$less@VName@Imf@@@std@@V?$allocator@U?$pair@$$CBVName@Imf@@USlice@2@@std@@@5@$0A@@std@@@2@PAU342@@Z
	?_Make_iter@?$vector@IV?$allocator@I@std@@@std@@QBE?AV?$_Vector_iterator@V?$_Vector_val@IV?$allocator@I@std@@@std@@@2@V?$_Vector_const_iterator@V?$_Vector_val@IV?$allocator@I@std@@@std@@@2@@Z
	??0?$_Tmap_traits@VName@Imf@@UChannel@2@U?$less@VName@Imf@@@std@@V?$allocator@U?$pair@$$CBVName@Imf@@UChannel@2@@std@@@5@$0A@@std@@QAE@U?$less@VName@Imf@@@1@@Z
	??0?$TypedAttribute@VPreviewImage@Imf@@@Imf@@QAE@ABVPreviewImage@1@@Z
	?value@?$TypedAttribute@H@Imf@@QAEAAHXZ
	??$?8H@?$Vec2@H@Imath@@QBE_NABV01@@Z
	??$_Umove@PAI@?$vector@IV?$allocator@I@std@@@std@@IAEPAIPAI00@Z
	??$typedAttribute@V?$TypedAttribute@UChromaticities@Imf@@@Imf@@@Header@Imf@@QBEABV?$TypedAttribute@UChromaticities@Imf@@@1@QBD@Z
	?capacity@?$vector@PAULineBuffer@?A0xf57f9ec6@Imf@@V?$allocator@PAULineBuffer@?A0xf57f9ec6@Imf@@@std@@@std@@QBEIXZ
	?fieldPhase@TimeCode@Imf@@QBE_NXZ
	??0?$TypedAttribute@W4Envmap@Imf@@@Imf@@QAE@ABW4Envmap@1@@Z
	??0?$_Tree_iterator@V?$_Tree_val@V?$_Tmap_traits@VName@Imf@@PAVAttribute@2@U?$less@VName@Imf@@@std@@V?$allocator@U?$pair@$$CBVName@Imf@@PAVAttribute@2@@std@@@5@$0A@@std@@@std@@@std@@QAE@PAU_Node@?$_Tree_nod@V?$_Tmap_traits@VName@Imf@@PAVAttribute@2@U?$less@VName@Imf@@@std@@V?$allocator@U?$pair@$$CBVName@Imf@@PAVAttribute@2@@std@@@5@$0A@@std@@@1@PBV?$_Tree_val@V?$_Tmap_traits@VName@Imf@@PAVAttribute@2@U?$less@VName@Imf@@@std@@V?$allocator@U?$pair@$$CBVName@Imf@@PAVAttribute@2@@std@@@5@$0A@@std@@@1@@Z
	?pack@?A0xb36f0740@Imf@@YAHQBGQAE_N2@Z
	?userData@TimeCode@Imf@@QBEIXZ
	?_Buy@?$vector@UOutSliceInfo@?A0xf57f9ec6@Imf@@V?$allocator@UOutSliceInfo@?A0xf57f9ec6@Imf@@@std@@@std@@IAE_NI@Z
	__CTA6?AVIoExc@Iex@@
	??$_Val_type@PAPAUTileBuffer@?A0xf6fcebb6@Imf@@@std@@YAPAPAUTileBuffer@?A0xf6fcebb6@Imf@@PAPAU123@@Z
	??1?$_Iterator012@Urandom_access_iterator_tag@std@@V?$vector@V?$vector@_KV?$allocator@_K@std@@@std@@V?$allocator@V?$vector@_KV?$allocator@_K@std@@@std@@@2@@2@HPBV32@ABV32@U_Iterator_base12@2@@std@@QAE@XZ
	ImfApplyLut
	?initialize@InputFile@Imf@@AAEXXZ
	?adoptedNeutral@Imf@@YAAAV?$Vec2@M@Imath@@AAVHeader@1@@Z
	??0?$_Iterator012@Urandom_access_iterator_tag@std@@UTInSliceInfo@?A0xf6fcebb6@Imf@@HPBU345@ABU345@U_Iterator_base12@2@@std@@QAE@XZ
	?value@?$TypedAttribute@M@Imf@@QBEABMXZ
	??$_Copy_impl@PAV?$basic_string@DU?$char_traits@D@std@@V?$allocator@D@2@@std@@PAV12@@std@@YAPAV?$basic_string@DU?$char_traits@D@std@@V?$allocator@D@2@@0@PAV10@00@Z
	??8?$_Tree_const_iterator@V?$_Tree_val@V?$_Tmap_traits@UTileCoord@?A0x39e5c904@Imf@@PAUBufferedTile@23@U?$less@UTileCoord@?A0x39e5c904@Imf@@@std@@V?$allocator@U?$pair@$$CBUTileCoord@?A0x39e5c904@Imf@@PAUBufferedTile@23@@std@@@6@$0A@@std@@@std@@@std@@QBE_NABV01@@Z
	?isEmpty@TileOffsets@Imf@@QBE_NXZ
	?readUInt@?A0xc87c6bb7@Imf@@YAIQBD@Z
	??D?$_String_iterator@DU?$char_traits@D@std@@V?$allocator@D@2@@std@@QBEAADXZ
	?erase@?$_Tree@V?$_Tmap_traits@VName@Imf@@UChannel@2@U?$less@VName@Imf@@@std@@V?$allocator@U?$pair@$$CBVName@Imf@@UChannel@2@@std@@@5@$0A@@std@@@std@@QAE?AV?$_Tree_iterator@V?$_Tree_val@V?$_Tmap_traits@VName@Imf@@UChannel@2@U?$less@VName@Imf@@@std@@V?$allocator@U?$pair@$$CBVName@Imf@@UChannel@2@@std@@@5@$0A@@std@@@std@@@2@V?$_Tree_const_iterator@V?$_Tree_val@V?$_Tmap_traits@VName@Imf@@UChannel@2@U?$less@VName@Imf@@@std@@V?$allocator@U?$pair@$$CBVName@Imf@@UChannel@2@@std@@@5@$0A@@std@@@std@@@2@@Z
	?frameBuffer@OutputFile@Imf@@QBEABVFrameBuffer@2@XZ
	??$_Debug_range2@PAV?$vector@_KV?$allocator@_K@std@@@std@@@std@@YAXPAV?$vector@_KV?$allocator@_K@std@@@0@0PB_WIUrandom_access_iterator_tag@0@@Z
	??A?$vector@V?$basic_string@DU?$char_traits@D@std@@V?$allocator@D@2@@std@@V?$allocator@V?$basic_string@DU?$char_traits@D@std@@V?$allocator@D@2@@std@@@2@@std@@QBEABV?$basic_string@DU?$char_traits@D@std@@V?$allocator@D@2@@1@I@Z
	__TI6?AVInputExc@Iex@@
	??DName@Imf@@QBEPBDXZ
	?_Inside@?$vector@_KV?$allocator@_K@std@@@std@@IBE_NPB_K@Z
	ImfOpenOutputFile
	?_Rmost@?$_Tree@V?$_Tmap_traits@UTileCoord@?A0x39e5c904@Imf@@PAUBufferedTile@23@U?$less@UTileCoord@?A0x39e5c904@Imf@@@std@@V?$allocator@U?$pair@$$CBUTileCoord@?A0x39e5c904@Imf@@PAUBufferedTile@23@@std@@@6@$0A@@std@@@std@@IBEAAPAU_Node@?$_Tree_nod@V?$_Tmap_traits@UTileCoord@?A0x39e5c904@Imf@@PAUBufferedTile@23@U?$less@UTileCoord@?A0x39e5c904@Imf@@@std@@V?$allocator@U?$pair@$$CBUTileCoord@?A0x39e5c904@Imf@@PAUBufferedTile@23@@std@@@6@$0A@@std@@@2@XZ
	??M?$_Vector_const_iterator@V?$_Vector_val@V?$vector@_KV?$allocator@_K@std@@@std@@V?$allocator@V?$vector@_KV?$allocator@_K@std@@@std@@@2@@std@@@std@@QBE_NABV01@@Z
	?baseTypeMax@?$Vec2@M@Imath@@SAMXZ
	??$_Uninit_move@PAUTOutSliceInfo@?A0x39e5c904@Imf@@PAU123@V?$allocator@UTOutSliceInfo@?A0x39e5c904@Imf@@@std@@U123@@std@@YAPAUTOutSliceInfo@?A0x39e5c904@Imf@@PAU123@00AAV?$allocator@UTOutSliceInfo@?A0x39e5c904@Imf@@@0@0U_Nonscalar_ptr_iterator_tag@0@@Z
	?framesPerSecondAttribute@Imf@@YAABV?$TypedAttribute@VRational@Imf@@@1@ABVHeader@1@@Z
	?typeName@?$TypedAttribute@V?$vector@V?$basic_string@DU?$char_traits@D@std@@V?$allocator@D@2@@std@@V?$allocator@V?$basic_string@DU?$char_traits@D@std@@V?$allocator@D@2@@std@@@2@@std@@@Imf@@UBEPBDXZ
	?clear@?$_Tree@V?$_Tmap_traits@VName@Imf@@UChannel@2@U?$less@VName@Imf@@@std@@V?$allocator@U?$pair@$$CBVName@Imf@@UChannel@2@@std@@@5@$0A@@std@@@std@@QAEXXZ
	??C?$_Tree_unchecked_const_iterator@V?$_Tree_val@V?$_Tmap_traits@PBDP6APAVAttribute@Imf@@XZUNameCompare@?A0x0779e1ad@2@V?$allocator@U?$pair@QBDP6APAVAttribute@Imf@@XZ@std@@@std@@$0A@@std@@@std@@U_Iterator_base12@2@@std@@QBEPBU?$pair@QBDP6APAVAttribute@Imf@@XZ@1@XZ
	?dataWindow@Header@Imf@@QBEABV?$Box@V?$Vec2@H@Imath@@@Imath@@XZ
	?_Buy@?$vector@V?$vector@_KV?$allocator@_K@std@@@std@@V?$allocator@V?$vector@_KV?$allocator@_K@std@@@std@@@2@@std@@IAE_NI@Z
	??$_Distance2@V?$_Tree_iterator@V?$_Tree_val@V?$_Tmap_traits@PBDP6APAVAttribute@Imf@@XZUNameCompare@?A0x0779e1ad@2@V?$allocator@U?$pair@QBDP6APAVAttribute@Imf@@XZ@std@@@std@@$0A@@std@@@std@@@std@@I@std@@YAXV?$_Tree_iterator@V?$_Tree_val@V?$_Tmap_traits@PBDP6APAVAttribute@Imf@@XZUNameCompare@?A0x0779e1ad@2@V?$allocator@U?$pair@QBDP6APAVAttribute@Imf@@XZ@std@@@std@@$0A@@std@@@std@@@0@0AAIUbidirectional_iterator_tag@0@@Z
	??$_Move@PAPAUTileBuffer@?A0x39e5c904@Imf@@PAPAU123@@std@@YAPAPAUTileBuffer@?A0x39e5c904@Imf@@PAPAU123@00U_Scalar_ptr_iterator_tag@0@@Z
	?readFrom@Header@Imf@@QAEXAAVIStream@2@AAH@Z
	??0?$allocator@V?$basic_string@DU?$char_traits@D@std@@V?$allocator@D@2@@std@@@std@@QAE@ABV01@@Z
	?timeCode@Imf@@YAABVTimeCode@1@ABVHeader@1@@Z
	??1?$pair@V?$_Tree_iterator@V?$_Tree_val@V?$_Tmap_traits@VName@Imf@@UChannel@2@U?$less@VName@Imf@@@std@@V?$allocator@U?$pair@$$CBVName@Imf@@UChannel@2@@std@@@5@$0A@@std@@@std@@@std@@_N@std@@QAE@XZ
	??0?$TypedAttribute@V?$vector@V?$basic_string@DU?$char_traits@D@std@@V?$allocator@D@2@@std@@V?$allocator@V?$basic_string@DU?$char_traits@D@std@@V?$allocator@D@2@@std@@@2@@std@@@Imf@@QAE@XZ
	??0?$basic_string@DU?$char_traits@D@std@@V?$allocator@D@2@@std@@QAE@PBD@Z
	?_Getfacet@locale@std@@QBEPBVfacet@12@I@Z
	??0?$_Iterator012@Urandom_access_iterator_tag@std@@PAULineBuffer@?A0xcbf8ace6@Imf@@HPBQAU345@ABQAU345@U_Iterator_base12@2@@std@@QAE@ABU01@@Z
	?fileName@TiledInputFile@Imf@@QBEPBDXZ
	?erase@?$vector@V?$vector@V?$vector@_KV?$allocator@_K@std@@@std@@V?$allocator@V?$vector@_KV?$allocator@_K@std@@@std@@@2@@std@@V?$allocator@V?$vector@V?$vector@_KV?$allocator@_K@std@@@std@@V?$allocator@V?$vector@_KV?$allocator@_K@std@@@std@@@2@@std@@@2@@std@@QAE?AV?$_Vector_iterator@V?$_Vector_val@V?$vector@V?$vector@_KV?$allocator@_K@std@@@std@@V?$allocator@V?$vector@_KV?$allocator@_K@std@@@std@@@2@@std@@V?$allocator@V?$vector@V?$vector@_KV?$allocator@_K@std@@@std@@V?$allocator@V?$vector@_KV?$allocator@_K@std@@@std@@@2@@std@@@2@@std@@@2@V?$_Vector_const_iterator@V?$_Vector_val@V?$vector@V?$vector@_KV?$allocator@_K@std@@@std@@V?$allocator@V?$vector@_KV?$allocator@_K@std@@@std@@@2@@std@@V?$allocator@V?$vector@V?$vector@_KV?$allocator@_K@std@@@std@@V?$allocator@V?$vector@_KV?$allocator@_K@std@@@std@@@2@@std@@@2@@std@@@2@0@Z
	??$?9V?$vector@_KV?$allocator@_K@std@@@std@@V01@@std@@YA_NABV?$allocator@V?$vector@_KV?$allocator@_K@std@@@std@@@0@0@Z
	?rawTileData@TiledInputFile@Imf@@QAEXAAH000AAPBD0@Z
	?size@?$vector@UOutSliceInfo@?A0xf57f9ec6@Imf@@V?$allocator@UOutSliceInfo@?A0xf57f9ec6@Imf@@@std@@@std@@QBEIXZ
	??$construct@AAUOutSliceInfo@?A0xf57f9ec6@Imf@@@?$allocator@UOutSliceInfo@?A0xf57f9ec6@Imf@@@std@@QAEXPAUOutSliceInfo@?A0xf57f9ec6@Imf@@AAU234@@Z
	?deallocate@?$allocator@V?$basic_string@DU?$char_traits@D@std@@V?$allocator@D@2@@std@@@std@@QAEXPAV?$basic_string@DU?$char_traits@D@std@@V?$allocator@D@2@@2@I@Z
	ImfHeaderSetIntAttribute
	??$?0$$CBVName@Imf@@USlice@1@@?$pair@$$CBVName@Imf@@USlice@2@@std@@QAE@AAU01@@Z
	??4?$vector@UTOutSliceInfo@?A0x39e5c904@Imf@@V?$allocator@UTOutSliceInfo@?A0x39e5c904@Imf@@@std@@@std@@QAEAAV01@ABV01@@Z
	?seekpos@?$basic_stringbuf@DU?$char_traits@D@std@@V?$allocator@D@2@@std@@MAE?AV?$fpos@H@2@V32@H@Z
	??0?$basic_stringstream@DU?$char_traits@D@std@@V?$allocator@D@2@@std@@QAE@H@Z
	?skipws@?$_Iosb@H@std@@2W4_Fmtflags@12@B
	??$_Ptr_cat@V?$_Vector_const_iterator@V?$_Vector_val@V?$vector@_KV?$allocator@_K@std@@@std@@V?$allocator@V?$vector@_KV?$allocator@_K@std@@@std@@@2@@std@@@std@@PAV?$vector@_KV?$allocator@_K@std@@@2@@std@@YA?AU_Nonscalar_ptr_iterator_tag@0@AAV?$_Vector_const_iterator@V?$_Vector_val@V?$vector@_KV?$allocator@_K@std@@@std@@V?$allocator@V?$vector@_KV?$allocator@_K@std@@@std@@@2@@std@@@0@AAPAV?$vector@_KV?$allocator@_K@std@@@0@@Z
	??$_Debug_range@PAV?$basic_string@DU?$char_traits@D@std@@V?$allocator@D@2@@std@@@std@@YAXPAV?$basic_string@DU?$char_traits@D@std@@V?$allocator@D@2@@0@0PB_WI@Z
	?compress@B44Compressor@Imf@@UAEHPBDHHAAPBD@Z
	??$_Uninit_def_fill_n@PAUTileBuffer@?A0x39e5c904@Imf@@IPAU123@PAU123@@std@@YAXPAPAUTileBuffer@?A0x39e5c904@Imf@@IPBQAU123@AAV?$allocator@PAUTileBuffer@?A0x39e5c904@Imf@@@0@0U_Scalar_ptr_iterator_tag@0@@Z
	??$findTypedAttribute@V?$TypedAttribute@M@Imf@@@Header@Imf@@QBEPBV?$TypedAttribute@M@1@QBD@Z
	??0?$TypedAttribute@M@Imf@@QAE@XZ
	?setbuf@?$basic_filebuf@DU?$char_traits@D@std@@@std@@MAEPAV?$basic_streambuf@DU?$char_traits@D@std@@@2@PAD_J@Z
	??1ConstIterator@ChannelList@Imf@@QAE@XZ
	ImfHeaderFloatAttribute
	??$_Debug_range@PAPAULineBuffer@?A0xcbf8ace6@Imf@@@std@@YAXPAPAULineBuffer@?A0xcbf8ace6@Imf@@0PB_WI@Z
	?_Lmost@?$_Tree@V?$_Tmap_traits@VName@Imf@@PAVAttribute@2@U?$less@VName@Imf@@@std@@V?$allocator@U?$pair@$$CBVName@Imf@@PAVAttribute@2@@std@@@5@$0A@@std@@@std@@IBEAAPAU_Node@?$_Tree_nod@V?$_Tmap_traits@VName@Imf@@PAVAttribute@2@U?$less@VName@Imf@@@std@@V?$allocator@U?$pair@$$CBVName@Imf@@PAVAttribute@2@@std@@@5@$0A@@std@@@2@XZ
	??$insert@U?$pair@QBDP6APAVAttribute@Imf@@XZ@std@@@?$_Tree@V?$_Tmap_traits@PBDP6APAVAttribute@Imf@@XZUNameCompare@?A0x0779e1ad@2@V?$allocator@U?$pair@QBDP6APAVAttribute@Imf@@XZ@std@@@std@@$0A@@std@@@std@@QAE?AU?$pair@V?$_Tree_iterator@V?$_Tree_val@V?$_Tmap_traits@PBDP6APAVAttribute@Imf@@XZUNameCompare@?A0x0779e1ad@2@V?$allocator@U?$pair@QBDP6APAVAttribute@Imf@@XZ@std@@@std@@$0A@@std@@@std@@@std@@_N@1@$$QAU?$pair@QBDP6APAVAttribute@Imf@@XZ@1@@Z
	?__LINE__Var@?1??uncompress@Pxr24Compressor@Imf@@AAEHPBDHV?$Box@V?$Vec2@H@Imath@@@Imath@@AAPBD@Z@4JA
	??1?$_Tree_iterator@V?$_Tree_val@V?$_Tmap_traits@VName@Imf@@UChannel@2@U?$less@VName@Imf@@@std@@V?$allocator@U?$pair@$$CBVName@Imf@@UChannel@2@@std@@@5@$0A@@std@@@std@@@std@@QAE@XZ
	??4?$_Tree_const_iterator@V?$_Tree_val@V?$_Tmap_traits@UTileCoord@?A0x39e5c904@Imf@@PAUBufferedTile@23@U?$less@UTileCoord@?A0x39e5c904@Imf@@@std@@V?$allocator@U?$pair@$$CBUTileCoord@?A0x39e5c904@Imf@@PAUBufferedTile@23@@std@@@6@$0A@@std@@@std@@@std@@QAEAAV01@ABV01@@Z
	?to_int_type@?$char_traits@D@std@@SAHABD@Z
	?copy@?$TypedAttribute@V?$Matrix44@N@Imath@@@Imf@@UBEPAVAttribute@2@XZ
	?readTiles@TiledRgbaInputFile@Imf@@QAEXHHHHHH@Z
	??$findTypedAttribute@V?$TypedAttribute@V?$Vec2@M@Imath@@@Imf@@@Header@Imf@@QBEPBV?$TypedAttribute@V?$Vec2@M@Imath@@@1@QBD@Z
	??1?$TypedAttribute@V?$Vec3@H@Imath@@@Imf@@UAE@XZ
	?value@?$TypedAttribute@V?$Matrix33@M@Imath@@@Imf@@QBEABV?$Matrix33@M@Imath@@XZ
	??1?$_Tree_unchecked_const_iterator@V?$_Tree_val@V?$_Tmap_traits@UTileCoord@?A0x39e5c904@Imf@@PAUBufferedTile@23@U?$less@UTileCoord@?A0x39e5c904@Imf@@@std@@V?$allocator@U?$pair@$$CBUTileCoord@?A0x39e5c904@Imf@@PAUBufferedTile@23@@std@@@6@$0A@@std@@@std@@U_Iterator_base12@2@@std@@QAE@XZ
	??B?$AutoArray@E$0CAAA@@Imf@@QAEPAEXZ
	??1?$_Pair_base@V?$_Tree_iterator@V?$_Tree_val@V?$_Tmap_traits@VName@Imf@@UChannel@2@U?$less@VName@Imf@@@std@@V?$allocator@U?$pair@$$CBVName@Imf@@UChannel@2@@std@@@5@$0A@@std@@@std@@@std@@_N@std@@QAE@XZ
	?dataWindowForTile@TiledOutputFile@Imf@@QBE?AV?$Box@V?$Vec2@H@Imath@@@Imath@@HHHH@Z
	??4?$Vec2@M@Imath@@QAEABV01@ABV01@@Z
	?readLineOffsets@?A0xcbf8ace6@Imf@@YAXAAVIStream@2@W4LineOrder@2@AAV?$vector@_KV?$allocator@_K@std@@@std@@AA_N@Z
	?scientific@?$_Iosb@H@std@@2W4_Fmtflags@12@B
	ImfTiledOutputWriteTile
	?destroy@?$allocator@_K@std@@QAEXPA_K@Z
	?find@Header@Imf@@QBE?AVConstIterator@12@ABV?$basic_string@DU?$char_traits@D@std@@V?$allocator@D@2@@std@@@Z
	??E?$_Tree_const_iterator@V?$_Tree_val@V?$_Tmap_traits@VName@Imf@@USlice@2@U?$less@VName@Imf@@@std@@V?$allocator@U?$pair@$$CBVName@Imf@@USlice@2@@std@@@5@$0A@@std@@@std@@@std@@QAEAAV01@XZ
	??0?$allocator@V?$vector@_KV?$allocator@_K@std@@@std@@@std@@QAE@XZ
	??MTileCoord@?A0x39e5c904@Imf@@QBE_NABU012@@Z
	?setFilmMfcCode@KeyCode@Imf@@QAEXH@Z
	?max_size@?$_Tree@V?$_Tmap_traits@UTileCoord@?A0x39e5c904@Imf@@PAUBufferedTile@23@U?$less@UTileCoord@?A0x39e5c904@Imf@@@std@@V?$allocator@U?$pair@$$CBUTileCoord@?A0x39e5c904@Imf@@PAUBufferedTile@23@@std@@@6@$0A@@std@@@std@@QBEIXZ
	??1?$_Vector_iterator@V?$_Vector_val@V?$vector@V?$vector@_KV?$allocator@_K@std@@@std@@V?$allocator@V?$vector@_KV?$allocator@_K@std@@@std@@@2@@std@@V?$allocator@V?$vector@V?$vector@_KV?$allocator@_K@std@@@std@@V?$allocator@V?$vector@_KV?$allocator@_K@std@@@std@@@2@@std@@@2@@std@@@std@@QAE@XZ
	?_Mynode@?$_Tree_unchecked_const_iterator@V?$_Tree_val@V?$_Tmap_traits@VName@Imf@@USlice@2@U?$less@VName@Imf@@@std@@V?$allocator@U?$pair@$$CBVName@Imf@@USlice@2@@std@@@5@$0A@@std@@@std@@U_Iterator_base12@2@@std@@QBEPAU_Node@?$_Tree_nod@V?$_Tmap_traits@VName@Imf@@USlice@2@U?$less@VName@Imf@@@std@@V?$allocator@U?$pair@$$CBVName@Imf@@USlice@2@@std@@@5@$0A@@std@@@2@XZ
	?modp@Imath@@YAHHH@Z
	?value@?$TypedAttribute@V?$Vec3@H@Imath@@@Imf@@QAEAAV?$Vec3@H@Imath@@XZ
	?writeValueTo@?$TypedAttribute@VRational@Imf@@@Imf@@UBEXAAVOStream@2@H@Z
	??$_Umove@PAV?$vector@_KV?$allocator@_K@std@@@std@@@?$vector@V?$vector@_KV?$allocator@_K@std@@@std@@V?$allocator@V?$vector@_KV?$allocator@_K@std@@@std@@@2@@std@@IAEPAV?$vector@_KV?$allocator@_K@std@@@1@PAV21@00@Z
	??$_Cons_val@V?$allocator@UTOutSliceInfo@?A0x39e5c904@Imf@@@std@@UTOutSliceInfo@?A0x39e5c904@Imf@@U345@@std@@YAXAAV?$allocator@UTOutSliceInfo@?A0x39e5c904@Imf@@@0@PAUTOutSliceInfo@?A0x39e5c904@Imf@@$$QAU234@@Z
	?_Linsert@?$_Tree@V?$_Tmap_traits@VName@Imf@@PAVAttribute@2@U?$less@VName@Imf@@@std@@V?$allocator@U?$pair@$$CBVName@Imf@@PAVAttribute@2@@std@@@5@$0A@@std@@@std@@QAE?AU?$pair@V?$_Tree_iterator@V?$_Tree_val@V?$_Tmap_traits@VName@Imf@@PAVAttribute@2@U?$less@VName@Imf@@@std@@V?$allocator@U?$pair@$$CBVName@Imf@@PAVAttribute@2@@std@@@5@$0A@@std@@@std@@@std@@_N@2@PAU_Node@?$_Tree_nod@V?$_Tmap_traits@VName@Imf@@PAVAttribute@2@U?$less@VName@Imf@@@std@@V?$allocator@U?$pair@$$CBVName@Imf@@PAVAttribute@2@@std@@@5@$0A@@std@@@2@_N@Z
	?hufCanonicalCodeTable@?A0xc87c6bb7@Imf@@YAXQA_K@Z
	??$_Copy_impl@PA_KPA_K@std@@YAPA_KPA_K00@Z
	??$_Move@PAV?$basic_string@DU?$char_traits@D@std@@V?$allocator@D@2@@std@@PAV12@@std@@YAPAV?$basic_string@DU?$char_traits@D@std@@V?$allocator@D@2@@0@PAV10@00U_Nonscalar_ptr_iterator_tag@0@@Z
	?outfile@?A0xa29ce62f@@YAPBVTiledRgbaOutputFile@Imf@@PBUImfTiledOutputFile@@@Z
	??$_Destroy@U?$pair@$$CBVName@Imf@@USlice@2@@std@@@std@@YAXPAU?$pair@$$CBVName@Imf@@USlice@2@@0@@Z
	??$?0AAV?$_Tree_const_iterator@V?$_Tree_val@V?$_Tset_traits@V?$basic_string@DU?$char_traits@D@std@@V?$allocator@D@2@@std@@U?$less@V?$basic_string@DU?$char_traits@D@std@@V?$allocator@D@2@@std@@@2@V?$allocator@V?$basic_string@DU?$char_traits@D@std@@V?$allocator@D@2@@std@@@2@$0A@@std@@@std@@@std@@_N@?$_Pair_base@V?$_Tree_const_iterator@V?$_Tree_val@V?$_Tset_traits@V?$basic_string@DU?$char_traits@D@std@@V?$allocator@D@2@@std@@U?$less@V?$basic_string@DU?$char_traits@D@std@@V?$allocator@D@2@@std@@@2@V?$allocator@V?$basic_string@DU?$char_traits@D@std@@V?$allocator@D@2@@std@@@2@$0A@@std@@@std@@@std@@_N@std@@QAE@AAV?$_Tree_const_iterator@V?$_Tree_val@V?$_Tset_traits@V?$basic_string@DU?$char_traits@D@std@@V?$allocator@D@2@@std@@U?$less@V?$basic_string@DU?$char_traits@D@std@@V?$allocator@D@2@@std@@@2@V?$allocator@V?$basic_string@DU?$char_traits@D@std@@V?$allocator@D@2@@std@@@2@$0A@@std@@@std@@@1@$$QA_N@Z
	?setErrorMessage@?A0xa29ce62f@@YAXABVexception@std@@@Z
	??$min@M@std@@YAABMABM0@Z
	?allocate@?$allocator@PAULineBuffer@?A0xcbf8ace6@Imf@@@std@@QAEPAPAULineBuffer@?A0xcbf8ace6@Imf@@I@Z
	?levelRoundingMode@TiledOutputFile@Imf@@QBE?AW4LevelRoundingMode@2@XZ
	??0?$allocator@PAUTileBuffer@?A0x39e5c904@Imf@@@std@@QAE@XZ
	??0B44Compressor@Imf@@QAE@ABVHeader@1@II_N@Z
	??1?$_Vector_iterator@V?$_Vector_val@IV?$allocator@I@std@@@std@@@std@@QAE@XZ
	?readTile@TiledInputFile@Imf@@QAEXHHHH@Z
	?lineOrder@Header@Imf@@QBEABW4LineOrder@2@XZ
	?_Root@?$_Tree@V?$_Tmap_traits@VName@Imf@@PAVAttribute@2@U?$less@VName@Imf@@@std@@V?$allocator@U?$pair@$$CBVName@Imf@@PAVAttribute@2@@std@@@5@$0A@@std@@@std@@IBEAAPAU_Node@?$_Tree_nod@V?$_Tmap_traits@VName@Imf@@PAVAttribute@2@U?$less@VName@Imf@@@std@@V?$allocator@U?$pair@$$CBVName@Imf@@PAVAttribute@2@@std@@@5@$0A@@std@@@2@XZ
	?copy@?$TypedAttribute@W4Envmap@Imf@@@Imf@@UBEPAVAttribute@2@XZ
	??RTileOffsets@Imf@@QAEAA_KHHH@Z
	?cast@?$TypedAttribute@V?$Vec3@N@Imath@@@Imf@@SAABV12@ABVAttribute@2@@Z
	??0?$_Vector_val@UOutSliceInfo@?A0xf57f9ec6@Imf@@V?$allocator@UOutSliceInfo@?A0xf57f9ec6@Imf@@@std@@@std@@QAE@V?$allocator@UOutSliceInfo@?A0xf57f9ec6@Imf@@@1@@Z
	??9Imf@@YA_NABVConstIterator@ChannelList@0@0@Z
	?outfile@?A0xa29ce62f@@YAPAVTiledRgbaOutputFile@Imf@@PAUImfTiledOutputFile@@@Z
	?pixelAspectRatio@Header@Imf@@QAEAAMXZ
	?displayWindow@TiledRgbaOutputFile@Imf@@QBEABV?$Box@V?$Vec2@H@Imath@@@Imath@@XZ
	??0?$_Tree_iterator@V?$_Tree_val@V?$_Tmap_traits@VName@Imf@@USlice@2@U?$less@VName@Imf@@@std@@V?$allocator@U?$pair@$$CBVName@Imf@@USlice@2@@std@@@5@$0A@@std@@@std@@@std@@QAE@ABV01@@Z
	??E?$_Tree_iterator@V?$_Tree_val@V?$_Tmap_traits@VName@Imf@@USlice@2@U?$less@VName@Imf@@@std@@V?$allocator@U?$pair@$$CBVName@Imf@@USlice@2@@std@@@5@$0A@@std@@@std@@@std@@QAEAAV01@XZ
	?failbit@?$_Iosb@H@std@@2W4_Iostate@12@B
	??$_Debug_range@PAPA_K@std@@YAXPAPA_K0PB_WI@Z
	?breakTile@TiledOutputFile@Imf@@QAEXHHHHHHD@Z
	?deleteCachedBuffer@Data@InputFile@Imf@@QAEXXZ
	?floorLog2@?A0x893782d4@Imf@@YAHH@Z
	?makeNewAttribute@?$TypedAttribute@V?$Vec3@M@Imath@@@Imf@@SAPAVAttribute@2@XZ
