LIBRARY	Half
EXPORTS
	??0half@@QAE@XZ
	?showbase@?$_Iosb@H@std@@2W4_Fmtflags@12@B
	?_Rank@?$_Arithmetic_traits@H@std@@2HB
	?isNormalized@half@@QBE_NXZ
	?qNan@half@@SA?AV1@XZ
	??Yhalf@@QAEAAV0@V0@@Z
	?in@?$_Iosb@H@std@@2W4_Openmode@12@B
	?numeric@?$_Locbase@H@std@@2HB
	??0half@@QAE@M@Z
	??0_Sentry_base@?$basic_ostream@DU?$char_traits@D@std@@@std@@QAE@AAV12@@Z
	??Bhalf@@QBEMXZ
	?_Rank@?$_Arithmetic_traits@G@std@@2HB
	??Xhalf@@QAEAAV0@V0@@Z
	?isDenormalized@half@@QBE_NXZ
	?round@half@@QBE?AV1@I@Z
	??4half@@QAEAAV0@V0@@Z
	??6@YAAAV?$basic_ostream@DU?$char_traits@D@std@@@std@@AAV01@Vhalf@@@Z
	?ctype@?$_Locbase@H@std@@2HB
	??Ghalf@@QBE?AV0@XZ
	?eof@?$char_traits@D@std@@SAHXZ
	??4half@@QAEAAV0@M@Z
	??Yhalf@@QAEAAV0@M@Z
	?isInfinity@half@@QBE_NXZ
	??1_Sentry_base@?$basic_ostream@DU?$char_traits@D@std@@@std@@QAE@XZ
	?_Rank@?$_Arithmetic_traits@M@std@@2HB
	??Zhalf@@QAEAAV0@V0@@Z
	?printBits@@YAXQADVhalf@@@Z
	?value@?$integral_constant@I$0A@@tr1@std@@2IB
	??Zhalf@@QAEAAV0@M@Z
	?negInf@half@@SA?AV1@XZ
	??Xhalf@@QAEAAV0@M@Z
	?_Rank@?$_Arithmetic_traits@C@std@@2HB
	?isFinite@half@@QBE_NXZ
	?isZero@half@@QBE_NXZ
	?isNan@half@@QBE_NXZ
	?time@?$_Locbase@H@std@@2HB
	?isNegative@half@@QBE_NXZ
	?basefield@?$_Iosb@H@std@@2W4_Fmtflags@12@B
	?posInf@half@@SA?AV1@XZ
	??1sentry@?$basic_ostream@DU?$char_traits@D@std@@@std@@QAE@XZ
	?sNan@half@@SA?AV1@XZ
	?_Rank@?$_Arithmetic_traits@N@std@@2HB
	?bits@half@@QBEGXZ
	?printBits@@YAXAAV?$basic_ostream@DU?$char_traits@D@std@@@std@@Vhalf@@@Z
	?setBits@half@@QAEXG@Z
	?overflow@half@@CAMXZ
	?convert@half@@CAFH@Z
	??5@YAAAV?$basic_istream@DU?$char_traits@D@std@@@std@@AAV01@AAVhalf@@@Z
	?eofbit@?$_Iosb@H@std@@2W4_Iostate@12@B
	?_Rank@?$_Arithmetic_traits@J@std@@2HB
	?_Rank@?$_Arithmetic_traits@K@std@@2HB
	?_Rank@?$_Arithmetic_traits@_K@std@@2HB
	?_Rank@?$_Arithmetic_traits@_N@std@@2HB
	?printBits@@YAXAAV?$basic_ostream@DU?$char_traits@D@std@@@std@@M@Z
	?printBits@@YAXQADM@Z
	??$?6U?$char_traits@D@std@@@std@@YAAAV?$basic_ostream@DU?$char_traits@D@std@@@0@AAV10@D@Z
	?eq_int_type@?$char_traits@D@std@@SA_NABH0@Z
	??0sentry@?$basic_ostream@DU?$char_traits@D@std@@@std@@QAE@AAV12@@Z
	?badbit@?$_Iosb@H@std@@2W4_Iostate@12@B
	??Bsentry@?$basic_ostream@DU?$char_traits@D@std@@@std@@QBEPQ_Bool_struct@2@HXZ
	?collate@?$_Locbase@H@std@@2HB
	?value@?$integral_constant@_N$0A@@tr1@std@@2_NB
	?value@?$integral_constant@_N$00@tr1@std@@2_NB
	?_Rank@?$_Arithmetic_traits@D@std@@2HB
	?_Rank@?$_Arithmetic_traits@E@std@@2HB
	?_Rank@?$_Arithmetic_traits@F@std@@2HB
	?boolalpha@?$_Iosb@H@std@@2W4_Fmtflags@12@B
	?_Rank@?$_Arithmetic_traits@I@std@@2HB
	?_Rank@?$_Arithmetic_traits@_J@std@@2HB
	?_Rank@?$_Arithmetic_traits@O@std@@2HB
	?_toFloat@half@@0PATuif@1@A
	?monetary@?$_Locbase@H@std@@2HB
	?messages@?$_Locbase@H@std@@2HB
	?all@?$_Locbase@H@std@@2HB
	?floatfield@?$_Iosb@H@std@@2W4_Fmtflags@12@B
	?none@?$_Locbase@H@std@@2HB
	?skipws@?$_Iosb@H@std@@2W4_Fmtflags@12@B
	?unitbuf@?$_Iosb@H@std@@2W4_Fmtflags@12@B
	?uppercase@?$_Iosb@H@std@@2W4_Fmtflags@12@B
	?showpoint@?$_Iosb@H@std@@2W4_Fmtflags@12@B
	?showpos@?$_Iosb@H@std@@2W4_Fmtflags@12@B
	?left@?$_Iosb@H@std@@2W4_Fmtflags@12@B
	?right@?$_Iosb@H@std@@2W4_Fmtflags@12@B
	?internal@?$_Iosb@H@std@@2W4_Fmtflags@12@B
	?dec@?$_Iosb@H@std@@2W4_Fmtflags@12@B
	?oct@?$_Iosb@H@std@@2W4_Fmtflags@12@B
	?hex@?$_Iosb@H@std@@2W4_Fmtflags@12@B
	?scientific@?$_Iosb@H@std@@2W4_Fmtflags@12@B
	?fixed@?$_Iosb@H@std@@2W4_Fmtflags@12@B
	?hexfloat@?$_Iosb@H@std@@2W4_Fmtflags@12@B
	?_Stdio@?$_Iosb@H@std@@2W4_Fmtflags@12@B
	?adjustfield@?$_Iosb@H@std@@2W4_Fmtflags@12@B
	?goodbit@?$_Iosb@H@std@@2W4_Iostate@12@B
	?failbit@?$_Iosb@H@std@@2W4_Iostate@12@B
	?_Hardfail@?$_Iosb@H@std@@2W4_Iostate@12@B
	?out@?$_Iosb@H@std@@2W4_Openmode@12@B
	?_eLut@half@@0PAGA
	?ate@?$_Iosb@H@std@@2W4_Openmode@12@B
	?app@?$_Iosb@H@std@@2W4_Openmode@12@B
	?trunc@?$_Iosb@H@std@@2W4_Openmode@12@B
	?_Nocreate@?$_Iosb@H@std@@2W4_Openmode@12@B
	?_Noreplace@?$_Iosb@H@std@@2W4_Openmode@12@B
	?binary@?$_Iosb@H@std@@2W4_Openmode@12@B
	?beg@?$_Iosb@H@std@@2W4_Seekdir@12@B
	?cur@?$_Iosb@H@std@@2W4_Seekdir@12@B
	?end@?$_Iosb@H@std@@2W4_Seekdir@12@B
